Archive member included to satisfy reference by file (symbol)

/home/user/Devel/stm32/libopencm3/lib/libopencm3_stm32f4.a(rcc.o)
                              ././drivers/system/clock.o (rcc_clock_setup_hse_3v3)
/home/user/Devel/stm32/libopencm3/lib/libopencm3_stm32f4.a(dma_common_f24.o)
                              ././drivers/display/display.o (dma_stream_reset)
/home/user/Devel/stm32/libopencm3/lib/libopencm3_stm32f4.a(gpio_common_all.o)
                              ././drivers/display/ts_tsc2007.o (gpio_set)
/home/user/Devel/stm32/libopencm3/lib/libopencm3_stm32f4.a(gpio_common_f0234.o)
                              ././drivers/i2c/i2c.o (gpio_mode_setup)
/home/user/Devel/stm32/libopencm3/lib/libopencm3_stm32f4.a(i2c_common_v1.o)
                              ././drivers/i2c/i2c.o (i2c_reset)
/home/user/Devel/stm32/libopencm3/lib/libopencm3_stm32f4.a(spi_common_all.o)
                              ././drivers/display/display.o (spi_reset)
/home/user/Devel/stm32/libopencm3/lib/libopencm3_stm32f4.a(spi_common_l1f124.o)
                              ././drivers/display/display.o (spi_set_dff_8bit)
/home/user/Devel/stm32/libopencm3/lib/libopencm3_stm32f4.a(usart_common_all.o)
                              ././drivers/duart/duart.o (usart_set_baudrate)
/home/user/Devel/stm32/libopencm3/lib/libopencm3_stm32f4.a(usart_common_f124.o)
                              /home/user/Devel/stm32/libopencm3/lib/libopencm3_stm32f4.a(usart_common_all.o) (usart_send)
/home/user/Devel/stm32/libopencm3/lib/libopencm3_stm32f4.a(flash_common_f234.o)
                              /home/user/Devel/stm32/libopencm3/lib/libopencm3_stm32f4.a(rcc.o) (flash_set_ws)
/home/user/Devel/stm32/libopencm3/lib/libopencm3_stm32f4.a(flash_common_f24.o)
                              ././drivers/usb/mew_usb_hid.o (flash_program)
/home/user/Devel/stm32/libopencm3/lib/libopencm3_stm32f4.a(exti_common_all.o)
                              ././drivers/display/ts_tsc2007.o (exti_set_trigger)
/home/user/Devel/stm32/libopencm3/lib/libopencm3_stm32f4.a(rcc_common_all.o)
                              ././drivers/system/clock.o (rcc_periph_clock_enable)
/home/user/Devel/stm32/libopencm3/lib/libopencm3_stm32f4.a(usb.o)
                              ././drivers/usb/mew_usb_hid.o (usbd_init)
/home/user/Devel/stm32/libopencm3/lib/libopencm3_stm32f4.a(usb_standard.o)
                              ././drivers/usb/mew_usb_hid.o (usbd_register_set_config_callback)
/home/user/Devel/stm32/libopencm3/lib/libopencm3_stm32f4.a(usb_control.o)
                              ././drivers/usb/mew_usb_hid.o (usbd_register_control_callback)
/home/user/Devel/stm32/libopencm3/lib/libopencm3_stm32f4.a(usb_f107.o)
                              ././drivers/usb/mew_usb_hid.o (stm32f107_usb_driver)
/home/user/Devel/stm32/libopencm3/lib/libopencm3_stm32f4.a(vector.o)
                              (reset_handler)
/home/user/Devel/stm32/libopencm3/lib/libopencm3_stm32f4.a(systick.o)
                              ././drivers/system/systick.o (systick_set_reload)
/home/user/Devel/stm32/libopencm3/lib/libopencm3_stm32f4.a(nvic.o)
                              ././drivers/display/ts_tsc2007.o (nvic_enable_irq)
/home/user/Devel/stm32/libopencm3/lib/libopencm3_stm32f4.a(pwr.o)
                              /home/user/Devel/stm32/libopencm3/lib/libopencm3_stm32f4.a(rcc.o) (pwr_set_vos_scale)
/home/user/Devel/stm32/libopencm3/lib/libopencm3_stm32f4.a(usb_fx07_common.o)
                              /home/user/Devel/stm32/libopencm3/lib/libopencm3_stm32f4.a(usb_f107.o) (stm32fx07_set_address)
/home/user/Devel/stm32/gcc-arm-none-eabi-8-2018-q4-major/bin/../lib/gcc/arm-none-eabi/8.2.1/../../../../arm-none-eabi/lib/thumb/v7e-m+fp/hard/libc_nano.a(lib_a-memcmp.o)
                              ././drivers/i2c/i2c.o (memcmp)
/home/user/Devel/stm32/gcc-arm-none-eabi-8-2018-q4-major/bin/../lib/gcc/arm-none-eabi/8.2.1/../../../../arm-none-eabi/lib/thumb/v7e-m+fp/hard/libc_nano.a(lib_a-memcpy-stub.o)
                              ././drivers/usb/mew_usb_hid.o (memcpy)
/home/user/Devel/stm32/gcc-arm-none-eabi-8-2018-q4-major/bin/../lib/gcc/arm-none-eabi/8.2.1/../../../../arm-none-eabi/lib/thumb/v7e-m+fp/hard/libc_nano.a(lib_a-memset.o)
                              ././drivers/usb/mew_usb_hid.o (memset)
/home/user/Devel/stm32/gcc-arm-none-eabi-8-2018-q4-major/bin/../lib/gcc/arm-none-eabi/8.2.1/../../../../arm-none-eabi/lib/thumb/v7e-m+fp/hard/libc_nano.a(lib_a-sprintf.o)
                              ././drivers/usb/mew_usb_hid.o (sprintf)
/home/user/Devel/stm32/gcc-arm-none-eabi-8-2018-q4-major/bin/../lib/gcc/arm-none-eabi/8.2.1/../../../../arm-none-eabi/lib/thumb/v7e-m+fp/hard/libc_nano.a(lib_a-strlen.o)
                              ././drivers/usb/mew_usb_hid.o (strlen)
/home/user/Devel/stm32/gcc-arm-none-eabi-8-2018-q4-major/bin/../lib/gcc/arm-none-eabi/8.2.1/../../../../arm-none-eabi/lib/thumb/v7e-m+fp/hard/libc_nano.a(lib_a-impure.o)
                              /home/user/Devel/stm32/gcc-arm-none-eabi-8-2018-q4-major/bin/../lib/gcc/arm-none-eabi/8.2.1/../../../../arm-none-eabi/lib/thumb/v7e-m+fp/hard/libc_nano.a(lib_a-sprintf.o) (_impure_ptr)
/home/user/Devel/stm32/gcc-arm-none-eabi-8-2018-q4-major/bin/../lib/gcc/arm-none-eabi/8.2.1/../../../../arm-none-eabi/lib/thumb/v7e-m+fp/hard/libc_nano.a(lib_a-nano-svfprintf.o)
                              /home/user/Devel/stm32/gcc-arm-none-eabi-8-2018-q4-major/bin/../lib/gcc/arm-none-eabi/8.2.1/../../../../arm-none-eabi/lib/thumb/v7e-m+fp/hard/libc_nano.a(lib_a-sprintf.o) (_svfprintf_r)
/home/user/Devel/stm32/gcc-arm-none-eabi-8-2018-q4-major/bin/../lib/gcc/arm-none-eabi/8.2.1/../../../../arm-none-eabi/lib/thumb/v7e-m+fp/hard/libc_nano.a(lib_a-nano-vfprintf_i.o)
                              /home/user/Devel/stm32/gcc-arm-none-eabi-8-2018-q4-major/bin/../lib/gcc/arm-none-eabi/8.2.1/../../../../arm-none-eabi/lib/thumb/v7e-m+fp/hard/libc_nano.a(lib_a-nano-svfprintf.o) (_printf_i)
/home/user/Devel/stm32/gcc-arm-none-eabi-8-2018-q4-major/bin/../lib/gcc/arm-none-eabi/8.2.1/../../../../arm-none-eabi/lib/thumb/v7e-m+fp/hard/libc_nano.a(lib_a-memchr.o)
                              /home/user/Devel/stm32/gcc-arm-none-eabi-8-2018-q4-major/bin/../lib/gcc/arm-none-eabi/8.2.1/../../../../arm-none-eabi/lib/thumb/v7e-m+fp/hard/libc_nano.a(lib_a-nano-svfprintf.o) (memchr)
/home/user/Devel/stm32/gcc-arm-none-eabi-8-2018-q4-major/bin/../lib/gcc/arm-none-eabi/8.2.1/../../../../arm-none-eabi/lib/thumb/v7e-m+fp/hard/libc_nano.a(lib_a-memmove.o)
                              /home/user/Devel/stm32/gcc-arm-none-eabi-8-2018-q4-major/bin/../lib/gcc/arm-none-eabi/8.2.1/../../../../arm-none-eabi/lib/thumb/v7e-m+fp/hard/libc_nano.a(lib_a-nano-svfprintf.o) (memmove)
/home/user/Devel/stm32/gcc-arm-none-eabi-8-2018-q4-major/bin/../lib/gcc/arm-none-eabi/8.2.1/../../../../arm-none-eabi/lib/thumb/v7e-m+fp/hard/libc_nano.a(lib_a-nano-freer.o)
                              /home/user/Devel/stm32/gcc-arm-none-eabi-8-2018-q4-major/bin/../lib/gcc/arm-none-eabi/8.2.1/../../../../arm-none-eabi/lib/thumb/v7e-m+fp/hard/libc_nano.a(lib_a-nano-svfprintf.o) (_free_r)
/home/user/Devel/stm32/gcc-arm-none-eabi-8-2018-q4-major/bin/../lib/gcc/arm-none-eabi/8.2.1/../../../../arm-none-eabi/lib/thumb/v7e-m+fp/hard/libc_nano.a(lib_a-nano-mallocr.o)
                              /home/user/Devel/stm32/gcc-arm-none-eabi-8-2018-q4-major/bin/../lib/gcc/arm-none-eabi/8.2.1/../../../../arm-none-eabi/lib/thumb/v7e-m+fp/hard/libc_nano.a(lib_a-nano-svfprintf.o) (_malloc_r)
/home/user/Devel/stm32/gcc-arm-none-eabi-8-2018-q4-major/bin/../lib/gcc/arm-none-eabi/8.2.1/../../../../arm-none-eabi/lib/thumb/v7e-m+fp/hard/libc_nano.a(lib_a-nano-reallocr.o)
                              /home/user/Devel/stm32/gcc-arm-none-eabi-8-2018-q4-major/bin/../lib/gcc/arm-none-eabi/8.2.1/../../../../arm-none-eabi/lib/thumb/v7e-m+fp/hard/libc_nano.a(lib_a-nano-svfprintf.o) (_realloc_r)
/home/user/Devel/stm32/gcc-arm-none-eabi-8-2018-q4-major/bin/../lib/gcc/arm-none-eabi/8.2.1/../../../../arm-none-eabi/lib/thumb/v7e-m+fp/hard/libc_nano.a(lib_a-sbrkr.o)
                              /home/user/Devel/stm32/gcc-arm-none-eabi-8-2018-q4-major/bin/../lib/gcc/arm-none-eabi/8.2.1/../../../../arm-none-eabi/lib/thumb/v7e-m+fp/hard/libc_nano.a(lib_a-nano-mallocr.o) (_sbrk_r)
/home/user/Devel/stm32/gcc-arm-none-eabi-8-2018-q4-major/bin/../lib/gcc/arm-none-eabi/8.2.1/../../../../arm-none-eabi/lib/thumb/v7e-m+fp/hard/libc_nano.a(lib_a-mlock.o)
                              /home/user/Devel/stm32/gcc-arm-none-eabi-8-2018-q4-major/bin/../lib/gcc/arm-none-eabi/8.2.1/../../../../arm-none-eabi/lib/thumb/v7e-m+fp/hard/libc_nano.a(lib_a-nano-freer.o) (__malloc_lock)
/home/user/Devel/stm32/gcc-arm-none-eabi-8-2018-q4-major/bin/../lib/gcc/arm-none-eabi/8.2.1/../../../../arm-none-eabi/lib/thumb/v7e-m+fp/hard/libc_nano.a(lib_a-nano-msizer.o)
                              /home/user/Devel/stm32/gcc-arm-none-eabi-8-2018-q4-major/bin/../lib/gcc/arm-none-eabi/8.2.1/../../../../arm-none-eabi/lib/thumb/v7e-m+fp/hard/libc_nano.a(lib_a-nano-reallocr.o) (_malloc_usable_size_r)
/home/user/Devel/stm32/gcc-arm-none-eabi-8-2018-q4-major/bin/../lib/gcc/arm-none-eabi/8.2.1/../../../../arm-none-eabi/lib/thumb/v7e-m+fp/hard/libc_nano.a(lib_a-reent.o)
                              /home/user/Devel/stm32/gcc-arm-none-eabi-8-2018-q4-major/bin/../lib/gcc/arm-none-eabi/8.2.1/../../../../arm-none-eabi/lib/thumb/v7e-m+fp/hard/libc_nano.a(lib_a-sbrkr.o) (errno)
/home/user/Devel/stm32/gcc-arm-none-eabi-8-2018-q4-major/bin/../lib/gcc/arm-none-eabi/8.2.1/../../../../arm-none-eabi/lib/thumb/v7e-m+fp/hard/libc_nano.a(lib_a-lock.o)
                              /home/user/Devel/stm32/gcc-arm-none-eabi-8-2018-q4-major/bin/../lib/gcc/arm-none-eabi/8.2.1/../../../../arm-none-eabi/lib/thumb/v7e-m+fp/hard/libc_nano.a(lib_a-mlock.o) (__retarget_lock_acquire_recursive)
/home/user/Devel/stm32/gcc-arm-none-eabi-8-2018-q4-major/bin/../lib/gcc/arm-none-eabi/8.2.1/../../../../arm-none-eabi/lib/thumb/v7e-m+fp/hard/libnosys.a(sbrk.o)
                              /home/user/Devel/stm32/gcc-arm-none-eabi-8-2018-q4-major/bin/../lib/gcc/arm-none-eabi/8.2.1/../../../../arm-none-eabi/lib/thumb/v7e-m+fp/hard/libc_nano.a(lib_a-sbrkr.o) (_sbrk)

Allocating common symbols
Common symbol       size              file

__lock___atexit_recursive_mutex
                    0x1               /home/user/Devel/stm32/gcc-arm-none-eabi-8-2018-q4-major/bin/../lib/gcc/arm-none-eabi/8.2.1/../../../../arm-none-eabi/lib/thumb/v7e-m+fp/hard/libc_nano.a(lib_a-lock.o)
__lock___arc4random_mutex
                    0x1               /home/user/Devel/stm32/gcc-arm-none-eabi-8-2018-q4-major/bin/../lib/gcc/arm-none-eabi/8.2.1/../../../../arm-none-eabi/lib/thumb/v7e-m+fp/hard/libc_nano.a(lib_a-lock.o)
errno               0x4               /home/user/Devel/stm32/gcc-arm-none-eabi-8-2018-q4-major/bin/../lib/gcc/arm-none-eabi/8.2.1/../../../../arm-none-eabi/lib/thumb/v7e-m+fp/hard/libc_nano.a(lib_a-reent.o)
__lock___env_recursive_mutex
                    0x1               /home/user/Devel/stm32/gcc-arm-none-eabi-8-2018-q4-major/bin/../lib/gcc/arm-none-eabi/8.2.1/../../../../arm-none-eabi/lib/thumb/v7e-m+fp/hard/libc_nano.a(lib_a-lock.o)
__lock___sinit_recursive_mutex
                    0x1               /home/user/Devel/stm32/gcc-arm-none-eabi-8-2018-q4-major/bin/../lib/gcc/arm-none-eabi/8.2.1/../../../../arm-none-eabi/lib/thumb/v7e-m+fp/hard/libc_nano.a(lib_a-lock.o)
__lock___malloc_recursive_mutex
                    0x1               /home/user/Devel/stm32/gcc-arm-none-eabi-8-2018-q4-major/bin/../lib/gcc/arm-none-eabi/8.2.1/../../../../arm-none-eabi/lib/thumb/v7e-m+fp/hard/libc_nano.a(lib_a-lock.o)
__lock___at_quick_exit_mutex
                    0x1               /home/user/Devel/stm32/gcc-arm-none-eabi-8-2018-q4-major/bin/../lib/gcc/arm-none-eabi/8.2.1/../../../../arm-none-eabi/lib/thumb/v7e-m+fp/hard/libc_nano.a(lib_a-lock.o)
__lock___dd_hash_mutex
                    0x1               /home/user/Devel/stm32/gcc-arm-none-eabi-8-2018-q4-major/bin/../lib/gcc/arm-none-eabi/8.2.1/../../../../arm-none-eabi/lib/thumb/v7e-m+fp/hard/libc_nano.a(lib_a-lock.o)
__lock___tz_mutex   0x1               /home/user/Devel/stm32/gcc-arm-none-eabi-8-2018-q4-major/bin/../lib/gcc/arm-none-eabi/8.2.1/../../../../arm-none-eabi/lib/thumb/v7e-m+fp/hard/libc_nano.a(lib_a-lock.o)
__lock___sfp_recursive_mutex
                    0x1               /home/user/Devel/stm32/gcc-arm-none-eabi-8-2018-q4-major/bin/../lib/gcc/arm-none-eabi/8.2.1/../../../../arm-none-eabi/lib/thumb/v7e-m+fp/hard/libc_nano.a(lib_a-lock.o)

Discarded input sections

 .group         0x0000000000000000        0x8 /home/user/Devel/stm32/libopencm3/lib/libopencm3_stm32f4.a(rcc.o)
 .group         0x0000000000000000        0x8 /home/user/Devel/stm32/libopencm3/lib/libopencm3_stm32f4.a(rcc.o)
 .group         0x0000000000000000        0x8 /home/user/Devel/stm32/libopencm3/lib/libopencm3_stm32f4.a(rcc.o)
 .group         0x0000000000000000        0x8 /home/user/Devel/stm32/libopencm3/lib/libopencm3_stm32f4.a(rcc.o)
 .group         0x0000000000000000        0x8 /home/user/Devel/stm32/libopencm3/lib/libopencm3_stm32f4.a(rcc.o)
 .group         0x0000000000000000        0x8 /home/user/Devel/stm32/libopencm3/lib/libopencm3_stm32f4.a(rcc.o)
 .group         0x0000000000000000        0x8 /home/user/Devel/stm32/libopencm3/lib/libopencm3_stm32f4.a(rcc.o)
 .group         0x0000000000000000        0x8 /home/user/Devel/stm32/libopencm3/lib/libopencm3_stm32f4.a(rcc.o)
 .group         0x0000000000000000        0x8 /home/user/Devel/stm32/libopencm3/lib/libopencm3_stm32f4.a(rcc.o)
 .group         0x0000000000000000        0x8 /home/user/Devel/stm32/libopencm3/lib/libopencm3_stm32f4.a(rcc.o)
 .group         0x0000000000000000        0x8 /home/user/Devel/stm32/libopencm3/lib/libopencm3_stm32f4.a(rcc.o)
 .group         0x0000000000000000        0x8 /home/user/Devel/stm32/libopencm3/lib/libopencm3_stm32f4.a(rcc.o)
 .group         0x0000000000000000        0x8 /home/user/Devel/stm32/libopencm3/lib/libopencm3_stm32f4.a(rcc.o)
 .group         0x0000000000000000        0x8 /home/user/Devel/stm32/libopencm3/lib/libopencm3_stm32f4.a(rcc.o)
 .group         0x0000000000000000        0x8 /home/user/Devel/stm32/libopencm3/lib/libopencm3_stm32f4.a(rcc.o)
 .group         0x0000000000000000        0x8 /home/user/Devel/stm32/libopencm3/lib/libopencm3_stm32f4.a(rcc.o)
 .group         0x0000000000000000        0x8 /home/user/Devel/stm32/libopencm3/lib/libopencm3_stm32f4.a(rcc.o)
 .group         0x0000000000000000        0x8 /home/user/Devel/stm32/libopencm3/lib/libopencm3_stm32f4.a(dma_common_f24.o)
 .group         0x0000000000000000        0x8 /home/user/Devel/stm32/libopencm3/lib/libopencm3_stm32f4.a(dma_common_f24.o)
 .group         0x0000000000000000        0x8 /home/user/Devel/stm32/libopencm3/lib/libopencm3_stm32f4.a(dma_common_f24.o)
 .group         0x0000000000000000        0x8 /home/user/Devel/stm32/libopencm3/lib/libopencm3_stm32f4.a(dma_common_f24.o)
 .group         0x0000000000000000        0x8 /home/user/Devel/stm32/libopencm3/lib/libopencm3_stm32f4.a(dma_common_f24.o)
 .group         0x0000000000000000        0x8 /home/user/Devel/stm32/libopencm3/lib/libopencm3_stm32f4.a(dma_common_f24.o)
 .group         0x0000000000000000        0x8 /home/user/Devel/stm32/libopencm3/lib/libopencm3_stm32f4.a(dma_common_f24.o)
 .group         0x0000000000000000        0x8 /home/user/Devel/stm32/libopencm3/lib/libopencm3_stm32f4.a(dma_common_f24.o)
 .group         0x0000000000000000        0x8 /home/user/Devel/stm32/libopencm3/lib/libopencm3_stm32f4.a(dma_common_f24.o)
 .group         0x0000000000000000        0x8 /home/user/Devel/stm32/libopencm3/lib/libopencm3_stm32f4.a(dma_common_f24.o)
 .group         0x0000000000000000        0x8 /home/user/Devel/stm32/libopencm3/lib/libopencm3_stm32f4.a(dma_common_f24.o)
 .group         0x0000000000000000        0x8 /home/user/Devel/stm32/libopencm3/lib/libopencm3_stm32f4.a(dma_common_f24.o)
 .debug_macro   0x0000000000000000      0x88c /home/user/Devel/stm32/libopencm3/lib/libopencm3_stm32f4.a(dma_common_f24.o)
 .debug_macro   0x0000000000000000       0x22 /home/user/Devel/stm32/libopencm3/lib/libopencm3_stm32f4.a(dma_common_f24.o)
 .debug_macro   0x0000000000000000       0x87 /home/user/Devel/stm32/libopencm3/lib/libopencm3_stm32f4.a(dma_common_f24.o)
 .debug_macro   0x0000000000000000       0x44 /home/user/Devel/stm32/libopencm3/lib/libopencm3_stm32f4.a(dma_common_f24.o)
 .debug_macro   0x0000000000000000       0xfd /home/user/Devel/stm32/libopencm3/lib/libopencm3_stm32f4.a(dma_common_f24.o)
 .debug_macro   0x0000000000000000       0x5e /home/user/Devel/stm32/libopencm3/lib/libopencm3_stm32f4.a(dma_common_f24.o)
 .debug_macro   0x0000000000000000      0x1df /home/user/Devel/stm32/libopencm3/lib/libopencm3_stm32f4.a(dma_common_f24.o)
 .debug_macro   0x0000000000000000       0x22 /home/user/Devel/stm32/libopencm3/lib/libopencm3_stm32f4.a(dma_common_f24.o)
 .debug_macro   0x0000000000000000       0xfa /home/user/Devel/stm32/libopencm3/lib/libopencm3_stm32f4.a(dma_common_f24.o)
 .debug_macro   0x0000000000000000       0x58 /home/user/Devel/stm32/libopencm3/lib/libopencm3_stm32f4.a(dma_common_f24.o)
 .debug_macro   0x0000000000000000      0x26d /home/user/Devel/stm32/libopencm3/lib/libopencm3_stm32f4.a(dma_common_f24.o)
 .group         0x0000000000000000        0x8 /home/user/Devel/stm32/libopencm3/lib/libopencm3_stm32f4.a(gpio_common_all.o)
 .group         0x0000000000000000        0x8 /home/user/Devel/stm32/libopencm3/lib/libopencm3_stm32f4.a(gpio_common_all.o)
 .group         0x0000000000000000        0x8 /home/user/Devel/stm32/libopencm3/lib/libopencm3_stm32f4.a(gpio_common_all.o)
 .group         0x0000000000000000        0x8 /home/user/Devel/stm32/libopencm3/lib/libopencm3_stm32f4.a(gpio_common_all.o)
 .group         0x0000000000000000        0x8 /home/user/Devel/stm32/libopencm3/lib/libopencm3_stm32f4.a(gpio_common_all.o)
 .group         0x0000000000000000        0x8 /home/user/Devel/stm32/libopencm3/lib/libopencm3_stm32f4.a(gpio_common_all.o)
 .group         0x0000000000000000        0x8 /home/user/Devel/stm32/libopencm3/lib/libopencm3_stm32f4.a(gpio_common_all.o)
 .group         0x0000000000000000        0x8 /home/user/Devel/stm32/libopencm3/lib/libopencm3_stm32f4.a(gpio_common_all.o)
 .group         0x0000000000000000        0x8 /home/user/Devel/stm32/libopencm3/lib/libopencm3_stm32f4.a(gpio_common_all.o)
 .group         0x0000000000000000        0x8 /home/user/Devel/stm32/libopencm3/lib/libopencm3_stm32f4.a(gpio_common_all.o)
 .group         0x0000000000000000        0x8 /home/user/Devel/stm32/libopencm3/lib/libopencm3_stm32f4.a(gpio_common_all.o)
 .group         0x0000000000000000        0x8 /home/user/Devel/stm32/libopencm3/lib/libopencm3_stm32f4.a(gpio_common_all.o)
 .group         0x0000000000000000        0x8 /home/user/Devel/stm32/libopencm3/lib/libopencm3_stm32f4.a(gpio_common_all.o)
 .group         0x0000000000000000        0x8 /home/user/Devel/stm32/libopencm3/lib/libopencm3_stm32f4.a(gpio_common_all.o)
 .debug_macro   0x0000000000000000      0x88c /home/user/Devel/stm32/libopencm3/lib/libopencm3_stm32f4.a(gpio_common_all.o)
 .debug_macro   0x0000000000000000       0x22 /home/user/Devel/stm32/libopencm3/lib/libopencm3_stm32f4.a(gpio_common_all.o)
 .debug_macro   0x0000000000000000       0x87 /home/user/Devel/stm32/libopencm3/lib/libopencm3_stm32f4.a(gpio_common_all.o)
 .debug_macro   0x0000000000000000       0x44 /home/user/Devel/stm32/libopencm3/lib/libopencm3_stm32f4.a(gpio_common_all.o)
 .debug_macro   0x0000000000000000       0xfd /home/user/Devel/stm32/libopencm3/lib/libopencm3_stm32f4.a(gpio_common_all.o)
 .debug_macro   0x0000000000000000       0x5e /home/user/Devel/stm32/libopencm3/lib/libopencm3_stm32f4.a(gpio_common_all.o)
 .debug_macro   0x0000000000000000      0x1df /home/user/Devel/stm32/libopencm3/lib/libopencm3_stm32f4.a(gpio_common_all.o)
 .debug_macro   0x0000000000000000       0x22 /home/user/Devel/stm32/libopencm3/lib/libopencm3_stm32f4.a(gpio_common_all.o)
 .debug_macro   0x0000000000000000       0xfa /home/user/Devel/stm32/libopencm3/lib/libopencm3_stm32f4.a(gpio_common_all.o)
 .debug_macro   0x0000000000000000       0x58 /home/user/Devel/stm32/libopencm3/lib/libopencm3_stm32f4.a(gpio_common_all.o)
 .debug_macro   0x0000000000000000      0x26d /home/user/Devel/stm32/libopencm3/lib/libopencm3_stm32f4.a(gpio_common_all.o)
 .group         0x0000000000000000        0x8 /home/user/Devel/stm32/libopencm3/lib/libopencm3_stm32f4.a(gpio_common_f0234.o)
 .group         0x0000000000000000        0x8 /home/user/Devel/stm32/libopencm3/lib/libopencm3_stm32f4.a(gpio_common_f0234.o)
 .group         0x0000000000000000        0x8 /home/user/Devel/stm32/libopencm3/lib/libopencm3_stm32f4.a(gpio_common_f0234.o)
 .group         0x0000000000000000        0x8 /home/user/Devel/stm32/libopencm3/lib/libopencm3_stm32f4.a(gpio_common_f0234.o)
 .group         0x0000000000000000        0x8 /home/user/Devel/stm32/libopencm3/lib/libopencm3_stm32f4.a(gpio_common_f0234.o)
 .group         0x0000000000000000        0x8 /home/user/Devel/stm32/libopencm3/lib/libopencm3_stm32f4.a(gpio_common_f0234.o)
 .group         0x0000000000000000        0x8 /home/user/Devel/stm32/libopencm3/lib/libopencm3_stm32f4.a(gpio_common_f0234.o)
 .group         0x0000000000000000        0x8 /home/user/Devel/stm32/libopencm3/lib/libopencm3_stm32f4.a(gpio_common_f0234.o)
 .group         0x0000000000000000        0x8 /home/user/Devel/stm32/libopencm3/lib/libopencm3_stm32f4.a(gpio_common_f0234.o)
 .group         0x0000000000000000        0x8 /home/user/Devel/stm32/libopencm3/lib/libopencm3_stm32f4.a(gpio_common_f0234.o)
 .group         0x0000000000000000        0x8 /home/user/Devel/stm32/libopencm3/lib/libopencm3_stm32f4.a(gpio_common_f0234.o)
 .group         0x0000000000000000        0x8 /home/user/Devel/stm32/libopencm3/lib/libopencm3_stm32f4.a(gpio_common_f0234.o)
 .group         0x0000000000000000        0x8 /home/user/Devel/stm32/libopencm3/lib/libopencm3_stm32f4.a(gpio_common_f0234.o)
 .group         0x0000000000000000        0x8 /home/user/Devel/stm32/libopencm3/lib/libopencm3_stm32f4.a(gpio_common_f0234.o)
 .debug_macro   0x0000000000000000      0x88c /home/user/Devel/stm32/libopencm3/lib/libopencm3_stm32f4.a(gpio_common_f0234.o)
 .debug_macro   0x0000000000000000       0x22 /home/user/Devel/stm32/libopencm3/lib/libopencm3_stm32f4.a(gpio_common_f0234.o)
 .debug_macro   0x0000000000000000       0x87 /home/user/Devel/stm32/libopencm3/lib/libopencm3_stm32f4.a(gpio_common_f0234.o)
 .debug_macro   0x0000000000000000       0x44 /home/user/Devel/stm32/libopencm3/lib/libopencm3_stm32f4.a(gpio_common_f0234.o)
 .debug_macro   0x0000000000000000       0xfd /home/user/Devel/stm32/libopencm3/lib/libopencm3_stm32f4.a(gpio_common_f0234.o)
 .debug_macro   0x0000000000000000       0x5e /home/user/Devel/stm32/libopencm3/lib/libopencm3_stm32f4.a(gpio_common_f0234.o)
 .debug_macro   0x0000000000000000      0x1df /home/user/Devel/stm32/libopencm3/lib/libopencm3_stm32f4.a(gpio_common_f0234.o)
 .debug_macro   0x0000000000000000       0x22 /home/user/Devel/stm32/libopencm3/lib/libopencm3_stm32f4.a(gpio_common_f0234.o)
 .debug_macro   0x0000000000000000       0xfa /home/user/Devel/stm32/libopencm3/lib/libopencm3_stm32f4.a(gpio_common_f0234.o)
 .debug_macro   0x0000000000000000       0x58 /home/user/Devel/stm32/libopencm3/lib/libopencm3_stm32f4.a(gpio_common_f0234.o)
 .debug_macro   0x0000000000000000      0x26d /home/user/Devel/stm32/libopencm3/lib/libopencm3_stm32f4.a(gpio_common_f0234.o)
 .debug_macro   0x0000000000000000       0x76 /home/user/Devel/stm32/libopencm3/lib/libopencm3_stm32f4.a(gpio_common_f0234.o)
 .debug_macro   0x0000000000000000      0x2e6 /home/user/Devel/stm32/libopencm3/lib/libopencm3_stm32f4.a(gpio_common_f0234.o)
 .debug_macro   0x0000000000000000      0x14e /home/user/Devel/stm32/libopencm3/lib/libopencm3_stm32f4.a(gpio_common_f0234.o)
 .group         0x0000000000000000        0x8 /home/user/Devel/stm32/libopencm3/lib/libopencm3_stm32f4.a(i2c_common_v1.o)
 .group         0x0000000000000000        0x8 /home/user/Devel/stm32/libopencm3/lib/libopencm3_stm32f4.a(i2c_common_v1.o)
 .group         0x0000000000000000        0x8 /home/user/Devel/stm32/libopencm3/lib/libopencm3_stm32f4.a(i2c_common_v1.o)
 .group         0x0000000000000000        0x8 /home/user/Devel/stm32/libopencm3/lib/libopencm3_stm32f4.a(i2c_common_v1.o)
 .group         0x0000000000000000        0x8 /home/user/Devel/stm32/libopencm3/lib/libopencm3_stm32f4.a(i2c_common_v1.o)
 .group         0x0000000000000000        0x8 /home/user/Devel/stm32/libopencm3/lib/libopencm3_stm32f4.a(i2c_common_v1.o)
 .group         0x0000000000000000        0x8 /home/user/Devel/stm32/libopencm3/lib/libopencm3_stm32f4.a(i2c_common_v1.o)
 .group         0x0000000000000000        0x8 /home/user/Devel/stm32/libopencm3/lib/libopencm3_stm32f4.a(i2c_common_v1.o)
 .group         0x0000000000000000        0x8 /home/user/Devel/stm32/libopencm3/lib/libopencm3_stm32f4.a(i2c_common_v1.o)
 .group         0x0000000000000000        0x8 /home/user/Devel/stm32/libopencm3/lib/libopencm3_stm32f4.a(i2c_common_v1.o)
 .group         0x0000000000000000        0x8 /home/user/Devel/stm32/libopencm3/lib/libopencm3_stm32f4.a(i2c_common_v1.o)
 .group         0x0000000000000000        0x8 /home/user/Devel/stm32/libopencm3/lib/libopencm3_stm32f4.a(i2c_common_v1.o)
 .group         0x0000000000000000        0x8 /home/user/Devel/stm32/libopencm3/lib/libopencm3_stm32f4.a(i2c_common_v1.o)
 .group         0x0000000000000000        0x8 /home/user/Devel/stm32/libopencm3/lib/libopencm3_stm32f4.a(i2c_common_v1.o)
 .debug_macro   0x0000000000000000      0x88c /home/user/Devel/stm32/libopencm3/lib/libopencm3_stm32f4.a(i2c_common_v1.o)
 .debug_macro   0x0000000000000000       0x22 /home/user/Devel/stm32/libopencm3/lib/libopencm3_stm32f4.a(i2c_common_v1.o)
 .debug_macro   0x0000000000000000       0x87 /home/user/Devel/stm32/libopencm3/lib/libopencm3_stm32f4.a(i2c_common_v1.o)
 .debug_macro   0x0000000000000000       0x44 /home/user/Devel/stm32/libopencm3/lib/libopencm3_stm32f4.a(i2c_common_v1.o)
 .debug_macro   0x0000000000000000       0xfd /home/user/Devel/stm32/libopencm3/lib/libopencm3_stm32f4.a(i2c_common_v1.o)
 .debug_macro   0x0000000000000000       0x5e /home/user/Devel/stm32/libopencm3/lib/libopencm3_stm32f4.a(i2c_common_v1.o)
 .debug_macro   0x0000000000000000      0x1df /home/user/Devel/stm32/libopencm3/lib/libopencm3_stm32f4.a(i2c_common_v1.o)
 .debug_macro   0x0000000000000000       0x22 /home/user/Devel/stm32/libopencm3/lib/libopencm3_stm32f4.a(i2c_common_v1.o)
 .debug_macro   0x0000000000000000       0xfa /home/user/Devel/stm32/libopencm3/lib/libopencm3_stm32f4.a(i2c_common_v1.o)
 .debug_macro   0x0000000000000000       0x58 /home/user/Devel/stm32/libopencm3/lib/libopencm3_stm32f4.a(i2c_common_v1.o)
 .debug_macro   0x0000000000000000      0x26d /home/user/Devel/stm32/libopencm3/lib/libopencm3_stm32f4.a(i2c_common_v1.o)
 .debug_macro   0x0000000000000000      0xb3f /home/user/Devel/stm32/libopencm3/lib/libopencm3_stm32f4.a(i2c_common_v1.o)
 .group         0x0000000000000000        0x8 /home/user/Devel/stm32/libopencm3/lib/libopencm3_stm32f4.a(spi_common_all.o)
 .group         0x0000000000000000        0x8 /home/user/Devel/stm32/libopencm3/lib/libopencm3_stm32f4.a(spi_common_all.o)
 .group         0x0000000000000000        0x8 /home/user/Devel/stm32/libopencm3/lib/libopencm3_stm32f4.a(spi_common_all.o)
 .group         0x0000000000000000        0x8 /home/user/Devel/stm32/libopencm3/lib/libopencm3_stm32f4.a(spi_common_all.o)
 .group         0x0000000000000000        0x8 /home/user/Devel/stm32/libopencm3/lib/libopencm3_stm32f4.a(spi_common_all.o)
 .group         0x0000000000000000        0x8 /home/user/Devel/stm32/libopencm3/lib/libopencm3_stm32f4.a(spi_common_all.o)
 .group         0x0000000000000000        0x8 /home/user/Devel/stm32/libopencm3/lib/libopencm3_stm32f4.a(spi_common_all.o)
 .group         0x0000000000000000        0x8 /home/user/Devel/stm32/libopencm3/lib/libopencm3_stm32f4.a(spi_common_all.o)
 .group         0x0000000000000000        0x8 /home/user/Devel/stm32/libopencm3/lib/libopencm3_stm32f4.a(spi_common_all.o)
 .group         0x0000000000000000        0x8 /home/user/Devel/stm32/libopencm3/lib/libopencm3_stm32f4.a(spi_common_all.o)
 .group         0x0000000000000000        0x8 /home/user/Devel/stm32/libopencm3/lib/libopencm3_stm32f4.a(spi_common_all.o)
 .group         0x0000000000000000        0x8 /home/user/Devel/stm32/libopencm3/lib/libopencm3_stm32f4.a(spi_common_all.o)
 .group         0x0000000000000000        0x8 /home/user/Devel/stm32/libopencm3/lib/libopencm3_stm32f4.a(spi_common_all.o)
 .group         0x0000000000000000        0x8 /home/user/Devel/stm32/libopencm3/lib/libopencm3_stm32f4.a(spi_common_all.o)
 .group         0x0000000000000000        0x8 /home/user/Devel/stm32/libopencm3/lib/libopencm3_stm32f4.a(spi_common_all.o)
 .debug_macro   0x0000000000000000      0x88c /home/user/Devel/stm32/libopencm3/lib/libopencm3_stm32f4.a(spi_common_all.o)
 .debug_macro   0x0000000000000000       0x22 /home/user/Devel/stm32/libopencm3/lib/libopencm3_stm32f4.a(spi_common_all.o)
 .debug_macro   0x0000000000000000       0x87 /home/user/Devel/stm32/libopencm3/lib/libopencm3_stm32f4.a(spi_common_all.o)
 .debug_macro   0x0000000000000000       0x44 /home/user/Devel/stm32/libopencm3/lib/libopencm3_stm32f4.a(spi_common_all.o)
 .debug_macro   0x0000000000000000       0xfd /home/user/Devel/stm32/libopencm3/lib/libopencm3_stm32f4.a(spi_common_all.o)
 .debug_macro   0x0000000000000000       0x5e /home/user/Devel/stm32/libopencm3/lib/libopencm3_stm32f4.a(spi_common_all.o)
 .debug_macro   0x0000000000000000      0x1df /home/user/Devel/stm32/libopencm3/lib/libopencm3_stm32f4.a(spi_common_all.o)
 .debug_macro   0x0000000000000000       0x22 /home/user/Devel/stm32/libopencm3/lib/libopencm3_stm32f4.a(spi_common_all.o)
 .debug_macro   0x0000000000000000       0xfa /home/user/Devel/stm32/libopencm3/lib/libopencm3_stm32f4.a(spi_common_all.o)
 .debug_macro   0x0000000000000000       0x58 /home/user/Devel/stm32/libopencm3/lib/libopencm3_stm32f4.a(spi_common_all.o)
 .debug_macro   0x0000000000000000      0x26d /home/user/Devel/stm32/libopencm3/lib/libopencm3_stm32f4.a(spi_common_all.o)
 .debug_macro   0x0000000000000000      0xb3f /home/user/Devel/stm32/libopencm3/lib/libopencm3_stm32f4.a(spi_common_all.o)
 .group         0x0000000000000000        0x8 /home/user/Devel/stm32/libopencm3/lib/libopencm3_stm32f4.a(spi_common_l1f124.o)
 .group         0x0000000000000000        0x8 /home/user/Devel/stm32/libopencm3/lib/libopencm3_stm32f4.a(spi_common_l1f124.o)
 .group         0x0000000000000000        0x8 /home/user/Devel/stm32/libopencm3/lib/libopencm3_stm32f4.a(spi_common_l1f124.o)
 .group         0x0000000000000000        0x8 /home/user/Devel/stm32/libopencm3/lib/libopencm3_stm32f4.a(spi_common_l1f124.o)
 .group         0x0000000000000000        0x8 /home/user/Devel/stm32/libopencm3/lib/libopencm3_stm32f4.a(spi_common_l1f124.o)
 .group         0x0000000000000000        0x8 /home/user/Devel/stm32/libopencm3/lib/libopencm3_stm32f4.a(spi_common_l1f124.o)
 .group         0x0000000000000000        0x8 /home/user/Devel/stm32/libopencm3/lib/libopencm3_stm32f4.a(spi_common_l1f124.o)
 .group         0x0000000000000000        0x8 /home/user/Devel/stm32/libopencm3/lib/libopencm3_stm32f4.a(spi_common_l1f124.o)
 .group         0x0000000000000000        0x8 /home/user/Devel/stm32/libopencm3/lib/libopencm3_stm32f4.a(spi_common_l1f124.o)
 .group         0x0000000000000000        0x8 /home/user/Devel/stm32/libopencm3/lib/libopencm3_stm32f4.a(spi_common_l1f124.o)
 .group         0x0000000000000000        0x8 /home/user/Devel/stm32/libopencm3/lib/libopencm3_stm32f4.a(spi_common_l1f124.o)
 .group         0x0000000000000000        0x8 /home/user/Devel/stm32/libopencm3/lib/libopencm3_stm32f4.a(spi_common_l1f124.o)
 .group         0x0000000000000000        0x8 /home/user/Devel/stm32/libopencm3/lib/libopencm3_stm32f4.a(spi_common_l1f124.o)
 .group         0x0000000000000000        0x8 /home/user/Devel/stm32/libopencm3/lib/libopencm3_stm32f4.a(spi_common_l1f124.o)
 .group         0x0000000000000000        0x8 /home/user/Devel/stm32/libopencm3/lib/libopencm3_stm32f4.a(spi_common_l1f124.o)
 .debug_macro   0x0000000000000000      0x88c /home/user/Devel/stm32/libopencm3/lib/libopencm3_stm32f4.a(spi_common_l1f124.o)
 .debug_macro   0x0000000000000000       0x22 /home/user/Devel/stm32/libopencm3/lib/libopencm3_stm32f4.a(spi_common_l1f124.o)
 .debug_macro   0x0000000000000000       0x87 /home/user/Devel/stm32/libopencm3/lib/libopencm3_stm32f4.a(spi_common_l1f124.o)
 .debug_macro   0x0000000000000000       0x44 /home/user/Devel/stm32/libopencm3/lib/libopencm3_stm32f4.a(spi_common_l1f124.o)
 .debug_macro   0x0000000000000000       0xfd /home/user/Devel/stm32/libopencm3/lib/libopencm3_stm32f4.a(spi_common_l1f124.o)
 .debug_macro   0x0000000000000000       0x5e /home/user/Devel/stm32/libopencm3/lib/libopencm3_stm32f4.a(spi_common_l1f124.o)
 .debug_macro   0x0000000000000000      0x1df /home/user/Devel/stm32/libopencm3/lib/libopencm3_stm32f4.a(spi_common_l1f124.o)
 .debug_macro   0x0000000000000000       0x22 /home/user/Devel/stm32/libopencm3/lib/libopencm3_stm32f4.a(spi_common_l1f124.o)
 .debug_macro   0x0000000000000000       0xfa /home/user/Devel/stm32/libopencm3/lib/libopencm3_stm32f4.a(spi_common_l1f124.o)
 .debug_macro   0x0000000000000000       0x58 /home/user/Devel/stm32/libopencm3/lib/libopencm3_stm32f4.a(spi_common_l1f124.o)
 .debug_macro   0x0000000000000000      0x26d /home/user/Devel/stm32/libopencm3/lib/libopencm3_stm32f4.a(spi_common_l1f124.o)
 .debug_macro   0x0000000000000000      0x2eb /home/user/Devel/stm32/libopencm3/lib/libopencm3_stm32f4.a(spi_common_l1f124.o)
 .debug_macro   0x0000000000000000       0x16 /home/user/Devel/stm32/libopencm3/lib/libopencm3_stm32f4.a(spi_common_l1f124.o)
 .debug_macro   0x0000000000000000       0x1c /home/user/Devel/stm32/libopencm3/lib/libopencm3_stm32f4.a(spi_common_l1f124.o)
 .debug_macro   0x0000000000000000      0xb3f /home/user/Devel/stm32/libopencm3/lib/libopencm3_stm32f4.a(spi_common_l1f124.o)
 .group         0x0000000000000000        0x8 /home/user/Devel/stm32/libopencm3/lib/libopencm3_stm32f4.a(usart_common_all.o)
 .group         0x0000000000000000        0x8 /home/user/Devel/stm32/libopencm3/lib/libopencm3_stm32f4.a(usart_common_all.o)
 .group         0x0000000000000000        0x8 /home/user/Devel/stm32/libopencm3/lib/libopencm3_stm32f4.a(usart_common_all.o)
 .group         0x0000000000000000        0x8 /home/user/Devel/stm32/libopencm3/lib/libopencm3_stm32f4.a(usart_common_all.o)
 .group         0x0000000000000000        0x8 /home/user/Devel/stm32/libopencm3/lib/libopencm3_stm32f4.a(usart_common_all.o)
 .group         0x0000000000000000        0x8 /home/user/Devel/stm32/libopencm3/lib/libopencm3_stm32f4.a(usart_common_all.o)
 .group         0x0000000000000000        0x8 /home/user/Devel/stm32/libopencm3/lib/libopencm3_stm32f4.a(usart_common_all.o)
 .group         0x0000000000000000        0x8 /home/user/Devel/stm32/libopencm3/lib/libopencm3_stm32f4.a(usart_common_all.o)
 .group         0x0000000000000000        0x8 /home/user/Devel/stm32/libopencm3/lib/libopencm3_stm32f4.a(usart_common_all.o)
 .group         0x0000000000000000        0x8 /home/user/Devel/stm32/libopencm3/lib/libopencm3_stm32f4.a(usart_common_all.o)
 .group         0x0000000000000000        0x8 /home/user/Devel/stm32/libopencm3/lib/libopencm3_stm32f4.a(usart_common_all.o)
 .group         0x0000000000000000        0x8 /home/user/Devel/stm32/libopencm3/lib/libopencm3_stm32f4.a(usart_common_all.o)
 .group         0x0000000000000000        0x8 /home/user/Devel/stm32/libopencm3/lib/libopencm3_stm32f4.a(usart_common_all.o)
 .group         0x0000000000000000        0x8 /home/user/Devel/stm32/libopencm3/lib/libopencm3_stm32f4.a(usart_common_all.o)
 .group         0x0000000000000000        0x8 /home/user/Devel/stm32/libopencm3/lib/libopencm3_stm32f4.a(usart_common_all.o)
 .debug_macro   0x0000000000000000      0x88c /home/user/Devel/stm32/libopencm3/lib/libopencm3_stm32f4.a(usart_common_all.o)
 .debug_macro   0x0000000000000000       0x22 /home/user/Devel/stm32/libopencm3/lib/libopencm3_stm32f4.a(usart_common_all.o)
 .debug_macro   0x0000000000000000       0x87 /home/user/Devel/stm32/libopencm3/lib/libopencm3_stm32f4.a(usart_common_all.o)
 .debug_macro   0x0000000000000000       0x44 /home/user/Devel/stm32/libopencm3/lib/libopencm3_stm32f4.a(usart_common_all.o)
 .debug_macro   0x0000000000000000       0xfd /home/user/Devel/stm32/libopencm3/lib/libopencm3_stm32f4.a(usart_common_all.o)
 .debug_macro   0x0000000000000000       0x5e /home/user/Devel/stm32/libopencm3/lib/libopencm3_stm32f4.a(usart_common_all.o)
 .debug_macro   0x0000000000000000      0x1df /home/user/Devel/stm32/libopencm3/lib/libopencm3_stm32f4.a(usart_common_all.o)
 .debug_macro   0x0000000000000000       0x22 /home/user/Devel/stm32/libopencm3/lib/libopencm3_stm32f4.a(usart_common_all.o)
 .debug_macro   0x0000000000000000       0xfa /home/user/Devel/stm32/libopencm3/lib/libopencm3_stm32f4.a(usart_common_all.o)
 .debug_macro   0x0000000000000000       0x58 /home/user/Devel/stm32/libopencm3/lib/libopencm3_stm32f4.a(usart_common_all.o)
 .debug_macro   0x0000000000000000      0x26d /home/user/Devel/stm32/libopencm3/lib/libopencm3_stm32f4.a(usart_common_all.o)
 .debug_macro   0x0000000000000000      0xb3f /home/user/Devel/stm32/libopencm3/lib/libopencm3_stm32f4.a(usart_common_all.o)
 .group         0x0000000000000000        0x8 /home/user/Devel/stm32/libopencm3/lib/libopencm3_stm32f4.a(usart_common_f124.o)
 .group         0x0000000000000000        0x8 /home/user/Devel/stm32/libopencm3/lib/libopencm3_stm32f4.a(usart_common_f124.o)
 .group         0x0000000000000000        0x8 /home/user/Devel/stm32/libopencm3/lib/libopencm3_stm32f4.a(usart_common_f124.o)
 .group         0x0000000000000000        0x8 /home/user/Devel/stm32/libopencm3/lib/libopencm3_stm32f4.a(usart_common_f124.o)
 .group         0x0000000000000000        0x8 /home/user/Devel/stm32/libopencm3/lib/libopencm3_stm32f4.a(usart_common_f124.o)
 .group         0x0000000000000000        0x8 /home/user/Devel/stm32/libopencm3/lib/libopencm3_stm32f4.a(usart_common_f124.o)
 .group         0x0000000000000000        0x8 /home/user/Devel/stm32/libopencm3/lib/libopencm3_stm32f4.a(usart_common_f124.o)
 .group         0x0000000000000000        0x8 /home/user/Devel/stm32/libopencm3/lib/libopencm3_stm32f4.a(usart_common_f124.o)
 .group         0x0000000000000000        0x8 /home/user/Devel/stm32/libopencm3/lib/libopencm3_stm32f4.a(usart_common_f124.o)
 .group         0x0000000000000000        0x8 /home/user/Devel/stm32/libopencm3/lib/libopencm3_stm32f4.a(usart_common_f124.o)
 .group         0x0000000000000000        0x8 /home/user/Devel/stm32/libopencm3/lib/libopencm3_stm32f4.a(usart_common_f124.o)
 .group         0x0000000000000000        0x8 /home/user/Devel/stm32/libopencm3/lib/libopencm3_stm32f4.a(usart_common_f124.o)
 .group         0x0000000000000000        0x8 /home/user/Devel/stm32/libopencm3/lib/libopencm3_stm32f4.a(usart_common_f124.o)
 .group         0x0000000000000000        0x8 /home/user/Devel/stm32/libopencm3/lib/libopencm3_stm32f4.a(usart_common_f124.o)
 .group         0x0000000000000000        0x8 /home/user/Devel/stm32/libopencm3/lib/libopencm3_stm32f4.a(usart_common_f124.o)
 .debug_macro   0x0000000000000000      0x88c /home/user/Devel/stm32/libopencm3/lib/libopencm3_stm32f4.a(usart_common_f124.o)
 .debug_macro   0x0000000000000000       0x22 /home/user/Devel/stm32/libopencm3/lib/libopencm3_stm32f4.a(usart_common_f124.o)
 .debug_macro   0x0000000000000000       0x87 /home/user/Devel/stm32/libopencm3/lib/libopencm3_stm32f4.a(usart_common_f124.o)
 .debug_macro   0x0000000000000000       0x44 /home/user/Devel/stm32/libopencm3/lib/libopencm3_stm32f4.a(usart_common_f124.o)
 .debug_macro   0x0000000000000000       0xfd /home/user/Devel/stm32/libopencm3/lib/libopencm3_stm32f4.a(usart_common_f124.o)
 .debug_macro   0x0000000000000000       0x5e /home/user/Devel/stm32/libopencm3/lib/libopencm3_stm32f4.a(usart_common_f124.o)
 .debug_macro   0x0000000000000000      0x1df /home/user/Devel/stm32/libopencm3/lib/libopencm3_stm32f4.a(usart_common_f124.o)
 .debug_macro   0x0000000000000000       0x22 /home/user/Devel/stm32/libopencm3/lib/libopencm3_stm32f4.a(usart_common_f124.o)
 .debug_macro   0x0000000000000000       0xfa /home/user/Devel/stm32/libopencm3/lib/libopencm3_stm32f4.a(usart_common_f124.o)
 .debug_macro   0x0000000000000000       0x58 /home/user/Devel/stm32/libopencm3/lib/libopencm3_stm32f4.a(usart_common_f124.o)
 .debug_macro   0x0000000000000000      0x26d /home/user/Devel/stm32/libopencm3/lib/libopencm3_stm32f4.a(usart_common_f124.o)
 .debug_macro   0x0000000000000000       0x8e /home/user/Devel/stm32/libopencm3/lib/libopencm3_stm32f4.a(usart_common_f124.o)
 .debug_macro   0x0000000000000000      0x273 /home/user/Devel/stm32/libopencm3/lib/libopencm3_stm32f4.a(usart_common_f124.o)
 .debug_macro   0x0000000000000000       0xa0 /home/user/Devel/stm32/libopencm3/lib/libopencm3_stm32f4.a(usart_common_f124.o)
 .debug_macro   0x0000000000000000      0xb3f /home/user/Devel/stm32/libopencm3/lib/libopencm3_stm32f4.a(usart_common_f124.o)
 .group         0x0000000000000000        0x8 /home/user/Devel/stm32/libopencm3/lib/libopencm3_stm32f4.a(flash_common_f234.o)
 .group         0x0000000000000000        0x8 /home/user/Devel/stm32/libopencm3/lib/libopencm3_stm32f4.a(flash_common_f234.o)
 .group         0x0000000000000000        0x8 /home/user/Devel/stm32/libopencm3/lib/libopencm3_stm32f4.a(flash_common_f234.o)
 .group         0x0000000000000000        0x8 /home/user/Devel/stm32/libopencm3/lib/libopencm3_stm32f4.a(flash_common_f234.o)
 .group         0x0000000000000000        0x8 /home/user/Devel/stm32/libopencm3/lib/libopencm3_stm32f4.a(flash_common_f234.o)
 .group         0x0000000000000000        0x8 /home/user/Devel/stm32/libopencm3/lib/libopencm3_stm32f4.a(flash_common_f234.o)
 .group         0x0000000000000000        0x8 /home/user/Devel/stm32/libopencm3/lib/libopencm3_stm32f4.a(flash_common_f234.o)
 .group         0x0000000000000000        0x8 /home/user/Devel/stm32/libopencm3/lib/libopencm3_stm32f4.a(flash_common_f234.o)
 .group         0x0000000000000000        0x8 /home/user/Devel/stm32/libopencm3/lib/libopencm3_stm32f4.a(flash_common_f234.o)
 .group         0x0000000000000000        0x8 /home/user/Devel/stm32/libopencm3/lib/libopencm3_stm32f4.a(flash_common_f234.o)
 .group         0x0000000000000000        0x8 /home/user/Devel/stm32/libopencm3/lib/libopencm3_stm32f4.a(flash_common_f234.o)
 .group         0x0000000000000000        0x8 /home/user/Devel/stm32/libopencm3/lib/libopencm3_stm32f4.a(flash_common_f234.o)
 .group         0x0000000000000000        0x8 /home/user/Devel/stm32/libopencm3/lib/libopencm3_stm32f4.a(flash_common_f234.o)
 .debug_macro   0x0000000000000000      0x88c /home/user/Devel/stm32/libopencm3/lib/libopencm3_stm32f4.a(flash_common_f234.o)
 .debug_macro   0x0000000000000000       0x22 /home/user/Devel/stm32/libopencm3/lib/libopencm3_stm32f4.a(flash_common_f234.o)
 .debug_macro   0x0000000000000000       0x87 /home/user/Devel/stm32/libopencm3/lib/libopencm3_stm32f4.a(flash_common_f234.o)
 .debug_macro   0x0000000000000000       0x44 /home/user/Devel/stm32/libopencm3/lib/libopencm3_stm32f4.a(flash_common_f234.o)
 .debug_macro   0x0000000000000000       0xfd /home/user/Devel/stm32/libopencm3/lib/libopencm3_stm32f4.a(flash_common_f234.o)
 .debug_macro   0x0000000000000000       0x5e /home/user/Devel/stm32/libopencm3/lib/libopencm3_stm32f4.a(flash_common_f234.o)
 .debug_macro   0x0000000000000000      0x1df /home/user/Devel/stm32/libopencm3/lib/libopencm3_stm32f4.a(flash_common_f234.o)
 .debug_macro   0x0000000000000000       0x22 /home/user/Devel/stm32/libopencm3/lib/libopencm3_stm32f4.a(flash_common_f234.o)
 .debug_macro   0x0000000000000000       0xfa /home/user/Devel/stm32/libopencm3/lib/libopencm3_stm32f4.a(flash_common_f234.o)
 .debug_macro   0x0000000000000000       0x58 /home/user/Devel/stm32/libopencm3/lib/libopencm3_stm32f4.a(flash_common_f234.o)
 .debug_macro   0x0000000000000000      0x26d /home/user/Devel/stm32/libopencm3/lib/libopencm3_stm32f4.a(flash_common_f234.o)
 .debug_macro   0x0000000000000000       0x6a /home/user/Devel/stm32/libopencm3/lib/libopencm3_stm32f4.a(flash_common_f234.o)
 .debug_macro   0x0000000000000000       0xf4 /home/user/Devel/stm32/libopencm3/lib/libopencm3_stm32f4.a(flash_common_f234.o)
 .group         0x0000000000000000        0x8 /home/user/Devel/stm32/libopencm3/lib/libopencm3_stm32f4.a(flash_common_f24.o)
 .group         0x0000000000000000        0x8 /home/user/Devel/stm32/libopencm3/lib/libopencm3_stm32f4.a(flash_common_f24.o)
 .group         0x0000000000000000        0x8 /home/user/Devel/stm32/libopencm3/lib/libopencm3_stm32f4.a(flash_common_f24.o)
 .group         0x0000000000000000        0x8 /home/user/Devel/stm32/libopencm3/lib/libopencm3_stm32f4.a(flash_common_f24.o)
 .group         0x0000000000000000        0x8 /home/user/Devel/stm32/libopencm3/lib/libopencm3_stm32f4.a(flash_common_f24.o)
 .group         0x0000000000000000        0x8 /home/user/Devel/stm32/libopencm3/lib/libopencm3_stm32f4.a(flash_common_f24.o)
 .group         0x0000000000000000        0x8 /home/user/Devel/stm32/libopencm3/lib/libopencm3_stm32f4.a(flash_common_f24.o)
 .group         0x0000000000000000        0x8 /home/user/Devel/stm32/libopencm3/lib/libopencm3_stm32f4.a(flash_common_f24.o)
 .group         0x0000000000000000        0x8 /home/user/Devel/stm32/libopencm3/lib/libopencm3_stm32f4.a(flash_common_f24.o)
 .group         0x0000000000000000        0x8 /home/user/Devel/stm32/libopencm3/lib/libopencm3_stm32f4.a(flash_common_f24.o)
 .group         0x0000000000000000        0x8 /home/user/Devel/stm32/libopencm3/lib/libopencm3_stm32f4.a(flash_common_f24.o)
 .group         0x0000000000000000        0x8 /home/user/Devel/stm32/libopencm3/lib/libopencm3_stm32f4.a(flash_common_f24.o)
 .group         0x0000000000000000        0x8 /home/user/Devel/stm32/libopencm3/lib/libopencm3_stm32f4.a(flash_common_f24.o)
 .debug_macro   0x0000000000000000      0x88c /home/user/Devel/stm32/libopencm3/lib/libopencm3_stm32f4.a(flash_common_f24.o)
 .debug_macro   0x0000000000000000       0x22 /home/user/Devel/stm32/libopencm3/lib/libopencm3_stm32f4.a(flash_common_f24.o)
 .debug_macro   0x0000000000000000       0x87 /home/user/Devel/stm32/libopencm3/lib/libopencm3_stm32f4.a(flash_common_f24.o)
 .debug_macro   0x0000000000000000       0x44 /home/user/Devel/stm32/libopencm3/lib/libopencm3_stm32f4.a(flash_common_f24.o)
 .debug_macro   0x0000000000000000       0xfd /home/user/Devel/stm32/libopencm3/lib/libopencm3_stm32f4.a(flash_common_f24.o)
 .debug_macro   0x0000000000000000       0x5e /home/user/Devel/stm32/libopencm3/lib/libopencm3_stm32f4.a(flash_common_f24.o)
 .debug_macro   0x0000000000000000      0x1df /home/user/Devel/stm32/libopencm3/lib/libopencm3_stm32f4.a(flash_common_f24.o)
 .debug_macro   0x0000000000000000       0x22 /home/user/Devel/stm32/libopencm3/lib/libopencm3_stm32f4.a(flash_common_f24.o)
 .debug_macro   0x0000000000000000       0xfa /home/user/Devel/stm32/libopencm3/lib/libopencm3_stm32f4.a(flash_common_f24.o)
 .debug_macro   0x0000000000000000       0x58 /home/user/Devel/stm32/libopencm3/lib/libopencm3_stm32f4.a(flash_common_f24.o)
 .debug_macro   0x0000000000000000      0x26d /home/user/Devel/stm32/libopencm3/lib/libopencm3_stm32f4.a(flash_common_f24.o)
 .debug_macro   0x0000000000000000       0x6a /home/user/Devel/stm32/libopencm3/lib/libopencm3_stm32f4.a(flash_common_f24.o)
 .debug_macro   0x0000000000000000       0xf4 /home/user/Devel/stm32/libopencm3/lib/libopencm3_stm32f4.a(flash_common_f24.o)
 .group         0x0000000000000000        0x8 /home/user/Devel/stm32/libopencm3/lib/libopencm3_stm32f4.a(exti_common_all.o)
 .group         0x0000000000000000        0x8 /home/user/Devel/stm32/libopencm3/lib/libopencm3_stm32f4.a(exti_common_all.o)
 .group         0x0000000000000000        0x8 /home/user/Devel/stm32/libopencm3/lib/libopencm3_stm32f4.a(exti_common_all.o)
 .group         0x0000000000000000        0x8 /home/user/Devel/stm32/libopencm3/lib/libopencm3_stm32f4.a(exti_common_all.o)
 .group         0x0000000000000000        0x8 /home/user/Devel/stm32/libopencm3/lib/libopencm3_stm32f4.a(exti_common_all.o)
 .group         0x0000000000000000        0x8 /home/user/Devel/stm32/libopencm3/lib/libopencm3_stm32f4.a(exti_common_all.o)
 .group         0x0000000000000000        0x8 /home/user/Devel/stm32/libopencm3/lib/libopencm3_stm32f4.a(exti_common_all.o)
 .group         0x0000000000000000        0x8 /home/user/Devel/stm32/libopencm3/lib/libopencm3_stm32f4.a(exti_common_all.o)
 .group         0x0000000000000000        0x8 /home/user/Devel/stm32/libopencm3/lib/libopencm3_stm32f4.a(exti_common_all.o)
 .group         0x0000000000000000        0x8 /home/user/Devel/stm32/libopencm3/lib/libopencm3_stm32f4.a(exti_common_all.o)
 .group         0x0000000000000000        0x8 /home/user/Devel/stm32/libopencm3/lib/libopencm3_stm32f4.a(exti_common_all.o)
 .group         0x0000000000000000        0x8 /home/user/Devel/stm32/libopencm3/lib/libopencm3_stm32f4.a(exti_common_all.o)
 .group         0x0000000000000000        0x8 /home/user/Devel/stm32/libopencm3/lib/libopencm3_stm32f4.a(exti_common_all.o)
 .group         0x0000000000000000        0x8 /home/user/Devel/stm32/libopencm3/lib/libopencm3_stm32f4.a(exti_common_all.o)
 .group         0x0000000000000000        0x8 /home/user/Devel/stm32/libopencm3/lib/libopencm3_stm32f4.a(exti_common_all.o)
 .group         0x0000000000000000        0x8 /home/user/Devel/stm32/libopencm3/lib/libopencm3_stm32f4.a(exti_common_all.o)
 .debug_macro   0x0000000000000000      0x88c /home/user/Devel/stm32/libopencm3/lib/libopencm3_stm32f4.a(exti_common_all.o)
 .debug_macro   0x0000000000000000       0x22 /home/user/Devel/stm32/libopencm3/lib/libopencm3_stm32f4.a(exti_common_all.o)
 .debug_macro   0x0000000000000000       0x87 /home/user/Devel/stm32/libopencm3/lib/libopencm3_stm32f4.a(exti_common_all.o)
 .debug_macro   0x0000000000000000       0x44 /home/user/Devel/stm32/libopencm3/lib/libopencm3_stm32f4.a(exti_common_all.o)
 .debug_macro   0x0000000000000000       0xfd /home/user/Devel/stm32/libopencm3/lib/libopencm3_stm32f4.a(exti_common_all.o)
 .debug_macro   0x0000000000000000       0x5e /home/user/Devel/stm32/libopencm3/lib/libopencm3_stm32f4.a(exti_common_all.o)
 .debug_macro   0x0000000000000000      0x1df /home/user/Devel/stm32/libopencm3/lib/libopencm3_stm32f4.a(exti_common_all.o)
 .debug_macro   0x0000000000000000       0x22 /home/user/Devel/stm32/libopencm3/lib/libopencm3_stm32f4.a(exti_common_all.o)
 .debug_macro   0x0000000000000000       0xfa /home/user/Devel/stm32/libopencm3/lib/libopencm3_stm32f4.a(exti_common_all.o)
 .debug_macro   0x0000000000000000       0x58 /home/user/Devel/stm32/libopencm3/lib/libopencm3_stm32f4.a(exti_common_all.o)
 .debug_macro   0x0000000000000000      0x26d /home/user/Devel/stm32/libopencm3/lib/libopencm3_stm32f4.a(exti_common_all.o)
 .debug_macro   0x0000000000000000       0x76 /home/user/Devel/stm32/libopencm3/lib/libopencm3_stm32f4.a(exti_common_all.o)
 .debug_macro   0x0000000000000000      0x2e6 /home/user/Devel/stm32/libopencm3/lib/libopencm3_stm32f4.a(exti_common_all.o)
 .debug_macro   0x0000000000000000      0x14e /home/user/Devel/stm32/libopencm3/lib/libopencm3_stm32f4.a(exti_common_all.o)
 .group         0x0000000000000000        0x8 /home/user/Devel/stm32/libopencm3/lib/libopencm3_stm32f4.a(rcc_common_all.o)
 .group         0x0000000000000000        0x8 /home/user/Devel/stm32/libopencm3/lib/libopencm3_stm32f4.a(rcc_common_all.o)
 .group         0x0000000000000000        0x8 /home/user/Devel/stm32/libopencm3/lib/libopencm3_stm32f4.a(rcc_common_all.o)
 .group         0x0000000000000000        0x8 /home/user/Devel/stm32/libopencm3/lib/libopencm3_stm32f4.a(rcc_common_all.o)
 .group         0x0000000000000000        0x8 /home/user/Devel/stm32/libopencm3/lib/libopencm3_stm32f4.a(rcc_common_all.o)
 .group         0x0000000000000000        0x8 /home/user/Devel/stm32/libopencm3/lib/libopencm3_stm32f4.a(rcc_common_all.o)
 .group         0x0000000000000000        0x8 /home/user/Devel/stm32/libopencm3/lib/libopencm3_stm32f4.a(rcc_common_all.o)
 .group         0x0000000000000000        0x8 /home/user/Devel/stm32/libopencm3/lib/libopencm3_stm32f4.a(rcc_common_all.o)
 .group         0x0000000000000000        0x8 /home/user/Devel/stm32/libopencm3/lib/libopencm3_stm32f4.a(rcc_common_all.o)
 .group         0x0000000000000000        0x8 /home/user/Devel/stm32/libopencm3/lib/libopencm3_stm32f4.a(rcc_common_all.o)
 .group         0x0000000000000000        0x8 /home/user/Devel/stm32/libopencm3/lib/libopencm3_stm32f4.a(rcc_common_all.o)
 .group         0x0000000000000000        0x8 /home/user/Devel/stm32/libopencm3/lib/libopencm3_stm32f4.a(rcc_common_all.o)
 .debug_macro   0x0000000000000000      0x88c /home/user/Devel/stm32/libopencm3/lib/libopencm3_stm32f4.a(rcc_common_all.o)
 .debug_macro   0x0000000000000000       0x22 /home/user/Devel/stm32/libopencm3/lib/libopencm3_stm32f4.a(rcc_common_all.o)
 .debug_macro   0x0000000000000000       0x87 /home/user/Devel/stm32/libopencm3/lib/libopencm3_stm32f4.a(rcc_common_all.o)
 .debug_macro   0x0000000000000000       0x44 /home/user/Devel/stm32/libopencm3/lib/libopencm3_stm32f4.a(rcc_common_all.o)
 .debug_macro   0x0000000000000000       0xfd /home/user/Devel/stm32/libopencm3/lib/libopencm3_stm32f4.a(rcc_common_all.o)
 .debug_macro   0x0000000000000000       0x5e /home/user/Devel/stm32/libopencm3/lib/libopencm3_stm32f4.a(rcc_common_all.o)
 .debug_macro   0x0000000000000000      0x1df /home/user/Devel/stm32/libopencm3/lib/libopencm3_stm32f4.a(rcc_common_all.o)
 .debug_macro   0x0000000000000000       0x22 /home/user/Devel/stm32/libopencm3/lib/libopencm3_stm32f4.a(rcc_common_all.o)
 .debug_macro   0x0000000000000000       0xfa /home/user/Devel/stm32/libopencm3/lib/libopencm3_stm32f4.a(rcc_common_all.o)
 .debug_macro   0x0000000000000000       0x58 /home/user/Devel/stm32/libopencm3/lib/libopencm3_stm32f4.a(rcc_common_all.o)
 .debug_macro   0x0000000000000000      0x26d /home/user/Devel/stm32/libopencm3/lib/libopencm3_stm32f4.a(rcc_common_all.o)
 .debug_macro   0x0000000000000000      0xb3f /home/user/Devel/stm32/libopencm3/lib/libopencm3_stm32f4.a(rcc_common_all.o)
 .group         0x0000000000000000        0x8 /home/user/Devel/stm32/libopencm3/lib/libopencm3_stm32f4.a(usb.o)
 .group         0x0000000000000000        0x8 /home/user/Devel/stm32/libopencm3/lib/libopencm3_stm32f4.a(usb.o)
 .group         0x0000000000000000        0x8 /home/user/Devel/stm32/libopencm3/lib/libopencm3_stm32f4.a(usb.o)
 .group         0x0000000000000000        0x8 /home/user/Devel/stm32/libopencm3/lib/libopencm3_stm32f4.a(usb.o)
 .group         0x0000000000000000        0x8 /home/user/Devel/stm32/libopencm3/lib/libopencm3_stm32f4.a(usb.o)
 .group         0x0000000000000000        0x8 /home/user/Devel/stm32/libopencm3/lib/libopencm3_stm32f4.a(usb.o)
 .group         0x0000000000000000        0x8 /home/user/Devel/stm32/libopencm3/lib/libopencm3_stm32f4.a(usb.o)
 .group         0x0000000000000000        0x8 /home/user/Devel/stm32/libopencm3/lib/libopencm3_stm32f4.a(usb.o)
 .group         0x0000000000000000        0x8 /home/user/Devel/stm32/libopencm3/lib/libopencm3_stm32f4.a(usb.o)
 .group         0x0000000000000000        0x8 /home/user/Devel/stm32/libopencm3/lib/libopencm3_stm32f4.a(usb.o)
 .group         0x0000000000000000        0x8 /home/user/Devel/stm32/libopencm3/lib/libopencm3_stm32f4.a(usb.o)
 .group         0x0000000000000000        0x8 /home/user/Devel/stm32/libopencm3/lib/libopencm3_stm32f4.a(usb.o)
 .group         0x0000000000000000        0x8 /home/user/Devel/stm32/libopencm3/lib/libopencm3_stm32f4.a(usb.o)
 .group         0x0000000000000000        0x8 /home/user/Devel/stm32/libopencm3/lib/libopencm3_stm32f4.a(usb.o)
 .group         0x0000000000000000        0x8 /home/user/Devel/stm32/libopencm3/lib/libopencm3_stm32f4.a(usb.o)
 .group         0x0000000000000000        0x8 /home/user/Devel/stm32/libopencm3/lib/libopencm3_stm32f4.a(usb.o)
 .group         0x0000000000000000        0x8 /home/user/Devel/stm32/libopencm3/lib/libopencm3_stm32f4.a(usb.o)
 .group         0x0000000000000000        0x8 /home/user/Devel/stm32/libopencm3/lib/libopencm3_stm32f4.a(usb.o)
 .group         0x0000000000000000        0x8 /home/user/Devel/stm32/libopencm3/lib/libopencm3_stm32f4.a(usb.o)
 .group         0x0000000000000000        0x8 /home/user/Devel/stm32/libopencm3/lib/libopencm3_stm32f4.a(usb.o)
 .group         0x0000000000000000        0x8 /home/user/Devel/stm32/libopencm3/lib/libopencm3_stm32f4.a(usb.o)
 .group         0x0000000000000000        0x8 /home/user/Devel/stm32/libopencm3/lib/libopencm3_stm32f4.a(usb.o)
 .group         0x0000000000000000        0x8 /home/user/Devel/stm32/libopencm3/lib/libopencm3_stm32f4.a(usb.o)
 .group         0x0000000000000000        0x8 /home/user/Devel/stm32/libopencm3/lib/libopencm3_stm32f4.a(usb.o)
 .debug_macro   0x0000000000000000      0x88c /home/user/Devel/stm32/libopencm3/lib/libopencm3_stm32f4.a(usb.o)
 .debug_macro   0x0000000000000000       0x22 /home/user/Devel/stm32/libopencm3/lib/libopencm3_stm32f4.a(usb.o)
 .debug_macro   0x0000000000000000      0x174 /home/user/Devel/stm32/libopencm3/lib/libopencm3_stm32f4.a(usb.o)
 .debug_macro   0x0000000000000000       0xfd /home/user/Devel/stm32/libopencm3/lib/libopencm3_stm32f4.a(usb.o)
 .debug_macro   0x0000000000000000       0x5e /home/user/Devel/stm32/libopencm3/lib/libopencm3_stm32f4.a(usb.o)
 .debug_macro   0x0000000000000000      0x1df /home/user/Devel/stm32/libopencm3/lib/libopencm3_stm32f4.a(usb.o)
 .debug_macro   0x0000000000000000       0x22 /home/user/Devel/stm32/libopencm3/lib/libopencm3_stm32f4.a(usb.o)
 .debug_macro   0x0000000000000000       0xfa /home/user/Devel/stm32/libopencm3/lib/libopencm3_stm32f4.a(usb.o)
 .group         0x0000000000000000        0x8 /home/user/Devel/stm32/libopencm3/lib/libopencm3_stm32f4.a(usb_standard.o)
 .group         0x0000000000000000        0x8 /home/user/Devel/stm32/libopencm3/lib/libopencm3_stm32f4.a(usb_standard.o)
 .group         0x0000000000000000        0x8 /home/user/Devel/stm32/libopencm3/lib/libopencm3_stm32f4.a(usb_standard.o)
 .group         0x0000000000000000        0x8 /home/user/Devel/stm32/libopencm3/lib/libopencm3_stm32f4.a(usb_standard.o)
 .group         0x0000000000000000        0x8 /home/user/Devel/stm32/libopencm3/lib/libopencm3_stm32f4.a(usb_standard.o)
 .group         0x0000000000000000        0x8 /home/user/Devel/stm32/libopencm3/lib/libopencm3_stm32f4.a(usb_standard.o)
 .group         0x0000000000000000        0x8 /home/user/Devel/stm32/libopencm3/lib/libopencm3_stm32f4.a(usb_standard.o)
 .group         0x0000000000000000        0x8 /home/user/Devel/stm32/libopencm3/lib/libopencm3_stm32f4.a(usb_standard.o)
 .group         0x0000000000000000        0x8 /home/user/Devel/stm32/libopencm3/lib/libopencm3_stm32f4.a(usb_standard.o)
 .group         0x0000000000000000        0x8 /home/user/Devel/stm32/libopencm3/lib/libopencm3_stm32f4.a(usb_standard.o)
 .group         0x0000000000000000        0x8 /home/user/Devel/stm32/libopencm3/lib/libopencm3_stm32f4.a(usb_standard.o)
 .group         0x0000000000000000        0x8 /home/user/Devel/stm32/libopencm3/lib/libopencm3_stm32f4.a(usb_standard.o)
 .group         0x0000000000000000        0x8 /home/user/Devel/stm32/libopencm3/lib/libopencm3_stm32f4.a(usb_standard.o)
 .group         0x0000000000000000        0x8 /home/user/Devel/stm32/libopencm3/lib/libopencm3_stm32f4.a(usb_standard.o)
 .group         0x0000000000000000        0x8 /home/user/Devel/stm32/libopencm3/lib/libopencm3_stm32f4.a(usb_standard.o)
 .group         0x0000000000000000        0x8 /home/user/Devel/stm32/libopencm3/lib/libopencm3_stm32f4.a(usb_standard.o)
 .group         0x0000000000000000        0x8 /home/user/Devel/stm32/libopencm3/lib/libopencm3_stm32f4.a(usb_standard.o)
 .group         0x0000000000000000        0x8 /home/user/Devel/stm32/libopencm3/lib/libopencm3_stm32f4.a(usb_standard.o)
 .group         0x0000000000000000        0x8 /home/user/Devel/stm32/libopencm3/lib/libopencm3_stm32f4.a(usb_standard.o)
 .group         0x0000000000000000        0x8 /home/user/Devel/stm32/libopencm3/lib/libopencm3_stm32f4.a(usb_standard.o)
 .group         0x0000000000000000        0x8 /home/user/Devel/stm32/libopencm3/lib/libopencm3_stm32f4.a(usb_standard.o)
 .group         0x0000000000000000        0x8 /home/user/Devel/stm32/libopencm3/lib/libopencm3_stm32f4.a(usb_standard.o)
 .group         0x0000000000000000        0x8 /home/user/Devel/stm32/libopencm3/lib/libopencm3_stm32f4.a(usb_standard.o)
 .group         0x0000000000000000        0x8 /home/user/Devel/stm32/libopencm3/lib/libopencm3_stm32f4.a(usb_standard.o)
 .debug_macro   0x0000000000000000      0x88c /home/user/Devel/stm32/libopencm3/lib/libopencm3_stm32f4.a(usb_standard.o)
 .debug_macro   0x0000000000000000       0x22 /home/user/Devel/stm32/libopencm3/lib/libopencm3_stm32f4.a(usb_standard.o)
 .debug_macro   0x0000000000000000       0x4c /home/user/Devel/stm32/libopencm3/lib/libopencm3_stm32f4.a(usb_standard.o)
 .debug_macro   0x0000000000000000       0x8d /home/user/Devel/stm32/libopencm3/lib/libopencm3_stm32f4.a(usb_standard.o)
 .debug_macro   0x0000000000000000       0x35 /home/user/Devel/stm32/libopencm3/lib/libopencm3_stm32f4.a(usb_standard.o)
 .debug_macro   0x0000000000000000       0x9c /home/user/Devel/stm32/libopencm3/lib/libopencm3_stm32f4.a(usb_standard.o)
 .debug_macro   0x0000000000000000      0x174 /home/user/Devel/stm32/libopencm3/lib/libopencm3_stm32f4.a(usb_standard.o)
 .debug_macro   0x0000000000000000       0x4a /home/user/Devel/stm32/libopencm3/lib/libopencm3_stm32f4.a(usb_standard.o)
 .debug_macro   0x0000000000000000       0x52 /home/user/Devel/stm32/libopencm3/lib/libopencm3_stm32f4.a(usb_standard.o)
 .debug_macro   0x0000000000000000       0x1f /home/user/Devel/stm32/libopencm3/lib/libopencm3_stm32f4.a(usb_standard.o)
 .debug_macro   0x0000000000000000       0x43 /home/user/Devel/stm32/libopencm3/lib/libopencm3_stm32f4.a(usb_standard.o)
 .debug_macro   0x0000000000000000       0x20 /home/user/Devel/stm32/libopencm3/lib/libopencm3_stm32f4.a(usb_standard.o)
 .debug_macro   0x0000000000000000      0x187 /home/user/Devel/stm32/libopencm3/lib/libopencm3_stm32f4.a(usb_standard.o)
 .debug_macro   0x0000000000000000      0x30d /home/user/Devel/stm32/libopencm3/lib/libopencm3_stm32f4.a(usb_standard.o)
 .debug_macro   0x0000000000000000       0x10 /home/user/Devel/stm32/libopencm3/lib/libopencm3_stm32f4.a(usb_standard.o)
 .debug_macro   0x0000000000000000       0x35 /home/user/Devel/stm32/libopencm3/lib/libopencm3_stm32f4.a(usb_standard.o)
 .debug_macro   0x0000000000000000       0xfd /home/user/Devel/stm32/libopencm3/lib/libopencm3_stm32f4.a(usb_standard.o)
 .debug_macro   0x0000000000000000       0x5e /home/user/Devel/stm32/libopencm3/lib/libopencm3_stm32f4.a(usb_standard.o)
 .debug_macro   0x0000000000000000      0x1df /home/user/Devel/stm32/libopencm3/lib/libopencm3_stm32f4.a(usb_standard.o)
 .debug_macro   0x0000000000000000       0x22 /home/user/Devel/stm32/libopencm3/lib/libopencm3_stm32f4.a(usb_standard.o)
 .debug_macro   0x0000000000000000       0xfa /home/user/Devel/stm32/libopencm3/lib/libopencm3_stm32f4.a(usb_standard.o)
 .debug_macro   0x0000000000000000      0x196 /home/user/Devel/stm32/libopencm3/lib/libopencm3_stm32f4.a(usb_standard.o)
 .debug_macro   0x0000000000000000       0x10 /home/user/Devel/stm32/libopencm3/lib/libopencm3_stm32f4.a(usb_standard.o)
 .debug_macro   0x0000000000000000       0x1c /home/user/Devel/stm32/libopencm3/lib/libopencm3_stm32f4.a(usb_standard.o)
 .group         0x0000000000000000        0x8 /home/user/Devel/stm32/libopencm3/lib/libopencm3_stm32f4.a(usb_control.o)
 .group         0x0000000000000000        0x8 /home/user/Devel/stm32/libopencm3/lib/libopencm3_stm32f4.a(usb_control.o)
 .group         0x0000000000000000        0x8 /home/user/Devel/stm32/libopencm3/lib/libopencm3_stm32f4.a(usb_control.o)
 .group         0x0000000000000000        0x8 /home/user/Devel/stm32/libopencm3/lib/libopencm3_stm32f4.a(usb_control.o)
 .group         0x0000000000000000        0x8 /home/user/Devel/stm32/libopencm3/lib/libopencm3_stm32f4.a(usb_control.o)
 .group         0x0000000000000000        0x8 /home/user/Devel/stm32/libopencm3/lib/libopencm3_stm32f4.a(usb_control.o)
 .group         0x0000000000000000        0x8 /home/user/Devel/stm32/libopencm3/lib/libopencm3_stm32f4.a(usb_control.o)
 .group         0x0000000000000000        0x8 /home/user/Devel/stm32/libopencm3/lib/libopencm3_stm32f4.a(usb_control.o)
 .group         0x0000000000000000        0x8 /home/user/Devel/stm32/libopencm3/lib/libopencm3_stm32f4.a(usb_control.o)
 .group         0x0000000000000000        0x8 /home/user/Devel/stm32/libopencm3/lib/libopencm3_stm32f4.a(usb_control.o)
 .group         0x0000000000000000        0x8 /home/user/Devel/stm32/libopencm3/lib/libopencm3_stm32f4.a(usb_control.o)
 .group         0x0000000000000000        0x8 /home/user/Devel/stm32/libopencm3/lib/libopencm3_stm32f4.a(usb_control.o)
 .group         0x0000000000000000        0x8 /home/user/Devel/stm32/libopencm3/lib/libopencm3_stm32f4.a(usb_control.o)
 .group         0x0000000000000000        0x8 /home/user/Devel/stm32/libopencm3/lib/libopencm3_stm32f4.a(usb_control.o)
 .group         0x0000000000000000        0x8 /home/user/Devel/stm32/libopencm3/lib/libopencm3_stm32f4.a(usb_control.o)
 .group         0x0000000000000000        0x8 /home/user/Devel/stm32/libopencm3/lib/libopencm3_stm32f4.a(usb_control.o)
 .group         0x0000000000000000        0x8 /home/user/Devel/stm32/libopencm3/lib/libopencm3_stm32f4.a(usb_control.o)
 .group         0x0000000000000000        0x8 /home/user/Devel/stm32/libopencm3/lib/libopencm3_stm32f4.a(usb_control.o)
 .group         0x0000000000000000        0x8 /home/user/Devel/stm32/libopencm3/lib/libopencm3_stm32f4.a(usb_control.o)
 .group         0x0000000000000000        0x8 /home/user/Devel/stm32/libopencm3/lib/libopencm3_stm32f4.a(usb_control.o)
 .group         0x0000000000000000        0x8 /home/user/Devel/stm32/libopencm3/lib/libopencm3_stm32f4.a(usb_control.o)
 .group         0x0000000000000000        0x8 /home/user/Devel/stm32/libopencm3/lib/libopencm3_stm32f4.a(usb_control.o)
 .group         0x0000000000000000        0x8 /home/user/Devel/stm32/libopencm3/lib/libopencm3_stm32f4.a(usb_control.o)
 .group         0x0000000000000000        0x8 /home/user/Devel/stm32/libopencm3/lib/libopencm3_stm32f4.a(usb_control.o)
 .group         0x0000000000000000        0x8 /home/user/Devel/stm32/libopencm3/lib/libopencm3_stm32f4.a(usb_control.o)
 .group         0x0000000000000000        0x8 /home/user/Devel/stm32/libopencm3/lib/libopencm3_stm32f4.a(usb_control.o)
 .debug_macro   0x0000000000000000      0x88c /home/user/Devel/stm32/libopencm3/lib/libopencm3_stm32f4.a(usb_control.o)
 .debug_macro   0x0000000000000000       0x22 /home/user/Devel/stm32/libopencm3/lib/libopencm3_stm32f4.a(usb_control.o)
 .debug_macro   0x0000000000000000       0x4c /home/user/Devel/stm32/libopencm3/lib/libopencm3_stm32f4.a(usb_control.o)
 .debug_macro   0x0000000000000000       0x8d /home/user/Devel/stm32/libopencm3/lib/libopencm3_stm32f4.a(usb_control.o)
 .debug_macro   0x0000000000000000       0x35 /home/user/Devel/stm32/libopencm3/lib/libopencm3_stm32f4.a(usb_control.o)
 .debug_macro   0x0000000000000000       0x9c /home/user/Devel/stm32/libopencm3/lib/libopencm3_stm32f4.a(usb_control.o)
 .debug_macro   0x0000000000000000       0x4a /home/user/Devel/stm32/libopencm3/lib/libopencm3_stm32f4.a(usb_control.o)
 .debug_macro   0x0000000000000000       0x52 /home/user/Devel/stm32/libopencm3/lib/libopencm3_stm32f4.a(usb_control.o)
 .debug_macro   0x0000000000000000       0x1f /home/user/Devel/stm32/libopencm3/lib/libopencm3_stm32f4.a(usb_control.o)
 .debug_macro   0x0000000000000000       0x43 /home/user/Devel/stm32/libopencm3/lib/libopencm3_stm32f4.a(usb_control.o)
 .debug_macro   0x0000000000000000       0x20 /home/user/Devel/stm32/libopencm3/lib/libopencm3_stm32f4.a(usb_control.o)
 .debug_macro   0x0000000000000000      0x187 /home/user/Devel/stm32/libopencm3/lib/libopencm3_stm32f4.a(usb_control.o)
 .debug_macro   0x0000000000000000      0x30d /home/user/Devel/stm32/libopencm3/lib/libopencm3_stm32f4.a(usb_control.o)
 .debug_macro   0x0000000000000000       0xfd /home/user/Devel/stm32/libopencm3/lib/libopencm3_stm32f4.a(usb_control.o)
 .debug_macro   0x0000000000000000       0x5e /home/user/Devel/stm32/libopencm3/lib/libopencm3_stm32f4.a(usb_control.o)
 .debug_macro   0x0000000000000000      0x1df /home/user/Devel/stm32/libopencm3/lib/libopencm3_stm32f4.a(usb_control.o)
 .debug_macro   0x0000000000000000       0x22 /home/user/Devel/stm32/libopencm3/lib/libopencm3_stm32f4.a(usb_control.o)
 .debug_macro   0x0000000000000000       0xfa /home/user/Devel/stm32/libopencm3/lib/libopencm3_stm32f4.a(usb_control.o)
 .debug_macro   0x0000000000000000      0x196 /home/user/Devel/stm32/libopencm3/lib/libopencm3_stm32f4.a(usb_control.o)
 .debug_macro   0x0000000000000000       0x10 /home/user/Devel/stm32/libopencm3/lib/libopencm3_stm32f4.a(usb_control.o)
 .debug_macro   0x0000000000000000       0x1c /home/user/Devel/stm32/libopencm3/lib/libopencm3_stm32f4.a(usb_control.o)
 .group         0x0000000000000000        0x8 /home/user/Devel/stm32/libopencm3/lib/libopencm3_stm32f4.a(usb_f107.o)
 .group         0x0000000000000000        0x8 /home/user/Devel/stm32/libopencm3/lib/libopencm3_stm32f4.a(usb_f107.o)
 .group         0x0000000000000000        0x8 /home/user/Devel/stm32/libopencm3/lib/libopencm3_stm32f4.a(usb_f107.o)
 .group         0x0000000000000000        0x8 /home/user/Devel/stm32/libopencm3/lib/libopencm3_stm32f4.a(usb_f107.o)
 .group         0x0000000000000000        0x8 /home/user/Devel/stm32/libopencm3/lib/libopencm3_stm32f4.a(usb_f107.o)
 .group         0x0000000000000000        0x8 /home/user/Devel/stm32/libopencm3/lib/libopencm3_stm32f4.a(usb_f107.o)
 .group         0x0000000000000000        0x8 /home/user/Devel/stm32/libopencm3/lib/libopencm3_stm32f4.a(usb_f107.o)
 .group         0x0000000000000000        0x8 /home/user/Devel/stm32/libopencm3/lib/libopencm3_stm32f4.a(usb_f107.o)
 .group         0x0000000000000000        0x8 /home/user/Devel/stm32/libopencm3/lib/libopencm3_stm32f4.a(usb_f107.o)
 .group         0x0000000000000000        0x8 /home/user/Devel/stm32/libopencm3/lib/libopencm3_stm32f4.a(usb_f107.o)
 .group         0x0000000000000000        0x8 /home/user/Devel/stm32/libopencm3/lib/libopencm3_stm32f4.a(usb_f107.o)
 .group         0x0000000000000000        0x8 /home/user/Devel/stm32/libopencm3/lib/libopencm3_stm32f4.a(usb_f107.o)
 .group         0x0000000000000000        0x8 /home/user/Devel/stm32/libopencm3/lib/libopencm3_stm32f4.a(usb_f107.o)
 .group         0x0000000000000000        0x8 /home/user/Devel/stm32/libopencm3/lib/libopencm3_stm32f4.a(usb_f107.o)
 .group         0x0000000000000000        0x8 /home/user/Devel/stm32/libopencm3/lib/libopencm3_stm32f4.a(usb_f107.o)
 .group         0x0000000000000000        0x8 /home/user/Devel/stm32/libopencm3/lib/libopencm3_stm32f4.a(usb_f107.o)
 .group         0x0000000000000000        0x8 /home/user/Devel/stm32/libopencm3/lib/libopencm3_stm32f4.a(usb_f107.o)
 .group         0x0000000000000000        0x8 /home/user/Devel/stm32/libopencm3/lib/libopencm3_stm32f4.a(usb_f107.o)
 .group         0x0000000000000000        0x8 /home/user/Devel/stm32/libopencm3/lib/libopencm3_stm32f4.a(usb_f107.o)
 .group         0x0000000000000000        0x8 /home/user/Devel/stm32/libopencm3/lib/libopencm3_stm32f4.a(usb_f107.o)
 .group         0x0000000000000000        0x8 /home/user/Devel/stm32/libopencm3/lib/libopencm3_stm32f4.a(usb_f107.o)
 .group         0x0000000000000000        0x8 /home/user/Devel/stm32/libopencm3/lib/libopencm3_stm32f4.a(usb_f107.o)
 .group         0x0000000000000000        0x8 /home/user/Devel/stm32/libopencm3/lib/libopencm3_stm32f4.a(usb_f107.o)
 .group         0x0000000000000000        0x8 /home/user/Devel/stm32/libopencm3/lib/libopencm3_stm32f4.a(usb_f107.o)
 .group         0x0000000000000000        0x8 /home/user/Devel/stm32/libopencm3/lib/libopencm3_stm32f4.a(usb_f107.o)
 .group         0x0000000000000000        0x8 /home/user/Devel/stm32/libopencm3/lib/libopencm3_stm32f4.a(usb_f107.o)
 .group         0x0000000000000000        0x8 /home/user/Devel/stm32/libopencm3/lib/libopencm3_stm32f4.a(usb_f107.o)
 .group         0x0000000000000000        0x8 /home/user/Devel/stm32/libopencm3/lib/libopencm3_stm32f4.a(usb_f107.o)
 .group         0x0000000000000000        0x8 /home/user/Devel/stm32/libopencm3/lib/libopencm3_stm32f4.a(usb_f107.o)
 .group         0x0000000000000000        0x8 /home/user/Devel/stm32/libopencm3/lib/libopencm3_stm32f4.a(usb_f107.o)
 .debug_macro   0x0000000000000000      0x88c /home/user/Devel/stm32/libopencm3/lib/libopencm3_stm32f4.a(usb_f107.o)
 .debug_macro   0x0000000000000000       0x22 /home/user/Devel/stm32/libopencm3/lib/libopencm3_stm32f4.a(usb_f107.o)
 .debug_macro   0x0000000000000000       0x4c /home/user/Devel/stm32/libopencm3/lib/libopencm3_stm32f4.a(usb_f107.o)
 .debug_macro   0x0000000000000000       0x8d /home/user/Devel/stm32/libopencm3/lib/libopencm3_stm32f4.a(usb_f107.o)
 .debug_macro   0x0000000000000000       0x35 /home/user/Devel/stm32/libopencm3/lib/libopencm3_stm32f4.a(usb_f107.o)
 .debug_macro   0x0000000000000000       0x9c /home/user/Devel/stm32/libopencm3/lib/libopencm3_stm32f4.a(usb_f107.o)
 .debug_macro   0x0000000000000000      0x174 /home/user/Devel/stm32/libopencm3/lib/libopencm3_stm32f4.a(usb_f107.o)
 .debug_macro   0x0000000000000000       0x4a /home/user/Devel/stm32/libopencm3/lib/libopencm3_stm32f4.a(usb_f107.o)
 .debug_macro   0x0000000000000000       0x52 /home/user/Devel/stm32/libopencm3/lib/libopencm3_stm32f4.a(usb_f107.o)
 .debug_macro   0x0000000000000000       0x1f /home/user/Devel/stm32/libopencm3/lib/libopencm3_stm32f4.a(usb_f107.o)
 .debug_macro   0x0000000000000000       0x43 /home/user/Devel/stm32/libopencm3/lib/libopencm3_stm32f4.a(usb_f107.o)
 .debug_macro   0x0000000000000000       0x20 /home/user/Devel/stm32/libopencm3/lib/libopencm3_stm32f4.a(usb_f107.o)
 .debug_macro   0x0000000000000000      0x187 /home/user/Devel/stm32/libopencm3/lib/libopencm3_stm32f4.a(usb_f107.o)
 .debug_macro   0x0000000000000000      0x30d /home/user/Devel/stm32/libopencm3/lib/libopencm3_stm32f4.a(usb_f107.o)
 .debug_macro   0x0000000000000000       0x10 /home/user/Devel/stm32/libopencm3/lib/libopencm3_stm32f4.a(usb_f107.o)
 .debug_macro   0x0000000000000000       0x35 /home/user/Devel/stm32/libopencm3/lib/libopencm3_stm32f4.a(usb_f107.o)
 .debug_macro   0x0000000000000000       0xfd /home/user/Devel/stm32/libopencm3/lib/libopencm3_stm32f4.a(usb_f107.o)
 .debug_macro   0x0000000000000000       0x5e /home/user/Devel/stm32/libopencm3/lib/libopencm3_stm32f4.a(usb_f107.o)
 .debug_macro   0x0000000000000000      0x1df /home/user/Devel/stm32/libopencm3/lib/libopencm3_stm32f4.a(usb_f107.o)
 .debug_macro   0x0000000000000000       0x22 /home/user/Devel/stm32/libopencm3/lib/libopencm3_stm32f4.a(usb_f107.o)
 .debug_macro   0x0000000000000000       0xfa /home/user/Devel/stm32/libopencm3/lib/libopencm3_stm32f4.a(usb_f107.o)
 .debug_macro   0x0000000000000000       0x58 /home/user/Devel/stm32/libopencm3/lib/libopencm3_stm32f4.a(usb_f107.o)
 .debug_macro   0x0000000000000000      0x26d /home/user/Devel/stm32/libopencm3/lib/libopencm3_stm32f4.a(usb_f107.o)
 .debug_macro   0x0000000000000000      0xb3f /home/user/Devel/stm32/libopencm3/lib/libopencm3_stm32f4.a(usb_f107.o)
 .debug_macro   0x0000000000000000       0x10 /home/user/Devel/stm32/libopencm3/lib/libopencm3_stm32f4.a(usb_f107.o)
 .debug_macro   0x0000000000000000       0x1c /home/user/Devel/stm32/libopencm3/lib/libopencm3_stm32f4.a(usb_f107.o)
 .group         0x0000000000000000        0x8 /home/user/Devel/stm32/libopencm3/lib/libopencm3_stm32f4.a(vector.o)
 .group         0x0000000000000000        0x8 /home/user/Devel/stm32/libopencm3/lib/libopencm3_stm32f4.a(vector.o)
 .group         0x0000000000000000        0x8 /home/user/Devel/stm32/libopencm3/lib/libopencm3_stm32f4.a(vector.o)
 .group         0x0000000000000000        0x8 /home/user/Devel/stm32/libopencm3/lib/libopencm3_stm32f4.a(vector.o)
 .group         0x0000000000000000        0x8 /home/user/Devel/stm32/libopencm3/lib/libopencm3_stm32f4.a(vector.o)
 .group         0x0000000000000000        0x8 /home/user/Devel/stm32/libopencm3/lib/libopencm3_stm32f4.a(vector.o)
 .group         0x0000000000000000        0x8 /home/user/Devel/stm32/libopencm3/lib/libopencm3_stm32f4.a(vector.o)
 .group         0x0000000000000000        0x8 /home/user/Devel/stm32/libopencm3/lib/libopencm3_stm32f4.a(vector.o)
 .group         0x0000000000000000        0x8 /home/user/Devel/stm32/libopencm3/lib/libopencm3_stm32f4.a(vector.o)
 .group         0x0000000000000000        0x8 /home/user/Devel/stm32/libopencm3/lib/libopencm3_stm32f4.a(vector.o)
 .group         0x0000000000000000        0x8 /home/user/Devel/stm32/libopencm3/lib/libopencm3_stm32f4.a(vector.o)
 .group         0x0000000000000000        0x8 /home/user/Devel/stm32/libopencm3/lib/libopencm3_stm32f4.a(vector.o)
 .group         0x0000000000000000        0x8 /home/user/Devel/stm32/libopencm3/lib/libopencm3_stm32f4.a(vector.o)
 .debug_macro   0x0000000000000000      0x88c /home/user/Devel/stm32/libopencm3/lib/libopencm3_stm32f4.a(vector.o)
 .debug_macro   0x0000000000000000       0x58 /home/user/Devel/stm32/libopencm3/lib/libopencm3_stm32f4.a(vector.o)
 .debug_macro   0x0000000000000000       0x22 /home/user/Devel/stm32/libopencm3/lib/libopencm3_stm32f4.a(vector.o)
 .debug_macro   0x0000000000000000       0x87 /home/user/Devel/stm32/libopencm3/lib/libopencm3_stm32f4.a(vector.o)
 .debug_macro   0x0000000000000000       0x44 /home/user/Devel/stm32/libopencm3/lib/libopencm3_stm32f4.a(vector.o)
 .debug_macro   0x0000000000000000       0xfd /home/user/Devel/stm32/libopencm3/lib/libopencm3_stm32f4.a(vector.o)
 .debug_macro   0x0000000000000000       0x5e /home/user/Devel/stm32/libopencm3/lib/libopencm3_stm32f4.a(vector.o)
 .debug_macro   0x0000000000000000      0x1df /home/user/Devel/stm32/libopencm3/lib/libopencm3_stm32f4.a(vector.o)
 .debug_macro   0x0000000000000000       0x22 /home/user/Devel/stm32/libopencm3/lib/libopencm3_stm32f4.a(vector.o)
 .debug_macro   0x0000000000000000       0xfa /home/user/Devel/stm32/libopencm3/lib/libopencm3_stm32f4.a(vector.o)
 .group         0x0000000000000000        0x8 /home/user/Devel/stm32/libopencm3/lib/libopencm3_stm32f4.a(systick.o)
 .group         0x0000000000000000        0x8 /home/user/Devel/stm32/libopencm3/lib/libopencm3_stm32f4.a(systick.o)
 .group         0x0000000000000000        0x8 /home/user/Devel/stm32/libopencm3/lib/libopencm3_stm32f4.a(systick.o)
 .group         0x0000000000000000        0x8 /home/user/Devel/stm32/libopencm3/lib/libopencm3_stm32f4.a(systick.o)
 .group         0x0000000000000000        0x8 /home/user/Devel/stm32/libopencm3/lib/libopencm3_stm32f4.a(systick.o)
 .group         0x0000000000000000        0x8 /home/user/Devel/stm32/libopencm3/lib/libopencm3_stm32f4.a(systick.o)
 .group         0x0000000000000000        0x8 /home/user/Devel/stm32/libopencm3/lib/libopencm3_stm32f4.a(systick.o)
 .group         0x0000000000000000        0x8 /home/user/Devel/stm32/libopencm3/lib/libopencm3_stm32f4.a(systick.o)
 .group         0x0000000000000000        0x8 /home/user/Devel/stm32/libopencm3/lib/libopencm3_stm32f4.a(systick.o)
 .group         0x0000000000000000        0x8 /home/user/Devel/stm32/libopencm3/lib/libopencm3_stm32f4.a(systick.o)
 .group         0x0000000000000000        0x8 /home/user/Devel/stm32/libopencm3/lib/libopencm3_stm32f4.a(systick.o)
 .debug_macro   0x0000000000000000      0x88c /home/user/Devel/stm32/libopencm3/lib/libopencm3_stm32f4.a(systick.o)
 .debug_macro   0x0000000000000000       0x58 /home/user/Devel/stm32/libopencm3/lib/libopencm3_stm32f4.a(systick.o)
 .debug_macro   0x0000000000000000       0x22 /home/user/Devel/stm32/libopencm3/lib/libopencm3_stm32f4.a(systick.o)
 .debug_macro   0x0000000000000000       0x87 /home/user/Devel/stm32/libopencm3/lib/libopencm3_stm32f4.a(systick.o)
 .debug_macro   0x0000000000000000       0x44 /home/user/Devel/stm32/libopencm3/lib/libopencm3_stm32f4.a(systick.o)
 .debug_macro   0x0000000000000000       0xfd /home/user/Devel/stm32/libopencm3/lib/libopencm3_stm32f4.a(systick.o)
 .debug_macro   0x0000000000000000       0x5e /home/user/Devel/stm32/libopencm3/lib/libopencm3_stm32f4.a(systick.o)
 .debug_macro   0x0000000000000000      0x1df /home/user/Devel/stm32/libopencm3/lib/libopencm3_stm32f4.a(systick.o)
 .debug_macro   0x0000000000000000       0x22 /home/user/Devel/stm32/libopencm3/lib/libopencm3_stm32f4.a(systick.o)
 .debug_macro   0x0000000000000000       0xfa /home/user/Devel/stm32/libopencm3/lib/libopencm3_stm32f4.a(systick.o)
 .group         0x0000000000000000        0x8 /home/user/Devel/stm32/libopencm3/lib/libopencm3_stm32f4.a(nvic.o)
 .group         0x0000000000000000        0x8 /home/user/Devel/stm32/libopencm3/lib/libopencm3_stm32f4.a(nvic.o)
 .group         0x0000000000000000        0x8 /home/user/Devel/stm32/libopencm3/lib/libopencm3_stm32f4.a(nvic.o)
 .group         0x0000000000000000        0x8 /home/user/Devel/stm32/libopencm3/lib/libopencm3_stm32f4.a(nvic.o)
 .group         0x0000000000000000        0x8 /home/user/Devel/stm32/libopencm3/lib/libopencm3_stm32f4.a(nvic.o)
 .group         0x0000000000000000        0x8 /home/user/Devel/stm32/libopencm3/lib/libopencm3_stm32f4.a(nvic.o)
 .group         0x0000000000000000        0x8 /home/user/Devel/stm32/libopencm3/lib/libopencm3_stm32f4.a(nvic.o)
 .group         0x0000000000000000        0x8 /home/user/Devel/stm32/libopencm3/lib/libopencm3_stm32f4.a(nvic.o)
 .group         0x0000000000000000        0x8 /home/user/Devel/stm32/libopencm3/lib/libopencm3_stm32f4.a(nvic.o)
 .group         0x0000000000000000        0x8 /home/user/Devel/stm32/libopencm3/lib/libopencm3_stm32f4.a(nvic.o)
 .group         0x0000000000000000        0x8 /home/user/Devel/stm32/libopencm3/lib/libopencm3_stm32f4.a(nvic.o)
 .group         0x0000000000000000        0x8 /home/user/Devel/stm32/libopencm3/lib/libopencm3_stm32f4.a(nvic.o)
 .group         0x0000000000000000        0x8 /home/user/Devel/stm32/libopencm3/lib/libopencm3_stm32f4.a(nvic.o)
 .debug_macro   0x0000000000000000      0x88c /home/user/Devel/stm32/libopencm3/lib/libopencm3_stm32f4.a(nvic.o)
 .debug_macro   0x0000000000000000       0x22 /home/user/Devel/stm32/libopencm3/lib/libopencm3_stm32f4.a(nvic.o)
 .debug_macro   0x0000000000000000       0x87 /home/user/Devel/stm32/libopencm3/lib/libopencm3_stm32f4.a(nvic.o)
 .debug_macro   0x0000000000000000       0x44 /home/user/Devel/stm32/libopencm3/lib/libopencm3_stm32f4.a(nvic.o)
 .debug_macro   0x0000000000000000       0xfd /home/user/Devel/stm32/libopencm3/lib/libopencm3_stm32f4.a(nvic.o)
 .debug_macro   0x0000000000000000       0x5e /home/user/Devel/stm32/libopencm3/lib/libopencm3_stm32f4.a(nvic.o)
 .debug_macro   0x0000000000000000      0x1df /home/user/Devel/stm32/libopencm3/lib/libopencm3_stm32f4.a(nvic.o)
 .debug_macro   0x0000000000000000       0x22 /home/user/Devel/stm32/libopencm3/lib/libopencm3_stm32f4.a(nvic.o)
 .debug_macro   0x0000000000000000       0xfa /home/user/Devel/stm32/libopencm3/lib/libopencm3_stm32f4.a(nvic.o)
 .debug_macro   0x0000000000000000       0x58 /home/user/Devel/stm32/libopencm3/lib/libopencm3_stm32f4.a(nvic.o)
 .debug_macro   0x0000000000000000      0x22c /home/user/Devel/stm32/libopencm3/lib/libopencm3_stm32f4.a(nvic.o)
 .group         0x0000000000000000        0x8 /home/user/Devel/stm32/libopencm3/lib/libopencm3_stm32f4.a(pwr.o)
 .group         0x0000000000000000        0x8 /home/user/Devel/stm32/libopencm3/lib/libopencm3_stm32f4.a(pwr.o)
 .group         0x0000000000000000        0x8 /home/user/Devel/stm32/libopencm3/lib/libopencm3_stm32f4.a(pwr.o)
 .group         0x0000000000000000        0x8 /home/user/Devel/stm32/libopencm3/lib/libopencm3_stm32f4.a(pwr.o)
 .group         0x0000000000000000        0x8 /home/user/Devel/stm32/libopencm3/lib/libopencm3_stm32f4.a(pwr.o)
 .group         0x0000000000000000        0x8 /home/user/Devel/stm32/libopencm3/lib/libopencm3_stm32f4.a(pwr.o)
 .group         0x0000000000000000        0x8 /home/user/Devel/stm32/libopencm3/lib/libopencm3_stm32f4.a(pwr.o)
 .group         0x0000000000000000        0x8 /home/user/Devel/stm32/libopencm3/lib/libopencm3_stm32f4.a(pwr.o)
 .group         0x0000000000000000        0x8 /home/user/Devel/stm32/libopencm3/lib/libopencm3_stm32f4.a(pwr.o)
 .group         0x0000000000000000        0x8 /home/user/Devel/stm32/libopencm3/lib/libopencm3_stm32f4.a(pwr.o)
 .group         0x0000000000000000        0x8 /home/user/Devel/stm32/libopencm3/lib/libopencm3_stm32f4.a(pwr.o)
 .group         0x0000000000000000        0x8 /home/user/Devel/stm32/libopencm3/lib/libopencm3_stm32f4.a(pwr.o)
 .group         0x0000000000000000        0x8 /home/user/Devel/stm32/libopencm3/lib/libopencm3_stm32f4.a(pwr.o)
 .debug_macro   0x0000000000000000      0x88c /home/user/Devel/stm32/libopencm3/lib/libopencm3_stm32f4.a(pwr.o)
 .debug_macro   0x0000000000000000       0x22 /home/user/Devel/stm32/libopencm3/lib/libopencm3_stm32f4.a(pwr.o)
 .debug_macro   0x0000000000000000       0x87 /home/user/Devel/stm32/libopencm3/lib/libopencm3_stm32f4.a(pwr.o)
 .debug_macro   0x0000000000000000       0x44 /home/user/Devel/stm32/libopencm3/lib/libopencm3_stm32f4.a(pwr.o)
 .debug_macro   0x0000000000000000       0xfd /home/user/Devel/stm32/libopencm3/lib/libopencm3_stm32f4.a(pwr.o)
 .debug_macro   0x0000000000000000       0x5e /home/user/Devel/stm32/libopencm3/lib/libopencm3_stm32f4.a(pwr.o)
 .debug_macro   0x0000000000000000      0x1df /home/user/Devel/stm32/libopencm3/lib/libopencm3_stm32f4.a(pwr.o)
 .debug_macro   0x0000000000000000       0x22 /home/user/Devel/stm32/libopencm3/lib/libopencm3_stm32f4.a(pwr.o)
 .debug_macro   0x0000000000000000       0xfa /home/user/Devel/stm32/libopencm3/lib/libopencm3_stm32f4.a(pwr.o)
 .debug_macro   0x0000000000000000       0x58 /home/user/Devel/stm32/libopencm3/lib/libopencm3_stm32f4.a(pwr.o)
 .debug_macro   0x0000000000000000      0x26d /home/user/Devel/stm32/libopencm3/lib/libopencm3_stm32f4.a(pwr.o)
 .debug_macro   0x0000000000000000       0x8e /home/user/Devel/stm32/libopencm3/lib/libopencm3_stm32f4.a(pwr.o)
 .debug_macro   0x0000000000000000       0x22 /home/user/Devel/stm32/libopencm3/lib/libopencm3_stm32f4.a(pwr.o)
 .group         0x0000000000000000        0x8 /home/user/Devel/stm32/libopencm3/lib/libopencm3_stm32f4.a(usb_fx07_common.o)
 .group         0x0000000000000000        0x8 /home/user/Devel/stm32/libopencm3/lib/libopencm3_stm32f4.a(usb_fx07_common.o)
 .group         0x0000000000000000        0x8 /home/user/Devel/stm32/libopencm3/lib/libopencm3_stm32f4.a(usb_fx07_common.o)
 .group         0x0000000000000000        0x8 /home/user/Devel/stm32/libopencm3/lib/libopencm3_stm32f4.a(usb_fx07_common.o)
 .group         0x0000000000000000        0x8 /home/user/Devel/stm32/libopencm3/lib/libopencm3_stm32f4.a(usb_fx07_common.o)
 .group         0x0000000000000000        0x8 /home/user/Devel/stm32/libopencm3/lib/libopencm3_stm32f4.a(usb_fx07_common.o)
 .group         0x0000000000000000        0x8 /home/user/Devel/stm32/libopencm3/lib/libopencm3_stm32f4.a(usb_fx07_common.o)
 .group         0x0000000000000000        0x8 /home/user/Devel/stm32/libopencm3/lib/libopencm3_stm32f4.a(usb_fx07_common.o)
 .group         0x0000000000000000        0x8 /home/user/Devel/stm32/libopencm3/lib/libopencm3_stm32f4.a(usb_fx07_common.o)
 .group         0x0000000000000000        0x8 /home/user/Devel/stm32/libopencm3/lib/libopencm3_stm32f4.a(usb_fx07_common.o)
 .group         0x0000000000000000        0x8 /home/user/Devel/stm32/libopencm3/lib/libopencm3_stm32f4.a(usb_fx07_common.o)
 .group         0x0000000000000000        0x8 /home/user/Devel/stm32/libopencm3/lib/libopencm3_stm32f4.a(usb_fx07_common.o)
 .group         0x0000000000000000        0x8 /home/user/Devel/stm32/libopencm3/lib/libopencm3_stm32f4.a(usb_fx07_common.o)
 .group         0x0000000000000000        0x8 /home/user/Devel/stm32/libopencm3/lib/libopencm3_stm32f4.a(usb_fx07_common.o)
 .group         0x0000000000000000        0x8 /home/user/Devel/stm32/libopencm3/lib/libopencm3_stm32f4.a(usb_fx07_common.o)
 .group         0x0000000000000000        0x8 /home/user/Devel/stm32/libopencm3/lib/libopencm3_stm32f4.a(usb_fx07_common.o)
 .group         0x0000000000000000        0x8 /home/user/Devel/stm32/libopencm3/lib/libopencm3_stm32f4.a(usb_fx07_common.o)
 .group         0x0000000000000000        0x8 /home/user/Devel/stm32/libopencm3/lib/libopencm3_stm32f4.a(usb_fx07_common.o)
 .group         0x0000000000000000        0x8 /home/user/Devel/stm32/libopencm3/lib/libopencm3_stm32f4.a(usb_fx07_common.o)
 .group         0x0000000000000000        0x8 /home/user/Devel/stm32/libopencm3/lib/libopencm3_stm32f4.a(usb_fx07_common.o)
 .group         0x0000000000000000        0x8 /home/user/Devel/stm32/libopencm3/lib/libopencm3_stm32f4.a(usb_fx07_common.o)
 .group         0x0000000000000000        0x8 /home/user/Devel/stm32/libopencm3/lib/libopencm3_stm32f4.a(usb_fx07_common.o)
 .group         0x0000000000000000        0x8 /home/user/Devel/stm32/libopencm3/lib/libopencm3_stm32f4.a(usb_fx07_common.o)
 .group         0x0000000000000000        0x8 /home/user/Devel/stm32/libopencm3/lib/libopencm3_stm32f4.a(usb_fx07_common.o)
 .group         0x0000000000000000        0x8 /home/user/Devel/stm32/libopencm3/lib/libopencm3_stm32f4.a(usb_fx07_common.o)
 .group         0x0000000000000000        0x8 /home/user/Devel/stm32/libopencm3/lib/libopencm3_stm32f4.a(usb_fx07_common.o)
 .group         0x0000000000000000        0x8 /home/user/Devel/stm32/libopencm3/lib/libopencm3_stm32f4.a(usb_fx07_common.o)
 .group         0x0000000000000000        0x8 /home/user/Devel/stm32/libopencm3/lib/libopencm3_stm32f4.a(usb_fx07_common.o)
 .group         0x0000000000000000        0x8 /home/user/Devel/stm32/libopencm3/lib/libopencm3_stm32f4.a(usb_fx07_common.o)
 .group         0x0000000000000000        0x8 /home/user/Devel/stm32/libopencm3/lib/libopencm3_stm32f4.a(usb_fx07_common.o)
 .debug_macro   0x0000000000000000      0x88c /home/user/Devel/stm32/libopencm3/lib/libopencm3_stm32f4.a(usb_fx07_common.o)
 .debug_macro   0x0000000000000000       0x22 /home/user/Devel/stm32/libopencm3/lib/libopencm3_stm32f4.a(usb_fx07_common.o)
 .debug_macro   0x0000000000000000       0x4c /home/user/Devel/stm32/libopencm3/lib/libopencm3_stm32f4.a(usb_fx07_common.o)
 .debug_macro   0x0000000000000000       0x8d /home/user/Devel/stm32/libopencm3/lib/libopencm3_stm32f4.a(usb_fx07_common.o)
 .debug_macro   0x0000000000000000       0x35 /home/user/Devel/stm32/libopencm3/lib/libopencm3_stm32f4.a(usb_fx07_common.o)
 .debug_macro   0x0000000000000000       0x9c /home/user/Devel/stm32/libopencm3/lib/libopencm3_stm32f4.a(usb_fx07_common.o)
 .debug_macro   0x0000000000000000      0x174 /home/user/Devel/stm32/libopencm3/lib/libopencm3_stm32f4.a(usb_fx07_common.o)
 .debug_macro   0x0000000000000000       0x4a /home/user/Devel/stm32/libopencm3/lib/libopencm3_stm32f4.a(usb_fx07_common.o)
 .debug_macro   0x0000000000000000       0x52 /home/user/Devel/stm32/libopencm3/lib/libopencm3_stm32f4.a(usb_fx07_common.o)
 .debug_macro   0x0000000000000000       0x1f /home/user/Devel/stm32/libopencm3/lib/libopencm3_stm32f4.a(usb_fx07_common.o)
 .debug_macro   0x0000000000000000       0x43 /home/user/Devel/stm32/libopencm3/lib/libopencm3_stm32f4.a(usb_fx07_common.o)
 .debug_macro   0x0000000000000000       0x20 /home/user/Devel/stm32/libopencm3/lib/libopencm3_stm32f4.a(usb_fx07_common.o)
 .debug_macro   0x0000000000000000      0x187 /home/user/Devel/stm32/libopencm3/lib/libopencm3_stm32f4.a(usb_fx07_common.o)
 .debug_macro   0x0000000000000000      0x30d /home/user/Devel/stm32/libopencm3/lib/libopencm3_stm32f4.a(usb_fx07_common.o)
 .debug_macro   0x0000000000000000       0x10 /home/user/Devel/stm32/libopencm3/lib/libopencm3_stm32f4.a(usb_fx07_common.o)
 .debug_macro   0x0000000000000000       0x35 /home/user/Devel/stm32/libopencm3/lib/libopencm3_stm32f4.a(usb_fx07_common.o)
 .debug_macro   0x0000000000000000       0xfd /home/user/Devel/stm32/libopencm3/lib/libopencm3_stm32f4.a(usb_fx07_common.o)
 .debug_macro   0x0000000000000000       0x5e /home/user/Devel/stm32/libopencm3/lib/libopencm3_stm32f4.a(usb_fx07_common.o)
 .debug_macro   0x0000000000000000      0x1df /home/user/Devel/stm32/libopencm3/lib/libopencm3_stm32f4.a(usb_fx07_common.o)
 .debug_macro   0x0000000000000000       0x22 /home/user/Devel/stm32/libopencm3/lib/libopencm3_stm32f4.a(usb_fx07_common.o)
 .debug_macro   0x0000000000000000       0xfa /home/user/Devel/stm32/libopencm3/lib/libopencm3_stm32f4.a(usb_fx07_common.o)
 .debug_macro   0x0000000000000000       0x3a /home/user/Devel/stm32/libopencm3/lib/libopencm3_stm32f4.a(usb_fx07_common.o)
 .debug_macro   0x0000000000000000       0x58 /home/user/Devel/stm32/libopencm3/lib/libopencm3_stm32f4.a(usb_fx07_common.o)
 .debug_macro   0x0000000000000000      0x26d /home/user/Devel/stm32/libopencm3/lib/libopencm3_stm32f4.a(usb_fx07_common.o)
 .debug_macro   0x0000000000000000      0x8d7 /home/user/Devel/stm32/libopencm3/lib/libopencm3_stm32f4.a(usb_fx07_common.o)
 .debug_macro   0x0000000000000000      0x130 /home/user/Devel/stm32/libopencm3/lib/libopencm3_stm32f4.a(usb_fx07_common.o)
 .debug_macro   0x0000000000000000      0x19c /home/user/Devel/stm32/libopencm3/lib/libopencm3_stm32f4.a(usb_fx07_common.o)
 .debug_macro   0x0000000000000000       0x10 /home/user/Devel/stm32/libopencm3/lib/libopencm3_stm32f4.a(usb_fx07_common.o)
 .debug_macro   0x0000000000000000       0x1c /home/user/Devel/stm32/libopencm3/lib/libopencm3_stm32f4.a(usb_fx07_common.o)

Memory Configuration

Name             Origin             Length             Attributes
rom              0x0000000008000000 0x0000000000010000 xr
ccm              0x0000000010000000 0x0000000000010000 xrw
ram              0x0000000020000000 0x0000000000030000 xrw
*default*        0x0000000000000000 0xffffffffffffffff

Linker script and memory map

START GROUP
LOAD /home/user/Devel/stm32/gcc-arm-none-eabi-8-2018-q4-major/bin/../lib/gcc/arm-none-eabi/8.2.1/../../../../arm-none-eabi/lib/thumb/v7e-m+fp/hard/libm.a
LOAD /home/user/Devel/stm32/gcc-arm-none-eabi-8-2018-q4-major/bin/../lib/gcc/arm-none-eabi/8.2.1/../../../../arm-none-eabi/lib/thumb/v7e-m+fp/hard/libc_nano.a
LOAD /home/user/Devel/stm32/gcc-arm-none-eabi-8-2018-q4-major/bin/../lib/gcc/arm-none-eabi/8.2.1/thumb/v7e-m+fp/hard/libgcc.a
LOAD /home/user/Devel/stm32/gcc-arm-none-eabi-8-2018-q4-major/bin/../lib/gcc/arm-none-eabi/8.2.1/../../../../arm-none-eabi/lib/thumb/v7e-m+fp/hard/libnosys.a
END GROUP
LOAD ././mew.o
LOAD ././drivers/i2c/i2c.o
LOAD ././drivers/duart/duart.o
LOAD ././drivers/display/ts_tsc2007.o
LOAD ././drivers/display/display.o
LOAD ././drivers/usb/mew_usb_hid.o
LOAD ././drivers/spi_flash/flash.o
LOAD ././drivers/spi_flash/w25n01gvzeig.o
LOAD ././drivers/flash/otp_storage.o
LOAD ././drivers/hw_crypt/aes256.o
LOAD ././drivers/hw_crypt/sha2_256.o
LOAD ././drivers/system/systick.o
LOAD ././drivers/system/system.o
LOAD ././drivers/system/random.o
LOAD ././drivers/system/clock.o
LOAD ././debug.o
LOAD ././ui/mew_logo.o
LOAD ././ui/sync_logo.o
LOAD ././drivers/system/byteorder.o
LOAD /home/user/Devel/stm32/libopencm3/lib/libopencm3_stm32f4.a
START GROUP
LOAD /home/user/Devel/stm32/gcc-arm-none-eabi-8-2018-q4-major/bin/../lib/gcc/arm-none-eabi/8.2.1/../../../../arm-none-eabi/lib/thumb/v7e-m+fp/hard/libm.a
LOAD /home/user/Devel/stm32/gcc-arm-none-eabi-8-2018-q4-major/bin/../lib/gcc/arm-none-eabi/8.2.1/../../../../arm-none-eabi/lib/thumb/v7e-m+fp/hard/libc_nano.a
LOAD /home/user/Devel/stm32/gcc-arm-none-eabi-8-2018-q4-major/bin/../lib/gcc/arm-none-eabi/8.2.1/thumb/v7e-m+fp/hard/libgcc.a
END GROUP
START GROUP
LOAD /home/user/Devel/stm32/gcc-arm-none-eabi-8-2018-q4-major/bin/../lib/gcc/arm-none-eabi/8.2.1/thumb/v7e-m+fp/hard/libgcc.a
LOAD /home/user/Devel/stm32/gcc-arm-none-eabi-8-2018-q4-major/bin/../lib/gcc/arm-none-eabi/8.2.1/../../../../arm-none-eabi/lib/thumb/v7e-m+fp/hard/libc_nano.a
END GROUP
START GROUP
LOAD /home/user/Devel/stm32/gcc-arm-none-eabi-8-2018-q4-major/bin/../lib/gcc/arm-none-eabi/8.2.1/thumb/v7e-m+fp/hard/libgcc.a
LOAD /home/user/Devel/stm32/gcc-arm-none-eabi-8-2018-q4-major/bin/../lib/gcc/arm-none-eabi/8.2.1/../../../../arm-none-eabi/lib/thumb/v7e-m+fp/hard/libc_nano.a
LOAD /home/user/Devel/stm32/gcc-arm-none-eabi-8-2018-q4-major/bin/../lib/gcc/arm-none-eabi/8.2.1/../../../../arm-none-eabi/lib/thumb/v7e-m+fp/hard/libnosys.a
END GROUP
START GROUP
LOAD /home/user/Devel/stm32/gcc-arm-none-eabi-8-2018-q4-major/bin/../lib/gcc/arm-none-eabi/8.2.1/thumb/v7e-m+fp/hard/libgcc.a
LOAD /home/user/Devel/stm32/gcc-arm-none-eabi-8-2018-q4-major/bin/../lib/gcc/arm-none-eabi/8.2.1/../../../../arm-none-eabi/lib/thumb/v7e-m+fp/hard/libc_nano.a
LOAD /home/user/Devel/stm32/gcc-arm-none-eabi-8-2018-q4-major/bin/../lib/gcc/arm-none-eabi/8.2.1/../../../../arm-none-eabi/lib/thumb/v7e-m+fp/hard/libnosys.a
END GROUP

.text           0x0000000008000000     0x8664
 *(.vectors)
 .vectors       0x0000000008000000      0x1ac /home/user/Devel/stm32/libopencm3/lib/libopencm3_stm32f4.a(vector.o)
                0x0000000008000000                vector_table
 *(.text*)
 .text          0x00000000080001ac        0x0 ././mew.o
 .text.startup.main
                0x00000000080001ac       0xb8 ././mew.o
                0x00000000080001ac                main
 .text          0x0000000008000264        0x0 ././drivers/i2c/i2c.o
 .text.mew_i2c_init
                0x0000000008000264       0x88 ././drivers/i2c/i2c.o
                0x0000000008000264                mew_i2c_init
 .text.mew_i2c_read_block_ts2007
                0x00000000080002ec      0x120 ././drivers/i2c/i2c.o
                0x00000000080002ec                mew_i2c_read_block_ts2007
 .text.mew_i2c_read
                0x000000000800040c       0xb0 ././drivers/i2c/i2c.o
                0x000000000800040c                mew_i2c_read
 .text.mew_i2c_write
                0x00000000080004bc       0x90 ././drivers/i2c/i2c.o
                0x00000000080004bc                mew_i2c_write
 .text.mew_i2c_eeprom_write
                0x000000000800054c       0x7c ././drivers/i2c/i2c.o
                0x000000000800054c                mew_i2c_eeprom_write
 .text.mew_i2c_eeprom_test
                0x00000000080005c8       0x98 ././drivers/i2c/i2c.o
                0x00000000080005c8                mew_i2c_eeprom_test
 .text.mew_i2c_eeprom_read
                0x0000000008000660       0x28 ././drivers/i2c/i2c.o
                0x0000000008000660                mew_i2c_eeprom_read
 .text          0x0000000008000688        0x0 ././drivers/duart/duart.o
 .text.mew_duart_print_hex.part.1
                0x0000000008000688       0x90 ././drivers/duart/duart.o
 .text.mew_init_duart
                0x0000000008000718       0x6c ././drivers/duart/duart.o
                0x0000000008000718                mew_init_duart
 .text.mew_duart_print_ex
                0x0000000008000784       0x44 ././drivers/duart/duart.o
                0x0000000008000784                mew_duart_print_ex
 .text.mew_duart_print
                0x00000000080007c8        0x8 ././drivers/duart/duart.o
                0x00000000080007c8                mew_duart_print
 .text.mew_duart_print_hex_ex
                0x00000000080007d0       0x24 ././drivers/duart/duart.o
                0x00000000080007d0                mew_duart_print_hex_ex
 .text.mew_duart_print_hex
                0x00000000080007f4       0x10 ././drivers/duart/duart.o
                0x00000000080007f4                mew_duart_print_hex
 .text.__mew_to_hex
                0x0000000008000804       0x18 ././drivers/duart/duart.o
                0x0000000008000804                __mew_to_hex
 .text          0x000000000800081c        0x0 ././drivers/display/ts_tsc2007.o
 .text.mew_touchscreen_test
                0x000000000800081c      0x134 ././drivers/display/ts_tsc2007.o
                0x000000000800081c                mew_touchscreen_test
 .text.mew_touchscreen_init
                0x0000000008000950       0x54 ././drivers/display/ts_tsc2007.o
                0x0000000008000950                mew_touchscreen_init
 .text.exti2_isr
                0x00000000080009a4       0x14 ././drivers/display/ts_tsc2007.o
                0x00000000080009a4                exti2_isr
 .text          0x00000000080009b8        0x0 ././drivers/display/display.o
 .text.__mew_spi_init_non_dma
                0x00000000080009b8       0x7c ././drivers/display/display.o
 .text.__mew_cmd
                0x0000000008000a34       0x28 ././drivers/display/display.o
 .text.__mew_data
                0x0000000008000a5c       0x28 ././drivers/display/display.o
 .text.__mew_display_write_cmd_with_data
                0x0000000008000a84       0x4c ././drivers/display/display.o
 .text.__mew_display_write_cmd
                0x0000000008000ad0       0x24 ././drivers/display/display.o
 .text.__mew_spi_init_dma
                0x0000000008000af4       0x74 ././drivers/display/display.o
 .text.__mew_spi_fill_dma
                0x0000000008000b68       0xb8 ././drivers/display/display.o
 .text.mew_display_flush
                0x0000000008000c20      0x140 ././drivers/display/display.o
 .text.mew_display_init
                0x0000000008000d60      0x368 ././drivers/display/display.o
                0x0000000008000d60                mew_display_init
 .text.mew_display_sync_icon
                0x00000000080010c8       0x3c ././drivers/display/display.o
                0x00000000080010c8                mew_display_sync_icon
 .text.dma1_stream4_isr
                0x0000000008001104       0x24 ././drivers/display/display.o
                0x0000000008001104                dma1_stream4_isr
 .text          0x0000000008001128        0x0 ././drivers/usb/mew_usb_hid.o
 .text.hid_control_request
                0x0000000008001128       0x28 ././drivers/usb/mew_usb_hid.o
 .text.hid_set_config
                0x0000000008001150       0x40 ././drivers/usb/mew_usb_hid.o
 .text.mew_send_status
                0x0000000008001190       0x68 ././drivers/usb/mew_usb_hid.o
 .text.mew_hid_data_rx
                0x00000000080011f8      0x1d0 ././drivers/usb/mew_usb_hid.o
                0x00000000080011f8                mew_hid_data_rx
 .text.mew_hid_usb_disable
                0x00000000080013c8       0x40 ././drivers/usb/mew_usb_hid.o
                0x00000000080013c8                mew_hid_usb_disable
 .text.mew_hid_usb_init
                0x0000000008001408       0x8c ././drivers/usb/mew_usb_hid.o
                0x0000000008001408                mew_hid_usb_init
 .text.mew_print_loop_handler
                0x0000000008001494       0x44 ././drivers/usb/mew_usb_hid.o
                0x0000000008001494                mew_print_loop_handler
 .text.mew_hid_send
                0x00000000080014d8       0x2c ././drivers/usb/mew_usb_hid.o
                0x00000000080014d8                mew_hid_send
 .text.otg_fs_isr
                0x0000000008001504        0xc ././drivers/usb/mew_usb_hid.o
                0x0000000008001504                otg_fs_isr
 .text          0x0000000008001510        0x0 ././drivers/spi_flash/flash.o
 .text.mew_spi_flash_init
                0x0000000008001510      0x12c ././drivers/spi_flash/flash.o
                0x0000000008001510                mew_spi_flash_init
 .text.dma2_stream0_isr
                0x000000000800163c       0x34 ././drivers/spi_flash/flash.o
                0x000000000800163c                dma2_stream0_isr
 .text.dma2_stream3_isr
                0x0000000008001670      0x180 ././drivers/spi_flash/flash.o
                0x0000000008001670                dma2_stream3_isr
 .text.mew_spi_flash_xfer
                0x00000000080017f0      0x114 ././drivers/spi_flash/flash.o
                0x00000000080017f0                mew_spi_flash_xfer
 .text.mew_spi_flash_set_on_receive_handler
                0x0000000008001904       0x18 ././drivers/spi_flash/flash.o
                0x0000000008001904                mew_spi_flash_set_on_receive_handler
 .text.mew_spi_flash_handler
                0x000000000800191c       0x20 ././drivers/spi_flash/flash.o
                0x000000000800191c                mew_spi_flash_handler
 .text.mew_spi_flash_get_async_state
                0x000000000800193c       0x10 ././drivers/spi_flash/flash.o
                0x000000000800193c                mew_spi_flash_get_async_state
 .text          0x000000000800194c        0x0 ././drivers/spi_flash/w25n01gvzeig.o
 .text.__mew_flash_read_sector_async_handler
                0x000000000800194c        0x4 ././drivers/spi_flash/w25n01gvzeig.o
 .text.mew_flash_get_id
                0x0000000008001950       0x1c ././drivers/spi_flash/w25n01gvzeig.o
                0x0000000008001950                mew_flash_get_id
 .text.mew_flash_read_sector_async
                0x000000000800196c       0x38 ././drivers/spi_flash/w25n01gvzeig.o
                0x000000000800196c                mew_flash_read_sector_async
 .text          0x00000000080019a4        0x0 ././drivers/flash/otp_storage.o
 .text.mew_otp_storage_init
                0x00000000080019a4        0x4 ././drivers/flash/otp_storage.o
                0x00000000080019a4                mew_otp_storage_init
 .text          0x00000000080019a8        0x0 ././drivers/hw_crypt/aes256.o
 .text.mewcrypt_aes256
                0x00000000080019a8      0x2c8 ././drivers/hw_crypt/aes256.o
                0x00000000080019a8                mewcrypt_aes256
 .text.dma2_stream5_isr
                0x0000000008001c70       0x24 ././drivers/hw_crypt/aes256.o
                0x0000000008001c70                dma2_stream5_isr
 .text.dma2_stream6_isr
                0x0000000008001c94       0x24 ././drivers/hw_crypt/aes256.o
                0x0000000008001c94                dma2_stream6_isr
 .text          0x0000000008001cb8        0x0 ././drivers/hw_crypt/sha2_256.o
 .text.mew_sha256_init
                0x0000000008001cb8       0x30 ././drivers/hw_crypt/sha2_256.o
                0x0000000008001cb8                mew_sha256_init
 .text.mew_sha256_add_byte
                0x0000000008001ce8       0x44 ././drivers/hw_crypt/sha2_256.o
                0x0000000008001ce8                mew_sha256_add_byte
 .text.mew_sha256_finalize
                0x0000000008001d2c       0xa4 ././drivers/hw_crypt/sha2_256.o
                0x0000000008001d2c                mew_sha256_finalize
 .text          0x0000000008001dd0        0x0 ././drivers/system/systick.o
 .text.mew_systick_init
                0x0000000008001dd0       0x20 ././drivers/system/systick.o
                0x0000000008001dd0                mew_systick_init
 .text.mew_get_millis
                0x0000000008001df0        0xc ././drivers/system/systick.o
                0x0000000008001df0                mew_get_millis
 .text.mew_delay_ms
                0x0000000008001dfc       0x1c ././drivers/system/systick.o
                0x0000000008001dfc                mew_delay_ms
 .text.sys_tick_handler
                0x0000000008001e18       0x10 ././drivers/system/systick.o
                0x0000000008001e18                sys_tick_handler
 .text          0x0000000008001e28        0x0 ././drivers/system/system.o
 .text.mew_check_dma_memory
                0x0000000008001e28        0x4 ././drivers/system/system.o
                0x0000000008001e28                mew_check_dma_memory
 .text.mew_wait_for_state
                0x0000000008001e2c       0x28 ././drivers/system/system.o
                0x0000000008001e2c                mew_wait_for_state
 .text          0x0000000008001e54        0x0 ././drivers/system/random.o
 .text.mew_rng_init
                0x0000000008001e54       0x1c ././drivers/system/random.o
                0x0000000008001e54                mew_rng_init
 .text.mew_random32
                0x0000000008001e70       0x3c ././drivers/system/random.o
                0x0000000008001e70                mew_random32
 .text.mew_random64
                0x0000000008001eac       0x5c ././drivers/system/random.o
                0x0000000008001eac                mew_random64
 .text          0x0000000008001f08        0x0 ././drivers/system/clock.o
 .text.mew_clock_init
                0x0000000008001f08       0xa0 ././drivers/system/clock.o
                0x0000000008001f08                mew_clock_init
 .text          0x0000000008001fa8        0x0 ././debug.o
 .text.mew_debug_die
                0x0000000008001fa8       0x10 ././debug.o
                0x0000000008001fa8                mew_debug_die
 .text.mew_debug_die_with_message
                0x0000000008001fb8        0xc ././debug.o
                0x0000000008001fb8                mew_debug_die_with_message
 .text.mew_debug_print
                0x0000000008001fc4        0x4 ././debug.o
                0x0000000008001fc4                mew_debug_print
 .text.mew_debug_print_hex
                0x0000000008001fc8        0x4 ././debug.o
                0x0000000008001fc8                mew_debug_print_hex
 .text.mew_debug_print_hex_ex
                0x0000000008001fcc        0x4 ././debug.o
                0x0000000008001fcc                mew_debug_print_hex_ex
 .text.hard_fault_handler
                0x0000000008001fd0        0xc ././debug.o
                0x0000000008001fd0                hard_fault_handler
 .text.usage_fault_handler
                0x0000000008001fdc        0xc ././debug.o
                0x0000000008001fdc                usage_fault_handler
 .text.bus_fault_handler
                0x0000000008001fe8        0xc ././debug.o
                0x0000000008001fe8                bus_fault_handler
 .text          0x0000000008001ff4        0x0 ././ui/mew_logo.o
 .text          0x0000000008001ff4        0x0 ././ui/sync_logo.o
 .text          0x0000000008001ff4        0x8 ././drivers/system/byteorder.o
                0x0000000008001ff4                big2little32
                0x0000000008001ff8                big2little16
 .text          0x0000000008001ffc        0x0 /home/user/Devel/stm32/libopencm3/lib/libopencm3_stm32f4.a(rcc.o)
 .text.rcc_osc_ready_int_clear
                0x0000000008001ffc       0x5c /home/user/Devel/stm32/libopencm3/lib/libopencm3_stm32f4.a(rcc.o)
                0x0000000008001ffc                rcc_osc_ready_int_clear
 .text.rcc_osc_ready_int_enable
                0x0000000008002058       0x5c /home/user/Devel/stm32/libopencm3/lib/libopencm3_stm32f4.a(rcc.o)
                0x0000000008002058                rcc_osc_ready_int_enable
 .text.rcc_osc_ready_int_disable
                0x00000000080020b4       0x5c /home/user/Devel/stm32/libopencm3/lib/libopencm3_stm32f4.a(rcc.o)
                0x00000000080020b4                rcc_osc_ready_int_disable
 .text.rcc_osc_ready_int_flag
                0x0000000008002110       0x60 /home/user/Devel/stm32/libopencm3/lib/libopencm3_stm32f4.a(rcc.o)
                0x0000000008002110                rcc_osc_ready_int_flag
 .text.rcc_css_int_clear
                0x0000000008002170       0x10 /home/user/Devel/stm32/libopencm3/lib/libopencm3_stm32f4.a(rcc.o)
                0x0000000008002170                rcc_css_int_clear
 .text.rcc_css_int_flag
                0x0000000008002180       0x10 /home/user/Devel/stm32/libopencm3/lib/libopencm3_stm32f4.a(rcc.o)
                0x0000000008002180                rcc_css_int_flag
 .text.rcc_is_osc_ready
                0x0000000008002190       0x5c /home/user/Devel/stm32/libopencm3/lib/libopencm3_stm32f4.a(rcc.o)
                0x0000000008002190                rcc_is_osc_ready
 .text.rcc_wait_for_osc_ready
                0x00000000080021ec       0x10 /home/user/Devel/stm32/libopencm3/lib/libopencm3_stm32f4.a(rcc.o)
                0x00000000080021ec                rcc_wait_for_osc_ready
 .text.rcc_wait_for_sysclk_status
                0x00000000080021fc       0x3c /home/user/Devel/stm32/libopencm3/lib/libopencm3_stm32f4.a(rcc.o)
                0x00000000080021fc                rcc_wait_for_sysclk_status
 .text.rcc_osc_on
                0x0000000008002238       0x58 /home/user/Devel/stm32/libopencm3/lib/libopencm3_stm32f4.a(rcc.o)
                0x0000000008002238                rcc_osc_on
 .text.rcc_osc_off
                0x0000000008002290       0x58 /home/user/Devel/stm32/libopencm3/lib/libopencm3_stm32f4.a(rcc.o)
                0x0000000008002290                rcc_osc_off
 .text.rcc_css_enable
                0x00000000080022e8       0x10 /home/user/Devel/stm32/libopencm3/lib/libopencm3_stm32f4.a(rcc.o)
                0x00000000080022e8                rcc_css_enable
 .text.rcc_css_disable
                0x00000000080022f8       0x10 /home/user/Devel/stm32/libopencm3/lib/libopencm3_stm32f4.a(rcc.o)
                0x00000000080022f8                rcc_css_disable
 .text.rcc_osc_bypass_enable
                0x0000000008002308       0x28 /home/user/Devel/stm32/libopencm3/lib/libopencm3_stm32f4.a(rcc.o)
                0x0000000008002308                rcc_osc_bypass_enable
 .text.rcc_osc_bypass_disable
                0x0000000008002330       0x28 /home/user/Devel/stm32/libopencm3/lib/libopencm3_stm32f4.a(rcc.o)
                0x0000000008002330                rcc_osc_bypass_disable
 .text.rcc_pllsai_config
                0x0000000008002358       0x2c /home/user/Devel/stm32/libopencm3/lib/libopencm3_stm32f4.a(rcc.o)
                0x0000000008002358                rcc_pllsai_config
 .text.rcc_pllsai_postscalers
                0x0000000008002384       0x24 /home/user/Devel/stm32/libopencm3/lib/libopencm3_stm32f4.a(rcc.o)
                0x0000000008002384                rcc_pllsai_postscalers
 .text.rcc_set_sysclk_source
                0x00000000080023a8       0x14 /home/user/Devel/stm32/libopencm3/lib/libopencm3_stm32f4.a(rcc.o)
                0x00000000080023a8                rcc_set_sysclk_source
 .text.rcc_set_pll_source
                0x00000000080023bc       0x14 /home/user/Devel/stm32/libopencm3/lib/libopencm3_stm32f4.a(rcc.o)
                0x00000000080023bc                rcc_set_pll_source
 .text.rcc_set_ppre2
                0x00000000080023d0       0x14 /home/user/Devel/stm32/libopencm3/lib/libopencm3_stm32f4.a(rcc.o)
                0x00000000080023d0                rcc_set_ppre2
 .text.rcc_set_ppre1
                0x00000000080023e4       0x14 /home/user/Devel/stm32/libopencm3/lib/libopencm3_stm32f4.a(rcc.o)
                0x00000000080023e4                rcc_set_ppre1
 .text.rcc_set_hpre
                0x00000000080023f8       0x14 /home/user/Devel/stm32/libopencm3/lib/libopencm3_stm32f4.a(rcc.o)
                0x00000000080023f8                rcc_set_hpre
 .text.rcc_set_rtcpre
                0x000000000800240c       0x14 /home/user/Devel/stm32/libopencm3/lib/libopencm3_stm32f4.a(rcc.o)
                0x000000000800240c                rcc_set_rtcpre
 .text.rcc_set_main_pll_hsi
                0x0000000008002420       0x44 /home/user/Devel/stm32/libopencm3/lib/libopencm3_stm32f4.a(rcc.o)
                0x0000000008002420                rcc_set_main_pll_hsi
 .text.rcc_set_main_pll_hse
                0x0000000008002464       0x48 /home/user/Devel/stm32/libopencm3/lib/libopencm3_stm32f4.a(rcc.o)
                0x0000000008002464                rcc_set_main_pll_hse
 .text.rcc_system_clock_source
                0x00000000080024ac       0x10 /home/user/Devel/stm32/libopencm3/lib/libopencm3_stm32f4.a(rcc.o)
                0x00000000080024ac                rcc_system_clock_source
 .text.rcc_clock_setup_hse_3v3
                0x00000000080024bc       0xa8 /home/user/Devel/stm32/libopencm3/lib/libopencm3_stm32f4.a(rcc.o)
                0x00000000080024bc                rcc_clock_setup_hse_3v3
 .text          0x0000000008002564        0x0 /home/user/Devel/stm32/libopencm3/lib/libopencm3_stm32f4.a(dma_common_f24.o)
 .text.dma_stream_reset
                0x0000000008002564       0x4c /home/user/Devel/stm32/libopencm3/lib/libopencm3_stm32f4.a(dma_common_f24.o)
                0x0000000008002564                dma_stream_reset
 .text.dma_clear_interrupt_flags
                0x00000000080025b0       0x1e /home/user/Devel/stm32/libopencm3/lib/libopencm3_stm32f4.a(dma_common_f24.o)
                0x00000000080025b0                dma_clear_interrupt_flags
 .text.dma_get_interrupt_flag
                0x00000000080025ce       0x28 /home/user/Devel/stm32/libopencm3/lib/libopencm3_stm32f4.a(dma_common_f24.o)
                0x00000000080025ce                dma_get_interrupt_flag
 .text.dma_set_transfer_mode
                0x00000000080025f6       0x22 /home/user/Devel/stm32/libopencm3/lib/libopencm3_stm32f4.a(dma_common_f24.o)
                0x00000000080025f6                dma_set_transfer_mode
 .text.dma_set_priority
                0x0000000008002618       0x18 /home/user/Devel/stm32/libopencm3/lib/libopencm3_stm32f4.a(dma_common_f24.o)
                0x0000000008002618                dma_set_priority
 .text.dma_set_memory_size
                0x0000000008002630       0x18 /home/user/Devel/stm32/libopencm3/lib/libopencm3_stm32f4.a(dma_common_f24.o)
                0x0000000008002630                dma_set_memory_size
 .text.dma_set_peripheral_size
                0x0000000008002648       0x18 /home/user/Devel/stm32/libopencm3/lib/libopencm3_stm32f4.a(dma_common_f24.o)
                0x0000000008002648                dma_set_peripheral_size
 .text.dma_enable_memory_increment_mode
                0x0000000008002660       0x12 /home/user/Devel/stm32/libopencm3/lib/libopencm3_stm32f4.a(dma_common_f24.o)
                0x0000000008002660                dma_enable_memory_increment_mode
 .text.dma_disable_memory_increment_mode
                0x0000000008002672       0x12 /home/user/Devel/stm32/libopencm3/lib/libopencm3_stm32f4.a(dma_common_f24.o)
                0x0000000008002672                dma_disable_memory_increment_mode
 .text.dma_enable_peripheral_increment_mode
                0x0000000008002684       0x16 /home/user/Devel/stm32/libopencm3/lib/libopencm3_stm32f4.a(dma_common_f24.o)
                0x0000000008002684                dma_enable_peripheral_increment_mode
 .text.dma_disable_peripheral_increment_mode
                0x000000000800269a       0x12 /home/user/Devel/stm32/libopencm3/lib/libopencm3_stm32f4.a(dma_common_f24.o)
                0x000000000800269a                dma_disable_peripheral_increment_mode
 .text.dma_enable_fixed_peripheral_increment_mode
                0x00000000080026ac       0x12 /home/user/Devel/stm32/libopencm3/lib/libopencm3_stm32f4.a(dma_common_f24.o)
                0x00000000080026ac                dma_enable_fixed_peripheral_increment_mode
 .text.dma_enable_circular_mode
                0x00000000080026be       0x12 /home/user/Devel/stm32/libopencm3/lib/libopencm3_stm32f4.a(dma_common_f24.o)
                0x00000000080026be                dma_enable_circular_mode
 .text.dma_channel_select
                0x00000000080026d0       0x10 /home/user/Devel/stm32/libopencm3/lib/libopencm3_stm32f4.a(dma_common_f24.o)
                0x00000000080026d0                dma_channel_select
 .text.dma_set_memory_burst
                0x00000000080026e0       0x14 /home/user/Devel/stm32/libopencm3/lib/libopencm3_stm32f4.a(dma_common_f24.o)
                0x00000000080026e0                dma_set_memory_burst
 .text.dma_set_peripheral_burst
                0x00000000080026f4       0x14 /home/user/Devel/stm32/libopencm3/lib/libopencm3_stm32f4.a(dma_common_f24.o)
                0x00000000080026f4                dma_set_peripheral_burst
 .text.dma_set_initial_target
                0x0000000008002708       0x1a /home/user/Devel/stm32/libopencm3/lib/libopencm3_stm32f4.a(dma_common_f24.o)
                0x0000000008002708                dma_set_initial_target
 .text.dma_get_target
                0x0000000008002722       0x10 /home/user/Devel/stm32/libopencm3/lib/libopencm3_stm32f4.a(dma_common_f24.o)
                0x0000000008002722                dma_get_target
 .text.dma_enable_double_buffer_mode
                0x0000000008002732       0x12 /home/user/Devel/stm32/libopencm3/lib/libopencm3_stm32f4.a(dma_common_f24.o)
                0x0000000008002732                dma_enable_double_buffer_mode
 .text.dma_disable_double_buffer_mode
                0x0000000008002744       0x12 /home/user/Devel/stm32/libopencm3/lib/libopencm3_stm32f4.a(dma_common_f24.o)
                0x0000000008002744                dma_disable_double_buffer_mode
 .text.dma_set_peripheral_flow_control
                0x0000000008002756       0x12 /home/user/Devel/stm32/libopencm3/lib/libopencm3_stm32f4.a(dma_common_f24.o)
                0x0000000008002756                dma_set_peripheral_flow_control
 .text.dma_set_dma_flow_control
                0x0000000008002768       0x12 /home/user/Devel/stm32/libopencm3/lib/libopencm3_stm32f4.a(dma_common_f24.o)
                0x0000000008002768                dma_set_dma_flow_control
 .text.dma_enable_transfer_error_interrupt
                0x000000000800277a       0x1e /home/user/Devel/stm32/libopencm3/lib/libopencm3_stm32f4.a(dma_common_f24.o)
                0x000000000800277a                dma_enable_transfer_error_interrupt
 .text.dma_disable_transfer_error_interrupt
                0x0000000008002798       0x12 /home/user/Devel/stm32/libopencm3/lib/libopencm3_stm32f4.a(dma_common_f24.o)
                0x0000000008002798                dma_disable_transfer_error_interrupt
 .text.dma_enable_half_transfer_interrupt
                0x00000000080027aa       0x1e /home/user/Devel/stm32/libopencm3/lib/libopencm3_stm32f4.a(dma_common_f24.o)
                0x00000000080027aa                dma_enable_half_transfer_interrupt
 .text.dma_disable_half_transfer_interrupt
                0x00000000080027c8       0x12 /home/user/Devel/stm32/libopencm3/lib/libopencm3_stm32f4.a(dma_common_f24.o)
                0x00000000080027c8                dma_disable_half_transfer_interrupt
 .text.dma_enable_transfer_complete_interrupt
                0x00000000080027da       0x1e /home/user/Devel/stm32/libopencm3/lib/libopencm3_stm32f4.a(dma_common_f24.o)
                0x00000000080027da                dma_enable_transfer_complete_interrupt
 .text.dma_disable_transfer_complete_interrupt
                0x00000000080027f8       0x12 /home/user/Devel/stm32/libopencm3/lib/libopencm3_stm32f4.a(dma_common_f24.o)
                0x00000000080027f8                dma_disable_transfer_complete_interrupt
 .text.dma_enable_direct_mode_error_interrupt
                0x000000000800280a       0x1e /home/user/Devel/stm32/libopencm3/lib/libopencm3_stm32f4.a(dma_common_f24.o)
                0x000000000800280a                dma_enable_direct_mode_error_interrupt
 .text.dma_disable_direct_mode_error_interrupt
                0x0000000008002828       0x12 /home/user/Devel/stm32/libopencm3/lib/libopencm3_stm32f4.a(dma_common_f24.o)
                0x0000000008002828                dma_disable_direct_mode_error_interrupt
 .text.dma_enable_fifo_error_interrupt
                0x000000000800283a       0x1e /home/user/Devel/stm32/libopencm3/lib/libopencm3_stm32f4.a(dma_common_f24.o)
                0x000000000800283a                dma_enable_fifo_error_interrupt
 .text.dma_disable_fifo_error_interrupt
                0x0000000008002858       0x12 /home/user/Devel/stm32/libopencm3/lib/libopencm3_stm32f4.a(dma_common_f24.o)
                0x0000000008002858                dma_disable_fifo_error_interrupt
 .text.dma_fifo_status
                0x000000000800286a       0x10 /home/user/Devel/stm32/libopencm3/lib/libopencm3_stm32f4.a(dma_common_f24.o)
                0x000000000800286a                dma_fifo_status
 .text.dma_enable_direct_mode
                0x000000000800287a       0x12 /home/user/Devel/stm32/libopencm3/lib/libopencm3_stm32f4.a(dma_common_f24.o)
                0x000000000800287a                dma_enable_direct_mode
 .text.dma_enable_fifo_mode
                0x000000000800288c       0x12 /home/user/Devel/stm32/libopencm3/lib/libopencm3_stm32f4.a(dma_common_f24.o)
                0x000000000800288c                dma_enable_fifo_mode
 .text.dma_set_fifo_threshold
                0x000000000800289e       0x14 /home/user/Devel/stm32/libopencm3/lib/libopencm3_stm32f4.a(dma_common_f24.o)
                0x000000000800289e                dma_set_fifo_threshold
 .text.dma_enable_stream
                0x00000000080028b2       0x12 /home/user/Devel/stm32/libopencm3/lib/libopencm3_stm32f4.a(dma_common_f24.o)
                0x00000000080028b2                dma_enable_stream
 .text.dma_disable_stream
                0x00000000080028c4       0x12 /home/user/Devel/stm32/libopencm3/lib/libopencm3_stm32f4.a(dma_common_f24.o)
                0x00000000080028c4                dma_disable_stream
 .text.dma_set_peripheral_address
                0x00000000080028d6       0x10 /home/user/Devel/stm32/libopencm3/lib/libopencm3_stm32f4.a(dma_common_f24.o)
                0x00000000080028d6                dma_set_peripheral_address
 .text.dma_set_memory_address
                0x00000000080028e6       0x1a /home/user/Devel/stm32/libopencm3/lib/libopencm3_stm32f4.a(dma_common_f24.o)
                0x00000000080028e6                dma_set_memory_address
 .text.dma_set_memory_address_1
                0x0000000008002900       0x1a /home/user/Devel/stm32/libopencm3/lib/libopencm3_stm32f4.a(dma_common_f24.o)
                0x0000000008002900                dma_set_memory_address_1
 .text.dma_set_number_of_data
                0x000000000800291a        0xc /home/user/Devel/stm32/libopencm3/lib/libopencm3_stm32f4.a(dma_common_f24.o)
                0x000000000800291a                dma_set_number_of_data
 .text          0x0000000008002926        0x0 /home/user/Devel/stm32/libopencm3/lib/libopencm3_stm32f4.a(gpio_common_all.o)
 .text.gpio_set
                0x0000000008002926        0x4 /home/user/Devel/stm32/libopencm3/lib/libopencm3_stm32f4.a(gpio_common_all.o)
                0x0000000008002926                gpio_set
 .text.gpio_clear
                0x000000000800292a        0x6 /home/user/Devel/stm32/libopencm3/lib/libopencm3_stm32f4.a(gpio_common_all.o)
                0x000000000800292a                gpio_clear
 .text.gpio_get
                0x0000000008002930        0x6 /home/user/Devel/stm32/libopencm3/lib/libopencm3_stm32f4.a(gpio_common_all.o)
                0x0000000008002930                gpio_get
 .text.gpio_toggle
                0x0000000008002936       0x12 /home/user/Devel/stm32/libopencm3/lib/libopencm3_stm32f4.a(gpio_common_all.o)
                0x0000000008002936                gpio_toggle
 .text.gpio_port_read
                0x0000000008002948        0x6 /home/user/Devel/stm32/libopencm3/lib/libopencm3_stm32f4.a(gpio_common_all.o)
                0x0000000008002948                gpio_port_read
 .text.gpio_port_write
                0x000000000800294e        0x4 /home/user/Devel/stm32/libopencm3/lib/libopencm3_stm32f4.a(gpio_common_all.o)
                0x000000000800294e                gpio_port_write
 .text.gpio_port_config_lock
                0x0000000008002952       0x10 /home/user/Devel/stm32/libopencm3/lib/libopencm3_stm32f4.a(gpio_common_all.o)
                0x0000000008002952                gpio_port_config_lock
 .text          0x0000000008002962        0x0 /home/user/Devel/stm32/libopencm3/lib/libopencm3_stm32f4.a(gpio_common_f0234.o)
 .text.gpio_mode_setup
                0x0000000008002962       0x44 /home/user/Devel/stm32/libopencm3/lib/libopencm3_stm32f4.a(gpio_common_f0234.o)
                0x0000000008002962                gpio_mode_setup
 .text.gpio_set_output_options
                0x00000000080029a6       0x36 /home/user/Devel/stm32/libopencm3/lib/libopencm3_stm32f4.a(gpio_common_f0234.o)
                0x00000000080029a6                gpio_set_output_options
 .text.gpio_set_af
                0x00000000080029dc       0x58 /home/user/Devel/stm32/libopencm3/lib/libopencm3_stm32f4.a(gpio_common_f0234.o)
                0x00000000080029dc                gpio_set_af
 .text          0x0000000008002a34        0x0 /home/user/Devel/stm32/libopencm3/lib/libopencm3_stm32f4.a(i2c_common_v1.o)
 .text.i2c_reset
                0x0000000008002a34       0x30 /home/user/Devel/stm32/libopencm3/lib/libopencm3_stm32f4.a(i2c_common_v1.o)
                0x0000000008002a34                i2c_reset
 .text.i2c_peripheral_enable
                0x0000000008002a64        0xa /home/user/Devel/stm32/libopencm3/lib/libopencm3_stm32f4.a(i2c_common_v1.o)
                0x0000000008002a64                i2c_peripheral_enable
 .text.i2c_peripheral_disable
                0x0000000008002a6e        0xa /home/user/Devel/stm32/libopencm3/lib/libopencm3_stm32f4.a(i2c_common_v1.o)
                0x0000000008002a6e                i2c_peripheral_disable
 .text.i2c_send_start
                0x0000000008002a78        0xa /home/user/Devel/stm32/libopencm3/lib/libopencm3_stm32f4.a(i2c_common_v1.o)
                0x0000000008002a78                i2c_send_start
 .text.i2c_send_stop
                0x0000000008002a82        0xa /home/user/Devel/stm32/libopencm3/lib/libopencm3_stm32f4.a(i2c_common_v1.o)
                0x0000000008002a82                i2c_send_stop
 .text.i2c_clear_stop
                0x0000000008002a8c        0xa /home/user/Devel/stm32/libopencm3/lib/libopencm3_stm32f4.a(i2c_common_v1.o)
                0x0000000008002a8c                i2c_clear_stop
 .text.i2c_set_own_7bit_slave_address
                0x0000000008002a96        0xa /home/user/Devel/stm32/libopencm3/lib/libopencm3_stm32f4.a(i2c_common_v1.o)
                0x0000000008002a96                i2c_set_own_7bit_slave_address
 .text.i2c_set_own_10bit_slave_address
                0x0000000008002aa0        0x8 /home/user/Devel/stm32/libopencm3/lib/libopencm3_stm32f4.a(i2c_common_v1.o)
                0x0000000008002aa0                i2c_set_own_10bit_slave_address
 .text.i2c_set_own_7bit_slave_address_two
                0x0000000008002aa8        0x6 /home/user/Devel/stm32/libopencm3/lib/libopencm3_stm32f4.a(i2c_common_v1.o)
                0x0000000008002aa8                i2c_set_own_7bit_slave_address_two
 .text.i2c_enable_dual_addressing_mode
                0x0000000008002aae        0xa /home/user/Devel/stm32/libopencm3/lib/libopencm3_stm32f4.a(i2c_common_v1.o)
                0x0000000008002aae                i2c_enable_dual_addressing_mode
 .text.i2c_disable_dual_addressing_mode
                0x0000000008002ab8        0xa /home/user/Devel/stm32/libopencm3/lib/libopencm3_stm32f4.a(i2c_common_v1.o)
                0x0000000008002ab8                i2c_disable_dual_addressing_mode
 .text.i2c_set_clock_frequency
                0x0000000008002ac2        0xe /home/user/Devel/stm32/libopencm3/lib/libopencm3_stm32f4.a(i2c_common_v1.o)
                0x0000000008002ac2                i2c_set_clock_frequency
 .text.i2c_send_data
                0x0000000008002ad0        0x4 /home/user/Devel/stm32/libopencm3/lib/libopencm3_stm32f4.a(i2c_common_v1.o)
                0x0000000008002ad0                i2c_send_data
 .text.i2c_set_fast_mode
                0x0000000008002ad4        0xa /home/user/Devel/stm32/libopencm3/lib/libopencm3_stm32f4.a(i2c_common_v1.o)
                0x0000000008002ad4                i2c_set_fast_mode
 .text.i2c_set_standard_mode
                0x0000000008002ade        0xa /home/user/Devel/stm32/libopencm3/lib/libopencm3_stm32f4.a(i2c_common_v1.o)
                0x0000000008002ade                i2c_set_standard_mode
 .text.i2c_set_ccr
                0x0000000008002ae8        0xc /home/user/Devel/stm32/libopencm3/lib/libopencm3_stm32f4.a(i2c_common_v1.o)
                0x0000000008002ae8                i2c_set_ccr
 .text.i2c_set_trise
                0x0000000008002af4        0x4 /home/user/Devel/stm32/libopencm3/lib/libopencm3_stm32f4.a(i2c_common_v1.o)
                0x0000000008002af4                i2c_set_trise
 .text.i2c_send_7bit_address
                0x0000000008002af8        0xa /home/user/Devel/stm32/libopencm3/lib/libopencm3_stm32f4.a(i2c_common_v1.o)
                0x0000000008002af8                i2c_send_7bit_address
 .text.i2c_get_data
                0x0000000008002b02        0x6 /home/user/Devel/stm32/libopencm3/lib/libopencm3_stm32f4.a(i2c_common_v1.o)
                0x0000000008002b02                i2c_get_data
 .text.i2c_enable_interrupt
                0x0000000008002b08        0x8 /home/user/Devel/stm32/libopencm3/lib/libopencm3_stm32f4.a(i2c_common_v1.o)
                0x0000000008002b08                i2c_enable_interrupt
 .text.i2c_disable_interrupt
                0x0000000008002b10        0xa /home/user/Devel/stm32/libopencm3/lib/libopencm3_stm32f4.a(i2c_common_v1.o)
                0x0000000008002b10                i2c_disable_interrupt
 .text.i2c_enable_ack
                0x0000000008002b1a        0xa /home/user/Devel/stm32/libopencm3/lib/libopencm3_stm32f4.a(i2c_common_v1.o)
                0x0000000008002b1a                i2c_enable_ack
 .text.i2c_disable_ack
                0x0000000008002b24        0xa /home/user/Devel/stm32/libopencm3/lib/libopencm3_stm32f4.a(i2c_common_v1.o)
                0x0000000008002b24                i2c_disable_ack
 .text.i2c_nack_next
                0x0000000008002b2e        0xa /home/user/Devel/stm32/libopencm3/lib/libopencm3_stm32f4.a(i2c_common_v1.o)
                0x0000000008002b2e                i2c_nack_next
 .text.i2c_nack_current
                0x0000000008002b38        0xa /home/user/Devel/stm32/libopencm3/lib/libopencm3_stm32f4.a(i2c_common_v1.o)
                0x0000000008002b38                i2c_nack_current
 .text.i2c_set_dutycycle
                0x0000000008002b42       0x12 /home/user/Devel/stm32/libopencm3/lib/libopencm3_stm32f4.a(i2c_common_v1.o)
                0x0000000008002b42                i2c_set_dutycycle
 .text.i2c_enable_dma
                0x0000000008002b54        0xa /home/user/Devel/stm32/libopencm3/lib/libopencm3_stm32f4.a(i2c_common_v1.o)
                0x0000000008002b54                i2c_enable_dma
 .text.i2c_disable_dma
                0x0000000008002b5e        0xa /home/user/Devel/stm32/libopencm3/lib/libopencm3_stm32f4.a(i2c_common_v1.o)
                0x0000000008002b5e                i2c_disable_dma
 .text.i2c_set_dma_last_transfer
                0x0000000008002b68        0xa /home/user/Devel/stm32/libopencm3/lib/libopencm3_stm32f4.a(i2c_common_v1.o)
                0x0000000008002b68                i2c_set_dma_last_transfer
 .text.i2c_clear_dma_last_transfer
                0x0000000008002b72        0xa /home/user/Devel/stm32/libopencm3/lib/libopencm3_stm32f4.a(i2c_common_v1.o)
                0x0000000008002b72                i2c_clear_dma_last_transfer
 .text.i2c_transfer7
                0x0000000008002b7c       0xc2 /home/user/Devel/stm32/libopencm3/lib/libopencm3_stm32f4.a(i2c_common_v1.o)
                0x0000000008002b7c                i2c_transfer7
 .text          0x0000000008002c3e        0x0 /home/user/Devel/stm32/libopencm3/lib/libopencm3_stm32f4.a(spi_common_all.o)
 *fill*         0x0000000008002c3e        0x2 
 .text.spi_reset
                0x0000000008002c40       0x60 /home/user/Devel/stm32/libopencm3/lib/libopencm3_stm32f4.a(spi_common_all.o)
                0x0000000008002c40                spi_reset
 .text.spi_enable
                0x0000000008002ca0        0xa /home/user/Devel/stm32/libopencm3/lib/libopencm3_stm32f4.a(spi_common_all.o)
                0x0000000008002ca0                spi_enable
 .text.spi_disable
                0x0000000008002caa        0xa /home/user/Devel/stm32/libopencm3/lib/libopencm3_stm32f4.a(spi_common_all.o)
                0x0000000008002caa                spi_disable
 .text.spi_clean_disable
                0x0000000008002cb4       0x26 /home/user/Devel/stm32/libopencm3/lib/libopencm3_stm32f4.a(spi_common_all.o)
                0x0000000008002cb4                spi_clean_disable
 .text.spi_write
                0x0000000008002cda        0x4 /home/user/Devel/stm32/libopencm3/lib/libopencm3_stm32f4.a(spi_common_all.o)
                0x0000000008002cda                spi_write
 .text.spi_send
                0x0000000008002cde        0xa /home/user/Devel/stm32/libopencm3/lib/libopencm3_stm32f4.a(spi_common_all.o)
                0x0000000008002cde                spi_send
 .text.spi_read
                0x0000000008002ce8        0xc /home/user/Devel/stm32/libopencm3/lib/libopencm3_stm32f4.a(spi_common_all.o)
                0x0000000008002ce8                spi_read
 .text.spi_xfer
                0x0000000008002cf4        0xe /home/user/Devel/stm32/libopencm3/lib/libopencm3_stm32f4.a(spi_common_all.o)
                0x0000000008002cf4                spi_xfer
 .text.spi_set_bidirectional_mode
                0x0000000008002d02        0xa /home/user/Devel/stm32/libopencm3/lib/libopencm3_stm32f4.a(spi_common_all.o)
                0x0000000008002d02                spi_set_bidirectional_mode
 .text.spi_set_unidirectional_mode
                0x0000000008002d0c        0xa /home/user/Devel/stm32/libopencm3/lib/libopencm3_stm32f4.a(spi_common_all.o)
                0x0000000008002d0c                spi_set_unidirectional_mode
 .text.spi_set_bidirectional_receive_only_mode
                0x0000000008002d16       0x12 /home/user/Devel/stm32/libopencm3/lib/libopencm3_stm32f4.a(spi_common_all.o)
                0x0000000008002d16                spi_set_bidirectional_receive_only_mode
 .text.spi_set_bidirectional_transmit_only_mode
                0x0000000008002d28       0x12 /home/user/Devel/stm32/libopencm3/lib/libopencm3_stm32f4.a(spi_common_all.o)
                0x0000000008002d28                spi_set_bidirectional_transmit_only_mode
 .text.spi_enable_crc
                0x0000000008002d3a        0xa /home/user/Devel/stm32/libopencm3/lib/libopencm3_stm32f4.a(spi_common_all.o)
                0x0000000008002d3a                spi_enable_crc
 .text.spi_disable_crc
                0x0000000008002d44        0xa /home/user/Devel/stm32/libopencm3/lib/libopencm3_stm32f4.a(spi_common_all.o)
                0x0000000008002d44                spi_disable_crc
 .text.spi_set_next_tx_from_buffer
                0x0000000008002d4e        0xa /home/user/Devel/stm32/libopencm3/lib/libopencm3_stm32f4.a(spi_common_all.o)
                0x0000000008002d4e                spi_set_next_tx_from_buffer
 .text.spi_set_next_tx_from_crc
                0x0000000008002d58        0xa /home/user/Devel/stm32/libopencm3/lib/libopencm3_stm32f4.a(spi_common_all.o)
                0x0000000008002d58                spi_set_next_tx_from_crc
 .text.spi_set_full_duplex_mode
                0x0000000008002d62        0xa /home/user/Devel/stm32/libopencm3/lib/libopencm3_stm32f4.a(spi_common_all.o)
                0x0000000008002d62                spi_set_full_duplex_mode
 .text.spi_set_receive_only_mode
                0x0000000008002d6c        0xa /home/user/Devel/stm32/libopencm3/lib/libopencm3_stm32f4.a(spi_common_all.o)
                0x0000000008002d6c                spi_set_receive_only_mode
 .text.spi_disable_software_slave_management
                0x0000000008002d76        0xa /home/user/Devel/stm32/libopencm3/lib/libopencm3_stm32f4.a(spi_common_all.o)
                0x0000000008002d76                spi_disable_software_slave_management
 .text.spi_enable_software_slave_management
                0x0000000008002d80       0x12 /home/user/Devel/stm32/libopencm3/lib/libopencm3_stm32f4.a(spi_common_all.o)
                0x0000000008002d80                spi_enable_software_slave_management
 .text.spi_set_nss_high
                0x0000000008002d92        0xa /home/user/Devel/stm32/libopencm3/lib/libopencm3_stm32f4.a(spi_common_all.o)
                0x0000000008002d92                spi_set_nss_high
 .text.spi_set_nss_low
                0x0000000008002d9c        0xa /home/user/Devel/stm32/libopencm3/lib/libopencm3_stm32f4.a(spi_common_all.o)
                0x0000000008002d9c                spi_set_nss_low
 .text.spi_send_lsb_first
                0x0000000008002da6        0xa /home/user/Devel/stm32/libopencm3/lib/libopencm3_stm32f4.a(spi_common_all.o)
                0x0000000008002da6                spi_send_lsb_first
 .text.spi_send_msb_first
                0x0000000008002db0        0xa /home/user/Devel/stm32/libopencm3/lib/libopencm3_stm32f4.a(spi_common_all.o)
                0x0000000008002db0                spi_send_msb_first
 .text.spi_set_baudrate_prescaler
                0x0000000008002dba       0x14 /home/user/Devel/stm32/libopencm3/lib/libopencm3_stm32f4.a(spi_common_all.o)
                0x0000000008002dba                spi_set_baudrate_prescaler
 .text.spi_set_master_mode
                0x0000000008002dce        0xa /home/user/Devel/stm32/libopencm3/lib/libopencm3_stm32f4.a(spi_common_all.o)
                0x0000000008002dce                spi_set_master_mode
 .text.spi_set_slave_mode
                0x0000000008002dd8        0xa /home/user/Devel/stm32/libopencm3/lib/libopencm3_stm32f4.a(spi_common_all.o)
                0x0000000008002dd8                spi_set_slave_mode
 .text.spi_set_clock_polarity_1
                0x0000000008002de2        0xa /home/user/Devel/stm32/libopencm3/lib/libopencm3_stm32f4.a(spi_common_all.o)
                0x0000000008002de2                spi_set_clock_polarity_1
 .text.spi_set_clock_polarity_0
                0x0000000008002dec        0xa /home/user/Devel/stm32/libopencm3/lib/libopencm3_stm32f4.a(spi_common_all.o)
                0x0000000008002dec                spi_set_clock_polarity_0
 .text.spi_set_clock_phase_1
                0x0000000008002df6        0xa /home/user/Devel/stm32/libopencm3/lib/libopencm3_stm32f4.a(spi_common_all.o)
                0x0000000008002df6                spi_set_clock_phase_1
 .text.spi_set_clock_phase_0
                0x0000000008002e00        0xa /home/user/Devel/stm32/libopencm3/lib/libopencm3_stm32f4.a(spi_common_all.o)
                0x0000000008002e00                spi_set_clock_phase_0
 .text.spi_enable_tx_buffer_empty_interrupt
                0x0000000008002e0a        0xa /home/user/Devel/stm32/libopencm3/lib/libopencm3_stm32f4.a(spi_common_all.o)
                0x0000000008002e0a                spi_enable_tx_buffer_empty_interrupt
 .text.spi_disable_tx_buffer_empty_interrupt
                0x0000000008002e14        0xa /home/user/Devel/stm32/libopencm3/lib/libopencm3_stm32f4.a(spi_common_all.o)
                0x0000000008002e14                spi_disable_tx_buffer_empty_interrupt
 .text.spi_enable_rx_buffer_not_empty_interrupt
                0x0000000008002e1e        0xa /home/user/Devel/stm32/libopencm3/lib/libopencm3_stm32f4.a(spi_common_all.o)
                0x0000000008002e1e                spi_enable_rx_buffer_not_empty_interrupt
 .text.spi_disable_rx_buffer_not_empty_interrupt
                0x0000000008002e28        0xa /home/user/Devel/stm32/libopencm3/lib/libopencm3_stm32f4.a(spi_common_all.o)
                0x0000000008002e28                spi_disable_rx_buffer_not_empty_interrupt
 .text.spi_enable_error_interrupt
                0x0000000008002e32        0xa /home/user/Devel/stm32/libopencm3/lib/libopencm3_stm32f4.a(spi_common_all.o)
                0x0000000008002e32                spi_enable_error_interrupt
 .text.spi_disable_error_interrupt
                0x0000000008002e3c        0xa /home/user/Devel/stm32/libopencm3/lib/libopencm3_stm32f4.a(spi_common_all.o)
                0x0000000008002e3c                spi_disable_error_interrupt
 .text.spi_enable_ss_output
                0x0000000008002e46        0xa /home/user/Devel/stm32/libopencm3/lib/libopencm3_stm32f4.a(spi_common_all.o)
                0x0000000008002e46                spi_enable_ss_output
 .text.spi_disable_ss_output
                0x0000000008002e50        0xa /home/user/Devel/stm32/libopencm3/lib/libopencm3_stm32f4.a(spi_common_all.o)
                0x0000000008002e50                spi_disable_ss_output
 .text.spi_enable_tx_dma
                0x0000000008002e5a        0xa /home/user/Devel/stm32/libopencm3/lib/libopencm3_stm32f4.a(spi_common_all.o)
                0x0000000008002e5a                spi_enable_tx_dma
 .text.spi_disable_tx_dma
                0x0000000008002e64        0xa /home/user/Devel/stm32/libopencm3/lib/libopencm3_stm32f4.a(spi_common_all.o)
                0x0000000008002e64                spi_disable_tx_dma
 .text.spi_enable_rx_dma
                0x0000000008002e6e        0xa /home/user/Devel/stm32/libopencm3/lib/libopencm3_stm32f4.a(spi_common_all.o)
                0x0000000008002e6e                spi_enable_rx_dma
 .text.spi_disable_rx_dma
                0x0000000008002e78        0xa /home/user/Devel/stm32/libopencm3/lib/libopencm3_stm32f4.a(spi_common_all.o)
                0x0000000008002e78                spi_disable_rx_dma
 .text.spi_set_standard_mode
                0x0000000008002e82       0x10 /home/user/Devel/stm32/libopencm3/lib/libopencm3_stm32f4.a(spi_common_all.o)
                0x0000000008002e82                spi_set_standard_mode
 .text          0x0000000008002e92        0x0 /home/user/Devel/stm32/libopencm3/lib/libopencm3_stm32f4.a(spi_common_l1f124.o)
 .text.spi_init_master
                0x0000000008002e92       0x2a /home/user/Devel/stm32/libopencm3/lib/libopencm3_stm32f4.a(spi_common_l1f124.o)
                0x0000000008002e92                spi_init_master
 .text.spi_set_dff_8bit
                0x0000000008002ebc        0xa /home/user/Devel/stm32/libopencm3/lib/libopencm3_stm32f4.a(spi_common_l1f124.o)
                0x0000000008002ebc                spi_set_dff_8bit
 .text.spi_set_dff_16bit
                0x0000000008002ec6        0xa /home/user/Devel/stm32/libopencm3/lib/libopencm3_stm32f4.a(spi_common_l1f124.o)
                0x0000000008002ec6                spi_set_dff_16bit
 .text          0x0000000008002ed0        0x0 /home/user/Devel/stm32/libopencm3/lib/libopencm3_stm32f4.a(usart_common_all.o)
 .text.usart_set_baudrate
                0x0000000008002ed0       0x30 /home/user/Devel/stm32/libopencm3/lib/libopencm3_stm32f4.a(usart_common_all.o)
                0x0000000008002ed0                usart_set_baudrate
 .text.usart_set_databits
                0x0000000008002f00       0x12 /home/user/Devel/stm32/libopencm3/lib/libopencm3_stm32f4.a(usart_common_all.o)
                0x0000000008002f00                usart_set_databits
 .text.usart_set_stopbits
                0x0000000008002f12        0xc /home/user/Devel/stm32/libopencm3/lib/libopencm3_stm32f4.a(usart_common_all.o)
                0x0000000008002f12                usart_set_stopbits
 .text.usart_set_parity
                0x0000000008002f1e        0xc /home/user/Devel/stm32/libopencm3/lib/libopencm3_stm32f4.a(usart_common_all.o)
                0x0000000008002f1e                usart_set_parity
 .text.usart_set_mode
                0x0000000008002f2a        0xc /home/user/Devel/stm32/libopencm3/lib/libopencm3_stm32f4.a(usart_common_all.o)
                0x0000000008002f2a                usart_set_mode
 .text.usart_set_flow_control
                0x0000000008002f36        0xc /home/user/Devel/stm32/libopencm3/lib/libopencm3_stm32f4.a(usart_common_all.o)
                0x0000000008002f36                usart_set_flow_control
 .text.usart_enable
                0x0000000008002f42        0xa /home/user/Devel/stm32/libopencm3/lib/libopencm3_stm32f4.a(usart_common_all.o)
                0x0000000008002f42                usart_enable
 .text.usart_disable
                0x0000000008002f4c        0xa /home/user/Devel/stm32/libopencm3/lib/libopencm3_stm32f4.a(usart_common_all.o)
                0x0000000008002f4c                usart_disable
 .text.usart_send_blocking
                0x0000000008002f56       0x16 /home/user/Devel/stm32/libopencm3/lib/libopencm3_stm32f4.a(usart_common_all.o)
                0x0000000008002f56                usart_send_blocking
 .text.usart_recv_blocking
                0x0000000008002f6c       0x12 /home/user/Devel/stm32/libopencm3/lib/libopencm3_stm32f4.a(usart_common_all.o)
                0x0000000008002f6c                usart_recv_blocking
 .text.usart_enable_rx_dma
                0x0000000008002f7e        0xa /home/user/Devel/stm32/libopencm3/lib/libopencm3_stm32f4.a(usart_common_all.o)
                0x0000000008002f7e                usart_enable_rx_dma
 .text.usart_disable_rx_dma
                0x0000000008002f88        0xa /home/user/Devel/stm32/libopencm3/lib/libopencm3_stm32f4.a(usart_common_all.o)
                0x0000000008002f88                usart_disable_rx_dma
 .text.usart_enable_tx_dma
                0x0000000008002f92        0xa /home/user/Devel/stm32/libopencm3/lib/libopencm3_stm32f4.a(usart_common_all.o)
                0x0000000008002f92                usart_enable_tx_dma
 .text.usart_disable_tx_dma
                0x0000000008002f9c        0xa /home/user/Devel/stm32/libopencm3/lib/libopencm3_stm32f4.a(usart_common_all.o)
                0x0000000008002f9c                usart_disable_tx_dma
 .text.usart_enable_rx_interrupt
                0x0000000008002fa6        0xa /home/user/Devel/stm32/libopencm3/lib/libopencm3_stm32f4.a(usart_common_all.o)
                0x0000000008002fa6                usart_enable_rx_interrupt
 .text.usart_disable_rx_interrupt
                0x0000000008002fb0        0xa /home/user/Devel/stm32/libopencm3/lib/libopencm3_stm32f4.a(usart_common_all.o)
                0x0000000008002fb0                usart_disable_rx_interrupt
 .text.usart_enable_tx_interrupt
                0x0000000008002fba        0xa /home/user/Devel/stm32/libopencm3/lib/libopencm3_stm32f4.a(usart_common_all.o)
                0x0000000008002fba                usart_enable_tx_interrupt
 .text.usart_disable_tx_interrupt
                0x0000000008002fc4        0xa /home/user/Devel/stm32/libopencm3/lib/libopencm3_stm32f4.a(usart_common_all.o)
                0x0000000008002fc4                usart_disable_tx_interrupt
 .text.usart_enable_error_interrupt
                0x0000000008002fce        0xa /home/user/Devel/stm32/libopencm3/lib/libopencm3_stm32f4.a(usart_common_all.o)
                0x0000000008002fce                usart_enable_error_interrupt
 .text.usart_disable_error_interrupt
                0x0000000008002fd8        0xa /home/user/Devel/stm32/libopencm3/lib/libopencm3_stm32f4.a(usart_common_all.o)
                0x0000000008002fd8                usart_disable_error_interrupt
 .text          0x0000000008002fe2        0x0 /home/user/Devel/stm32/libopencm3/lib/libopencm3_stm32f4.a(usart_common_f124.o)
 .text.usart_send
                0x0000000008002fe2        0x8 /home/user/Devel/stm32/libopencm3/lib/libopencm3_stm32f4.a(usart_common_f124.o)
                0x0000000008002fe2                usart_send
 .text.usart_recv
                0x0000000008002fea        0x8 /home/user/Devel/stm32/libopencm3/lib/libopencm3_stm32f4.a(usart_common_f124.o)
                0x0000000008002fea                usart_recv
 .text.usart_wait_send_ready
                0x0000000008002ff2        0x8 /home/user/Devel/stm32/libopencm3/lib/libopencm3_stm32f4.a(usart_common_f124.o)
                0x0000000008002ff2                usart_wait_send_ready
 .text.usart_wait_recv_ready
                0x0000000008002ffa        0x8 /home/user/Devel/stm32/libopencm3/lib/libopencm3_stm32f4.a(usart_common_f124.o)
                0x0000000008002ffa                usart_wait_recv_ready
 .text.usart_get_flag
                0x0000000008003002        0xc /home/user/Devel/stm32/libopencm3/lib/libopencm3_stm32f4.a(usart_common_f124.o)
                0x0000000008003002                usart_get_flag
 .text          0x000000000800300e        0x0 /home/user/Devel/stm32/libopencm3/lib/libopencm3_stm32f4.a(flash_common_f234.o)
 *fill*         0x000000000800300e        0x2 
 .text.flash_set_ws
                0x0000000008003010       0x14 /home/user/Devel/stm32/libopencm3/lib/libopencm3_stm32f4.a(flash_common_f234.o)
                0x0000000008003010                flash_set_ws
 .text.flash_unlock
                0x0000000008003024       0x24 /home/user/Devel/stm32/libopencm3/lib/libopencm3_stm32f4.a(flash_common_f234.o)
                0x0000000008003024                flash_unlock
 .text.flash_lock
                0x0000000008003048       0x10 /home/user/Devel/stm32/libopencm3/lib/libopencm3_stm32f4.a(flash_common_f234.o)
                0x0000000008003048                flash_lock
 .text.flash_clear_pgperr_flag
                0x0000000008003058       0x10 /home/user/Devel/stm32/libopencm3/lib/libopencm3_stm32f4.a(flash_common_f234.o)
                0x0000000008003058                flash_clear_pgperr_flag
 .text.flash_clear_eop_flag
                0x0000000008003068       0x10 /home/user/Devel/stm32/libopencm3/lib/libopencm3_stm32f4.a(flash_common_f234.o)
                0x0000000008003068                flash_clear_eop_flag
 .text.flash_clear_bsy_flag
                0x0000000008003078       0x10 /home/user/Devel/stm32/libopencm3/lib/libopencm3_stm32f4.a(flash_common_f234.o)
                0x0000000008003078                flash_clear_bsy_flag
 .text.flash_wait_for_last_operation
                0x0000000008003088       0x10 /home/user/Devel/stm32/libopencm3/lib/libopencm3_stm32f4.a(flash_common_f234.o)
                0x0000000008003088                flash_wait_for_last_operation
 .text          0x0000000008003098        0x0 /home/user/Devel/stm32/libopencm3/lib/libopencm3_stm32f4.a(flash_common_f24.o)
 .text.flash_set_program_size
                0x0000000008003098       0x18 /home/user/Devel/stm32/libopencm3/lib/libopencm3_stm32f4.a(flash_common_f24.o)
 .text.flash_dcache_enable
                0x00000000080030b0       0x10 /home/user/Devel/stm32/libopencm3/lib/libopencm3_stm32f4.a(flash_common_f24.o)
                0x00000000080030b0                flash_dcache_enable
 .text.flash_dcache_disable
                0x00000000080030c0       0x10 /home/user/Devel/stm32/libopencm3/lib/libopencm3_stm32f4.a(flash_common_f24.o)
                0x00000000080030c0                flash_dcache_disable
 .text.flash_icache_enable
                0x00000000080030d0       0x10 /home/user/Devel/stm32/libopencm3/lib/libopencm3_stm32f4.a(flash_common_f24.o)
                0x00000000080030d0                flash_icache_enable
 .text.flash_icache_disable
                0x00000000080030e0       0x10 /home/user/Devel/stm32/libopencm3/lib/libopencm3_stm32f4.a(flash_common_f24.o)
                0x00000000080030e0                flash_icache_disable
 .text.flash_prefetch_enable
                0x00000000080030f0       0x10 /home/user/Devel/stm32/libopencm3/lib/libopencm3_stm32f4.a(flash_common_f24.o)
                0x00000000080030f0                flash_prefetch_enable
 .text.flash_prefetch_disable
                0x0000000008003100       0x10 /home/user/Devel/stm32/libopencm3/lib/libopencm3_stm32f4.a(flash_common_f24.o)
                0x0000000008003100                flash_prefetch_disable
 .text.flash_dcache_reset
                0x0000000008003110       0x10 /home/user/Devel/stm32/libopencm3/lib/libopencm3_stm32f4.a(flash_common_f24.o)
                0x0000000008003110                flash_dcache_reset
 .text.flash_icache_reset
                0x0000000008003120       0x10 /home/user/Devel/stm32/libopencm3/lib/libopencm3_stm32f4.a(flash_common_f24.o)
                0x0000000008003120                flash_icache_reset
 .text.flash_clear_pgserr_flag
                0x0000000008003130       0x10 /home/user/Devel/stm32/libopencm3/lib/libopencm3_stm32f4.a(flash_common_f24.o)
                0x0000000008003130                flash_clear_pgserr_flag
 .text.flash_clear_pgaerr_flag
                0x0000000008003140       0x10 /home/user/Devel/stm32/libopencm3/lib/libopencm3_stm32f4.a(flash_common_f24.o)
                0x0000000008003140                flash_clear_pgaerr_flag
 .text.flash_clear_wrperr_flag
                0x0000000008003150       0x10 /home/user/Devel/stm32/libopencm3/lib/libopencm3_stm32f4.a(flash_common_f24.o)
                0x0000000008003150                flash_clear_wrperr_flag
 .text.flash_clear_status_flags
                0x0000000008003160       0x1e /home/user/Devel/stm32/libopencm3/lib/libopencm3_stm32f4.a(flash_common_f24.o)
                0x0000000008003160                flash_clear_status_flags
 *fill*         0x000000000800317e        0x2 
 .text.flash_unlock_option_bytes
                0x0000000008003180       0x24 /home/user/Devel/stm32/libopencm3/lib/libopencm3_stm32f4.a(flash_common_f24.o)
                0x0000000008003180                flash_unlock_option_bytes
 .text.flash_lock_option_bytes
                0x00000000080031a4       0x10 /home/user/Devel/stm32/libopencm3/lib/libopencm3_stm32f4.a(flash_common_f24.o)
                0x00000000080031a4                flash_lock_option_bytes
 .text.flash_program_double_word
                0x00000000080031b4       0x34 /home/user/Devel/stm32/libopencm3/lib/libopencm3_stm32f4.a(flash_common_f24.o)
                0x00000000080031b4                flash_program_double_word
 .text.flash_program_word
                0x00000000080031e8       0x30 /home/user/Devel/stm32/libopencm3/lib/libopencm3_stm32f4.a(flash_common_f24.o)
                0x00000000080031e8                flash_program_word
 .text.flash_program_half_word
                0x0000000008003218       0x30 /home/user/Devel/stm32/libopencm3/lib/libopencm3_stm32f4.a(flash_common_f24.o)
                0x0000000008003218                flash_program_half_word
 .text.flash_program_byte
                0x0000000008003248       0x30 /home/user/Devel/stm32/libopencm3/lib/libopencm3_stm32f4.a(flash_common_f24.o)
                0x0000000008003248                flash_program_byte
 .text.flash_program
                0x0000000008003278       0x1a /home/user/Devel/stm32/libopencm3/lib/libopencm3_stm32f4.a(flash_common_f24.o)
                0x0000000008003278                flash_program
 *fill*         0x0000000008003292        0x2 
 .text.flash_erase_sector
                0x0000000008003294       0x50 /home/user/Devel/stm32/libopencm3/lib/libopencm3_stm32f4.a(flash_common_f24.o)
                0x0000000008003294                flash_erase_sector
 .text.flash_erase_all_sectors
                0x00000000080032e4       0x34 /home/user/Devel/stm32/libopencm3/lib/libopencm3_stm32f4.a(flash_common_f24.o)
                0x00000000080032e4                flash_erase_all_sectors
 .text.flash_program_option_bytes
                0x0000000008003318       0x30 /home/user/Devel/stm32/libopencm3/lib/libopencm3_stm32f4.a(flash_common_f24.o)
                0x0000000008003318                flash_program_option_bytes
 .text          0x0000000008003348        0x0 /home/user/Devel/stm32/libopencm3/lib/libopencm3_stm32f4.a(exti_common_all.o)
 .text.exti_set_trigger
                0x0000000008003348       0x3c /home/user/Devel/stm32/libopencm3/lib/libopencm3_stm32f4.a(exti_common_all.o)
                0x0000000008003348                exti_set_trigger
 .text.exti_enable_request
                0x0000000008003384       0x14 /home/user/Devel/stm32/libopencm3/lib/libopencm3_stm32f4.a(exti_common_all.o)
                0x0000000008003384                exti_enable_request
 .text.exti_disable_request
                0x0000000008003398       0x18 /home/user/Devel/stm32/libopencm3/lib/libopencm3_stm32f4.a(exti_common_all.o)
                0x0000000008003398                exti_disable_request
 .text.exti_reset_request
                0x00000000080033b0        0xc /home/user/Devel/stm32/libopencm3/lib/libopencm3_stm32f4.a(exti_common_all.o)
                0x00000000080033b0                exti_reset_request
 .text.exti_get_flag_status
                0x00000000080033bc        0xc /home/user/Devel/stm32/libopencm3/lib/libopencm3_stm32f4.a(exti_common_all.o)
                0x00000000080033bc                exti_get_flag_status
 .text.exti_select_source
                0x00000000080033c8       0xdc /home/user/Devel/stm32/libopencm3/lib/libopencm3_stm32f4.a(exti_common_all.o)
                0x00000000080033c8                exti_select_source
 .text          0x00000000080034a4        0x0 /home/user/Devel/stm32/libopencm3/lib/libopencm3_stm32f4.a(rcc_common_all.o)
 .text.rcc_peripheral_enable_clock
                0x00000000080034a4        0x8 /home/user/Devel/stm32/libopencm3/lib/libopencm3_stm32f4.a(rcc_common_all.o)
                0x00000000080034a4                rcc_peripheral_enable_clock
 .text.rcc_peripheral_disable_clock
                0x00000000080034ac        0xa /home/user/Devel/stm32/libopencm3/lib/libopencm3_stm32f4.a(rcc_common_all.o)
                0x00000000080034ac                rcc_peripheral_disable_clock
 .text.rcc_peripheral_reset
                0x00000000080034b6        0x8 /home/user/Devel/stm32/libopencm3/lib/libopencm3_stm32f4.a(rcc_common_all.o)
                0x00000000080034b6                rcc_peripheral_reset
 .text.rcc_peripheral_clear_reset
                0x00000000080034be        0xa /home/user/Devel/stm32/libopencm3/lib/libopencm3_stm32f4.a(rcc_common_all.o)
                0x00000000080034be                rcc_peripheral_clear_reset
 .text.rcc_periph_clock_enable
                0x00000000080034c8       0x1c /home/user/Devel/stm32/libopencm3/lib/libopencm3_stm32f4.a(rcc_common_all.o)
                0x00000000080034c8                rcc_periph_clock_enable
 .text.rcc_periph_clock_disable
                0x00000000080034e4       0x1e /home/user/Devel/stm32/libopencm3/lib/libopencm3_stm32f4.a(rcc_common_all.o)
                0x00000000080034e4                rcc_periph_clock_disable
 .text.rcc_periph_reset_pulse
                0x0000000008003502       0x26 /home/user/Devel/stm32/libopencm3/lib/libopencm3_stm32f4.a(rcc_common_all.o)
                0x0000000008003502                rcc_periph_reset_pulse
 .text.rcc_periph_reset_hold
                0x0000000008003528       0x1c /home/user/Devel/stm32/libopencm3/lib/libopencm3_stm32f4.a(rcc_common_all.o)
                0x0000000008003528                rcc_periph_reset_hold
 .text.rcc_periph_reset_release
                0x0000000008003544       0x1e /home/user/Devel/stm32/libopencm3/lib/libopencm3_stm32f4.a(rcc_common_all.o)
                0x0000000008003544                rcc_periph_reset_release
 *fill*         0x0000000008003562        0x2 
 .text.rcc_set_mco
                0x0000000008003564       0x14 /home/user/Devel/stm32/libopencm3/lib/libopencm3_stm32f4.a(rcc_common_all.o)
                0x0000000008003564                rcc_set_mco
 .text          0x0000000008003578        0x0 /home/user/Devel/stm32/libopencm3/lib/libopencm3_stm32f4.a(usb.o)
 .text.usbd_init
                0x0000000008003578       0x58 /home/user/Devel/stm32/libopencm3/lib/libopencm3_stm32f4.a(usb.o)
                0x0000000008003578                usbd_init
 .text.usbd_register_reset_callback
                0x00000000080035d0        0x4 /home/user/Devel/stm32/libopencm3/lib/libopencm3_stm32f4.a(usb.o)
                0x00000000080035d0                usbd_register_reset_callback
 .text.usbd_register_suspend_callback
                0x00000000080035d4        0x4 /home/user/Devel/stm32/libopencm3/lib/libopencm3_stm32f4.a(usb.o)
                0x00000000080035d4                usbd_register_suspend_callback
 .text.usbd_register_resume_callback
                0x00000000080035d8        0x4 /home/user/Devel/stm32/libopencm3/lib/libopencm3_stm32f4.a(usb.o)
                0x00000000080035d8                usbd_register_resume_callback
 .text.usbd_register_sof_callback
                0x00000000080035dc        0x4 /home/user/Devel/stm32/libopencm3/lib/libopencm3_stm32f4.a(usb.o)
                0x00000000080035dc                usbd_register_sof_callback
 .text.usbd_poll
                0x00000000080035e0        0x8 /home/user/Devel/stm32/libopencm3/lib/libopencm3_stm32f4.a(usb.o)
                0x00000000080035e0                usbd_poll
 .text.usbd_disconnect
                0x00000000080035e8        0xc /home/user/Devel/stm32/libopencm3/lib/libopencm3_stm32f4.a(usb.o)
                0x00000000080035e8                usbd_disconnect
 .text.usbd_ep_setup
                0x00000000080035f4       0x10 /home/user/Devel/stm32/libopencm3/lib/libopencm3_stm32f4.a(usb.o)
                0x00000000080035f4                usbd_ep_setup
 .text._usbd_reset
                0x0000000008003604       0x34 /home/user/Devel/stm32/libopencm3/lib/libopencm3_stm32f4.a(usb.o)
                0x0000000008003604                _usbd_reset
 .text.usbd_ep_write_packet
                0x0000000008003638       0x10 /home/user/Devel/stm32/libopencm3/lib/libopencm3_stm32f4.a(usb.o)
                0x0000000008003638                usbd_ep_write_packet
 .text.usbd_ep_read_packet
                0x0000000008003648       0x10 /home/user/Devel/stm32/libopencm3/lib/libopencm3_stm32f4.a(usb.o)
                0x0000000008003648                usbd_ep_read_packet
 .text.usbd_ep_stall_set
                0x0000000008003658        0x8 /home/user/Devel/stm32/libopencm3/lib/libopencm3_stm32f4.a(usb.o)
                0x0000000008003658                usbd_ep_stall_set
 .text.usbd_ep_stall_get
                0x0000000008003660        0x8 /home/user/Devel/stm32/libopencm3/lib/libopencm3_stm32f4.a(usb.o)
                0x0000000008003660                usbd_ep_stall_get
 .text.usbd_ep_nak_set
                0x0000000008003668        0x8 /home/user/Devel/stm32/libopencm3/lib/libopencm3_stm32f4.a(usb.o)
                0x0000000008003668                usbd_ep_nak_set
 .text          0x0000000008003670        0x0 /home/user/Devel/stm32/libopencm3/lib/libopencm3_stm32f4.a(usb_standard.o)
 .text.usb_standard_set_configuration
                0x0000000008003670       0x96 /home/user/Devel/stm32/libopencm3/lib/libopencm3_stm32f4.a(usb_standard.o)
 .text.usb_standard_get_configuration
                0x0000000008003706       0x22 /home/user/Devel/stm32/libopencm3/lib/libopencm3_stm32f4.a(usb_standard.o)
 .text.usb_standard_get_interface
                0x0000000008003728       0x38 /home/user/Devel/stm32/libopencm3/lib/libopencm3_stm32f4.a(usb_standard.o)
 .text.usb_standard_interface_get_status
                0x0000000008003760       0x18 /home/user/Devel/stm32/libopencm3/lib/libopencm3_stm32f4.a(usb_standard.o)
 .text.usb_standard_endpoint_get_status
                0x0000000008003778       0x2a /home/user/Devel/stm32/libopencm3/lib/libopencm3_stm32f4.a(usb_standard.o)
 .text.usb_standard_endpoint_stall
                0x00000000080037a2       0x10 /home/user/Devel/stm32/libopencm3/lib/libopencm3_stm32f4.a(usb_standard.o)
 .text.usb_standard_endpoint_unstall
                0x00000000080037b2       0x10 /home/user/Devel/stm32/libopencm3/lib/libopencm3_stm32f4.a(usb_standard.o)
 .text.usb_standard_set_address
                0x00000000080037c2       0x2a /home/user/Devel/stm32/libopencm3/lib/libopencm3_stm32f4.a(usb_standard.o)
 .text.usb_standard_set_interface
                0x00000000080037ec       0x4e /home/user/Devel/stm32/libopencm3/lib/libopencm3_stm32f4.a(usb_standard.o)
 .text.usb_standard_get_descriptor
                0x000000000800383a      0x25e /home/user/Devel/stm32/libopencm3/lib/libopencm3_stm32f4.a(usb_standard.o)
 .text.usb_standard_device_get_status
                0x0000000008003a98       0x18 /home/user/Devel/stm32/libopencm3/lib/libopencm3_stm32f4.a(usb_standard.o)
 .text.usbd_register_set_config_callback
                0x0000000008003ab0       0x24 /home/user/Devel/stm32/libopencm3/lib/libopencm3_stm32f4.a(usb_standard.o)
                0x0000000008003ab0                usbd_register_set_config_callback
 .text.usbd_register_set_altsetting_callback
                0x0000000008003ad4        0x6 /home/user/Devel/stm32/libopencm3/lib/libopencm3_stm32f4.a(usb_standard.o)
                0x0000000008003ad4                usbd_register_set_altsetting_callback
 *fill*         0x0000000008003ada        0x2 
 .text._usbd_standard_request_device
                0x0000000008003adc       0x20 /home/user/Devel/stm32/libopencm3/lib/libopencm3_stm32f4.a(usb_standard.o)
                0x0000000008003adc                _usbd_standard_request_device
 .text._usbd_standard_request_interface
                0x0000000008003afc       0x20 /home/user/Devel/stm32/libopencm3/lib/libopencm3_stm32f4.a(usb_standard.o)
                0x0000000008003afc                _usbd_standard_request_interface
 .text._usbd_standard_request_endpoint
                0x0000000008003b1c       0x40 /home/user/Devel/stm32/libopencm3/lib/libopencm3_stm32f4.a(usb_standard.o)
                0x0000000008003b1c                _usbd_standard_request_endpoint
 .text._usbd_standard_request
                0x0000000008003b5c       0x38 /home/user/Devel/stm32/libopencm3/lib/libopencm3_stm32f4.a(usb_standard.o)
                0x0000000008003b5c                _usbd_standard_request
 .text          0x0000000008003b94        0x0 /home/user/Devel/stm32/libopencm3/lib/libopencm3_stm32f4.a(usb_control.o)
 .text.stall_transaction
                0x0000000008003b94       0x14 /home/user/Devel/stm32/libopencm3/lib/libopencm3_stm32f4.a(usb_control.o)
 .text.usb_control_recv_chunk
                0x0000000008003ba8       0x3c /home/user/Devel/stm32/libopencm3/lib/libopencm3_stm32f4.a(usb_control.o)
 .text.usb_control_send_chunk
                0x0000000008003be4       0x56 /home/user/Devel/stm32/libopencm3/lib/libopencm3_stm32f4.a(usb_control.o)
 .text.usb_control_request_dispatch
                0x0000000008003c3a       0x62 /home/user/Devel/stm32/libopencm3/lib/libopencm3_stm32f4.a(usb_control.o)
 .text.usb_control_setup_read
                0x0000000008003c9c       0x6a /home/user/Devel/stm32/libopencm3/lib/libopencm3_stm32f4.a(usb_control.o)
 .text.usbd_register_control_callback
                0x0000000008003d06       0x26 /home/user/Devel/stm32/libopencm3/lib/libopencm3_stm32f4.a(usb_control.o)
                0x0000000008003d06                usbd_register_control_callback
 .text._usbd_control_setup
                0x0000000008003d2c       0x5a /home/user/Devel/stm32/libopencm3/lib/libopencm3_stm32f4.a(usb_control.o)
                0x0000000008003d2c                _usbd_control_setup
 .text._usbd_control_out
                0x0000000008003d86       0x86 /home/user/Devel/stm32/libopencm3/lib/libopencm3_stm32f4.a(usb_control.o)
                0x0000000008003d86                _usbd_control_out
 .text._usbd_control_in
                0x0000000008003e0c       0x56 /home/user/Devel/stm32/libopencm3/lib/libopencm3_stm32f4.a(usb_control.o)
                0x0000000008003e0c                _usbd_control_in
 .text          0x0000000008003e62        0x0 /home/user/Devel/stm32/libopencm3/lib/libopencm3_stm32f4.a(usb_f107.o)
 *fill*         0x0000000008003e62        0x2 
 .text.stm32f107_usbd_init
                0x0000000008003e64       0xd0 /home/user/Devel/stm32/libopencm3/lib/libopencm3_stm32f4.a(usb_f107.o)
 .text          0x0000000008003f34        0x0 /home/user/Devel/stm32/libopencm3/lib/libopencm3_stm32f4.a(vector.o)
 .text.blocking_handler
                0x0000000008003f34        0x2 /home/user/Devel/stm32/libopencm3/lib/libopencm3_stm32f4.a(vector.o)
                0x0000000008003f34                dma2_stream1_isr
                0x0000000008003f34                tim8_brk_tim12_isr
                0x0000000008003f34                dma1_stream7_isr
                0x0000000008003f34                usart3_isr
                0x0000000008003f34                tim7_isr
                0x0000000008003f34                dma2d_isr
                0x0000000008003f34                uart8_isr
                0x0000000008003f34                dma1_stream2_isr
                0x0000000008003f34                otg_hs_isr
                0x0000000008003f34                blocking_handler
                0x0000000008003f34                tim5_isr
                0x0000000008003f34                rtc_wkup_isr
                0x0000000008003f34                spi1_isr
                0x0000000008003f34                i2c3_er_isr
                0x0000000008003f34                spi5_isr
                0x0000000008003f34                usb_fs_wkup_isr
                0x0000000008003f34                tamp_stamp_isr
                0x0000000008003f34                can1_rx1_isr
                0x0000000008003f34                usart1_isr
                0x0000000008003f34                i2c3_ev_isr
                0x0000000008003f34                can2_rx0_isr
                0x0000000008003f34                dma1_stream6_isr
                0x0000000008003f34                can2_rx1_isr
                0x0000000008003f34                can1_sce_isr
                0x0000000008003f34                tim1_cc_isr
                0x0000000008003f34                can1_tx_isr
                0x0000000008003f34                tim1_up_tim10_isr
                0x0000000008003f34                sdio_isr
                0x0000000008003f34                eth_isr
                0x0000000008003f34                spi6_isr
                0x0000000008003f34                pvd_isr
                0x0000000008003f34                can1_rx0_isr
                0x0000000008003f34                rcc_isr
                0x0000000008003f34                flash_isr
                0x0000000008003f34                uart4_isr
                0x0000000008003f34                lcd_tft_isr
                0x0000000008003f34                rtc_alarm_isr
                0x0000000008003f34                exti15_10_isr
                0x0000000008003f34                hash_rng_isr
                0x0000000008003f34                tim1_trg_com_tim11_isr
                0x0000000008003f34                exti1_isr
                0x0000000008003f34                i2c1_ev_isr
                0x0000000008003f34                usart6_isr
                0x0000000008003f34                spi2_isr
                0x0000000008003f34                cryp_isr
                0x0000000008003f34                nvic_wwdg_isr
                0x0000000008003f34                dma1_stream1_isr
                0x0000000008003f34                dma2_stream4_isr
                0x0000000008003f34                exti3_isr
                0x0000000008003f34                tim3_isr
                0x0000000008003f34                usart2_isr
                0x0000000008003f34                sai1_isr
                0x0000000008003f34                fpu_isr
                0x0000000008003f34                i2c2_er_isr
                0x0000000008003f34                i2c2_ev_isr
                0x0000000008003f34                uart5_isr
                0x0000000008003f34                spi4_isr
                0x0000000008003f34                adc_isr
                0x0000000008003f34                dma2_stream7_isr
                0x0000000008003f34                tim8_up_tim13_isr
                0x0000000008003f34                fsmc_isr
                0x0000000008003f34                exti4_isr
                0x0000000008003f34                tim6_dac_isr
                0x0000000008003f34                dma1_stream3_isr
                0x0000000008003f34                tim8_trg_com_tim14_isr
                0x0000000008003f34                mem_manage_handler
                0x0000000008003f34                lcd_tft_err_isr
                0x0000000008003f34                can2_tx_isr
                0x0000000008003f34                exti9_5_isr
                0x0000000008003f34                tim1_brk_tim9_isr
                0x0000000008003f34                uart7_isr
                0x0000000008003f34                can2_sce_isr
                0x0000000008003f34                tim4_isr
                0x0000000008003f34                otg_hs_wkup_isr
                0x0000000008003f34                i2c1_er_isr
                0x0000000008003f34                dma1_stream0_isr
                0x0000000008003f34                tim8_cc_isr
                0x0000000008003f34                dcmi_isr
                0x0000000008003f34                dma2_stream2_isr
                0x0000000008003f34                eth_wkup_isr
                0x0000000008003f34                otg_hs_ep1_out_isr
                0x0000000008003f34                spi3_isr
                0x0000000008003f34                dma1_stream5_isr
                0x0000000008003f34                otg_hs_ep1_in_isr
                0x0000000008003f34                tim2_isr
                0x0000000008003f34                exti0_isr
 .text.null_handler
                0x0000000008003f36        0x2 /home/user/Devel/stm32/libopencm3/lib/libopencm3_stm32f4.a(vector.o)
                0x0000000008003f36                null_handler
                0x0000000008003f36                sv_call_handler
                0x0000000008003f36                pend_sv_handler
                0x0000000008003f36                debug_monitor_handler
                0x0000000008003f36                nmi_handler
 .text.reset_handler
                0x0000000008003f38       0x98 /home/user/Devel/stm32/libopencm3/lib/libopencm3_stm32f4.a(vector.o)
                0x0000000008003f38                reset_handler
 .text          0x0000000008003fd0        0x0 /home/user/Devel/stm32/libopencm3/lib/libopencm3_stm32f4.a(systick.o)
 .text.systick_set_reload
                0x0000000008003fd0       0x10 /home/user/Devel/stm32/libopencm3/lib/libopencm3_stm32f4.a(systick.o)
                0x0000000008003fd0                systick_set_reload
 .text.systick_get_reload
                0x0000000008003fe0       0x10 /home/user/Devel/stm32/libopencm3/lib/libopencm3_stm32f4.a(systick.o)
                0x0000000008003fe0                systick_get_reload
 .text.systick_get_value
                0x0000000008003ff0       0x10 /home/user/Devel/stm32/libopencm3/lib/libopencm3_stm32f4.a(systick.o)
                0x0000000008003ff0                systick_get_value
 .text.systick_set_clocksource
                0x0000000008004000       0x18 /home/user/Devel/stm32/libopencm3/lib/libopencm3_stm32f4.a(systick.o)
                0x0000000008004000                systick_set_clocksource
 .text.systick_set_frequency
                0x0000000008004018       0x3c /home/user/Devel/stm32/libopencm3/lib/libopencm3_stm32f4.a(systick.o)
                0x0000000008004018                systick_set_frequency
 .text.systick_interrupt_enable
                0x0000000008004054       0x10 /home/user/Devel/stm32/libopencm3/lib/libopencm3_stm32f4.a(systick.o)
                0x0000000008004054                systick_interrupt_enable
 .text.systick_interrupt_disable
                0x0000000008004064       0x10 /home/user/Devel/stm32/libopencm3/lib/libopencm3_stm32f4.a(systick.o)
                0x0000000008004064                systick_interrupt_disable
 .text.systick_counter_enable
                0x0000000008004074       0x10 /home/user/Devel/stm32/libopencm3/lib/libopencm3_stm32f4.a(systick.o)
                0x0000000008004074                systick_counter_enable
 .text.systick_counter_disable
                0x0000000008004084       0x10 /home/user/Devel/stm32/libopencm3/lib/libopencm3_stm32f4.a(systick.o)
                0x0000000008004084                systick_counter_disable
 .text.systick_get_countflag
                0x0000000008004094       0x10 /home/user/Devel/stm32/libopencm3/lib/libopencm3_stm32f4.a(systick.o)
                0x0000000008004094                systick_get_countflag
 .text.systick_clear
                0x00000000080040a4        0xc /home/user/Devel/stm32/libopencm3/lib/libopencm3_stm32f4.a(systick.o)
                0x00000000080040a4                systick_clear
 .text.systick_get_calib
                0x00000000080040b0       0x10 /home/user/Devel/stm32/libopencm3/lib/libopencm3_stm32f4.a(systick.o)
                0x00000000080040b0                systick_get_calib
 .text          0x00000000080040c0        0x0 /home/user/Devel/stm32/libopencm3/lib/libopencm3_stm32f4.a(nvic.o)
 .text.nvic_enable_irq
                0x00000000080040c0       0x1c /home/user/Devel/stm32/libopencm3/lib/libopencm3_stm32f4.a(nvic.o)
                0x00000000080040c0                nvic_enable_irq
 .text.nvic_disable_irq
                0x00000000080040dc       0x1c /home/user/Devel/stm32/libopencm3/lib/libopencm3_stm32f4.a(nvic.o)
                0x00000000080040dc                nvic_disable_irq
 .text.nvic_get_pending_irq
                0x00000000080040f8       0x24 /home/user/Devel/stm32/libopencm3/lib/libopencm3_stm32f4.a(nvic.o)
                0x00000000080040f8                nvic_get_pending_irq
 .text.nvic_set_pending_irq
                0x000000000800411c       0x1c /home/user/Devel/stm32/libopencm3/lib/libopencm3_stm32f4.a(nvic.o)
                0x000000000800411c                nvic_set_pending_irq
 .text.nvic_clear_pending_irq
                0x0000000008004138       0x1c /home/user/Devel/stm32/libopencm3/lib/libopencm3_stm32f4.a(nvic.o)
                0x0000000008004138                nvic_clear_pending_irq
 .text.nvic_get_irq_enabled
                0x0000000008004154       0x24 /home/user/Devel/stm32/libopencm3/lib/libopencm3_stm32f4.a(nvic.o)
                0x0000000008004154                nvic_get_irq_enabled
 .text.nvic_set_priority
                0x0000000008004178       0x20 /home/user/Devel/stm32/libopencm3/lib/libopencm3_stm32f4.a(nvic.o)
                0x0000000008004178                nvic_set_priority
 .text.nvic_get_active_irq
                0x0000000008004198       0x24 /home/user/Devel/stm32/libopencm3/lib/libopencm3_stm32f4.a(nvic.o)
                0x0000000008004198                nvic_get_active_irq
 .text.nvic_generate_software_interrupt
                0x00000000080041bc       0x14 /home/user/Devel/stm32/libopencm3/lib/libopencm3_stm32f4.a(nvic.o)
                0x00000000080041bc                nvic_generate_software_interrupt
 .text          0x00000000080041d0        0x0 /home/user/Devel/stm32/libopencm3/lib/libopencm3_stm32f4.a(pwr.o)
 .text.pwr_set_vos_scale
                0x00000000080041d0       0x20 /home/user/Devel/stm32/libopencm3/lib/libopencm3_stm32f4.a(pwr.o)
                0x00000000080041d0                pwr_set_vos_scale
 .text          0x00000000080041f0        0x0 /home/user/Devel/stm32/libopencm3/lib/libopencm3_stm32f4.a(usb_fx07_common.o)
 .text.stm32fx07_set_address
                0x00000000080041f0       0x18 /home/user/Devel/stm32/libopencm3/lib/libopencm3_stm32f4.a(usb_fx07_common.o)
                0x00000000080041f0                stm32fx07_set_address
 .text.stm32fx07_ep_setup
                0x0000000008004208      0x144 /home/user/Devel/stm32/libopencm3/lib/libopencm3_stm32f4.a(usb_fx07_common.o)
                0x0000000008004208                stm32fx07_ep_setup
 .text.stm32fx07_endpoints_reset
                0x000000000800434c       0x4c /home/user/Devel/stm32/libopencm3/lib/libopencm3_stm32f4.a(usb_fx07_common.o)
                0x000000000800434c                stm32fx07_endpoints_reset
 .text.stm32fx07_ep_stall_set
                0x0000000008004398       0x4e /home/user/Devel/stm32/libopencm3/lib/libopencm3_stm32f4.a(usb_fx07_common.o)
                0x0000000008004398                stm32fx07_ep_stall_set
 .text.stm32fx07_ep_stall_get
                0x00000000080043e6       0x1e /home/user/Devel/stm32/libopencm3/lib/libopencm3_stm32f4.a(usb_fx07_common.o)
                0x00000000080043e6                stm32fx07_ep_stall_get
 .text.stm32fx07_ep_nak_set
                0x0000000008004404       0x2a /home/user/Devel/stm32/libopencm3/lib/libopencm3_stm32f4.a(usb_fx07_common.o)
                0x0000000008004404                stm32fx07_ep_nak_set
 .text.stm32fx07_ep_write_packet
                0x000000000800442e       0x4c /home/user/Devel/stm32/libopencm3/lib/libopencm3_stm32f4.a(usb_fx07_common.o)
                0x000000000800442e                stm32fx07_ep_write_packet
 .text.stm32fx07_ep_read_packet
                0x000000000800447a       0x60 /home/user/Devel/stm32/libopencm3/lib/libopencm3_stm32f4.a(usb_fx07_common.o)
                0x000000000800447a                stm32fx07_ep_read_packet
 .text.stm32fx07_poll
                0x00000000080044da      0x1c6 /home/user/Devel/stm32/libopencm3/lib/libopencm3_stm32f4.a(usb_fx07_common.o)
                0x00000000080044da                stm32fx07_poll
 .text.stm32fx07_disconnect
                0x00000000080046a0       0x1c /home/user/Devel/stm32/libopencm3/lib/libopencm3_stm32f4.a(usb_fx07_common.o)
                0x00000000080046a0                stm32fx07_disconnect
 .text          0x00000000080046bc        0x0 /home/user/Devel/stm32/gcc-arm-none-eabi-8-2018-q4-major/bin/../lib/gcc/arm-none-eabi/8.2.1/../../../../arm-none-eabi/lib/thumb/v7e-m+fp/hard/libc_nano.a(lib_a-memcmp.o)
 .text.memcmp   0x00000000080046bc       0x1c /home/user/Devel/stm32/gcc-arm-none-eabi-8-2018-q4-major/bin/../lib/gcc/arm-none-eabi/8.2.1/../../../../arm-none-eabi/lib/thumb/v7e-m+fp/hard/libc_nano.a(lib_a-memcmp.o)
                0x00000000080046bc                memcmp
 .text          0x00000000080046d8        0x0 /home/user/Devel/stm32/gcc-arm-none-eabi-8-2018-q4-major/bin/../lib/gcc/arm-none-eabi/8.2.1/../../../../arm-none-eabi/lib/thumb/v7e-m+fp/hard/libc_nano.a(lib_a-memcpy-stub.o)
 .text.memcpy   0x00000000080046d8       0x1c /home/user/Devel/stm32/gcc-arm-none-eabi-8-2018-q4-major/bin/../lib/gcc/arm-none-eabi/8.2.1/../../../../arm-none-eabi/lib/thumb/v7e-m+fp/hard/libc_nano.a(lib_a-memcpy-stub.o)
                0x00000000080046d8                memcpy
 .text          0x00000000080046f4        0x0 /home/user/Devel/stm32/gcc-arm-none-eabi-8-2018-q4-major/bin/../lib/gcc/arm-none-eabi/8.2.1/../../../../arm-none-eabi/lib/thumb/v7e-m+fp/hard/libc_nano.a(lib_a-memset.o)
 .text.memset   0x00000000080046f4       0x10 /home/user/Devel/stm32/gcc-arm-none-eabi-8-2018-q4-major/bin/../lib/gcc/arm-none-eabi/8.2.1/../../../../arm-none-eabi/lib/thumb/v7e-m+fp/hard/libc_nano.a(lib_a-memset.o)
                0x00000000080046f4                memset
 .text          0x0000000008004704        0x0 /home/user/Devel/stm32/gcc-arm-none-eabi-8-2018-q4-major/bin/../lib/gcc/arm-none-eabi/8.2.1/../../../../arm-none-eabi/lib/thumb/v7e-m+fp/hard/libc_nano.a(lib_a-sprintf.o)
 .text._sprintf_r
                0x0000000008004704       0x38 /home/user/Devel/stm32/gcc-arm-none-eabi-8-2018-q4-major/bin/../lib/gcc/arm-none-eabi/8.2.1/../../../../arm-none-eabi/lib/thumb/v7e-m+fp/hard/libc_nano.a(lib_a-sprintf.o)
                0x0000000008004704                _siprintf_r
                0x0000000008004704                _sprintf_r
 .text.sprintf  0x000000000800473c       0x40 /home/user/Devel/stm32/gcc-arm-none-eabi-8-2018-q4-major/bin/../lib/gcc/arm-none-eabi/8.2.1/../../../../arm-none-eabi/lib/thumb/v7e-m+fp/hard/libc_nano.a(lib_a-sprintf.o)
                0x000000000800473c                sprintf
                0x000000000800473c                siprintf
 .text          0x000000000800477c       0x10 /home/user/Devel/stm32/gcc-arm-none-eabi-8-2018-q4-major/bin/../lib/gcc/arm-none-eabi/8.2.1/../../../../arm-none-eabi/lib/thumb/v7e-m+fp/hard/libc_nano.a(lib_a-strlen.o)
                0x000000000800477c                strlen
 .text          0x000000000800478c        0x0 /home/user/Devel/stm32/gcc-arm-none-eabi-8-2018-q4-major/bin/../lib/gcc/arm-none-eabi/8.2.1/../../../../arm-none-eabi/lib/thumb/v7e-m+fp/hard/libc_nano.a(lib_a-impure.o)
 .text          0x000000000800478c        0x0 /home/user/Devel/stm32/gcc-arm-none-eabi-8-2018-q4-major/bin/../lib/gcc/arm-none-eabi/8.2.1/../../../../arm-none-eabi/lib/thumb/v7e-m+fp/hard/libc_nano.a(lib_a-nano-svfprintf.o)
 .text.__ssputs_r
                0x000000000800478c       0xb6 /home/user/Devel/stm32/gcc-arm-none-eabi-8-2018-q4-major/bin/../lib/gcc/arm-none-eabi/8.2.1/../../../../arm-none-eabi/lib/thumb/v7e-m+fp/hard/libc_nano.a(lib_a-nano-svfprintf.o)
                0x000000000800478c                __ssputs_r
 .text.__ssprint_r
                0x0000000008004842       0xf0 /home/user/Devel/stm32/gcc-arm-none-eabi-8-2018-q4-major/bin/../lib/gcc/arm-none-eabi/8.2.1/../../../../arm-none-eabi/lib/thumb/v7e-m+fp/hard/libc_nano.a(lib_a-nano-svfprintf.o)
                0x0000000008004842                __ssprint_r
 *fill*         0x0000000008004932        0x2 
 .text._svfprintf_r
                0x0000000008004934      0x1f0 /home/user/Devel/stm32/gcc-arm-none-eabi-8-2018-q4-major/bin/../lib/gcc/arm-none-eabi/8.2.1/../../../../arm-none-eabi/lib/thumb/v7e-m+fp/hard/libc_nano.a(lib_a-nano-svfprintf.o)
                0x0000000008004934                _svfprintf_r
                0x0000000008004934                _svfiprintf_r
 .text          0x0000000008004b24        0x0 /home/user/Devel/stm32/gcc-arm-none-eabi-8-2018-q4-major/bin/../lib/gcc/arm-none-eabi/8.2.1/../../../../arm-none-eabi/lib/thumb/v7e-m+fp/hard/libc_nano.a(lib_a-nano-vfprintf_i.o)
 .text._printf_common
                0x0000000008004b24       0xea /home/user/Devel/stm32/gcc-arm-none-eabi-8-2018-q4-major/bin/../lib/gcc/arm-none-eabi/8.2.1/../../../../arm-none-eabi/lib/thumb/v7e-m+fp/hard/libc_nano.a(lib_a-nano-vfprintf_i.o)
                0x0000000008004b24                _printf_common
 *fill*         0x0000000008004c0e        0x2 
 .text._printf_i
                0x0000000008004c10      0x228 /home/user/Devel/stm32/gcc-arm-none-eabi-8-2018-q4-major/bin/../lib/gcc/arm-none-eabi/8.2.1/../../../../arm-none-eabi/lib/thumb/v7e-m+fp/hard/libc_nano.a(lib_a-nano-vfprintf_i.o)
                0x0000000008004c10                _printf_i
 *fill*         0x0000000008004e38        0x8 
 .text          0x0000000008004e40       0xa0 /home/user/Devel/stm32/gcc-arm-none-eabi-8-2018-q4-major/bin/../lib/gcc/arm-none-eabi/8.2.1/../../../../arm-none-eabi/lib/thumb/v7e-m+fp/hard/libc_nano.a(lib_a-memchr.o)
                0x0000000008004e40                memchr
 .text          0x0000000008004ee0        0x0 /home/user/Devel/stm32/gcc-arm-none-eabi-8-2018-q4-major/bin/../lib/gcc/arm-none-eabi/8.2.1/../../../../arm-none-eabi/lib/thumb/v7e-m+fp/hard/libc_nano.a(lib_a-memmove.o)
 .text.memmove  0x0000000008004ee0       0x34 /home/user/Devel/stm32/gcc-arm-none-eabi-8-2018-q4-major/bin/../lib/gcc/arm-none-eabi/8.2.1/../../../../arm-none-eabi/lib/thumb/v7e-m+fp/hard/libc_nano.a(lib_a-memmove.o)
                0x0000000008004ee0                memmove
 .text          0x0000000008004f14        0x0 /home/user/Devel/stm32/gcc-arm-none-eabi-8-2018-q4-major/bin/../lib/gcc/arm-none-eabi/8.2.1/../../../../arm-none-eabi/lib/thumb/v7e-m+fp/hard/libc_nano.a(lib_a-nano-freer.o)
 .text._free_r  0x0000000008004f14       0x9c /home/user/Devel/stm32/gcc-arm-none-eabi-8-2018-q4-major/bin/../lib/gcc/arm-none-eabi/8.2.1/../../../../arm-none-eabi/lib/thumb/v7e-m+fp/hard/libc_nano.a(lib_a-nano-freer.o)
                0x0000000008004f14                _free_r
 .text          0x0000000008004fb0        0x0 /home/user/Devel/stm32/gcc-arm-none-eabi-8-2018-q4-major/bin/../lib/gcc/arm-none-eabi/8.2.1/../../../../arm-none-eabi/lib/thumb/v7e-m+fp/hard/libc_nano.a(lib_a-nano-mallocr.o)
 .text._malloc_r
                0x0000000008004fb0       0xb4 /home/user/Devel/stm32/gcc-arm-none-eabi-8-2018-q4-major/bin/../lib/gcc/arm-none-eabi/8.2.1/../../../../arm-none-eabi/lib/thumb/v7e-m+fp/hard/libc_nano.a(lib_a-nano-mallocr.o)
                0x0000000008004fb0                _malloc_r
 .text          0x0000000008005064        0x0 /home/user/Devel/stm32/gcc-arm-none-eabi-8-2018-q4-major/bin/../lib/gcc/arm-none-eabi/8.2.1/../../../../arm-none-eabi/lib/thumb/v7e-m+fp/hard/libc_nano.a(lib_a-nano-reallocr.o)
 .text._realloc_r
                0x0000000008005064       0x4c /home/user/Devel/stm32/gcc-arm-none-eabi-8-2018-q4-major/bin/../lib/gcc/arm-none-eabi/8.2.1/../../../../arm-none-eabi/lib/thumb/v7e-m+fp/hard/libc_nano.a(lib_a-nano-reallocr.o)
                0x0000000008005064                _realloc_r
 .text          0x00000000080050b0        0x0 /home/user/Devel/stm32/gcc-arm-none-eabi-8-2018-q4-major/bin/../lib/gcc/arm-none-eabi/8.2.1/../../../../arm-none-eabi/lib/thumb/v7e-m+fp/hard/libc_nano.a(lib_a-sbrkr.o)
 .text._sbrk_r  0x00000000080050b0       0x20 /home/user/Devel/stm32/gcc-arm-none-eabi-8-2018-q4-major/bin/../lib/gcc/arm-none-eabi/8.2.1/../../../../arm-none-eabi/lib/thumb/v7e-m+fp/hard/libc_nano.a(lib_a-sbrkr.o)
                0x00000000080050b0                _sbrk_r
 .text          0x00000000080050d0        0x0 /home/user/Devel/stm32/gcc-arm-none-eabi-8-2018-q4-major/bin/../lib/gcc/arm-none-eabi/8.2.1/../../../../arm-none-eabi/lib/thumb/v7e-m+fp/hard/libc_nano.a(lib_a-mlock.o)
 .text.__malloc_lock
                0x00000000080050d0        0xc /home/user/Devel/stm32/gcc-arm-none-eabi-8-2018-q4-major/bin/../lib/gcc/arm-none-eabi/8.2.1/../../../../arm-none-eabi/lib/thumb/v7e-m+fp/hard/libc_nano.a(lib_a-mlock.o)
                0x00000000080050d0                __malloc_lock
 .text.__malloc_unlock
                0x00000000080050dc        0xc /home/user/Devel/stm32/gcc-arm-none-eabi-8-2018-q4-major/bin/../lib/gcc/arm-none-eabi/8.2.1/../../../../arm-none-eabi/lib/thumb/v7e-m+fp/hard/libc_nano.a(lib_a-mlock.o)
                0x00000000080050dc                __malloc_unlock
 .text          0x00000000080050e8        0x0 /home/user/Devel/stm32/gcc-arm-none-eabi-8-2018-q4-major/bin/../lib/gcc/arm-none-eabi/8.2.1/../../../../arm-none-eabi/lib/thumb/v7e-m+fp/hard/libc_nano.a(lib_a-nano-msizer.o)
 .text._malloc_usable_size_r
                0x00000000080050e8       0x10 /home/user/Devel/stm32/gcc-arm-none-eabi-8-2018-q4-major/bin/../lib/gcc/arm-none-eabi/8.2.1/../../../../arm-none-eabi/lib/thumb/v7e-m+fp/hard/libc_nano.a(lib_a-nano-msizer.o)
                0x00000000080050e8                _malloc_usable_size_r
 .text          0x00000000080050f8        0x0 /home/user/Devel/stm32/gcc-arm-none-eabi-8-2018-q4-major/bin/../lib/gcc/arm-none-eabi/8.2.1/../../../../arm-none-eabi/lib/thumb/v7e-m+fp/hard/libc_nano.a(lib_a-reent.o)
 .text.cleanup_glue
                0x00000000080050f8       0x1a /home/user/Devel/stm32/gcc-arm-none-eabi-8-2018-q4-major/bin/../lib/gcc/arm-none-eabi/8.2.1/../../../../arm-none-eabi/lib/thumb/v7e-m+fp/hard/libc_nano.a(lib_a-reent.o)
                0x00000000080050f8                cleanup_glue
 *fill*         0x0000000008005112        0x2 
 .text._reclaim_reent
                0x0000000008005114       0xb8 /home/user/Devel/stm32/gcc-arm-none-eabi-8-2018-q4-major/bin/../lib/gcc/arm-none-eabi/8.2.1/../../../../arm-none-eabi/lib/thumb/v7e-m+fp/hard/libc_nano.a(lib_a-reent.o)
                0x0000000008005114                _reclaim_reent
 .text          0x00000000080051cc        0x0 /home/user/Devel/stm32/gcc-arm-none-eabi-8-2018-q4-major/bin/../lib/gcc/arm-none-eabi/8.2.1/../../../../arm-none-eabi/lib/thumb/v7e-m+fp/hard/libc_nano.a(lib_a-lock.o)
 .text.__retarget_lock_init
                0x00000000080051cc        0x2 /home/user/Devel/stm32/gcc-arm-none-eabi-8-2018-q4-major/bin/../lib/gcc/arm-none-eabi/8.2.1/../../../../arm-none-eabi/lib/thumb/v7e-m+fp/hard/libc_nano.a(lib_a-lock.o)
                0x00000000080051cc                __retarget_lock_init
 .text.__retarget_lock_init_recursive
                0x00000000080051ce        0x2 /home/user/Devel/stm32/gcc-arm-none-eabi-8-2018-q4-major/bin/../lib/gcc/arm-none-eabi/8.2.1/../../../../arm-none-eabi/lib/thumb/v7e-m+fp/hard/libc_nano.a(lib_a-lock.o)
                0x00000000080051ce                __retarget_lock_init_recursive
 .text.__retarget_lock_close
                0x00000000080051d0        0x2 /home/user/Devel/stm32/gcc-arm-none-eabi-8-2018-q4-major/bin/../lib/gcc/arm-none-eabi/8.2.1/../../../../arm-none-eabi/lib/thumb/v7e-m+fp/hard/libc_nano.a(lib_a-lock.o)
                0x00000000080051d0                __retarget_lock_close
 .text.__retarget_lock_close_recursive
                0x00000000080051d2        0x2 /home/user/Devel/stm32/gcc-arm-none-eabi-8-2018-q4-major/bin/../lib/gcc/arm-none-eabi/8.2.1/../../../../arm-none-eabi/lib/thumb/v7e-m+fp/hard/libc_nano.a(lib_a-lock.o)
                0x00000000080051d2                __retarget_lock_close_recursive
 .text.__retarget_lock_acquire
                0x00000000080051d4        0x2 /home/user/Devel/stm32/gcc-arm-none-eabi-8-2018-q4-major/bin/../lib/gcc/arm-none-eabi/8.2.1/../../../../arm-none-eabi/lib/thumb/v7e-m+fp/hard/libc_nano.a(lib_a-lock.o)
                0x00000000080051d4                __retarget_lock_acquire
 .text.__retarget_lock_acquire_recursive
                0x00000000080051d6        0x2 /home/user/Devel/stm32/gcc-arm-none-eabi-8-2018-q4-major/bin/../lib/gcc/arm-none-eabi/8.2.1/../../../../arm-none-eabi/lib/thumb/v7e-m+fp/hard/libc_nano.a(lib_a-lock.o)
                0x00000000080051d6                __retarget_lock_acquire_recursive
 .text.__retarget_lock_try_acquire
                0x00000000080051d8        0x4 /home/user/Devel/stm32/gcc-arm-none-eabi-8-2018-q4-major/bin/../lib/gcc/arm-none-eabi/8.2.1/../../../../arm-none-eabi/lib/thumb/v7e-m+fp/hard/libc_nano.a(lib_a-lock.o)
                0x00000000080051d8                __retarget_lock_try_acquire
 .text.__retarget_lock_try_acquire_recursive
                0x00000000080051dc        0x4 /home/user/Devel/stm32/gcc-arm-none-eabi-8-2018-q4-major/bin/../lib/gcc/arm-none-eabi/8.2.1/../../../../arm-none-eabi/lib/thumb/v7e-m+fp/hard/libc_nano.a(lib_a-lock.o)
                0x00000000080051dc                __retarget_lock_try_acquire_recursive
 .text.__retarget_lock_release
                0x00000000080051e0        0x2 /home/user/Devel/stm32/gcc-arm-none-eabi-8-2018-q4-major/bin/../lib/gcc/arm-none-eabi/8.2.1/../../../../arm-none-eabi/lib/thumb/v7e-m+fp/hard/libc_nano.a(lib_a-lock.o)
                0x00000000080051e0                __retarget_lock_release
 .text.__retarget_lock_release_recursive
                0x00000000080051e2        0x2 /home/user/Devel/stm32/gcc-arm-none-eabi-8-2018-q4-major/bin/../lib/gcc/arm-none-eabi/8.2.1/../../../../arm-none-eabi/lib/thumb/v7e-m+fp/hard/libc_nano.a(lib_a-lock.o)
                0x00000000080051e2                __retarget_lock_release_recursive
 .text          0x00000000080051e4        0x0 /home/user/Devel/stm32/gcc-arm-none-eabi-8-2018-q4-major/bin/../lib/gcc/arm-none-eabi/8.2.1/../../../../arm-none-eabi/lib/thumb/v7e-m+fp/hard/libnosys.a(sbrk.o)
 .text._sbrk    0x00000000080051e4       0x1c /home/user/Devel/stm32/gcc-arm-none-eabi-8-2018-q4-major/bin/../lib/gcc/arm-none-eabi/8.2.1/../../../../arm-none-eabi/lib/thumb/v7e-m+fp/hard/libnosys.a(sbrk.o)
                0x00000000080051e4                _sbrk
                0x0000000008005200                . = ALIGN (0x4)
 *(.rodata*)
 .rodata.drivers
                0x0000000008005200       0x70 ././mew.o
                0x0000000008005200                drivers
 .rodata.main.str1.4
                0x0000000008005270       0x77 ././mew.o
 *fill*         0x00000000080052e7        0x1 
 .rodata.str1.4
                0x00000000080052e8       0x7b ././mew.o
 *fill*         0x0000000008005363        0x1 
 .rodata.mew_i2c_eeprom_test.str1.4
                0x0000000008005364       0x5c ././drivers/i2c/i2c.o
 .rodata.mew_i2c_read_block_ts2007.str1.4
                0x00000000080053c0       0x25 ././drivers/i2c/i2c.o
 *fill*         0x00000000080053e5        0x3 
 .rodata.CSWTCH.2
                0x00000000080053e8        0xf ././drivers/duart/duart.o
 *fill*         0x00000000080053f7        0x1 
 .rodata.mew_touchscreen_init.str1.4
                0x00000000080053f8       0x25 ././drivers/display/ts_tsc2007.o
 *fill*         0x000000000800541d        0x3 
 .rodata.mew_touchscreen_test.str1.4
                0x0000000008005420       0x6c ././drivers/display/ts_tsc2007.o
 .rodata        0x000000000800548c       0x88 ././drivers/display/display.o
 .rodata.mew_display_flush.str1.4
                0x0000000008005514       0x16 ././drivers/display/display.o
 *fill*         0x000000000800552a        0x2 
 .rodata.config
                0x000000000800552c        0xd ././drivers/usb/mew_usb_hid.o
                0x000000000800552c                config
 *fill*         0x0000000008005539        0x3 
 .rodata.dev    0x000000000800553c       0x12 ././drivers/usb/mew_usb_hid.o
                0x000000000800553c                dev
 *fill*         0x000000000800554e        0x2 
 .rodata.hid_endpoints
                0x0000000008005550       0x1e ././drivers/usb/mew_usb_hid.o
                0x0000000008005550                hid_endpoints
 *fill*         0x000000000800556e        0x2 
 .rodata.hid_function
                0x0000000008005570        0x9 ././drivers/usb/mew_usb_hid.o
 *fill*         0x0000000008005579        0x3 
 .rodata.hid_iface
                0x000000000800557c       0x15 ././drivers/usb/mew_usb_hid.o
                0x000000000800557c                hid_iface
 *fill*         0x0000000008005591        0x3 
 .rodata.hid_raw_report_descriptor
                0x0000000008005594       0x1c ././drivers/usb/mew_usb_hid.o
                0x0000000008005594                hid_raw_report_descriptor
 .rodata.ifaces
                0x00000000080055b0       0x10 ././drivers/usb/mew_usb_hid.o
                0x00000000080055b0                ifaces
 .rodata.mew_hid_data_rx.str1.4
                0x00000000080055c0       0x83 ././drivers/usb/mew_usb_hid.o
 *fill*         0x0000000008005643        0x1 
 .rodata.str1.4
                0x0000000008005644       0x30 ././drivers/usb/mew_usb_hid.o
 .rodata.mew_spi_flash_init.str1.4
                0x0000000008005674        0xf ././drivers/spi_flash/flash.o
 *fill*         0x0000000008005683        0x1 
 .rodata.mew_spi_flash_xfer.str1.4
                0x0000000008005684       0x3f ././drivers/spi_flash/flash.o
 *fill*         0x00000000080056c3        0x1 
 .rodata.mewcrypt_aes256.str1.4
                0x00000000080056c4       0x36 ././drivers/hw_crypt/aes256.o
 *fill*         0x00000000080056fa        0x2 
 .rodata.mew_wait_for_state.str1.4
                0x00000000080056fc       0x11 ././drivers/system/system.o
 *fill*         0x000000000800570d        0x3 
 .rodata.bus_fault_handler.str1.4
                0x0000000008005710       0x12 ././debug.o
 *fill*         0x0000000008005722        0x2 
 .rodata.hard_fault_handler.str1.4
                0x0000000008005724       0x13 ././debug.o
 *fill*         0x0000000008005737        0x1 
 .rodata.usage_fault_handler.str1.4
                0x0000000008005738       0x14 ././debug.o
 .rodata.mew_logo_height
                0x000000000800574c        0x1 ././ui/mew_logo.o
                0x000000000800574c                mew_logo_height
 *fill*         0x000000000800574d        0x3 
 .rodata.mew_logo_pixel_map
                0x0000000008005750     0x2480 ././ui/mew_logo.o
                0x0000000008005750                mew_logo_pixel_map
 .rodata.mew_logo_width
                0x0000000008007bd0        0x1 ././ui/mew_logo.o
                0x0000000008007bd0                mew_logo_width
 *fill*         0x0000000008007bd1        0x3 
 .rodata.mew_sync_logo_height
                0x0000000008007bd4        0x4 ././ui/sync_logo.o
                0x0000000008007bd4                mew_sync_logo_height
 .rodata.mew_sync_logo_width
                0x0000000008007bd8        0x4 ././ui/sync_logo.o
                0x0000000008007bd8                mew_sync_logo_width
 .rodata.str1.4
                0x0000000008007bdc      0x804 ././ui/sync_logo.o
                                        0x801 (size before relaxing)
 .rodata.rcc_hse_16mhz_3v3
                0x00000000080083e0       0x70 /home/user/Devel/stm32/libopencm3/lib/libopencm3_stm32f4.a(rcc.o)
                0x00000000080083e0                rcc_hse_16mhz_3v3
 .rodata.rcc_hse_12mhz_3v3
                0x0000000008008450       0x70 /home/user/Devel/stm32/libopencm3/lib/libopencm3_stm32f4.a(rcc.o)
                0x0000000008008450                rcc_hse_12mhz_3v3
 .rodata.rcc_hse_25mhz_3v3
                0x00000000080084c0       0x70 /home/user/Devel/stm32/libopencm3/lib/libopencm3_stm32f4.a(rcc.o)
                0x00000000080084c0                rcc_hse_25mhz_3v3
 .rodata.rcc_hse_8mhz_3v3
                0x0000000008008530       0x70 /home/user/Devel/stm32/libopencm3/lib/libopencm3_stm32f4.a(rcc.o)
                0x0000000008008530                rcc_hse_8mhz_3v3
 .rodata.CSWTCH.24
                0x00000000080085a0       0x28 /home/user/Devel/stm32/libopencm3/lib/libopencm3_stm32f4.a(usb_standard.o)
 .rodata.CSWTCH.26
                0x00000000080085c8       0x30 /home/user/Devel/stm32/libopencm3/lib/libopencm3_stm32f4.a(usb_standard.o)
 .rodata.stm32f107_usb_driver
                0x00000000080085f8       0x34 /home/user/Devel/stm32/libopencm3/lib/libopencm3_stm32f4.a(usb_f107.o)
                0x00000000080085f8                stm32f107_usb_driver
 .rodata._global_impure_ptr
                0x000000000800862c        0x4 /home/user/Devel/stm32/gcc-arm-none-eabi-8-2018-q4-major/bin/../lib/gcc/arm-none-eabi/8.2.1/../../../../arm-none-eabi/lib/thumb/v7e-m+fp/hard/libc_nano.a(lib_a-impure.o)
                0x000000000800862c                _global_impure_ptr
 .rodata._svfprintf_r.str1.1
                0x0000000008008630       0x11 /home/user/Devel/stm32/gcc-arm-none-eabi-8-2018-q4-major/bin/../lib/gcc/arm-none-eabi/8.2.1/../../../../arm-none-eabi/lib/thumb/v7e-m+fp/hard/libc_nano.a(lib_a-nano-svfprintf.o)
 .rodata._printf_i.str1.1
                0x0000000008008641       0x22 /home/user/Devel/stm32/gcc-arm-none-eabi-8-2018-q4-major/bin/../lib/gcc/arm-none-eabi/8.2.1/../../../../arm-none-eabi/lib/thumb/v7e-m+fp/hard/libc_nano.a(lib_a-nano-vfprintf_i.o)
                0x0000000008008664                . = ALIGN (0x4)
 *fill*         0x0000000008008663        0x1 

.glue_7         0x0000000008008664        0x0
 .glue_7        0x0000000008008664        0x0 linker stubs

.glue_7t        0x0000000008008664        0x0
 .glue_7t       0x0000000008008664        0x0 linker stubs

.vfp11_veneer   0x0000000008008664        0x0
 .vfp11_veneer  0x0000000008008664        0x0 linker stubs

.v4_bx          0x0000000008008664        0x0
 .v4_bx         0x0000000008008664        0x0 linker stubs

.iplt           0x0000000008008664        0x0
 .iplt          0x0000000008008664        0x0 ././mew.o

.rel.dyn        0x0000000008008664        0x0
 .rel.iplt      0x0000000008008664        0x0 ././mew.o

.preinit_array  0x0000000008008664        0x0
                0x0000000008008664                . = ALIGN (0x4)
                0x0000000008008664                __preinit_array_start = .
 *(.preinit_array)
                0x0000000008008664                __preinit_array_end = .

.init_array     0x0000000008008664        0x0
                0x0000000008008664                . = ALIGN (0x4)
                0x0000000008008664                __init_array_start = .
 *(SORT_BY_NAME(.init_array.*))
 *(.init_array)
                0x0000000008008664                __init_array_end = .

.fini_array     0x0000000008008664        0x0
                0x0000000008008664                . = ALIGN (0x4)
                0x0000000008008664                __fini_array_start = .
 *(.fini_array)
 *(SORT_BY_NAME(.fini_array.*))
                0x0000000008008664                __fini_array_end = .

.ARM.extab
 *(.ARM.extab*)

.ARM.exidx      0x0000000008008664        0x0
                0x0000000008008664                __exidx_start = .
 *(.ARM.exidx*)
                0x0000000008008664                __exidx_end = .
                0x0000000008008664                . = ALIGN (0x4)
                0x0000000008008664                _etext = .

.data           0x0000000020000000       0x90 load address 0x0000000008008664
                0x0000000020000000                _data = .
 *(.data*)
 .data          0x0000000020000000        0x0 ././mew.o
 .data          0x0000000020000000        0x0 ././drivers/i2c/i2c.o
 .data          0x0000000020000000        0x0 ././drivers/duart/duart.o
 .data          0x0000000020000000        0x0 ././drivers/display/ts_tsc2007.o
 .data          0x0000000020000000        0x0 ././drivers/display/display.o
 .data          0x0000000020000000        0x0 ././drivers/usb/mew_usb_hid.o
 .data.mew_usb_dfu_state
                0x0000000020000000        0x1 ././drivers/usb/mew_usb_hid.o
 .data.usb_hid_disable
                0x0000000020000001        0x1 ././drivers/usb/mew_usb_hid.o
                0x0000000020000001                usb_hid_disable
 *fill*         0x0000000020000002        0x2 
 .data.usb_strings
                0x0000000020000004        0xc ././drivers/usb/mew_usb_hid.o
 .data          0x0000000020000010        0x0 ././drivers/spi_flash/flash.o
 .data.mew_flash_dma_dummy
                0x0000000020000010        0x1 ././drivers/spi_flash/flash.o
 .data          0x0000000020000011        0x0 ././drivers/spi_flash/w25n01gvzeig.o
 *fill*         0x0000000020000011        0x3 
 .data._mew_cmd_fast_read
                0x0000000020000014        0x4 ././drivers/spi_flash/w25n01gvzeig.o
 .data._mew_cmd_read_id
                0x0000000020000018        0x2 ././drivers/spi_flash/w25n01gvzeig.o
 .data          0x000000002000001a        0x0 ././drivers/flash/otp_storage.o
 .data          0x000000002000001a        0x0 ././drivers/hw_crypt/aes256.o
 .data.dma2_crypt_in_complete
                0x000000002000001a        0x1 ././drivers/hw_crypt/aes256.o
 .data.dma2_crypt_out_complete
                0x000000002000001b        0x1 ././drivers/hw_crypt/aes256.o
 .data          0x000000002000001c        0x0 ././drivers/hw_crypt/sha2_256.o
 .data          0x000000002000001c        0x0 ././drivers/system/systick.o
 .data          0x000000002000001c        0x0 ././drivers/system/system.o
 .data          0x000000002000001c        0x0 ././drivers/system/random.o
 .data          0x000000002000001c        0x0 ././drivers/system/clock.o
 .data          0x000000002000001c        0x0 ././debug.o
 .data          0x000000002000001c        0x0 ././ui/mew_logo.o
 .data          0x000000002000001c        0x0 ././ui/sync_logo.o
 .data.mew_sync_logo_pixel_map
                0x000000002000001c        0x4 ././ui/sync_logo.o
                0x000000002000001c                mew_sync_logo_pixel_map
 .data          0x0000000020000020        0x0 ././drivers/system/byteorder.o
 .data          0x0000000020000020        0x0 /home/user/Devel/stm32/libopencm3/lib/libopencm3_stm32f4.a(rcc.o)
 .data.rcc_ahb_frequency
                0x0000000020000020        0x4 /home/user/Devel/stm32/libopencm3/lib/libopencm3_stm32f4.a(rcc.o)
                0x0000000020000020                rcc_ahb_frequency
 .data.rcc_apb1_frequency
                0x0000000020000024        0x4 /home/user/Devel/stm32/libopencm3/lib/libopencm3_stm32f4.a(rcc.o)
                0x0000000020000024                rcc_apb1_frequency
 .data.rcc_apb2_frequency
                0x0000000020000028        0x4 /home/user/Devel/stm32/libopencm3/lib/libopencm3_stm32f4.a(rcc.o)
                0x0000000020000028                rcc_apb2_frequency
 .data          0x000000002000002c        0x0 /home/user/Devel/stm32/libopencm3/lib/libopencm3_stm32f4.a(dma_common_f24.o)
 .data          0x000000002000002c        0x0 /home/user/Devel/stm32/libopencm3/lib/libopencm3_stm32f4.a(gpio_common_all.o)
 .data          0x000000002000002c        0x0 /home/user/Devel/stm32/libopencm3/lib/libopencm3_stm32f4.a(gpio_common_f0234.o)
 .data          0x000000002000002c        0x0 /home/user/Devel/stm32/libopencm3/lib/libopencm3_stm32f4.a(i2c_common_v1.o)
 .data          0x000000002000002c        0x0 /home/user/Devel/stm32/libopencm3/lib/libopencm3_stm32f4.a(spi_common_all.o)
 .data          0x000000002000002c        0x0 /home/user/Devel/stm32/libopencm3/lib/libopencm3_stm32f4.a(spi_common_l1f124.o)
 .data          0x000000002000002c        0x0 /home/user/Devel/stm32/libopencm3/lib/libopencm3_stm32f4.a(usart_common_all.o)
 .data          0x000000002000002c        0x0 /home/user/Devel/stm32/libopencm3/lib/libopencm3_stm32f4.a(usart_common_f124.o)
 .data          0x000000002000002c        0x0 /home/user/Devel/stm32/libopencm3/lib/libopencm3_stm32f4.a(flash_common_f234.o)
 .data          0x000000002000002c        0x0 /home/user/Devel/stm32/libopencm3/lib/libopencm3_stm32f4.a(flash_common_f24.o)
 .data          0x000000002000002c        0x0 /home/user/Devel/stm32/libopencm3/lib/libopencm3_stm32f4.a(exti_common_all.o)
 .data          0x000000002000002c        0x0 /home/user/Devel/stm32/libopencm3/lib/libopencm3_stm32f4.a(rcc_common_all.o)
 .data          0x000000002000002c        0x0 /home/user/Devel/stm32/libopencm3/lib/libopencm3_stm32f4.a(usb.o)
 .data          0x000000002000002c        0x0 /home/user/Devel/stm32/libopencm3/lib/libopencm3_stm32f4.a(usb_standard.o)
 .data          0x000000002000002c        0x0 /home/user/Devel/stm32/libopencm3/lib/libopencm3_stm32f4.a(usb_control.o)
 .data          0x000000002000002c        0x0 /home/user/Devel/stm32/libopencm3/lib/libopencm3_stm32f4.a(usb_f107.o)
 .data          0x000000002000002c        0x0 /home/user/Devel/stm32/libopencm3/lib/libopencm3_stm32f4.a(vector.o)
 .data          0x000000002000002c        0x0 /home/user/Devel/stm32/libopencm3/lib/libopencm3_stm32f4.a(systick.o)
 .data          0x000000002000002c        0x0 /home/user/Devel/stm32/libopencm3/lib/libopencm3_stm32f4.a(nvic.o)
 .data          0x000000002000002c        0x0 /home/user/Devel/stm32/libopencm3/lib/libopencm3_stm32f4.a(pwr.o)
 .data          0x000000002000002c        0x0 /home/user/Devel/stm32/libopencm3/lib/libopencm3_stm32f4.a(usb_fx07_common.o)
 .data          0x000000002000002c        0x0 /home/user/Devel/stm32/gcc-arm-none-eabi-8-2018-q4-major/bin/../lib/gcc/arm-none-eabi/8.2.1/../../../../arm-none-eabi/lib/thumb/v7e-m+fp/hard/libc_nano.a(lib_a-memcmp.o)
 .data          0x000000002000002c        0x0 /home/user/Devel/stm32/gcc-arm-none-eabi-8-2018-q4-major/bin/../lib/gcc/arm-none-eabi/8.2.1/../../../../arm-none-eabi/lib/thumb/v7e-m+fp/hard/libc_nano.a(lib_a-memcpy-stub.o)
 .data          0x000000002000002c        0x0 /home/user/Devel/stm32/gcc-arm-none-eabi-8-2018-q4-major/bin/../lib/gcc/arm-none-eabi/8.2.1/../../../../arm-none-eabi/lib/thumb/v7e-m+fp/hard/libc_nano.a(lib_a-memset.o)
 .data          0x000000002000002c        0x0 /home/user/Devel/stm32/gcc-arm-none-eabi-8-2018-q4-major/bin/../lib/gcc/arm-none-eabi/8.2.1/../../../../arm-none-eabi/lib/thumb/v7e-m+fp/hard/libc_nano.a(lib_a-sprintf.o)
 .data          0x000000002000002c        0x0 /home/user/Devel/stm32/gcc-arm-none-eabi-8-2018-q4-major/bin/../lib/gcc/arm-none-eabi/8.2.1/../../../../arm-none-eabi/lib/thumb/v7e-m+fp/hard/libc_nano.a(lib_a-strlen.o)
 .data          0x000000002000002c        0x0 /home/user/Devel/stm32/gcc-arm-none-eabi-8-2018-q4-major/bin/../lib/gcc/arm-none-eabi/8.2.1/../../../../arm-none-eabi/lib/thumb/v7e-m+fp/hard/libc_nano.a(lib_a-impure.o)
 .data._impure_ptr
                0x000000002000002c        0x4 /home/user/Devel/stm32/gcc-arm-none-eabi-8-2018-q4-major/bin/../lib/gcc/arm-none-eabi/8.2.1/../../../../arm-none-eabi/lib/thumb/v7e-m+fp/hard/libc_nano.a(lib_a-impure.o)
                0x000000002000002c                _impure_ptr
 .data.impure_data
                0x0000000020000030       0x60 /home/user/Devel/stm32/gcc-arm-none-eabi-8-2018-q4-major/bin/../lib/gcc/arm-none-eabi/8.2.1/../../../../arm-none-eabi/lib/thumb/v7e-m+fp/hard/libc_nano.a(lib_a-impure.o)
 .data          0x0000000020000090        0x0 /home/user/Devel/stm32/gcc-arm-none-eabi-8-2018-q4-major/bin/../lib/gcc/arm-none-eabi/8.2.1/../../../../arm-none-eabi/lib/thumb/v7e-m+fp/hard/libc_nano.a(lib_a-nano-svfprintf.o)
 .data          0x0000000020000090        0x0 /home/user/Devel/stm32/gcc-arm-none-eabi-8-2018-q4-major/bin/../lib/gcc/arm-none-eabi/8.2.1/../../../../arm-none-eabi/lib/thumb/v7e-m+fp/hard/libc_nano.a(lib_a-nano-vfprintf_i.o)
 .data          0x0000000020000090        0x0 /home/user/Devel/stm32/gcc-arm-none-eabi-8-2018-q4-major/bin/../lib/gcc/arm-none-eabi/8.2.1/../../../../arm-none-eabi/lib/thumb/v7e-m+fp/hard/libc_nano.a(lib_a-memchr.o)
 .data          0x0000000020000090        0x0 /home/user/Devel/stm32/gcc-arm-none-eabi-8-2018-q4-major/bin/../lib/gcc/arm-none-eabi/8.2.1/../../../../arm-none-eabi/lib/thumb/v7e-m+fp/hard/libc_nano.a(lib_a-memmove.o)
 .data          0x0000000020000090        0x0 /home/user/Devel/stm32/gcc-arm-none-eabi-8-2018-q4-major/bin/../lib/gcc/arm-none-eabi/8.2.1/../../../../arm-none-eabi/lib/thumb/v7e-m+fp/hard/libc_nano.a(lib_a-nano-freer.o)
 .data          0x0000000020000090        0x0 /home/user/Devel/stm32/gcc-arm-none-eabi-8-2018-q4-major/bin/../lib/gcc/arm-none-eabi/8.2.1/../../../../arm-none-eabi/lib/thumb/v7e-m+fp/hard/libc_nano.a(lib_a-nano-mallocr.o)
 .data          0x0000000020000090        0x0 /home/user/Devel/stm32/gcc-arm-none-eabi-8-2018-q4-major/bin/../lib/gcc/arm-none-eabi/8.2.1/../../../../arm-none-eabi/lib/thumb/v7e-m+fp/hard/libc_nano.a(lib_a-nano-reallocr.o)
 .data          0x0000000020000090        0x0 /home/user/Devel/stm32/gcc-arm-none-eabi-8-2018-q4-major/bin/../lib/gcc/arm-none-eabi/8.2.1/../../../../arm-none-eabi/lib/thumb/v7e-m+fp/hard/libc_nano.a(lib_a-sbrkr.o)
 .data          0x0000000020000090        0x0 /home/user/Devel/stm32/gcc-arm-none-eabi-8-2018-q4-major/bin/../lib/gcc/arm-none-eabi/8.2.1/../../../../arm-none-eabi/lib/thumb/v7e-m+fp/hard/libc_nano.a(lib_a-mlock.o)
 .data          0x0000000020000090        0x0 /home/user/Devel/stm32/gcc-arm-none-eabi-8-2018-q4-major/bin/../lib/gcc/arm-none-eabi/8.2.1/../../../../arm-none-eabi/lib/thumb/v7e-m+fp/hard/libc_nano.a(lib_a-nano-msizer.o)
 .data          0x0000000020000090        0x0 /home/user/Devel/stm32/gcc-arm-none-eabi-8-2018-q4-major/bin/../lib/gcc/arm-none-eabi/8.2.1/../../../../arm-none-eabi/lib/thumb/v7e-m+fp/hard/libc_nano.a(lib_a-reent.o)
 .data          0x0000000020000090        0x0 /home/user/Devel/stm32/gcc-arm-none-eabi-8-2018-q4-major/bin/../lib/gcc/arm-none-eabi/8.2.1/../../../../arm-none-eabi/lib/thumb/v7e-m+fp/hard/libc_nano.a(lib_a-lock.o)
 .data          0x0000000020000090        0x0 /home/user/Devel/stm32/gcc-arm-none-eabi-8-2018-q4-major/bin/../lib/gcc/arm-none-eabi/8.2.1/../../../../arm-none-eabi/lib/thumb/v7e-m+fp/hard/libnosys.a(sbrk.o)
                0x0000000020000090                . = ALIGN (0x4)
                0x0000000020000090                _edata = .
                0x0000000008008664                _data_loadaddr = LOADADDR (.data)

.igot.plt       0x0000000020000090        0x0 load address 0x00000000080086f4
 .igot.plt      0x0000000020000090        0x0 ././mew.o

.bss            0x0000000020000090     0x1a38 load address 0x00000000080086f4
 *(.bss*)
 .bss           0x0000000020000090        0x0 ././mew.o
 .bss           0x0000000020000090        0x0 ././drivers/i2c/i2c.o
 .bss           0x0000000020000090        0x0 ././drivers/duart/duart.o
 .bss._mew_duart_state
                0x0000000020000090        0x4 ././drivers/duart/duart.o
 .bss           0x0000000020000094        0x0 ././drivers/display/ts_tsc2007.o
 .bss._mew_ts_isr
                0x0000000020000094        0x1 ././drivers/display/ts_tsc2007.o
 .bss.is_bootloader_active
                0x0000000020000095        0x1 ././drivers/display/ts_tsc2007.o
                0x0000000020000095                is_bootloader_active
 .bss           0x0000000020000096        0x0 ././drivers/display/display.o
 .bss._mew_dma_rx_state
                0x0000000020000096        0x1 ././drivers/display/display.o
 .bss           0x0000000020000097        0x0 ././drivers/usb/mew_usb_hid.o
 *fill*         0x0000000020000097        0x1 
 .bss.mew_hid_ring_buffer
                0x0000000020000098     0x1000 ././drivers/usb/mew_usb_hid.o
                0x0000000020000098                mew_hid_ring_buffer
 .bss.mew_hid_ring_counter
                0x0000000020001098        0x4 ././drivers/usb/mew_usb_hid.o
                0x0000000020001098                mew_hid_ring_counter
 .bss.mew_hid_usbd_dev
                0x000000002000109c        0x4 ././drivers/usb/mew_usb_hid.o
                0x000000002000109c                mew_hid_usbd_dev
 .bss.mew_usb_dfu_buffer
                0x00000000200010a0       0x40 ././drivers/usb/mew_usb_hid.o
 .bss.mew_usb_dfu_counter
                0x00000000200010e0        0x4 ././drivers/usb/mew_usb_hid.o
 .bss.mew_usb_dfu_data_len
                0x00000000200010e4        0x4 ././drivers/usb/mew_usb_hid.o
 .bss.mew_usb_dfu_offset
                0x00000000200010e8        0x4 ././drivers/usb/mew_usb_hid.o
 .bss.usbd_control_buffer
                0x00000000200010ec       0x80 ././drivers/usb/mew_usb_hid.o
                0x00000000200010ec                usbd_control_buffer
 .bss           0x000000002000116c        0x0 ././drivers/spi_flash/flash.o
 .bss.mew_flash_mem_addr_receiving
                0x000000002000116c        0x4 ././drivers/spi_flash/flash.o
 .bss.mew_flash_mem_addr_sending
                0x0000000020001170        0x4 ././drivers/spi_flash/flash.o
 .bss.mew_flash_mem_size_receiving
                0x0000000020001174        0x2 ././drivers/spi_flash/flash.o
 .bss.mew_flash_mem_size_sending
                0x0000000020001176        0x2 ././drivers/spi_flash/flash.o
 .bss.mew_flash_rx_handler
                0x0000000020001178        0x4 ././drivers/spi_flash/flash.o
                0x0000000020001178                mew_flash_rx_handler
 .bss.mew_flash_xfer_state
                0x000000002000117c        0x4 ././drivers/spi_flash/flash.o
 .bss           0x0000000020001180        0x0 ././drivers/spi_flash/w25n01gvzeig.o
 .bss._mew_flash_read_buffer
                0x0000000020001180      0x800 ././drivers/spi_flash/w25n01gvzeig.o
 .bss           0x0000000020001980        0x0 ././drivers/flash/otp_storage.o
 .bss           0x0000000020001980        0x0 ././drivers/hw_crypt/aes256.o
 .bss           0x0000000020001980        0x0 ././drivers/hw_crypt/sha2_256.o
 .bss.__buf_32  0x0000000020001980        0x4 ././drivers/hw_crypt/sha2_256.o
 .bss.__buf_8_counter
                0x0000000020001984        0x4 ././drivers/hw_crypt/sha2_256.o
 .bss.__result_32
                0x0000000020001988       0x20 ././drivers/hw_crypt/sha2_256.o
 .bss           0x00000000200019a8        0x0 ././drivers/system/systick.o
 .bss.systick_millis
                0x00000000200019a8        0x4 ././drivers/system/systick.o
 .bss           0x00000000200019ac        0x0 ././drivers/system/system.o
 .bss           0x00000000200019ac        0x0 ././drivers/system/random.o
 .bss._mew_last_random_value
                0x00000000200019ac        0x4 ././drivers/system/random.o
 .bss           0x00000000200019b0        0x0 ././drivers/system/clock.o
 .bss           0x00000000200019b0        0x0 ././debug.o
 .bss           0x00000000200019b0        0x0 ././ui/mew_logo.o
 .bss           0x00000000200019b0        0x0 ././ui/sync_logo.o
 .bss           0x00000000200019b0        0x0 ././drivers/system/byteorder.o
 .bss           0x00000000200019b0        0x0 /home/user/Devel/stm32/libopencm3/lib/libopencm3_stm32f4.a(rcc.o)
 .bss           0x00000000200019b0        0x0 /home/user/Devel/stm32/libopencm3/lib/libopencm3_stm32f4.a(dma_common_f24.o)
 .bss           0x00000000200019b0        0x0 /home/user/Devel/stm32/libopencm3/lib/libopencm3_stm32f4.a(gpio_common_all.o)
 .bss           0x00000000200019b0        0x0 /home/user/Devel/stm32/libopencm3/lib/libopencm3_stm32f4.a(gpio_common_f0234.o)
 .bss           0x00000000200019b0        0x0 /home/user/Devel/stm32/libopencm3/lib/libopencm3_stm32f4.a(i2c_common_v1.o)
 .bss           0x00000000200019b0        0x0 /home/user/Devel/stm32/libopencm3/lib/libopencm3_stm32f4.a(spi_common_all.o)
 .bss           0x00000000200019b0        0x0 /home/user/Devel/stm32/libopencm3/lib/libopencm3_stm32f4.a(spi_common_l1f124.o)
 .bss           0x00000000200019b0        0x0 /home/user/Devel/stm32/libopencm3/lib/libopencm3_stm32f4.a(usart_common_all.o)
 .bss           0x00000000200019b0        0x0 /home/user/Devel/stm32/libopencm3/lib/libopencm3_stm32f4.a(usart_common_f124.o)
 .bss           0x00000000200019b0        0x0 /home/user/Devel/stm32/libopencm3/lib/libopencm3_stm32f4.a(flash_common_f234.o)
 .bss           0x00000000200019b0        0x0 /home/user/Devel/stm32/libopencm3/lib/libopencm3_stm32f4.a(flash_common_f24.o)
 .bss           0x00000000200019b0        0x0 /home/user/Devel/stm32/libopencm3/lib/libopencm3_stm32f4.a(exti_common_all.o)
 .bss           0x00000000200019b0        0x0 /home/user/Devel/stm32/libopencm3/lib/libopencm3_stm32f4.a(rcc_common_all.o)
 .bss           0x00000000200019b0        0x0 /home/user/Devel/stm32/libopencm3/lib/libopencm3_stm32f4.a(usb.o)
 .bss           0x00000000200019b0        0x0 /home/user/Devel/stm32/libopencm3/lib/libopencm3_stm32f4.a(usb_standard.o)
 .bss           0x00000000200019b0        0x0 /home/user/Devel/stm32/libopencm3/lib/libopencm3_stm32f4.a(usb_control.o)
 .bss           0x00000000200019b0        0x0 /home/user/Devel/stm32/libopencm3/lib/libopencm3_stm32f4.a(usb_f107.o)
 .bss.usbd_dev  0x00000000200019b0       0xfc /home/user/Devel/stm32/libopencm3/lib/libopencm3_stm32f4.a(usb_f107.o)
 .bss           0x0000000020001aac        0x0 /home/user/Devel/stm32/libopencm3/lib/libopencm3_stm32f4.a(vector.o)
 .bss           0x0000000020001aac        0x0 /home/user/Devel/stm32/libopencm3/lib/libopencm3_stm32f4.a(systick.o)
 .bss           0x0000000020001aac        0x0 /home/user/Devel/stm32/libopencm3/lib/libopencm3_stm32f4.a(nvic.o)
 .bss           0x0000000020001aac        0x0 /home/user/Devel/stm32/libopencm3/lib/libopencm3_stm32f4.a(pwr.o)
 .bss           0x0000000020001aac        0x0 /home/user/Devel/stm32/libopencm3/lib/libopencm3_stm32f4.a(usb_fx07_common.o)
 .bss           0x0000000020001aac        0x0 /home/user/Devel/stm32/gcc-arm-none-eabi-8-2018-q4-major/bin/../lib/gcc/arm-none-eabi/8.2.1/../../../../arm-none-eabi/lib/thumb/v7e-m+fp/hard/libc_nano.a(lib_a-memcmp.o)
 .bss           0x0000000020001aac        0x0 /home/user/Devel/stm32/gcc-arm-none-eabi-8-2018-q4-major/bin/../lib/gcc/arm-none-eabi/8.2.1/../../../../arm-none-eabi/lib/thumb/v7e-m+fp/hard/libc_nano.a(lib_a-memcpy-stub.o)
 .bss           0x0000000020001aac        0x0 /home/user/Devel/stm32/gcc-arm-none-eabi-8-2018-q4-major/bin/../lib/gcc/arm-none-eabi/8.2.1/../../../../arm-none-eabi/lib/thumb/v7e-m+fp/hard/libc_nano.a(lib_a-memset.o)
 .bss           0x0000000020001aac        0x0 /home/user/Devel/stm32/gcc-arm-none-eabi-8-2018-q4-major/bin/../lib/gcc/arm-none-eabi/8.2.1/../../../../arm-none-eabi/lib/thumb/v7e-m+fp/hard/libc_nano.a(lib_a-sprintf.o)
 .bss           0x0000000020001aac        0x0 /home/user/Devel/stm32/gcc-arm-none-eabi-8-2018-q4-major/bin/../lib/gcc/arm-none-eabi/8.2.1/../../../../arm-none-eabi/lib/thumb/v7e-m+fp/hard/libc_nano.a(lib_a-strlen.o)
 .bss           0x0000000020001aac        0x0 /home/user/Devel/stm32/gcc-arm-none-eabi-8-2018-q4-major/bin/../lib/gcc/arm-none-eabi/8.2.1/../../../../arm-none-eabi/lib/thumb/v7e-m+fp/hard/libc_nano.a(lib_a-impure.o)
 .bss           0x0000000020001aac        0x0 /home/user/Devel/stm32/gcc-arm-none-eabi-8-2018-q4-major/bin/../lib/gcc/arm-none-eabi/8.2.1/../../../../arm-none-eabi/lib/thumb/v7e-m+fp/hard/libc_nano.a(lib_a-nano-svfprintf.o)
 .bss           0x0000000020001aac        0x0 /home/user/Devel/stm32/gcc-arm-none-eabi-8-2018-q4-major/bin/../lib/gcc/arm-none-eabi/8.2.1/../../../../arm-none-eabi/lib/thumb/v7e-m+fp/hard/libc_nano.a(lib_a-nano-vfprintf_i.o)
 .bss           0x0000000020001aac        0x0 /home/user/Devel/stm32/gcc-arm-none-eabi-8-2018-q4-major/bin/../lib/gcc/arm-none-eabi/8.2.1/../../../../arm-none-eabi/lib/thumb/v7e-m+fp/hard/libc_nano.a(lib_a-memchr.o)
 .bss           0x0000000020001aac        0x0 /home/user/Devel/stm32/gcc-arm-none-eabi-8-2018-q4-major/bin/../lib/gcc/arm-none-eabi/8.2.1/../../../../arm-none-eabi/lib/thumb/v7e-m+fp/hard/libc_nano.a(lib_a-memmove.o)
 .bss           0x0000000020001aac        0x0 /home/user/Devel/stm32/gcc-arm-none-eabi-8-2018-q4-major/bin/../lib/gcc/arm-none-eabi/8.2.1/../../../../arm-none-eabi/lib/thumb/v7e-m+fp/hard/libc_nano.a(lib_a-nano-freer.o)
 .bss           0x0000000020001aac        0x0 /home/user/Devel/stm32/gcc-arm-none-eabi-8-2018-q4-major/bin/../lib/gcc/arm-none-eabi/8.2.1/../../../../arm-none-eabi/lib/thumb/v7e-m+fp/hard/libc_nano.a(lib_a-nano-mallocr.o)
 .bss.__malloc_free_list
                0x0000000020001aac        0x4 /home/user/Devel/stm32/gcc-arm-none-eabi-8-2018-q4-major/bin/../lib/gcc/arm-none-eabi/8.2.1/../../../../arm-none-eabi/lib/thumb/v7e-m+fp/hard/libc_nano.a(lib_a-nano-mallocr.o)
                0x0000000020001aac                __malloc_free_list
 .bss.__malloc_sbrk_start
                0x0000000020001ab0        0x4 /home/user/Devel/stm32/gcc-arm-none-eabi-8-2018-q4-major/bin/../lib/gcc/arm-none-eabi/8.2.1/../../../../arm-none-eabi/lib/thumb/v7e-m+fp/hard/libc_nano.a(lib_a-nano-mallocr.o)
                0x0000000020001ab0                __malloc_sbrk_start
 .bss           0x0000000020001ab4        0x0 /home/user/Devel/stm32/gcc-arm-none-eabi-8-2018-q4-major/bin/../lib/gcc/arm-none-eabi/8.2.1/../../../../arm-none-eabi/lib/thumb/v7e-m+fp/hard/libc_nano.a(lib_a-nano-reallocr.o)
 .bss           0x0000000020001ab4        0x0 /home/user/Devel/stm32/gcc-arm-none-eabi-8-2018-q4-major/bin/../lib/gcc/arm-none-eabi/8.2.1/../../../../arm-none-eabi/lib/thumb/v7e-m+fp/hard/libc_nano.a(lib_a-sbrkr.o)
 .bss           0x0000000020001ab4        0x0 /home/user/Devel/stm32/gcc-arm-none-eabi-8-2018-q4-major/bin/../lib/gcc/arm-none-eabi/8.2.1/../../../../arm-none-eabi/lib/thumb/v7e-m+fp/hard/libc_nano.a(lib_a-mlock.o)
 .bss           0x0000000020001ab4        0x0 /home/user/Devel/stm32/gcc-arm-none-eabi-8-2018-q4-major/bin/../lib/gcc/arm-none-eabi/8.2.1/../../../../arm-none-eabi/lib/thumb/v7e-m+fp/hard/libc_nano.a(lib_a-nano-msizer.o)
 .bss           0x0000000020001ab4        0x0 /home/user/Devel/stm32/gcc-arm-none-eabi-8-2018-q4-major/bin/../lib/gcc/arm-none-eabi/8.2.1/../../../../arm-none-eabi/lib/thumb/v7e-m+fp/hard/libc_nano.a(lib_a-reent.o)
 .bss           0x0000000020001ab4        0x0 /home/user/Devel/stm32/gcc-arm-none-eabi-8-2018-q4-major/bin/../lib/gcc/arm-none-eabi/8.2.1/../../../../arm-none-eabi/lib/thumb/v7e-m+fp/hard/libc_nano.a(lib_a-lock.o)
 .bss           0x0000000020001ab4        0x0 /home/user/Devel/stm32/gcc-arm-none-eabi-8-2018-q4-major/bin/../lib/gcc/arm-none-eabi/8.2.1/../../../../arm-none-eabi/lib/thumb/v7e-m+fp/hard/libnosys.a(sbrk.o)
 .bss.heap_end.5501
                0x0000000020001ab4        0x4 /home/user/Devel/stm32/gcc-arm-none-eabi-8-2018-q4-major/bin/../lib/gcc/arm-none-eabi/8.2.1/../../../../arm-none-eabi/lib/thumb/v7e-m+fp/hard/libnosys.a(sbrk.o)
 *(COMMON)
 COMMON         0x0000000020001ab8        0x4 /home/user/Devel/stm32/gcc-arm-none-eabi-8-2018-q4-major/bin/../lib/gcc/arm-none-eabi/8.2.1/../../../../arm-none-eabi/lib/thumb/v7e-m+fp/hard/libc_nano.a(lib_a-reent.o)
                0x0000000020001ab8                errno
 COMMON         0x0000000020001abc        0x9 /home/user/Devel/stm32/gcc-arm-none-eabi-8-2018-q4-major/bin/../lib/gcc/arm-none-eabi/8.2.1/../../../../arm-none-eabi/lib/thumb/v7e-m+fp/hard/libc_nano.a(lib_a-lock.o)
                0x0000000020001abc                __lock___atexit_recursive_mutex
                0x0000000020001abd                __lock___arc4random_mutex
                0x0000000020001abe                __lock___env_recursive_mutex
                0x0000000020001abf                __lock___sinit_recursive_mutex
                0x0000000020001ac0                __lock___malloc_recursive_mutex
                0x0000000020001ac1                __lock___at_quick_exit_mutex
                0x0000000020001ac2                __lock___dd_hash_mutex
                0x0000000020001ac3                __lock___tz_mutex
                0x0000000020001ac4                __lock___sfp_recursive_mutex
                0x0000000020001ac8                . = ALIGN (0x4)
 *fill*         0x0000000020001ac5        0x3 
                0x0000000020001ac8                _ebss = .

.ccm            0x0000000010000000        0x0
                0x0000000010000000                . = ALIGN (0x4)
                0x0000000010000000                _sccm = .
 *(.ccm)
                0x0000000010000000                . = ALIGN (0x4)
                0x0000000010000000                _eccm = .

/DISCARD/
 *(.eh_frame)
                0x0000000010000000                . = ALIGN (0x4)
                0x0000000010000000                end = .
                0x0000000020030000                PROVIDE (_stack = (ORIGIN (ram) + LENGTH (ram)))
OUTPUT(.//mew.elf elf32-littlearm)

.debug_info     0x0000000000000000    0x193de
 .debug_info    0x0000000000000000      0xadf ././mew.o
 .debug_info    0x0000000000000adf     0x1326 ././drivers/i2c/i2c.o
 .debug_info    0x0000000000001e05      0xed9 ././drivers/duart/duart.o
 .debug_info    0x0000000000002cde      0xd90 ././drivers/display/ts_tsc2007.o
 .debug_info    0x0000000000003a6e     0x1ecf ././drivers/display/display.o
 .debug_info    0x000000000000593d     0x19e7 ././drivers/usb/mew_usb_hid.o
 .debug_info    0x0000000000007324     0x16f2 ././drivers/spi_flash/flash.o
 .debug_info    0x0000000000008a16      0xacf ././drivers/spi_flash/w25n01gvzeig.o
 .debug_info    0x00000000000094e5      0x937 ././drivers/flash/otp_storage.o
 .debug_info    0x0000000000009e1c     0x1172 ././drivers/hw_crypt/aes256.o
 .debug_info    0x000000000000af8e      0xa32 ././drivers/hw_crypt/sha2_256.o
 .debug_info    0x000000000000b9c0      0xbd9 ././drivers/system/systick.o
 .debug_info    0x000000000000c599      0xb7e ././drivers/system/system.o
 .debug_info    0x000000000000d117      0xbbe ././drivers/system/random.o
 .debug_info    0x000000000000dcd5     0x10d2 ././drivers/system/clock.o
 .debug_info    0x000000000000eda7      0xb8c ././debug.o
 .debug_info    0x000000000000f933       0xcd ././ui/mew_logo.o
 .debug_info    0x000000000000fa00       0x72 ././ui/sync_logo.o
 .debug_info    0x000000000000fa72      0x959 /home/user/Devel/stm32/libopencm3/lib/libopencm3_stm32f4.a(rcc.o)
 .debug_info    0x00000000000103cb      0xbb3 /home/user/Devel/stm32/libopencm3/lib/libopencm3_stm32f4.a(dma_common_f24.o)
 .debug_info    0x0000000000010f7e      0x22c /home/user/Devel/stm32/libopencm3/lib/libopencm3_stm32f4.a(gpio_common_all.o)
 .debug_info    0x00000000000111aa      0x1eb /home/user/Devel/stm32/libopencm3/lib/libopencm3_stm32f4.a(gpio_common_f0234.o)
 .debug_info    0x0000000000011395      0xab7 /home/user/Devel/stm32/libopencm3/lib/libopencm3_stm32f4.a(i2c_common_v1.o)
 .debug_info    0x0000000000011e4c      0x9c1 /home/user/Devel/stm32/libopencm3/lib/libopencm3_stm32f4.a(spi_common_all.o)
 .debug_info    0x000000000001280d      0x148 /home/user/Devel/stm32/libopencm3/lib/libopencm3_stm32f4.a(spi_common_l1f124.o)
 .debug_info    0x0000000000012955      0x4b2 /home/user/Devel/stm32/libopencm3/lib/libopencm3_stm32f4.a(usart_common_all.o)
 .debug_info    0x0000000000012e07      0x17a /home/user/Devel/stm32/libopencm3/lib/libopencm3_stm32f4.a(usart_common_f124.o)
 .debug_info    0x0000000000012f81      0x11f /home/user/Devel/stm32/libopencm3/lib/libopencm3_stm32f4.a(flash_common_f234.o)
 .debug_info    0x00000000000130a0      0x50a /home/user/Devel/stm32/libopencm3/lib/libopencm3_stm32f4.a(flash_common_f24.o)
 .debug_info    0x00000000000135aa      0x204 /home/user/Devel/stm32/libopencm3/lib/libopencm3_stm32f4.a(exti_common_all.o)
 .debug_info    0x00000000000137ae      0x828 /home/user/Devel/stm32/libopencm3/lib/libopencm3_stm32f4.a(rcc_common_all.o)
 .debug_info    0x0000000000013fd6      0xdb1 /home/user/Devel/stm32/libopencm3/lib/libopencm3_stm32f4.a(usb.o)
 .debug_info    0x0000000000014d87     0x1449 /home/user/Devel/stm32/libopencm3/lib/libopencm3_stm32f4.a(usb_standard.o)
 .debug_info    0x00000000000161d0      0xed8 /home/user/Devel/stm32/libopencm3/lib/libopencm3_stm32f4.a(usb_control.o)
 .debug_info    0x00000000000170a8      0xdf7 /home/user/Devel/stm32/libopencm3/lib/libopencm3_stm32f4.a(usb_f107.o)
 .debug_info    0x0000000000017e9f      0x2b7 /home/user/Devel/stm32/libopencm3/lib/libopencm3_stm32f4.a(vector.o)
 .debug_info    0x0000000000018156      0x255 /home/user/Devel/stm32/libopencm3/lib/libopencm3_stm32f4.a(systick.o)
 .debug_info    0x00000000000183ab      0x214 /home/user/Devel/stm32/libopencm3/lib/libopencm3_stm32f4.a(nvic.o)
 .debug_info    0x00000000000185bf       0xc2 /home/user/Devel/stm32/libopencm3/lib/libopencm3_stm32f4.a(pwr.o)
 .debug_info    0x0000000000018681      0xd5d /home/user/Devel/stm32/libopencm3/lib/libopencm3_stm32f4.a(usb_fx07_common.o)

.debug_abbrev   0x0000000000000000     0x4a09
 .debug_abbrev  0x0000000000000000      0x203 ././mew.o
 .debug_abbrev  0x0000000000000203      0x2c1 ././drivers/i2c/i2c.o
 .debug_abbrev  0x00000000000004c4      0x313 ././drivers/duart/duart.o
 .debug_abbrev  0x00000000000007d7      0x2db ././drivers/display/ts_tsc2007.o
 .debug_abbrev  0x0000000000000ab2      0x3ad ././drivers/display/display.o
 .debug_abbrev  0x0000000000000e5f      0x412 ././drivers/usb/mew_usb_hid.o
 .debug_abbrev  0x0000000000001271      0x315 ././drivers/spi_flash/flash.o
 .debug_abbrev  0x0000000000001586      0x224 ././drivers/spi_flash/w25n01gvzeig.o
 .debug_abbrev  0x00000000000017aa      0x193 ././drivers/flash/otp_storage.o
 .debug_abbrev  0x000000000000193d      0x231 ././drivers/hw_crypt/aes256.o
 .debug_abbrev  0x0000000000001b6e      0x215 ././drivers/hw_crypt/sha2_256.o
 .debug_abbrev  0x0000000000001d83      0x27c ././drivers/system/systick.o
 .debug_abbrev  0x0000000000001fff      0x235 ././drivers/system/system.o
 .debug_abbrev  0x0000000000002234      0x25a ././drivers/system/random.o
 .debug_abbrev  0x000000000000248e      0x211 ././drivers/system/clock.o
 .debug_abbrev  0x000000000000269f      0x27b ././debug.o
 .debug_abbrev  0x000000000000291a       0x61 ././ui/mew_logo.o
 .debug_abbrev  0x000000000000297b       0x3e ././ui/sync_logo.o
 .debug_abbrev  0x00000000000029b9      0x217 /home/user/Devel/stm32/libopencm3/lib/libopencm3_stm32f4.a(rcc.o)
 .debug_abbrev  0x0000000000002bd0      0x189 /home/user/Devel/stm32/libopencm3/lib/libopencm3_stm32f4.a(dma_common_f24.o)
 .debug_abbrev  0x0000000000002d59      0x10e /home/user/Devel/stm32/libopencm3/lib/libopencm3_stm32f4.a(gpio_common_all.o)
 .debug_abbrev  0x0000000000002e67       0xb7 /home/user/Devel/stm32/libopencm3/lib/libopencm3_stm32f4.a(gpio_common_f0234.o)
 .debug_abbrev  0x0000000000002f1e      0x27a /home/user/Devel/stm32/libopencm3/lib/libopencm3_stm32f4.a(i2c_common_v1.o)
 .debug_abbrev  0x0000000000003198      0x1aa /home/user/Devel/stm32/libopencm3/lib/libopencm3_stm32f4.a(spi_common_all.o)
 .debug_abbrev  0x0000000000003342       0xd3 /home/user/Devel/stm32/libopencm3/lib/libopencm3_stm32f4.a(spi_common_l1f124.o)
 .debug_abbrev  0x0000000000003415      0x10f /home/user/Devel/stm32/libopencm3/lib/libopencm3_stm32f4.a(usart_common_all.o)
 .debug_abbrev  0x0000000000003524       0x8e /home/user/Devel/stm32/libopencm3/lib/libopencm3_stm32f4.a(usart_common_f124.o)
 .debug_abbrev  0x00000000000035b2       0x8a /home/user/Devel/stm32/libopencm3/lib/libopencm3_stm32f4.a(flash_common_f234.o)
 .debug_abbrev  0x000000000000363c      0x131 /home/user/Devel/stm32/libopencm3/lib/libopencm3_stm32f4.a(flash_common_f24.o)
 .debug_abbrev  0x000000000000376d       0xe5 /home/user/Devel/stm32/libopencm3/lib/libopencm3_stm32f4.a(exti_common_all.o)
 .debug_abbrev  0x0000000000003852      0x105 /home/user/Devel/stm32/libopencm3/lib/libopencm3_stm32f4.a(rcc_common_all.o)
 .debug_abbrev  0x0000000000003957      0x1f2 /home/user/Devel/stm32/libopencm3/lib/libopencm3_stm32f4.a(usb.o)
 .debug_abbrev  0x0000000000003b49      0x3da /home/user/Devel/stm32/libopencm3/lib/libopencm3_stm32f4.a(usb_standard.o)
 .debug_abbrev  0x0000000000003f23      0x317 /home/user/Devel/stm32/libopencm3/lib/libopencm3_stm32f4.a(usb_control.o)
 .debug_abbrev  0x000000000000423a      0x163 /home/user/Devel/stm32/libopencm3/lib/libopencm3_stm32f4.a(usb_f107.o)
 .debug_abbrev  0x000000000000439d      0x155 /home/user/Devel/stm32/libopencm3/lib/libopencm3_stm32f4.a(vector.o)
 .debug_abbrev  0x00000000000044f2      0x132 /home/user/Devel/stm32/libopencm3/lib/libopencm3_stm32f4.a(systick.o)
 .debug_abbrev  0x0000000000004624       0xa6 /home/user/Devel/stm32/libopencm3/lib/libopencm3_stm32f4.a(nvic.o)
 .debug_abbrev  0x00000000000046ca       0x7b /home/user/Devel/stm32/libopencm3/lib/libopencm3_stm32f4.a(pwr.o)
 .debug_abbrev  0x0000000000004745      0x2c4 /home/user/Devel/stm32/libopencm3/lib/libopencm3_stm32f4.a(usb_fx07_common.o)

.debug_loc      0x0000000000000000     0x610a
 .debug_loc     0x0000000000000000       0x30 ././mew.o
 .debug_loc     0x0000000000000030      0x3a0 ././drivers/i2c/i2c.o
 .debug_loc     0x00000000000003d0      0x49e ././drivers/duart/duart.o
 .debug_loc     0x000000000000086e      0x36d ././drivers/display/ts_tsc2007.o
 .debug_loc     0x0000000000000bdb      0x3b2 ././drivers/display/display.o
 .debug_loc     0x0000000000000f8d      0x3ce ././drivers/usb/mew_usb_hid.o
 .debug_loc     0x000000000000135b       0xd3 ././drivers/spi_flash/flash.o
 .debug_loc     0x000000000000142e       0x6f ././drivers/spi_flash/w25n01gvzeig.o
 .debug_loc     0x000000000000149d      0x130 ././drivers/hw_crypt/aes256.o
 .debug_loc     0x00000000000015cd       0x7f ././drivers/hw_crypt/sha2_256.o
 .debug_loc     0x000000000000164c       0x3a ././drivers/system/systick.o
 .debug_loc     0x0000000000001686       0xc9 ././drivers/system/system.o
 .debug_loc     0x000000000000174f       0x59 ././drivers/system/random.o
 .debug_loc     0x00000000000017a8      0x17d ././debug.o
 .debug_loc     0x0000000000001925      0x5e8 /home/user/Devel/stm32/libopencm3/lib/libopencm3_stm32f4.a(rcc.o)
 .debug_loc     0x0000000000001f0d      0xc60 /home/user/Devel/stm32/libopencm3/lib/libopencm3_stm32f4.a(dma_common_f24.o)
 .debug_loc     0x0000000000002b6d       0x97 /home/user/Devel/stm32/libopencm3/lib/libopencm3_stm32f4.a(gpio_common_all.o)
 .debug_loc     0x0000000000002c04       0xdd /home/user/Devel/stm32/libopencm3/lib/libopencm3_stm32f4.a(gpio_common_f0234.o)
 .debug_loc     0x0000000000002ce1      0x4ad /home/user/Devel/stm32/libopencm3/lib/libopencm3_stm32f4.a(i2c_common_v1.o)
 .debug_loc     0x000000000000318e      0x176 /home/user/Devel/stm32/libopencm3/lib/libopencm3_stm32f4.a(spi_common_all.o)
 .debug_loc     0x0000000000003304       0xa2 /home/user/Devel/stm32/libopencm3/lib/libopencm3_stm32f4.a(spi_common_l1f124.o)
 .debug_loc     0x00000000000033a6      0x1ca /home/user/Devel/stm32/libopencm3/lib/libopencm3_stm32f4.a(usart_common_all.o)
 .debug_loc     0x0000000000003570       0x63 /home/user/Devel/stm32/libopencm3/lib/libopencm3_stm32f4.a(usart_common_f124.o)
 .debug_loc     0x00000000000035d3       0x3f /home/user/Devel/stm32/libopencm3/lib/libopencm3_stm32f4.a(flash_common_f234.o)
 .debug_loc     0x0000000000003612      0x2cd /home/user/Devel/stm32/libopencm3/lib/libopencm3_stm32f4.a(flash_common_f24.o)
 .debug_loc     0x00000000000038df      0x1f2 /home/user/Devel/stm32/libopencm3/lib/libopencm3_stm32f4.a(exti_common_all.o)
 .debug_loc     0x0000000000003ad1      0x108 /home/user/Devel/stm32/libopencm3/lib/libopencm3_stm32f4.a(rcc_common_all.o)
 .debug_loc     0x0000000000003bd9      0x4b1 /home/user/Devel/stm32/libopencm3/lib/libopencm3_stm32f4.a(usb.o)
 .debug_loc     0x000000000000408a     0x116c /home/user/Devel/stm32/libopencm3/lib/libopencm3_stm32f4.a(usb_standard.o)
 .debug_loc     0x00000000000051f6      0x58d /home/user/Devel/stm32/libopencm3/lib/libopencm3_stm32f4.a(usb_control.o)
 .debug_loc     0x0000000000005783       0xdf /home/user/Devel/stm32/libopencm3/lib/libopencm3_stm32f4.a(vector.o)
 .debug_loc     0x0000000000005862      0x136 /home/user/Devel/stm32/libopencm3/lib/libopencm3_stm32f4.a(systick.o)
 .debug_loc     0x0000000000005998      0x129 /home/user/Devel/stm32/libopencm3/lib/libopencm3_stm32f4.a(nvic.o)
 .debug_loc     0x0000000000005ac1      0x649 /home/user/Devel/stm32/libopencm3/lib/libopencm3_stm32f4.a(usb_fx07_common.o)

.debug_aranges  0x0000000000000000      0xf70
 .debug_aranges
                0x0000000000000000       0x20 ././mew.o
 .debug_aranges
                0x0000000000000020       0x50 ././drivers/i2c/i2c.o
 .debug_aranges
                0x0000000000000070       0x50 ././drivers/duart/duart.o
 .debug_aranges
                0x00000000000000c0       0x30 ././drivers/display/ts_tsc2007.o
 .debug_aranges
                0x00000000000000f0       0x70 ././drivers/display/display.o
 .debug_aranges
                0x0000000000000160       0x60 ././drivers/usb/mew_usb_hid.o
 .debug_aranges
                0x00000000000001c0       0x50 ././drivers/spi_flash/flash.o
 .debug_aranges
                0x0000000000000210       0x30 ././drivers/spi_flash/w25n01gvzeig.o
 .debug_aranges
                0x0000000000000240       0x20 ././drivers/flash/otp_storage.o
 .debug_aranges
                0x0000000000000260       0x30 ././drivers/hw_crypt/aes256.o
 .debug_aranges
                0x0000000000000290       0x30 ././drivers/hw_crypt/sha2_256.o
 .debug_aranges
                0x00000000000002c0       0x38 ././drivers/system/systick.o
 .debug_aranges
                0x00000000000002f8       0x28 ././drivers/system/system.o
 .debug_aranges
                0x0000000000000320       0x30 ././drivers/system/random.o
 .debug_aranges
                0x0000000000000350       0x20 ././drivers/system/clock.o
 .debug_aranges
                0x0000000000000370       0x58 ././debug.o
 .debug_aranges
                0x00000000000003c8       0x18 ././ui/mew_logo.o
 .debug_aranges
                0x00000000000003e0       0x18 ././ui/sync_logo.o
 .debug_aranges
                0x00000000000003f8       0xf0 /home/user/Devel/stm32/libopencm3/lib/libopencm3_stm32f4.a(rcc.o)
 .debug_aranges
                0x00000000000004e8      0x168 /home/user/Devel/stm32/libopencm3/lib/libopencm3_stm32f4.a(dma_common_f24.o)
 .debug_aranges
                0x0000000000000650       0x50 /home/user/Devel/stm32/libopencm3/lib/libopencm3_stm32f4.a(gpio_common_all.o)
 .debug_aranges
                0x00000000000006a0       0x30 /home/user/Devel/stm32/libopencm3/lib/libopencm3_stm32f4.a(gpio_common_f0234.o)
 .debug_aranges
                0x00000000000006d0      0x110 /home/user/Devel/stm32/libopencm3/lib/libopencm3_stm32f4.a(i2c_common_v1.o)
 .debug_aranges
                0x00000000000007e0      0x178 /home/user/Devel/stm32/libopencm3/lib/libopencm3_stm32f4.a(spi_common_all.o)
 .debug_aranges
                0x0000000000000958       0x30 /home/user/Devel/stm32/libopencm3/lib/libopencm3_stm32f4.a(spi_common_l1f124.o)
 .debug_aranges
                0x0000000000000988       0xb8 /home/user/Devel/stm32/libopencm3/lib/libopencm3_stm32f4.a(usart_common_all.o)
 .debug_aranges
                0x0000000000000a40       0x40 /home/user/Devel/stm32/libopencm3/lib/libopencm3_stm32f4.a(usart_common_f124.o)
 .debug_aranges
                0x0000000000000a80       0x50 /home/user/Devel/stm32/libopencm3/lib/libopencm3_stm32f4.a(flash_common_f234.o)
 .debug_aranges
                0x0000000000000ad0       0xd0 /home/user/Devel/stm32/libopencm3/lib/libopencm3_stm32f4.a(flash_common_f24.o)
 .debug_aranges
                0x0000000000000ba0       0x48 /home/user/Devel/stm32/libopencm3/lib/libopencm3_stm32f4.a(exti_common_all.o)
 .debug_aranges
                0x0000000000000be8       0x58 /home/user/Devel/stm32/libopencm3/lib/libopencm3_stm32f4.a(rcc_common_all.o)
 .debug_aranges
                0x0000000000000c40       0x88 /home/user/Devel/stm32/libopencm3/lib/libopencm3_stm32f4.a(usb.o)
 .debug_aranges
                0x0000000000000cc8       0x98 /home/user/Devel/stm32/libopencm3/lib/libopencm3_stm32f4.a(usb_standard.o)
 .debug_aranges
                0x0000000000000d60       0x60 /home/user/Devel/stm32/libopencm3/lib/libopencm3_stm32f4.a(usb_control.o)
 .debug_aranges
                0x0000000000000dc0       0x20 /home/user/Devel/stm32/libopencm3/lib/libopencm3_stm32f4.a(usb_f107.o)
 .debug_aranges
                0x0000000000000de0       0x30 /home/user/Devel/stm32/libopencm3/lib/libopencm3_stm32f4.a(vector.o)
 .debug_aranges
                0x0000000000000e10       0x78 /home/user/Devel/stm32/libopencm3/lib/libopencm3_stm32f4.a(systick.o)
 .debug_aranges
                0x0000000000000e88       0x60 /home/user/Devel/stm32/libopencm3/lib/libopencm3_stm32f4.a(nvic.o)
 .debug_aranges
                0x0000000000000ee8       0x20 /home/user/Devel/stm32/libopencm3/lib/libopencm3_stm32f4.a(pwr.o)
 .debug_aranges
                0x0000000000000f08       0x68 /home/user/Devel/stm32/libopencm3/lib/libopencm3_stm32f4.a(usb_fx07_common.o)

.debug_ranges   0x0000000000000000      0xff0
 .debug_ranges  0x0000000000000000       0x10 ././mew.o
 .debug_ranges  0x0000000000000010       0x58 ././drivers/i2c/i2c.o
 .debug_ranges  0x0000000000000068       0x78 ././drivers/duart/duart.o
 .debug_ranges  0x00000000000000e0       0x70 ././drivers/display/ts_tsc2007.o
 .debug_ranges  0x0000000000000150      0x188 ././drivers/display/display.o
 .debug_ranges  0x00000000000002d8       0x68 ././drivers/usb/mew_usb_hid.o
 .debug_ranges  0x0000000000000340       0x78 ././drivers/spi_flash/flash.o
 .debug_ranges  0x00000000000003b8       0x20 ././drivers/spi_flash/w25n01gvzeig.o
 .debug_ranges  0x00000000000003d8       0x10 ././drivers/flash/otp_storage.o
 .debug_ranges  0x00000000000003e8       0x20 ././drivers/hw_crypt/aes256.o
 .debug_ranges  0x0000000000000408       0x20 ././drivers/hw_crypt/sha2_256.o
 .debug_ranges  0x0000000000000428       0x28 ././drivers/system/systick.o
 .debug_ranges  0x0000000000000450       0x18 ././drivers/system/system.o
 .debug_ranges  0x0000000000000468       0x58 ././drivers/system/random.o
 .debug_ranges  0x00000000000004c0       0x10 ././drivers/system/clock.o
 .debug_ranges  0x00000000000004d0       0x60 ././debug.o
 .debug_ranges  0x0000000000000530       0xe0 /home/user/Devel/stm32/libopencm3/lib/libopencm3_stm32f4.a(rcc.o)
 .debug_ranges  0x0000000000000610      0x158 /home/user/Devel/stm32/libopencm3/lib/libopencm3_stm32f4.a(dma_common_f24.o)
 .debug_ranges  0x0000000000000768       0x40 /home/user/Devel/stm32/libopencm3/lib/libopencm3_stm32f4.a(gpio_common_all.o)
 .debug_ranges  0x00000000000007a8       0x20 /home/user/Devel/stm32/libopencm3/lib/libopencm3_stm32f4.a(gpio_common_f0234.o)
 .debug_ranges  0x00000000000007c8      0x120 /home/user/Devel/stm32/libopencm3/lib/libopencm3_stm32f4.a(i2c_common_v1.o)
 .debug_ranges  0x00000000000008e8      0x168 /home/user/Devel/stm32/libopencm3/lib/libopencm3_stm32f4.a(spi_common_all.o)
 .debug_ranges  0x0000000000000a50       0x20 /home/user/Devel/stm32/libopencm3/lib/libopencm3_stm32f4.a(spi_common_l1f124.o)
 .debug_ranges  0x0000000000000a70       0xa8 /home/user/Devel/stm32/libopencm3/lib/libopencm3_stm32f4.a(usart_common_all.o)
 .debug_ranges  0x0000000000000b18       0x30 /home/user/Devel/stm32/libopencm3/lib/libopencm3_stm32f4.a(usart_common_f124.o)
 .debug_ranges  0x0000000000000b48       0x40 /home/user/Devel/stm32/libopencm3/lib/libopencm3_stm32f4.a(flash_common_f234.o)
 .debug_ranges  0x0000000000000b88       0xc0 /home/user/Devel/stm32/libopencm3/lib/libopencm3_stm32f4.a(flash_common_f24.o)
 .debug_ranges  0x0000000000000c48       0x50 /home/user/Devel/stm32/libopencm3/lib/libopencm3_stm32f4.a(exti_common_all.o)
 .debug_ranges  0x0000000000000c98       0x48 /home/user/Devel/stm32/libopencm3/lib/libopencm3_stm32f4.a(rcc_common_all.o)
 .debug_ranges  0x0000000000000ce0       0x78 /home/user/Devel/stm32/libopencm3/lib/libopencm3_stm32f4.a(usb.o)
 .debug_ranges  0x0000000000000d58       0xe0 /home/user/Devel/stm32/libopencm3/lib/libopencm3_stm32f4.a(usb_standard.o)
 .debug_ranges  0x0000000000000e38       0x68 /home/user/Devel/stm32/libopencm3/lib/libopencm3_stm32f4.a(usb_control.o)
 .debug_ranges  0x0000000000000ea0       0x10 /home/user/Devel/stm32/libopencm3/lib/libopencm3_stm32f4.a(usb_f107.o)
 .debug_ranges  0x0000000000000eb0       0x20 /home/user/Devel/stm32/libopencm3/lib/libopencm3_stm32f4.a(vector.o)
 .debug_ranges  0x0000000000000ed0       0x68 /home/user/Devel/stm32/libopencm3/lib/libopencm3_stm32f4.a(systick.o)
 .debug_ranges  0x0000000000000f38       0x50 /home/user/Devel/stm32/libopencm3/lib/libopencm3_stm32f4.a(nvic.o)
 .debug_ranges  0x0000000000000f88       0x10 /home/user/Devel/stm32/libopencm3/lib/libopencm3_stm32f4.a(pwr.o)
 .debug_ranges  0x0000000000000f98       0x58 /home/user/Devel/stm32/libopencm3/lib/libopencm3_stm32f4.a(usb_fx07_common.o)

.debug_line     0x0000000000000000     0xa4d1
 .debug_line    0x0000000000000000      0x30a ././mew.o
 .debug_line    0x000000000000030a      0x86b ././drivers/i2c/i2c.o
 .debug_line    0x0000000000000b75      0x380 ././drivers/duart/duart.o
 .debug_line    0x0000000000000ef5      0x4a5 ././drivers/display/ts_tsc2007.o
 .debug_line    0x000000000000139a      0x83b ././drivers/display/display.o
 .debug_line    0x0000000000001bd5      0x7cd ././drivers/usb/mew_usb_hid.o
 .debug_line    0x00000000000023a2      0x672 ././drivers/spi_flash/flash.o
 .debug_line    0x0000000000002a14      0x26d ././drivers/spi_flash/w25n01gvzeig.o
 .debug_line    0x0000000000002c81      0x18c ././drivers/flash/otp_storage.o
 .debug_line    0x0000000000002e0d      0x516 ././drivers/hw_crypt/aes256.o
 .debug_line    0x0000000000003323      0x352 ././drivers/hw_crypt/sha2_256.o
 .debug_line    0x0000000000003675      0x310 ././drivers/system/systick.o
 .debug_line    0x0000000000003985      0x298 ././drivers/system/system.o
 .debug_line    0x0000000000003c1d      0x381 ././drivers/system/random.o
 .debug_line    0x0000000000003f9e      0x2b7 ././drivers/system/clock.o
 .debug_line    0x0000000000004255      0x2da ././debug.o
 .debug_line    0x000000000000452f       0xf9 ././ui/mew_logo.o
 .debug_line    0x0000000000004628       0x2f ././ui/sync_logo.o
 .debug_line    0x0000000000004657      0x5ab /home/user/Devel/stm32/libopencm3/lib/libopencm3_stm32f4.a(rcc.o)
 .debug_line    0x0000000000004c02      0x601 /home/user/Devel/stm32/libopencm3/lib/libopencm3_stm32f4.a(dma_common_f24.o)
 .debug_line    0x0000000000005203      0x395 /home/user/Devel/stm32/libopencm3/lib/libopencm3_stm32f4.a(gpio_common_all.o)
 .debug_line    0x0000000000005598      0x387 /home/user/Devel/stm32/libopencm3/lib/libopencm3_stm32f4.a(gpio_common_f0234.o)
 .debug_line    0x000000000000591f      0x573 /home/user/Devel/stm32/libopencm3/lib/libopencm3_stm32f4.a(i2c_common_v1.o)
 .debug_line    0x0000000000005e92      0x661 /home/user/Devel/stm32/libopencm3/lib/libopencm3_stm32f4.a(spi_common_all.o)
 .debug_line    0x00000000000064f3      0x37d /home/user/Devel/stm32/libopencm3/lib/libopencm3_stm32f4.a(spi_common_l1f124.o)
 .debug_line    0x0000000000006870      0x4af /home/user/Devel/stm32/libopencm3/lib/libopencm3_stm32f4.a(usart_common_all.o)
 .debug_line    0x0000000000006d1f      0x3a1 /home/user/Devel/stm32/libopencm3/lib/libopencm3_stm32f4.a(usart_common_f124.o)
 .debug_line    0x00000000000070c0      0x388 /home/user/Devel/stm32/libopencm3/lib/libopencm3_stm32f4.a(flash_common_f234.o)
 .debug_line    0x0000000000007448      0x4d9 /home/user/Devel/stm32/libopencm3/lib/libopencm3_stm32f4.a(flash_common_f24.o)
 .debug_line    0x0000000000007921      0x41a /home/user/Devel/stm32/libopencm3/lib/libopencm3_stm32f4.a(exti_common_all.o)
 .debug_line    0x0000000000007d3b      0x36f /home/user/Devel/stm32/libopencm3/lib/libopencm3_stm32f4.a(rcc_common_all.o)
 .debug_line    0x00000000000080aa      0x409 /home/user/Devel/stm32/libopencm3/lib/libopencm3_stm32f4.a(usb.o)
 .debug_line    0x00000000000084b3      0x57d /home/user/Devel/stm32/libopencm3/lib/libopencm3_stm32f4.a(usb_standard.o)
 .debug_line    0x0000000000008a30      0x43d /home/user/Devel/stm32/libopencm3/lib/libopencm3_stm32f4.a(usb_control.o)
 .debug_line    0x0000000000008e6d      0x42f /home/user/Devel/stm32/libopencm3/lib/libopencm3_stm32f4.a(usb_f107.o)
 .debug_line    0x000000000000929c      0x399 /home/user/Devel/stm32/libopencm3/lib/libopencm3_stm32f4.a(vector.o)
 .debug_line    0x0000000000009635      0x319 /home/user/Devel/stm32/libopencm3/lib/libopencm3_stm32f4.a(systick.o)
 .debug_line    0x000000000000994e      0x33a /home/user/Devel/stm32/libopencm3/lib/libopencm3_stm32f4.a(nvic.o)
 .debug_line    0x0000000000009c88      0x2e3 /home/user/Devel/stm32/libopencm3/lib/libopencm3_stm32f4.a(pwr.o)
 .debug_line    0x0000000000009f6b      0x566 /home/user/Devel/stm32/libopencm3/lib/libopencm3_stm32f4.a(usb_fx07_common.o)

.debug_str      0x0000000000000000    0x1d68e
 .debug_str     0x0000000000000000      0x541 ././mew.o
                                        0x676 (size before relaxing)
 .debug_str     0x0000000000000541      0x203 ././drivers/i2c/i2c.o
                                        0x817 (size before relaxing)
 .debug_str     0x0000000000000744      0x134 ././drivers/duart/duart.o
                                        0x6ed (size before relaxing)
 .debug_str     0x0000000000000878      0x131 ././drivers/display/ts_tsc2007.o
                                        0x768 (size before relaxing)
 .debug_str     0x00000000000009a9      0x59f ././drivers/display/display.o
                                        0xc07 (size before relaxing)
 .debug_str     0x0000000000000f48      0x7f6 ././drivers/usb/mew_usb_hid.o
                                        0xf54 (size before relaxing)
 .debug_str     0x000000000000173e      0x278 ././drivers/spi_flash/flash.o
                                        0xb79 (size before relaxing)
 .debug_str     0x00000000000019b6       0x9e ././drivers/spi_flash/w25n01gvzeig.o
                                        0x6c4 (size before relaxing)
 .debug_str     0x0000000000001a54       0x31 ././drivers/flash/otp_storage.o
                                        0x5ce (size before relaxing)
 .debug_str     0x0000000000001a85       0xf3 ././drivers/hw_crypt/aes256.o
                                        0x880 (size before relaxing)
 .debug_str     0x0000000000001b78       0x5e ././drivers/hw_crypt/sha2_256.o
                                        0x660 (size before relaxing)
 .debug_str     0x0000000000001bd6       0xc2 ././drivers/system/systick.o
                                        0x815 (size before relaxing)
 .debug_str     0x0000000000001c98       0x56 ././drivers/system/system.o
                                        0x757 (size before relaxing)
 .debug_str     0x0000000000001cee       0x5d ././drivers/system/random.o
                                        0x7b7 (size before relaxing)
 .debug_str     0x0000000000001d4b      0x644 ././drivers/system/clock.o
                                        0xd8a (size before relaxing)
 .debug_str     0x000000000000238f       0x64 ././debug.o
                                        0x6b7 (size before relaxing)
 .debug_str     0x00000000000023f3        0xe ././ui/mew_logo.o
                                        0x1bb (size before relaxing)
 .debug_str     0x0000000000002401        0xf ././ui/sync_logo.o
                                        0x150 (size before relaxing)
 .debug_str     0x0000000000002410     0x85b8 /home/user/Devel/stm32/libopencm3/lib/libopencm3_stm32f4.a(rcc.o)
                                       0x88fe (size before relaxing)
 .debug_str     0x000000000000a9c8     0x2522 /home/user/Devel/stm32/libopencm3/lib/libopencm3_stm32f4.a(dma_common_f24.o)
                                       0x709d (size before relaxing)
 .debug_str     0x000000000000ceea     0x140b /home/user/Devel/stm32/libopencm3/lib/libopencm3_stm32f4.a(gpio_common_all.o)
                                       0x5d05 (size before relaxing)
 .debug_str     0x000000000000e2f5       0x61 /home/user/Devel/stm32/libopencm3/lib/libopencm3_stm32f4.a(gpio_common_f0234.o)
                                       0x5d27 (size before relaxing)
 .debug_str     0x000000000000e356     0x12fe /home/user/Devel/stm32/libopencm3/lib/libopencm3_stm32f4.a(i2c_common_v1.o)
                                       0x8e40 (size before relaxing)
 .debug_str     0x000000000000f654     0x107f /home/user/Devel/stm32/libopencm3/lib/libopencm3_stm32f4.a(spi_common_all.o)
                                       0x8efa (size before relaxing)
 .debug_str     0x00000000000106d3       0x41 /home/user/Devel/stm32/libopencm3/lib/libopencm3_stm32f4.a(spi_common_l1f124.o)
                                       0x8862 (size before relaxing)
 .debug_str     0x0000000000010714     0x1301 /home/user/Devel/stm32/libopencm3/lib/libopencm3_stm32f4.a(usart_common_all.o)
                                       0x8d98 (size before relaxing)
 .debug_str     0x0000000000011a15       0x2d /home/user/Devel/stm32/libopencm3/lib/libopencm3_stm32f4.a(usart_common_f124.o)
                                       0x8bac (size before relaxing)
 .debug_str     0x0000000000011a42       0x7e /home/user/Devel/stm32/libopencm3/lib/libopencm3_stm32f4.a(flash_common_f234.o)
                                       0x5060 (size before relaxing)
 .debug_str     0x0000000000011ac0      0x1fd /home/user/Devel/stm32/libopencm3/lib/libopencm3_stm32f4.a(flash_common_f24.o)
                                       0x5290 (size before relaxing)
 .debug_str     0x0000000000011cbd      0x52a /home/user/Devel/stm32/libopencm3/lib/libopencm3_stm32f4.a(exti_common_all.o)
                                       0x6244 (size before relaxing)
 .debug_str     0x00000000000121e7      0x102 /home/user/Devel/stm32/libopencm3/lib/libopencm3_stm32f4.a(rcc_common_all.o)
                                       0x8361 (size before relaxing)
 .debug_str     0x00000000000122e9     0x3208 /home/user/Devel/stm32/libopencm3/lib/libopencm3_stm32f4.a(usb.o)
                                       0x716a (size before relaxing)
 .debug_str     0x00000000000154f1      0x2ef /home/user/Devel/stm32/libopencm3/lib/libopencm3_stm32f4.a(usb_standard.o)
                                       0x7301 (size before relaxing)
 .debug_str     0x00000000000157e0      0x1d0 /home/user/Devel/stm32/libopencm3/lib/libopencm3_stm32f4.a(usb_control.o)
                                       0x722a (size before relaxing)
 .debug_str     0x00000000000159b0     0x3381 /home/user/Devel/stm32/libopencm3/lib/libopencm3_stm32f4.a(usb_f107.o)
                                       0xebd7 (size before relaxing)
 .debug_str     0x0000000000018d31     0x2a45 /home/user/Devel/stm32/libopencm3/lib/libopencm3_stm32f4.a(vector.o)
                                       0x6371 (size before relaxing)
 .debug_str     0x000000000001b776      0x2eb /home/user/Devel/stm32/libopencm3/lib/libopencm3_stm32f4.a(systick.o)
                                       0x3c87 (size before relaxing)
 .debug_str     0x000000000001ba61      0x9cf /home/user/Devel/stm32/libopencm3/lib/libopencm3_stm32f4.a(nvic.o)
                                       0x4d1a (size before relaxing)
 .debug_str     0x000000000001c430        0x6 /home/user/Devel/stm32/libopencm3/lib/libopencm3_stm32f4.a(pwr.o)
                                       0x4c36 (size before relaxing)
 .debug_str     0x000000000001c436     0x1258 /home/user/Devel/stm32/libopencm3/lib/libopencm3_stm32f4.a(usb_fx07_common.o)
                                       0xc71a (size before relaxing)

.comment        0x0000000000000000       0xe3
 .comment       0x0000000000000000       0x75 ././mew.o
                                         0x76 (size before relaxing)
 .comment       0x0000000000000075       0x76 ././drivers/i2c/i2c.o
 .comment       0x0000000000000075       0x76 ././drivers/duart/duart.o
 .comment       0x0000000000000075       0x76 ././drivers/display/ts_tsc2007.o
 .comment       0x0000000000000075       0x76 ././drivers/display/display.o
 .comment       0x0000000000000075       0x76 ././drivers/usb/mew_usb_hid.o
 .comment       0x0000000000000075       0x76 ././drivers/spi_flash/flash.o
 .comment       0x0000000000000075       0x76 ././drivers/spi_flash/w25n01gvzeig.o
 .comment       0x0000000000000075       0x76 ././drivers/flash/otp_storage.o
 .comment       0x0000000000000075       0x76 ././drivers/hw_crypt/aes256.o
 .comment       0x0000000000000075       0x76 ././drivers/hw_crypt/sha2_256.o
 .comment       0x0000000000000075       0x76 ././drivers/system/systick.o
 .comment       0x0000000000000075       0x76 ././drivers/system/system.o
 .comment       0x0000000000000075       0x76 ././drivers/system/random.o
 .comment       0x0000000000000075       0x76 ././drivers/system/clock.o
 .comment       0x0000000000000075       0x76 ././debug.o
 .comment       0x0000000000000075       0x76 ././ui/mew_logo.o
 .comment       0x0000000000000075       0x76 ././ui/sync_logo.o
 .comment       0x0000000000000075       0x6e /home/user/Devel/stm32/libopencm3/lib/libopencm3_stm32f4.a(rcc.o)
                                         0x6f (size before relaxing)
 .comment       0x00000000000000e3       0x6f /home/user/Devel/stm32/libopencm3/lib/libopencm3_stm32f4.a(dma_common_f24.o)
 .comment       0x00000000000000e3       0x6f /home/user/Devel/stm32/libopencm3/lib/libopencm3_stm32f4.a(gpio_common_all.o)
 .comment       0x00000000000000e3       0x6f /home/user/Devel/stm32/libopencm3/lib/libopencm3_stm32f4.a(gpio_common_f0234.o)
 .comment       0x00000000000000e3       0x6f /home/user/Devel/stm32/libopencm3/lib/libopencm3_stm32f4.a(i2c_common_v1.o)
 .comment       0x00000000000000e3       0x6f /home/user/Devel/stm32/libopencm3/lib/libopencm3_stm32f4.a(spi_common_all.o)
 .comment       0x00000000000000e3       0x6f /home/user/Devel/stm32/libopencm3/lib/libopencm3_stm32f4.a(spi_common_l1f124.o)
 .comment       0x00000000000000e3       0x6f /home/user/Devel/stm32/libopencm3/lib/libopencm3_stm32f4.a(usart_common_all.o)
 .comment       0x00000000000000e3       0x6f /home/user/Devel/stm32/libopencm3/lib/libopencm3_stm32f4.a(usart_common_f124.o)
 .comment       0x00000000000000e3       0x6f /home/user/Devel/stm32/libopencm3/lib/libopencm3_stm32f4.a(flash_common_f234.o)
 .comment       0x00000000000000e3       0x6f /home/user/Devel/stm32/libopencm3/lib/libopencm3_stm32f4.a(flash_common_f24.o)
 .comment       0x00000000000000e3       0x6f /home/user/Devel/stm32/libopencm3/lib/libopencm3_stm32f4.a(exti_common_all.o)
 .comment       0x00000000000000e3       0x6f /home/user/Devel/stm32/libopencm3/lib/libopencm3_stm32f4.a(rcc_common_all.o)
 .comment       0x00000000000000e3       0x6f /home/user/Devel/stm32/libopencm3/lib/libopencm3_stm32f4.a(usb.o)
 .comment       0x00000000000000e3       0x6f /home/user/Devel/stm32/libopencm3/lib/libopencm3_stm32f4.a(usb_standard.o)
 .comment       0x00000000000000e3       0x6f /home/user/Devel/stm32/libopencm3/lib/libopencm3_stm32f4.a(usb_control.o)
 .comment       0x00000000000000e3       0x6f /home/user/Devel/stm32/libopencm3/lib/libopencm3_stm32f4.a(usb_f107.o)
 .comment       0x00000000000000e3       0x6f /home/user/Devel/stm32/libopencm3/lib/libopencm3_stm32f4.a(vector.o)
 .comment       0x00000000000000e3       0x6f /home/user/Devel/stm32/libopencm3/lib/libopencm3_stm32f4.a(systick.o)
 .comment       0x00000000000000e3       0x6f /home/user/Devel/stm32/libopencm3/lib/libopencm3_stm32f4.a(nvic.o)
 .comment       0x00000000000000e3       0x6f /home/user/Devel/stm32/libopencm3/lib/libopencm3_stm32f4.a(pwr.o)
 .comment       0x00000000000000e3       0x6f /home/user/Devel/stm32/libopencm3/lib/libopencm3_stm32f4.a(usb_fx07_common.o)

.ARM.attributes
                0x0000000000000000       0x32
 .ARM.attributes
                0x0000000000000000       0x34 ././mew.o
 .ARM.attributes
                0x0000000000000034       0x34 ././drivers/i2c/i2c.o
 .ARM.attributes
                0x0000000000000068       0x34 ././drivers/duart/duart.o
 .ARM.attributes
                0x000000000000009c       0x34 ././drivers/display/ts_tsc2007.o
 .ARM.attributes
                0x00000000000000d0       0x34 ././drivers/display/display.o
 .ARM.attributes
                0x0000000000000104       0x34 ././drivers/usb/mew_usb_hid.o
 .ARM.attributes
                0x0000000000000138       0x34 ././drivers/spi_flash/flash.o
 .ARM.attributes
                0x000000000000016c       0x34 ././drivers/spi_flash/w25n01gvzeig.o
 .ARM.attributes
                0x00000000000001a0       0x34 ././drivers/flash/otp_storage.o
 .ARM.attributes
                0x00000000000001d4       0x34 ././drivers/hw_crypt/aes256.o
 .ARM.attributes
                0x0000000000000208       0x34 ././drivers/hw_crypt/sha2_256.o
 .ARM.attributes
                0x000000000000023c       0x34 ././drivers/system/systick.o
 .ARM.attributes
                0x0000000000000270       0x34 ././drivers/system/system.o
 .ARM.attributes
                0x00000000000002a4       0x34 ././drivers/system/random.o
 .ARM.attributes
                0x00000000000002d8       0x34 ././drivers/system/clock.o
 .ARM.attributes
                0x000000000000030c       0x34 ././debug.o
 .ARM.attributes
                0x0000000000000340       0x39 ././ui/mew_logo.o
 .ARM.attributes
                0x0000000000000379       0x39 ././ui/sync_logo.o
 .ARM.attributes
                0x00000000000003b2       0x25 ././drivers/system/byteorder.o
 .ARM.attributes
                0x00000000000003d7       0x39 /home/user/Devel/stm32/libopencm3/lib/libopencm3_stm32f4.a(rcc.o)
 .ARM.attributes
                0x0000000000000410       0x39 /home/user/Devel/stm32/libopencm3/lib/libopencm3_stm32f4.a(dma_common_f24.o)
 .ARM.attributes
                0x0000000000000449       0x39 /home/user/Devel/stm32/libopencm3/lib/libopencm3_stm32f4.a(gpio_common_all.o)
 .ARM.attributes
                0x0000000000000482       0x39 /home/user/Devel/stm32/libopencm3/lib/libopencm3_stm32f4.a(gpio_common_f0234.o)
 .ARM.attributes
                0x00000000000004bb       0x39 /home/user/Devel/stm32/libopencm3/lib/libopencm3_stm32f4.a(i2c_common_v1.o)
 .ARM.attributes
                0x00000000000004f4       0x39 /home/user/Devel/stm32/libopencm3/lib/libopencm3_stm32f4.a(spi_common_all.o)
 .ARM.attributes
                0x000000000000052d       0x39 /home/user/Devel/stm32/libopencm3/lib/libopencm3_stm32f4.a(spi_common_l1f124.o)
 .ARM.attributes
                0x0000000000000566       0x39 /home/user/Devel/stm32/libopencm3/lib/libopencm3_stm32f4.a(usart_common_all.o)
 .ARM.attributes
                0x000000000000059f       0x39 /home/user/Devel/stm32/libopencm3/lib/libopencm3_stm32f4.a(usart_common_f124.o)
 .ARM.attributes
                0x00000000000005d8       0x39 /home/user/Devel/stm32/libopencm3/lib/libopencm3_stm32f4.a(flash_common_f234.o)
 .ARM.attributes
                0x0000000000000611       0x39 /home/user/Devel/stm32/libopencm3/lib/libopencm3_stm32f4.a(flash_common_f24.o)
 .ARM.attributes
                0x000000000000064a       0x39 /home/user/Devel/stm32/libopencm3/lib/libopencm3_stm32f4.a(exti_common_all.o)
 .ARM.attributes
                0x0000000000000683       0x39 /home/user/Devel/stm32/libopencm3/lib/libopencm3_stm32f4.a(rcc_common_all.o)
 .ARM.attributes
                0x00000000000006bc       0x39 /home/user/Devel/stm32/libopencm3/lib/libopencm3_stm32f4.a(usb.o)
 .ARM.attributes
                0x00000000000006f5       0x39 /home/user/Devel/stm32/libopencm3/lib/libopencm3_stm32f4.a(usb_standard.o)
 .ARM.attributes
                0x000000000000072e       0x39 /home/user/Devel/stm32/libopencm3/lib/libopencm3_stm32f4.a(usb_control.o)
 .ARM.attributes
                0x0000000000000767       0x39 /home/user/Devel/stm32/libopencm3/lib/libopencm3_stm32f4.a(usb_f107.o)
 .ARM.attributes
                0x00000000000007a0       0x39 /home/user/Devel/stm32/libopencm3/lib/libopencm3_stm32f4.a(vector.o)
 .ARM.attributes
                0x00000000000007d9       0x39 /home/user/Devel/stm32/libopencm3/lib/libopencm3_stm32f4.a(systick.o)
 .ARM.attributes
                0x0000000000000812       0x39 /home/user/Devel/stm32/libopencm3/lib/libopencm3_stm32f4.a(nvic.o)
 .ARM.attributes
                0x000000000000084b       0x39 /home/user/Devel/stm32/libopencm3/lib/libopencm3_stm32f4.a(pwr.o)
 .ARM.attributes
                0x0000000000000884       0x39 /home/user/Devel/stm32/libopencm3/lib/libopencm3_stm32f4.a(usb_fx07_common.o)
 .ARM.attributes
                0x00000000000008bd       0x34 /home/user/Devel/stm32/gcc-arm-none-eabi-8-2018-q4-major/bin/../lib/gcc/arm-none-eabi/8.2.1/../../../../arm-none-eabi/lib/thumb/v7e-m+fp/hard/libc_nano.a(lib_a-memcmp.o)
 .ARM.attributes
                0x00000000000008f1       0x34 /home/user/Devel/stm32/gcc-arm-none-eabi-8-2018-q4-major/bin/../lib/gcc/arm-none-eabi/8.2.1/../../../../arm-none-eabi/lib/thumb/v7e-m+fp/hard/libc_nano.a(lib_a-memcpy-stub.o)
 .ARM.attributes
                0x0000000000000925       0x34 /home/user/Devel/stm32/gcc-arm-none-eabi-8-2018-q4-major/bin/../lib/gcc/arm-none-eabi/8.2.1/../../../../arm-none-eabi/lib/thumb/v7e-m+fp/hard/libc_nano.a(lib_a-memset.o)
 .ARM.attributes
                0x0000000000000959       0x34 /home/user/Devel/stm32/gcc-arm-none-eabi-8-2018-q4-major/bin/../lib/gcc/arm-none-eabi/8.2.1/../../../../arm-none-eabi/lib/thumb/v7e-m+fp/hard/libc_nano.a(lib_a-sprintf.o)
 .ARM.attributes
                0x000000000000098d       0x17 /home/user/Devel/stm32/gcc-arm-none-eabi-8-2018-q4-major/bin/../lib/gcc/arm-none-eabi/8.2.1/../../../../arm-none-eabi/lib/thumb/v7e-m+fp/hard/libc_nano.a(lib_a-strlen.o)
 .ARM.attributes
                0x00000000000009a4       0x32 /home/user/Devel/stm32/gcc-arm-none-eabi-8-2018-q4-major/bin/../lib/gcc/arm-none-eabi/8.2.1/../../../../arm-none-eabi/lib/thumb/v7e-m+fp/hard/libc_nano.a(lib_a-impure.o)
 .ARM.attributes
                0x00000000000009d6       0x34 /home/user/Devel/stm32/gcc-arm-none-eabi-8-2018-q4-major/bin/../lib/gcc/arm-none-eabi/8.2.1/../../../../arm-none-eabi/lib/thumb/v7e-m+fp/hard/libc_nano.a(lib_a-nano-svfprintf.o)
 .ARM.attributes
                0x0000000000000a0a       0x34 /home/user/Devel/stm32/gcc-arm-none-eabi-8-2018-q4-major/bin/../lib/gcc/arm-none-eabi/8.2.1/../../../../arm-none-eabi/lib/thumb/v7e-m+fp/hard/libc_nano.a(lib_a-nano-vfprintf_i.o)
 .ARM.attributes
                0x0000000000000a3e       0x1c /home/user/Devel/stm32/gcc-arm-none-eabi-8-2018-q4-major/bin/../lib/gcc/arm-none-eabi/8.2.1/../../../../arm-none-eabi/lib/thumb/v7e-m+fp/hard/libc_nano.a(lib_a-memchr.o)
 .ARM.attributes
                0x0000000000000a5a       0x34 /home/user/Devel/stm32/gcc-arm-none-eabi-8-2018-q4-major/bin/../lib/gcc/arm-none-eabi/8.2.1/../../../../arm-none-eabi/lib/thumb/v7e-m+fp/hard/libc_nano.a(lib_a-memmove.o)
 .ARM.attributes
                0x0000000000000a8e       0x34 /home/user/Devel/stm32/gcc-arm-none-eabi-8-2018-q4-major/bin/../lib/gcc/arm-none-eabi/8.2.1/../../../../arm-none-eabi/lib/thumb/v7e-m+fp/hard/libc_nano.a(lib_a-nano-freer.o)
 .ARM.attributes
                0x0000000000000ac2       0x34 /home/user/Devel/stm32/gcc-arm-none-eabi-8-2018-q4-major/bin/../lib/gcc/arm-none-eabi/8.2.1/../../../../arm-none-eabi/lib/thumb/v7e-m+fp/hard/libc_nano.a(lib_a-nano-mallocr.o)
 .ARM.attributes
                0x0000000000000af6       0x34 /home/user/Devel/stm32/gcc-arm-none-eabi-8-2018-q4-major/bin/../lib/gcc/arm-none-eabi/8.2.1/../../../../arm-none-eabi/lib/thumb/v7e-m+fp/hard/libc_nano.a(lib_a-nano-reallocr.o)
 .ARM.attributes
                0x0000000000000b2a       0x34 /home/user/Devel/stm32/gcc-arm-none-eabi-8-2018-q4-major/bin/../lib/gcc/arm-none-eabi/8.2.1/../../../../arm-none-eabi/lib/thumb/v7e-m+fp/hard/libc_nano.a(lib_a-sbrkr.o)
 .ARM.attributes
                0x0000000000000b5e       0x34 /home/user/Devel/stm32/gcc-arm-none-eabi-8-2018-q4-major/bin/../lib/gcc/arm-none-eabi/8.2.1/../../../../arm-none-eabi/lib/thumb/v7e-m+fp/hard/libc_nano.a(lib_a-mlock.o)
 .ARM.attributes
                0x0000000000000b92       0x34 /home/user/Devel/stm32/gcc-arm-none-eabi-8-2018-q4-major/bin/../lib/gcc/arm-none-eabi/8.2.1/../../../../arm-none-eabi/lib/thumb/v7e-m+fp/hard/libc_nano.a(lib_a-nano-msizer.o)
 .ARM.attributes
                0x0000000000000bc6       0x34 /home/user/Devel/stm32/gcc-arm-none-eabi-8-2018-q4-major/bin/../lib/gcc/arm-none-eabi/8.2.1/../../../../arm-none-eabi/lib/thumb/v7e-m+fp/hard/libc_nano.a(lib_a-reent.o)
 .ARM.attributes
                0x0000000000000bfa       0x34 /home/user/Devel/stm32/gcc-arm-none-eabi-8-2018-q4-major/bin/../lib/gcc/arm-none-eabi/8.2.1/../../../../arm-none-eabi/lib/thumb/v7e-m+fp/hard/libc_nano.a(lib_a-lock.o)
 .ARM.attributes
                0x0000000000000c2e       0x34 /home/user/Devel/stm32/gcc-arm-none-eabi-8-2018-q4-major/bin/../lib/gcc/arm-none-eabi/8.2.1/../../../../arm-none-eabi/lib/thumb/v7e-m+fp/hard/libnosys.a(sbrk.o)

.debug_frame    0x0000000000000000     0x2574
 .debug_frame   0x0000000000000000       0x30 ././mew.o
 .debug_frame   0x0000000000000030       0xf4 ././drivers/i2c/i2c.o
 .debug_frame   0x0000000000000124       0xd4 ././drivers/duart/duart.o
 .debug_frame   0x00000000000001f8       0x80 ././drivers/display/ts_tsc2007.o
 .debug_frame   0x0000000000000278      0x154 ././drivers/display/display.o
 .debug_frame   0x00000000000003cc      0x12c ././drivers/usb/mew_usb_hid.o
 .debug_frame   0x00000000000004f8       0xe0 ././drivers/spi_flash/flash.o
 .debug_frame   0x00000000000005d8       0x5c ././drivers/spi_flash/w25n01gvzeig.o
 .debug_frame   0x0000000000000634       0x20 ././drivers/flash/otp_storage.o
 .debug_frame   0x0000000000000654       0x68 ././drivers/hw_crypt/aes256.o
 .debug_frame   0x00000000000006bc       0x6c ././drivers/hw_crypt/sha2_256.o
 .debug_frame   0x0000000000000728       0x58 ././drivers/system/systick.o
 .debug_frame   0x0000000000000780       0x3c ././drivers/system/system.o
 .debug_frame   0x00000000000007bc       0x5c ././drivers/system/random.o
 .debug_frame   0x0000000000000818       0x28 ././drivers/system/clock.o
 .debug_frame   0x0000000000000840       0xb0 ././debug.o
 .debug_frame   0x00000000000008f0      0x1fc /home/user/Devel/stm32/libopencm3/lib/libopencm3_stm32f4.a(rcc.o)
 .debug_frame   0x0000000000000aec      0x314 /home/user/Devel/stm32/libopencm3/lib/libopencm3_stm32f4.a(dma_common_f24.o)
 .debug_frame   0x0000000000000e00       0x80 /home/user/Devel/stm32/libopencm3/lib/libopencm3_stm32f4.a(gpio_common_all.o)
 .debug_frame   0x0000000000000e80       0x70 /home/user/Devel/stm32/libopencm3/lib/libopencm3_stm32f4.a(gpio_common_f0234.o)
 .debug_frame   0x0000000000000ef0      0x21c /home/user/Devel/stm32/libopencm3/lib/libopencm3_stm32f4.a(i2c_common_v1.o)
 .debug_frame   0x000000000000110c      0x2d0 /home/user/Devel/stm32/libopencm3/lib/libopencm3_stm32f4.a(spi_common_all.o)
 .debug_frame   0x00000000000013dc       0x4c /home/user/Devel/stm32/libopencm3/lib/libopencm3_stm32f4.a(spi_common_l1f124.o)
 .debug_frame   0x0000000000001428      0x178 /home/user/Devel/stm32/libopencm3/lib/libopencm3_stm32f4.a(usart_common_all.o)
 .debug_frame   0x00000000000015a0       0x60 /home/user/Devel/stm32/libopencm3/lib/libopencm3_stm32f4.a(usart_common_f124.o)
 .debug_frame   0x0000000000001600       0x80 /home/user/Devel/stm32/libopencm3/lib/libopencm3_stm32f4.a(flash_common_f234.o)
 .debug_frame   0x0000000000001680      0x1ec /home/user/Devel/stm32/libopencm3/lib/libopencm3_stm32f4.a(flash_common_f24.o)
 .debug_frame   0x000000000000186c       0x88 /home/user/Devel/stm32/libopencm3/lib/libopencm3_stm32f4.a(exti_common_all.o)
 .debug_frame   0x00000000000018f4       0xb0 /home/user/Devel/stm32/libopencm3/lib/libopencm3_stm32f4.a(rcc_common_all.o)
 .debug_frame   0x00000000000019a4      0x13c /home/user/Devel/stm32/libopencm3/lib/libopencm3_stm32f4.a(usb.o)
 .debug_frame   0x0000000000001ae0      0x1ec /home/user/Devel/stm32/libopencm3/lib/libopencm3_stm32f4.a(usb_standard.o)
 .debug_frame   0x0000000000001ccc      0x154 /home/user/Devel/stm32/libopencm3/lib/libopencm3_stm32f4.a(usb_control.o)
 .debug_frame   0x0000000000001e20       0x28 /home/user/Devel/stm32/libopencm3/lib/libopencm3_stm32f4.a(usb_f107.o)
 .debug_frame   0x0000000000001e48       0x40 /home/user/Devel/stm32/libopencm3/lib/libopencm3_stm32f4.a(vector.o)
 .debug_frame   0x0000000000001e88       0xd8 /home/user/Devel/stm32/libopencm3/lib/libopencm3_stm32f4.a(systick.o)
 .debug_frame   0x0000000000001f60       0xa0 /home/user/Devel/stm32/libopencm3/lib/libopencm3_stm32f4.a(nvic.o)
 .debug_frame   0x0000000000002000       0x20 /home/user/Devel/stm32/libopencm3/lib/libopencm3_stm32f4.a(pwr.o)
 .debug_frame   0x0000000000002020      0x110 /home/user/Devel/stm32/libopencm3/lib/libopencm3_stm32f4.a(usb_fx07_common.o)
 .debug_frame   0x0000000000002130       0x2c /home/user/Devel/stm32/gcc-arm-none-eabi-8-2018-q4-major/bin/../lib/gcc/arm-none-eabi/8.2.1/../../../../arm-none-eabi/lib/thumb/v7e-m+fp/hard/libc_nano.a(lib_a-memcmp.o)
 .debug_frame   0x000000000000215c       0x28 /home/user/Devel/stm32/gcc-arm-none-eabi-8-2018-q4-major/bin/../lib/gcc/arm-none-eabi/8.2.1/../../../../arm-none-eabi/lib/thumb/v7e-m+fp/hard/libc_nano.a(lib_a-memcpy-stub.o)
 .debug_frame   0x0000000000002184       0x20 /home/user/Devel/stm32/gcc-arm-none-eabi-8-2018-q4-major/bin/../lib/gcc/arm-none-eabi/8.2.1/../../../../arm-none-eabi/lib/thumb/v7e-m+fp/hard/libc_nano.a(lib_a-memset.o)
 .debug_frame   0x00000000000021a4       0x6c /home/user/Devel/stm32/gcc-arm-none-eabi-8-2018-q4-major/bin/../lib/gcc/arm-none-eabi/8.2.1/../../../../arm-none-eabi/lib/thumb/v7e-m+fp/hard/libc_nano.a(lib_a-sprintf.o)
 .debug_frame   0x0000000000002210       0x90 /home/user/Devel/stm32/gcc-arm-none-eabi-8-2018-q4-major/bin/../lib/gcc/arm-none-eabi/8.2.1/../../../../arm-none-eabi/lib/thumb/v7e-m+fp/hard/libc_nano.a(lib_a-nano-svfprintf.o)
 .debug_frame   0x00000000000022a0       0x60 /home/user/Devel/stm32/gcc-arm-none-eabi-8-2018-q4-major/bin/../lib/gcc/arm-none-eabi/8.2.1/../../../../arm-none-eabi/lib/thumb/v7e-m+fp/hard/libc_nano.a(lib_a-nano-vfprintf_i.o)
 .debug_frame   0x0000000000002300       0x28 /home/user/Devel/stm32/gcc-arm-none-eabi-8-2018-q4-major/bin/../lib/gcc/arm-none-eabi/8.2.1/../../../../arm-none-eabi/lib/thumb/v7e-m+fp/hard/libc_nano.a(lib_a-memmove.o)
 .debug_frame   0x0000000000002328       0x38 /home/user/Devel/stm32/gcc-arm-none-eabi-8-2018-q4-major/bin/../lib/gcc/arm-none-eabi/8.2.1/../../../../arm-none-eabi/lib/thumb/v7e-m+fp/hard/libc_nano.a(lib_a-nano-freer.o)
 .debug_frame   0x0000000000002360       0x30 /home/user/Devel/stm32/gcc-arm-none-eabi-8-2018-q4-major/bin/../lib/gcc/arm-none-eabi/8.2.1/../../../../arm-none-eabi/lib/thumb/v7e-m+fp/hard/libc_nano.a(lib_a-nano-mallocr.o)
 .debug_frame   0x0000000000002390       0x3c /home/user/Devel/stm32/gcc-arm-none-eabi-8-2018-q4-major/bin/../lib/gcc/arm-none-eabi/8.2.1/../../../../arm-none-eabi/lib/thumb/v7e-m+fp/hard/libc_nano.a(lib_a-nano-reallocr.o)
 .debug_frame   0x00000000000023cc       0x2c /home/user/Devel/stm32/gcc-arm-none-eabi-8-2018-q4-major/bin/../lib/gcc/arm-none-eabi/8.2.1/../../../../arm-none-eabi/lib/thumb/v7e-m+fp/hard/libc_nano.a(lib_a-sbrkr.o)
 .debug_frame   0x00000000000023f8       0x30 /home/user/Devel/stm32/gcc-arm-none-eabi-8-2018-q4-major/bin/../lib/gcc/arm-none-eabi/8.2.1/../../../../arm-none-eabi/lib/thumb/v7e-m+fp/hard/libc_nano.a(lib_a-mlock.o)
 .debug_frame   0x0000000000002428       0x20 /home/user/Devel/stm32/gcc-arm-none-eabi-8-2018-q4-major/bin/../lib/gcc/arm-none-eabi/8.2.1/../../../../arm-none-eabi/lib/thumb/v7e-m+fp/hard/libc_nano.a(lib_a-nano-msizer.o)
 .debug_frame   0x0000000000002448       0x5c /home/user/Devel/stm32/gcc-arm-none-eabi-8-2018-q4-major/bin/../lib/gcc/arm-none-eabi/8.2.1/../../../../arm-none-eabi/lib/thumb/v7e-m+fp/hard/libc_nano.a(lib_a-reent.o)
 .debug_frame   0x00000000000024a4       0xb0 /home/user/Devel/stm32/gcc-arm-none-eabi-8-2018-q4-major/bin/../lib/gcc/arm-none-eabi/8.2.1/../../../../arm-none-eabi/lib/thumb/v7e-m+fp/hard/libc_nano.a(lib_a-lock.o)
 .debug_frame   0x0000000000002554       0x20 /home/user/Devel/stm32/gcc-arm-none-eabi-8-2018-q4-major/bin/../lib/gcc/arm-none-eabi/8.2.1/../../../../arm-none-eabi/lib/thumb/v7e-m+fp/hard/libnosys.a(sbrk.o)

.debug_macro    0x0000000000000000     0x6f63
 .debug_macro   0x0000000000000000      0x106 /home/user/Devel/stm32/libopencm3/lib/libopencm3_stm32f4.a(rcc.o)
 .debug_macro   0x0000000000000106      0x88c /home/user/Devel/stm32/libopencm3/lib/libopencm3_stm32f4.a(rcc.o)
 .debug_macro   0x0000000000000992       0x22 /home/user/Devel/stm32/libopencm3/lib/libopencm3_stm32f4.a(rcc.o)
 .debug_macro   0x00000000000009b4       0x87 /home/user/Devel/stm32/libopencm3/lib/libopencm3_stm32f4.a(rcc.o)
 .debug_macro   0x0000000000000a3b       0x44 /home/user/Devel/stm32/libopencm3/lib/libopencm3_stm32f4.a(rcc.o)
 .debug_macro   0x0000000000000a7f       0xfd /home/user/Devel/stm32/libopencm3/lib/libopencm3_stm32f4.a(rcc.o)
 .debug_macro   0x0000000000000b7c       0x5e /home/user/Devel/stm32/libopencm3/lib/libopencm3_stm32f4.a(rcc.o)
 .debug_macro   0x0000000000000bda      0x1df /home/user/Devel/stm32/libopencm3/lib/libopencm3_stm32f4.a(rcc.o)
 .debug_macro   0x0000000000000db9       0x22 /home/user/Devel/stm32/libopencm3/lib/libopencm3_stm32f4.a(rcc.o)
 .debug_macro   0x0000000000000ddb       0xfa /home/user/Devel/stm32/libopencm3/lib/libopencm3_stm32f4.a(rcc.o)
 .debug_macro   0x0000000000000ed5       0x16 /home/user/Devel/stm32/libopencm3/lib/libopencm3_stm32f4.a(rcc.o)
 .debug_macro   0x0000000000000eeb       0x58 /home/user/Devel/stm32/libopencm3/lib/libopencm3_stm32f4.a(rcc.o)
 .debug_macro   0x0000000000000f43      0x26d /home/user/Devel/stm32/libopencm3/lib/libopencm3_stm32f4.a(rcc.o)
 .debug_macro   0x00000000000011b0      0xb3f /home/user/Devel/stm32/libopencm3/lib/libopencm3_stm32f4.a(rcc.o)
 .debug_macro   0x0000000000001cef       0x8e /home/user/Devel/stm32/libopencm3/lib/libopencm3_stm32f4.a(rcc.o)
 .debug_macro   0x0000000000001d7d       0x22 /home/user/Devel/stm32/libopencm3/lib/libopencm3_stm32f4.a(rcc.o)
 .debug_macro   0x0000000000001d9f       0x6a /home/user/Devel/stm32/libopencm3/lib/libopencm3_stm32f4.a(rcc.o)
 .debug_macro   0x0000000000001e09       0xf4 /home/user/Devel/stm32/libopencm3/lib/libopencm3_stm32f4.a(rcc.o)
 .debug_macro   0x0000000000001efd       0xb4 /home/user/Devel/stm32/libopencm3/lib/libopencm3_stm32f4.a(dma_common_f24.o)
 .debug_macro   0x0000000000001fb1      0x86d /home/user/Devel/stm32/libopencm3/lib/libopencm3_stm32f4.a(dma_common_f24.o)
 .debug_macro   0x000000000000281e       0xd2 /home/user/Devel/stm32/libopencm3/lib/libopencm3_stm32f4.a(gpio_common_all.o)
 .debug_macro   0x00000000000028f0       0x76 /home/user/Devel/stm32/libopencm3/lib/libopencm3_stm32f4.a(gpio_common_all.o)
 .debug_macro   0x0000000000002966      0x2e6 /home/user/Devel/stm32/libopencm3/lib/libopencm3_stm32f4.a(gpio_common_all.o)
 .debug_macro   0x0000000000002c4c      0x14e /home/user/Devel/stm32/libopencm3/lib/libopencm3_stm32f4.a(gpio_common_all.o)
 .debug_macro   0x0000000000002d9a       0xd2 /home/user/Devel/stm32/libopencm3/lib/libopencm3_stm32f4.a(gpio_common_f0234.o)
 .debug_macro   0x0000000000002e6c       0xe1 /home/user/Devel/stm32/libopencm3/lib/libopencm3_stm32f4.a(i2c_common_v1.o)
 .debug_macro   0x0000000000002f4d      0x174 /home/user/Devel/stm32/libopencm3/lib/libopencm3_stm32f4.a(i2c_common_v1.o)
 .debug_macro   0x00000000000030c1      0x327 /home/user/Devel/stm32/libopencm3/lib/libopencm3_stm32f4.a(i2c_common_v1.o)
 .debug_macro   0x00000000000033e8       0xea /home/user/Devel/stm32/libopencm3/lib/libopencm3_stm32f4.a(spi_common_all.o)
 .debug_macro   0x00000000000034d2      0x2eb /home/user/Devel/stm32/libopencm3/lib/libopencm3_stm32f4.a(spi_common_all.o)
 .debug_macro   0x00000000000037bd       0x16 /home/user/Devel/stm32/libopencm3/lib/libopencm3_stm32f4.a(spi_common_all.o)
 .debug_macro   0x00000000000037d3       0x1c /home/user/Devel/stm32/libopencm3/lib/libopencm3_stm32f4.a(spi_common_all.o)
 .debug_macro   0x00000000000037ef       0xea /home/user/Devel/stm32/libopencm3/lib/libopencm3_stm32f4.a(spi_common_l1f124.o)
 .debug_macro   0x00000000000038d9       0xea /home/user/Devel/stm32/libopencm3/lib/libopencm3_stm32f4.a(usart_common_all.o)
 .debug_macro   0x00000000000039c3       0x8e /home/user/Devel/stm32/libopencm3/lib/libopencm3_stm32f4.a(usart_common_all.o)
 .debug_macro   0x0000000000003a51      0x273 /home/user/Devel/stm32/libopencm3/lib/libopencm3_stm32f4.a(usart_common_all.o)
 .debug_macro   0x0000000000003cc4       0xa0 /home/user/Devel/stm32/libopencm3/lib/libopencm3_stm32f4.a(usart_common_all.o)
 .debug_macro   0x0000000000003d64       0xea /home/user/Devel/stm32/libopencm3/lib/libopencm3_stm32f4.a(usart_common_f124.o)
 .debug_macro   0x0000000000003e4e       0xc3 /home/user/Devel/stm32/libopencm3/lib/libopencm3_stm32f4.a(flash_common_f234.o)
 .debug_macro   0x0000000000003f11       0xc3 /home/user/Devel/stm32/libopencm3/lib/libopencm3_stm32f4.a(flash_common_f24.o)
 .debug_macro   0x0000000000003fd4      0x100 /home/user/Devel/stm32/libopencm3/lib/libopencm3_stm32f4.a(exti_common_all.o)
 .debug_macro   0x00000000000040d4      0x112 /home/user/Devel/stm32/libopencm3/lib/libopencm3_stm32f4.a(exti_common_all.o)
 .debug_macro   0x00000000000041e6       0x3a /home/user/Devel/stm32/libopencm3/lib/libopencm3_stm32f4.a(exti_common_all.o)
 .debug_macro   0x0000000000004220       0xcf /home/user/Devel/stm32/libopencm3/lib/libopencm3_stm32f4.a(rcc_common_all.o)
 .debug_macro   0x00000000000042ef      0x154 /home/user/Devel/stm32/libopencm3/lib/libopencm3_stm32f4.a(usb.o)
 .debug_macro   0x0000000000004443       0x4c /home/user/Devel/stm32/libopencm3/lib/libopencm3_stm32f4.a(usb.o)
 .debug_macro   0x000000000000448f       0x8d /home/user/Devel/stm32/libopencm3/lib/libopencm3_stm32f4.a(usb.o)
 .debug_macro   0x000000000000451c       0x35 /home/user/Devel/stm32/libopencm3/lib/libopencm3_stm32f4.a(usb.o)
 .debug_macro   0x0000000000004551       0x9c /home/user/Devel/stm32/libopencm3/lib/libopencm3_stm32f4.a(usb.o)
 .debug_macro   0x00000000000045ed       0x4a /home/user/Devel/stm32/libopencm3/lib/libopencm3_stm32f4.a(usb.o)
 .debug_macro   0x0000000000004637       0x52 /home/user/Devel/stm32/libopencm3/lib/libopencm3_stm32f4.a(usb.o)
 .debug_macro   0x0000000000004689       0x1f /home/user/Devel/stm32/libopencm3/lib/libopencm3_stm32f4.a(usb.o)
 .debug_macro   0x00000000000046a8       0x43 /home/user/Devel/stm32/libopencm3/lib/libopencm3_stm32f4.a(usb.o)
 .debug_macro   0x00000000000046eb       0x20 /home/user/Devel/stm32/libopencm3/lib/libopencm3_stm32f4.a(usb.o)
 .debug_macro   0x000000000000470b      0x187 /home/user/Devel/stm32/libopencm3/lib/libopencm3_stm32f4.a(usb.o)
 .debug_macro   0x0000000000004892      0x30d /home/user/Devel/stm32/libopencm3/lib/libopencm3_stm32f4.a(usb.o)
 .debug_macro   0x0000000000004b9f       0x10 /home/user/Devel/stm32/libopencm3/lib/libopencm3_stm32f4.a(usb.o)
 .debug_macro   0x0000000000004baf       0x35 /home/user/Devel/stm32/libopencm3/lib/libopencm3_stm32f4.a(usb.o)
 .debug_macro   0x0000000000004be4      0x196 /home/user/Devel/stm32/libopencm3/lib/libopencm3_stm32f4.a(usb.o)
 .debug_macro   0x0000000000004d7a       0x10 /home/user/Devel/stm32/libopencm3/lib/libopencm3_stm32f4.a(usb.o)
 .debug_macro   0x0000000000004d8a       0x1c /home/user/Devel/stm32/libopencm3/lib/libopencm3_stm32f4.a(usb.o)
 .debug_macro   0x0000000000004da6      0x154 /home/user/Devel/stm32/libopencm3/lib/libopencm3_stm32f4.a(usb_standard.o)
 .debug_macro   0x0000000000004efa      0x161 /home/user/Devel/stm32/libopencm3/lib/libopencm3_stm32f4.a(usb_control.o)
 .debug_macro   0x000000000000505b       0x16 /home/user/Devel/stm32/libopencm3/lib/libopencm3_stm32f4.a(usb_control.o)
 .debug_macro   0x0000000000005071      0x10e /home/user/Devel/stm32/libopencm3/lib/libopencm3_stm32f4.a(usb_control.o)
 .debug_macro   0x000000000000517f       0x8d /home/user/Devel/stm32/libopencm3/lib/libopencm3_stm32f4.a(usb_control.o)
 .debug_macro   0x000000000000520c       0x16 /home/user/Devel/stm32/libopencm3/lib/libopencm3_stm32f4.a(usb_control.o)
 .debug_macro   0x0000000000005222       0x29 /home/user/Devel/stm32/libopencm3/lib/libopencm3_stm32f4.a(usb_control.o)
 .debug_macro   0x000000000000524b      0x1b9 /home/user/Devel/stm32/libopencm3/lib/libopencm3_stm32f4.a(usb_f107.o)
 .debug_macro   0x0000000000005404       0x3a /home/user/Devel/stm32/libopencm3/lib/libopencm3_stm32f4.a(usb_f107.o)
 .debug_macro   0x000000000000543e      0x8d7 /home/user/Devel/stm32/libopencm3/lib/libopencm3_stm32f4.a(usb_f107.o)
 .debug_macro   0x0000000000005d15      0x130 /home/user/Devel/stm32/libopencm3/lib/libopencm3_stm32f4.a(usb_f107.o)
 .debug_macro   0x0000000000005e45      0x19c /home/user/Devel/stm32/libopencm3/lib/libopencm3_stm32f4.a(usb_f107.o)
 .debug_macro   0x0000000000005fe1       0xd4 /home/user/Devel/stm32/libopencm3/lib/libopencm3_stm32f4.a(vector.o)
 .debug_macro   0x00000000000060b5      0x3a1 /home/user/Devel/stm32/libopencm3/lib/libopencm3_stm32f4.a(vector.o)
 .debug_macro   0x0000000000006456       0x6a /home/user/Devel/stm32/libopencm3/lib/libopencm3_stm32f4.a(vector.o)
 .debug_macro   0x00000000000064c0      0x22c /home/user/Devel/stm32/libopencm3/lib/libopencm3_stm32f4.a(vector.o)
 .debug_macro   0x00000000000066ec       0x93 /home/user/Devel/stm32/libopencm3/lib/libopencm3_stm32f4.a(systick.o)
 .debug_macro   0x000000000000677f       0x64 /home/user/Devel/stm32/libopencm3/lib/libopencm3_stm32f4.a(systick.o)
 .debug_macro   0x00000000000067e3       0xb4 /home/user/Devel/stm32/libopencm3/lib/libopencm3_stm32f4.a(nvic.o)
 .debug_macro   0x0000000000006897       0x64 /home/user/Devel/stm32/libopencm3/lib/libopencm3_stm32f4.a(nvic.o)
 .debug_macro   0x00000000000068fb      0x1b0 /home/user/Devel/stm32/libopencm3/lib/libopencm3_stm32f4.a(nvic.o)
 .debug_macro   0x0000000000006aab       0xb9 /home/user/Devel/stm32/libopencm3/lib/libopencm3_stm32f4.a(pwr.o)
 .debug_macro   0x0000000000006b64      0x1b0 /home/user/Devel/stm32/libopencm3/lib/libopencm3_stm32f4.a(usb_fx07_common.o)
 .debug_macro   0x0000000000006d14      0x24f /home/user/Devel/stm32/libopencm3/lib/libopencm3_stm32f4.a(usb_fx07_common.o)
