Archive member included to satisfy reference by file (symbol)

/home/user/Devel/stm32/libopencm3/lib/libopencm3_stm32f4.a(rcc.o)
                              ././drivers/system/clock.o (rcc_clock_setup_hse_3v3)
/home/user/Devel/stm32/libopencm3/lib/libopencm3_stm32f4.a(crc_common_all.o)
                              ././drivers/flash/otp_storage.o (crc_reset)
/home/user/Devel/stm32/libopencm3/lib/libopencm3_stm32f4.a(dma_common_f24.o)
                              ././drivers/bluetooth/bt_usart.o (dma_stream_reset)
/home/user/Devel/stm32/libopencm3/lib/libopencm3_stm32f4.a(gpio_common_all.o)
                              ././drivers/bluetooth/bt_usart.o (gpio_set)
/home/user/Devel/stm32/libopencm3/lib/libopencm3_stm32f4.a(gpio_common_f0234.o)
                              ././drivers/i2c/i2c.o (gpio_mode_setup)
/home/user/Devel/stm32/libopencm3/lib/libopencm3_stm32f4.a(i2c_common_v1.o)
                              ././drivers/i2c/i2c.o (i2c_reset)
/home/user/Devel/stm32/libopencm3/lib/libopencm3_stm32f4.a(spi_common_all.o)
                              ././drivers/display/display.o (spi_reset)
/home/user/Devel/stm32/libopencm3/lib/libopencm3_stm32f4.a(spi_common_l1f124.o)
                              ././drivers/display/display.o (spi_set_dff_8bit)
/home/user/Devel/stm32/libopencm3/lib/libopencm3_stm32f4.a(usart_common_all.o)
                              ././drivers/bluetooth/bt_usart.o (usart_set_baudrate)
/home/user/Devel/stm32/libopencm3/lib/libopencm3_stm32f4.a(usart_common_f124.o)
                              /home/user/Devel/stm32/libopencm3/lib/libopencm3_stm32f4.a(usart_common_all.o) (usart_send)
/home/user/Devel/stm32/libopencm3/lib/libopencm3_stm32f4.a(flash_common_f234.o)
                              /home/user/Devel/stm32/libopencm3/lib/libopencm3_stm32f4.a(rcc.o) (flash_set_ws)
/home/user/Devel/stm32/libopencm3/lib/libopencm3_stm32f4.a(flash_common_f24.o)
                              ././drivers/flash/otp_storage.o (flash_program)
/home/user/Devel/stm32/libopencm3/lib/libopencm3_stm32f4.a(exti_common_all.o)
                              ././drivers/display/ts_tsc2007.o (exti_set_trigger)
/home/user/Devel/stm32/libopencm3/lib/libopencm3_stm32f4.a(rcc_common_all.o)
                              ././drivers/system/clock.o (rcc_periph_clock_enable)
/home/user/Devel/stm32/libopencm3/lib/libopencm3_stm32f4.a(usb.o)
                              ././drivers/usb/mew_usb_hid.o (usbd_init)
/home/user/Devel/stm32/libopencm3/lib/libopencm3_stm32f4.a(usb_standard.o)
                              ././drivers/usb/mew_usb_hid.o (usbd_register_set_config_callback)
/home/user/Devel/stm32/libopencm3/lib/libopencm3_stm32f4.a(usb_control.o)
                              ././drivers/usb/mew_usb_hid.o (usbd_register_control_callback)
/home/user/Devel/stm32/libopencm3/lib/libopencm3_stm32f4.a(usb_f107.o)
                              ././drivers/usb/mew_usb_hid.o (stm32f107_usb_driver)
/home/user/Devel/stm32/libopencm3/lib/libopencm3_stm32f4.a(vector.o)
                              (reset_handler)
/home/user/Devel/stm32/libopencm3/lib/libopencm3_stm32f4.a(systick.o)
                              ././drivers/system/systick.o (systick_set_reload)
/home/user/Devel/stm32/libopencm3/lib/libopencm3_stm32f4.a(nvic.o)
                              ././drivers/bluetooth/bt_usart.o (nvic_enable_irq)
/home/user/Devel/stm32/libopencm3/lib/libopencm3_stm32f4.a(pwr.o)
                              /home/user/Devel/stm32/libopencm3/lib/libopencm3_stm32f4.a(rcc.o) (pwr_set_vos_scale)
/home/user/Devel/stm32/libopencm3/lib/libopencm3_stm32f4.a(usb_fx07_common.o)
                              /home/user/Devel/stm32/libopencm3/lib/libopencm3_stm32f4.a(usb_f107.o) (stm32fx07_set_address)
/home/user/Devel/stm32/gcc-arm-none-eabi-8-2018-q4-major/bin/../lib/gcc/arm-none-eabi/8.2.1/../../../../arm-none-eabi/lib/thumb/v7e-m+fp/hard/libc_nano.a(lib_a-assert.o)
                              ././app/qr_code/qrcodegen.o (__assert_func)
/home/user/Devel/stm32/gcc-arm-none-eabi-8-2018-q4-major/bin/../lib/gcc/arm-none-eabi/8.2.1/../../../../arm-none-eabi/lib/thumb/v7e-m+fp/hard/libc_nano.a(lib_a-fprintf.o)
                              /home/user/Devel/stm32/gcc-arm-none-eabi-8-2018-q4-major/bin/../lib/gcc/arm-none-eabi/8.2.1/../../../../arm-none-eabi/lib/thumb/v7e-m+fp/hard/libc_nano.a(lib_a-assert.o) (fiprintf)
/home/user/Devel/stm32/gcc-arm-none-eabi-8-2018-q4-major/bin/../lib/gcc/arm-none-eabi/8.2.1/../../../../arm-none-eabi/lib/thumb/v7e-m+fp/hard/libc_nano.a(lib_a-impure.o)
                              /home/user/Devel/stm32/gcc-arm-none-eabi-8-2018-q4-major/bin/../lib/gcc/arm-none-eabi/8.2.1/../../../../arm-none-eabi/lib/thumb/v7e-m+fp/hard/libc_nano.a(lib_a-assert.o) (_impure_ptr)
/home/user/Devel/stm32/gcc-arm-none-eabi-8-2018-q4-major/bin/../lib/gcc/arm-none-eabi/8.2.1/../../../../arm-none-eabi/lib/thumb/v7e-m+fp/hard/libc_nano.a(lib_a-memcmp.o)
                              ././drivers/i2c/i2c.o (memcmp)
/home/user/Devel/stm32/gcc-arm-none-eabi-8-2018-q4-major/bin/../lib/gcc/arm-none-eabi/8.2.1/../../../../arm-none-eabi/lib/thumb/v7e-m+fp/hard/libc_nano.a(lib_a-memcpy-stub.o)
                              ././lvgl/src/lv_misc/lv_mem.o (memcpy)
/home/user/Devel/stm32/gcc-arm-none-eabi-8-2018-q4-major/bin/../lib/gcc/arm-none-eabi/8.2.1/../../../../arm-none-eabi/lib/thumb/v7e-m+fp/hard/libc_nano.a(lib_a-memmove.o)
                              ././app/qr_code/qrcodegen.o (memmove)
/home/user/Devel/stm32/gcc-arm-none-eabi-8-2018-q4-major/bin/../lib/gcc/arm-none-eabi/8.2.1/../../../../arm-none-eabi/lib/thumb/v7e-m+fp/hard/libc_nano.a(lib_a-memset.o)
                              ././lvgl/src/lv_misc/lv_mem.o (memset)
/home/user/Devel/stm32/gcc-arm-none-eabi-8-2018-q4-major/bin/../lib/gcc/arm-none-eabi/8.2.1/../../../../arm-none-eabi/lib/thumb/v7e-m+fp/hard/libc_nano.a(lib_a-nano-vfprintf.o)
                              /home/user/Devel/stm32/gcc-arm-none-eabi-8-2018-q4-major/bin/../lib/gcc/arm-none-eabi/8.2.1/../../../../arm-none-eabi/lib/thumb/v7e-m+fp/hard/libc_nano.a(lib_a-fprintf.o) (_vfprintf_r)
/home/user/Devel/stm32/gcc-arm-none-eabi-8-2018-q4-major/bin/../lib/gcc/arm-none-eabi/8.2.1/../../../../arm-none-eabi/lib/thumb/v7e-m+fp/hard/libc_nano.a(lib_a-nano-vfprintf_i.o)
                              /home/user/Devel/stm32/gcc-arm-none-eabi-8-2018-q4-major/bin/../lib/gcc/arm-none-eabi/8.2.1/../../../../arm-none-eabi/lib/thumb/v7e-m+fp/hard/libc_nano.a(lib_a-nano-vfprintf.o) (_printf_i)
/home/user/Devel/stm32/gcc-arm-none-eabi-8-2018-q4-major/bin/../lib/gcc/arm-none-eabi/8.2.1/../../../../arm-none-eabi/lib/thumb/v7e-m+fp/hard/libc_nano.a(lib_a-strchr.o)
                              ././app/qr_code/qrcodegen.o (strchr)
/home/user/Devel/stm32/gcc-arm-none-eabi-8-2018-q4-major/bin/../lib/gcc/arm-none-eabi/8.2.1/../../../../arm-none-eabi/lib/thumb/v7e-m+fp/hard/libc_nano.a(lib_a-strcmp.o)
                              ././lvgl/src/lv_objx/lv_ta.o (strcmp)
/home/user/Devel/stm32/gcc-arm-none-eabi-8-2018-q4-major/bin/../lib/gcc/arm-none-eabi/8.2.1/../../../../arm-none-eabi/lib/thumb/v7e-m+fp/hard/libc_nano.a(lib_a-strcpy.o)
                              ././lvgl/src/lv_objx/lv_img.o (strcpy)
/home/user/Devel/stm32/gcc-arm-none-eabi-8-2018-q4-major/bin/../lib/gcc/arm-none-eabi/8.2.1/../../../../arm-none-eabi/lib/thumb/v7e-m+fp/hard/libc_nano.a(lib_a-strlen.o)
                              ././lvgl/src/lv_misc/lv_txt.o (strlen)
/home/user/Devel/stm32/gcc-arm-none-eabi-8-2018-q4-major/bin/../lib/gcc/arm-none-eabi/8.2.1/../../../../arm-none-eabi/lib/thumb/v7e-m+fp/hard/libc_nano.a(lib_a-strstr.o)
                              ././drivers/bluetooth/bt_usart.o (strstr)
/home/user/Devel/stm32/gcc-arm-none-eabi-8-2018-q4-major/bin/../lib/gcc/arm-none-eabi/8.2.1/../../../../arm-none-eabi/lib/thumb/v7e-m+fp/hard/libc_nano.a(lib_a-wbuf.o)
                              /home/user/Devel/stm32/gcc-arm-none-eabi-8-2018-q4-major/bin/../lib/gcc/arm-none-eabi/8.2.1/../../../../arm-none-eabi/lib/thumb/v7e-m+fp/hard/libc_nano.a(lib_a-nano-vfprintf.o) (__swbuf_r)
/home/user/Devel/stm32/gcc-arm-none-eabi-8-2018-q4-major/bin/../lib/gcc/arm-none-eabi/8.2.1/../../../../arm-none-eabi/lib/thumb/v7e-m+fp/hard/libc_nano.a(lib_a-wsetup.o)
                              /home/user/Devel/stm32/gcc-arm-none-eabi-8-2018-q4-major/bin/../lib/gcc/arm-none-eabi/8.2.1/../../../../arm-none-eabi/lib/thumb/v7e-m+fp/hard/libc_nano.a(lib_a-nano-vfprintf.o) (__swsetup_r)
/home/user/Devel/stm32/gcc-arm-none-eabi-8-2018-q4-major/bin/../lib/gcc/arm-none-eabi/8.2.1/../../../../arm-none-eabi/lib/thumb/v7e-m+fp/hard/libc_nano.a(lib_a-abort.o)
                              /home/user/Devel/stm32/gcc-arm-none-eabi-8-2018-q4-major/bin/../lib/gcc/arm-none-eabi/8.2.1/../../../../arm-none-eabi/lib/thumb/v7e-m+fp/hard/libc_nano.a(lib_a-assert.o) (abort)
/home/user/Devel/stm32/gcc-arm-none-eabi-8-2018-q4-major/bin/../lib/gcc/arm-none-eabi/8.2.1/../../../../arm-none-eabi/lib/thumb/v7e-m+fp/hard/libc_nano.a(lib_a-fflush.o)
                              /home/user/Devel/stm32/gcc-arm-none-eabi-8-2018-q4-major/bin/../lib/gcc/arm-none-eabi/8.2.1/../../../../arm-none-eabi/lib/thumb/v7e-m+fp/hard/libc_nano.a(lib_a-wbuf.o) (_fflush_r)
/home/user/Devel/stm32/gcc-arm-none-eabi-8-2018-q4-major/bin/../lib/gcc/arm-none-eabi/8.2.1/../../../../arm-none-eabi/lib/thumb/v7e-m+fp/hard/libc_nano.a(lib_a-findfp.o)
                              /home/user/Devel/stm32/gcc-arm-none-eabi-8-2018-q4-major/bin/../lib/gcc/arm-none-eabi/8.2.1/../../../../arm-none-eabi/lib/thumb/v7e-m+fp/hard/libc_nano.a(lib_a-nano-vfprintf.o) (__sinit)
/home/user/Devel/stm32/gcc-arm-none-eabi-8-2018-q4-major/bin/../lib/gcc/arm-none-eabi/8.2.1/../../../../arm-none-eabi/lib/thumb/v7e-m+fp/hard/libc_nano.a(lib_a-fvwrite.o)
                              /home/user/Devel/stm32/gcc-arm-none-eabi-8-2018-q4-major/bin/../lib/gcc/arm-none-eabi/8.2.1/../../../../arm-none-eabi/lib/thumb/v7e-m+fp/hard/libc_nano.a(lib_a-nano-vfprintf.o) (__sfvwrite_r)
/home/user/Devel/stm32/gcc-arm-none-eabi-8-2018-q4-major/bin/../lib/gcc/arm-none-eabi/8.2.1/../../../../arm-none-eabi/lib/thumb/v7e-m+fp/hard/libc_nano.a(lib_a-fwalk.o)
                              /home/user/Devel/stm32/gcc-arm-none-eabi-8-2018-q4-major/bin/../lib/gcc/arm-none-eabi/8.2.1/../../../../arm-none-eabi/lib/thumb/v7e-m+fp/hard/libc_nano.a(lib_a-findfp.o) (_fwalk)
/home/user/Devel/stm32/gcc-arm-none-eabi-8-2018-q4-major/bin/../lib/gcc/arm-none-eabi/8.2.1/../../../../arm-none-eabi/lib/thumb/v7e-m+fp/hard/libc_nano.a(lib_a-lock.o)
                              /home/user/Devel/stm32/gcc-arm-none-eabi-8-2018-q4-major/bin/../lib/gcc/arm-none-eabi/8.2.1/../../../../arm-none-eabi/lib/thumb/v7e-m+fp/hard/libc_nano.a(lib_a-findfp.o) (__retarget_lock_init_recursive)
/home/user/Devel/stm32/gcc-arm-none-eabi-8-2018-q4-major/bin/../lib/gcc/arm-none-eabi/8.2.1/../../../../arm-none-eabi/lib/thumb/v7e-m+fp/hard/libc_nano.a(lib_a-makebuf.o)
                              /home/user/Devel/stm32/gcc-arm-none-eabi-8-2018-q4-major/bin/../lib/gcc/arm-none-eabi/8.2.1/../../../../arm-none-eabi/lib/thumb/v7e-m+fp/hard/libc_nano.a(lib_a-wsetup.o) (__smakebuf_r)
/home/user/Devel/stm32/gcc-arm-none-eabi-8-2018-q4-major/bin/../lib/gcc/arm-none-eabi/8.2.1/../../../../arm-none-eabi/lib/thumb/v7e-m+fp/hard/libc_nano.a(lib_a-memchr.o)
                              /home/user/Devel/stm32/gcc-arm-none-eabi-8-2018-q4-major/bin/../lib/gcc/arm-none-eabi/8.2.1/../../../../arm-none-eabi/lib/thumb/v7e-m+fp/hard/libc_nano.a(lib_a-nano-vfprintf.o) (memchr)
/home/user/Devel/stm32/gcc-arm-none-eabi-8-2018-q4-major/bin/../lib/gcc/arm-none-eabi/8.2.1/../../../../arm-none-eabi/lib/thumb/v7e-m+fp/hard/libc_nano.a(lib_a-nano-freer.o)
                              /home/user/Devel/stm32/gcc-arm-none-eabi-8-2018-q4-major/bin/../lib/gcc/arm-none-eabi/8.2.1/../../../../arm-none-eabi/lib/thumb/v7e-m+fp/hard/libc_nano.a(lib_a-wsetup.o) (_free_r)
/home/user/Devel/stm32/gcc-arm-none-eabi-8-2018-q4-major/bin/../lib/gcc/arm-none-eabi/8.2.1/../../../../arm-none-eabi/lib/thumb/v7e-m+fp/hard/libc_nano.a(lib_a-nano-mallocr.o)
                              /home/user/Devel/stm32/gcc-arm-none-eabi-8-2018-q4-major/bin/../lib/gcc/arm-none-eabi/8.2.1/../../../../arm-none-eabi/lib/thumb/v7e-m+fp/hard/libc_nano.a(lib_a-findfp.o) (_malloc_r)
/home/user/Devel/stm32/gcc-arm-none-eabi-8-2018-q4-major/bin/../lib/gcc/arm-none-eabi/8.2.1/../../../../arm-none-eabi/lib/thumb/v7e-m+fp/hard/libc_nano.a(lib_a-nano-reallocr.o)
                              /home/user/Devel/stm32/gcc-arm-none-eabi-8-2018-q4-major/bin/../lib/gcc/arm-none-eabi/8.2.1/../../../../arm-none-eabi/lib/thumb/v7e-m+fp/hard/libc_nano.a(lib_a-fvwrite.o) (_realloc_r)
/home/user/Devel/stm32/gcc-arm-none-eabi-8-2018-q4-major/bin/../lib/gcc/arm-none-eabi/8.2.1/../../../../arm-none-eabi/lib/thumb/v7e-m+fp/hard/libc_nano.a(lib_a-sbrkr.o)
                              /home/user/Devel/stm32/gcc-arm-none-eabi-8-2018-q4-major/bin/../lib/gcc/arm-none-eabi/8.2.1/../../../../arm-none-eabi/lib/thumb/v7e-m+fp/hard/libc_nano.a(lib_a-nano-mallocr.o) (_sbrk_r)
/home/user/Devel/stm32/gcc-arm-none-eabi-8-2018-q4-major/bin/../lib/gcc/arm-none-eabi/8.2.1/../../../../arm-none-eabi/lib/thumb/v7e-m+fp/hard/libc_nano.a(lib_a-signal.o)
                              /home/user/Devel/stm32/gcc-arm-none-eabi-8-2018-q4-major/bin/../lib/gcc/arm-none-eabi/8.2.1/../../../../arm-none-eabi/lib/thumb/v7e-m+fp/hard/libc_nano.a(lib_a-abort.o) (raise)
/home/user/Devel/stm32/gcc-arm-none-eabi-8-2018-q4-major/bin/../lib/gcc/arm-none-eabi/8.2.1/../../../../arm-none-eabi/lib/thumb/v7e-m+fp/hard/libc_nano.a(lib_a-signalr.o)
                              /home/user/Devel/stm32/gcc-arm-none-eabi-8-2018-q4-major/bin/../lib/gcc/arm-none-eabi/8.2.1/../../../../arm-none-eabi/lib/thumb/v7e-m+fp/hard/libc_nano.a(lib_a-signal.o) (_kill_r)
/home/user/Devel/stm32/gcc-arm-none-eabi-8-2018-q4-major/bin/../lib/gcc/arm-none-eabi/8.2.1/../../../../arm-none-eabi/lib/thumb/v7e-m+fp/hard/libc_nano.a(lib_a-stdio.o)
                              /home/user/Devel/stm32/gcc-arm-none-eabi-8-2018-q4-major/bin/../lib/gcc/arm-none-eabi/8.2.1/../../../../arm-none-eabi/lib/thumb/v7e-m+fp/hard/libc_nano.a(lib_a-findfp.o) (__sread)
/home/user/Devel/stm32/gcc-arm-none-eabi-8-2018-q4-major/bin/../lib/gcc/arm-none-eabi/8.2.1/../../../../arm-none-eabi/lib/thumb/v7e-m+fp/hard/libc_nano.a(lib_a-writer.o)
                              /home/user/Devel/stm32/gcc-arm-none-eabi-8-2018-q4-major/bin/../lib/gcc/arm-none-eabi/8.2.1/../../../../arm-none-eabi/lib/thumb/v7e-m+fp/hard/libc_nano.a(lib_a-stdio.o) (_write_r)
/home/user/Devel/stm32/gcc-arm-none-eabi-8-2018-q4-major/bin/../lib/gcc/arm-none-eabi/8.2.1/../../../../arm-none-eabi/lib/thumb/v7e-m+fp/hard/libc_nano.a(lib_a-closer.o)
                              /home/user/Devel/stm32/gcc-arm-none-eabi-8-2018-q4-major/bin/../lib/gcc/arm-none-eabi/8.2.1/../../../../arm-none-eabi/lib/thumb/v7e-m+fp/hard/libc_nano.a(lib_a-stdio.o) (_close_r)
/home/user/Devel/stm32/gcc-arm-none-eabi-8-2018-q4-major/bin/../lib/gcc/arm-none-eabi/8.2.1/../../../../arm-none-eabi/lib/thumb/v7e-m+fp/hard/libc_nano.a(lib_a-fstatr.o)
                              /home/user/Devel/stm32/gcc-arm-none-eabi-8-2018-q4-major/bin/../lib/gcc/arm-none-eabi/8.2.1/../../../../arm-none-eabi/lib/thumb/v7e-m+fp/hard/libc_nano.a(lib_a-makebuf.o) (_fstat_r)
/home/user/Devel/stm32/gcc-arm-none-eabi-8-2018-q4-major/bin/../lib/gcc/arm-none-eabi/8.2.1/../../../../arm-none-eabi/lib/thumb/v7e-m+fp/hard/libc_nano.a(lib_a-isattyr.o)
                              /home/user/Devel/stm32/gcc-arm-none-eabi-8-2018-q4-major/bin/../lib/gcc/arm-none-eabi/8.2.1/../../../../arm-none-eabi/lib/thumb/v7e-m+fp/hard/libc_nano.a(lib_a-makebuf.o) (_isatty_r)
/home/user/Devel/stm32/gcc-arm-none-eabi-8-2018-q4-major/bin/../lib/gcc/arm-none-eabi/8.2.1/../../../../arm-none-eabi/lib/thumb/v7e-m+fp/hard/libc_nano.a(lib_a-lseekr.o)
                              /home/user/Devel/stm32/gcc-arm-none-eabi-8-2018-q4-major/bin/../lib/gcc/arm-none-eabi/8.2.1/../../../../arm-none-eabi/lib/thumb/v7e-m+fp/hard/libc_nano.a(lib_a-stdio.o) (_lseek_r)
/home/user/Devel/stm32/gcc-arm-none-eabi-8-2018-q4-major/bin/../lib/gcc/arm-none-eabi/8.2.1/../../../../arm-none-eabi/lib/thumb/v7e-m+fp/hard/libc_nano.a(lib_a-mlock.o)
                              /home/user/Devel/stm32/gcc-arm-none-eabi-8-2018-q4-major/bin/../lib/gcc/arm-none-eabi/8.2.1/../../../../arm-none-eabi/lib/thumb/v7e-m+fp/hard/libc_nano.a(lib_a-nano-freer.o) (__malloc_lock)
/home/user/Devel/stm32/gcc-arm-none-eabi-8-2018-q4-major/bin/../lib/gcc/arm-none-eabi/8.2.1/../../../../arm-none-eabi/lib/thumb/v7e-m+fp/hard/libc_nano.a(lib_a-nano-msizer.o)
                              /home/user/Devel/stm32/gcc-arm-none-eabi-8-2018-q4-major/bin/../lib/gcc/arm-none-eabi/8.2.1/../../../../arm-none-eabi/lib/thumb/v7e-m+fp/hard/libc_nano.a(lib_a-nano-reallocr.o) (_malloc_usable_size_r)
/home/user/Devel/stm32/gcc-arm-none-eabi-8-2018-q4-major/bin/../lib/gcc/arm-none-eabi/8.2.1/../../../../arm-none-eabi/lib/thumb/v7e-m+fp/hard/libc_nano.a(lib_a-readr.o)
                              /home/user/Devel/stm32/gcc-arm-none-eabi-8-2018-q4-major/bin/../lib/gcc/arm-none-eabi/8.2.1/../../../../arm-none-eabi/lib/thumb/v7e-m+fp/hard/libc_nano.a(lib_a-stdio.o) (_read_r)
/home/user/Devel/stm32/gcc-arm-none-eabi-8-2018-q4-major/bin/../lib/gcc/arm-none-eabi/8.2.1/../../../../arm-none-eabi/lib/thumb/v7e-m+fp/hard/libc_nano.a(lib_a-reent.o)
                              /home/user/Devel/stm32/gcc-arm-none-eabi-8-2018-q4-major/bin/../lib/gcc/arm-none-eabi/8.2.1/../../../../arm-none-eabi/lib/thumb/v7e-m+fp/hard/libc_nano.a(lib_a-sbrkr.o) (errno)
/home/user/Devel/stm32/gcc-arm-none-eabi-8-2018-q4-major/bin/../lib/gcc/arm-none-eabi/8.2.1/../../../../arm-none-eabi/lib/thumb/v7e-m+fp/hard/libnosys.a(close.o)
                              /home/user/Devel/stm32/gcc-arm-none-eabi-8-2018-q4-major/bin/../lib/gcc/arm-none-eabi/8.2.1/../../../../arm-none-eabi/lib/thumb/v7e-m+fp/hard/libc_nano.a(lib_a-closer.o) (_close)
/home/user/Devel/stm32/gcc-arm-none-eabi-8-2018-q4-major/bin/../lib/gcc/arm-none-eabi/8.2.1/../../../../arm-none-eabi/lib/thumb/v7e-m+fp/hard/libnosys.a(fstat.o)
                              /home/user/Devel/stm32/gcc-arm-none-eabi-8-2018-q4-major/bin/../lib/gcc/arm-none-eabi/8.2.1/../../../../arm-none-eabi/lib/thumb/v7e-m+fp/hard/libc_nano.a(lib_a-fstatr.o) (_fstat)
/home/user/Devel/stm32/gcc-arm-none-eabi-8-2018-q4-major/bin/../lib/gcc/arm-none-eabi/8.2.1/../../../../arm-none-eabi/lib/thumb/v7e-m+fp/hard/libnosys.a(getpid.o)
                              /home/user/Devel/stm32/gcc-arm-none-eabi-8-2018-q4-major/bin/../lib/gcc/arm-none-eabi/8.2.1/../../../../arm-none-eabi/lib/thumb/v7e-m+fp/hard/libc_nano.a(lib_a-signalr.o) (_getpid)
/home/user/Devel/stm32/gcc-arm-none-eabi-8-2018-q4-major/bin/../lib/gcc/arm-none-eabi/8.2.1/../../../../arm-none-eabi/lib/thumb/v7e-m+fp/hard/libnosys.a(isatty.o)
                              /home/user/Devel/stm32/gcc-arm-none-eabi-8-2018-q4-major/bin/../lib/gcc/arm-none-eabi/8.2.1/../../../../arm-none-eabi/lib/thumb/v7e-m+fp/hard/libc_nano.a(lib_a-isattyr.o) (_isatty)
/home/user/Devel/stm32/gcc-arm-none-eabi-8-2018-q4-major/bin/../lib/gcc/arm-none-eabi/8.2.1/../../../../arm-none-eabi/lib/thumb/v7e-m+fp/hard/libnosys.a(kill.o)
                              /home/user/Devel/stm32/gcc-arm-none-eabi-8-2018-q4-major/bin/../lib/gcc/arm-none-eabi/8.2.1/../../../../arm-none-eabi/lib/thumb/v7e-m+fp/hard/libc_nano.a(lib_a-signalr.o) (_kill)
/home/user/Devel/stm32/gcc-arm-none-eabi-8-2018-q4-major/bin/../lib/gcc/arm-none-eabi/8.2.1/../../../../arm-none-eabi/lib/thumb/v7e-m+fp/hard/libnosys.a(lseek.o)
                              /home/user/Devel/stm32/gcc-arm-none-eabi-8-2018-q4-major/bin/../lib/gcc/arm-none-eabi/8.2.1/../../../../arm-none-eabi/lib/thumb/v7e-m+fp/hard/libc_nano.a(lib_a-lseekr.o) (_lseek)
/home/user/Devel/stm32/gcc-arm-none-eabi-8-2018-q4-major/bin/../lib/gcc/arm-none-eabi/8.2.1/../../../../arm-none-eabi/lib/thumb/v7e-m+fp/hard/libnosys.a(read.o)
                              /home/user/Devel/stm32/gcc-arm-none-eabi-8-2018-q4-major/bin/../lib/gcc/arm-none-eabi/8.2.1/../../../../arm-none-eabi/lib/thumb/v7e-m+fp/hard/libc_nano.a(lib_a-readr.o) (_read)
/home/user/Devel/stm32/gcc-arm-none-eabi-8-2018-q4-major/bin/../lib/gcc/arm-none-eabi/8.2.1/../../../../arm-none-eabi/lib/thumb/v7e-m+fp/hard/libnosys.a(sbrk.o)
                              /home/user/Devel/stm32/gcc-arm-none-eabi-8-2018-q4-major/bin/../lib/gcc/arm-none-eabi/8.2.1/../../../../arm-none-eabi/lib/thumb/v7e-m+fp/hard/libc_nano.a(lib_a-sbrkr.o) (_sbrk)
/home/user/Devel/stm32/gcc-arm-none-eabi-8-2018-q4-major/bin/../lib/gcc/arm-none-eabi/8.2.1/../../../../arm-none-eabi/lib/thumb/v7e-m+fp/hard/libnosys.a(write.o)
                              /home/user/Devel/stm32/gcc-arm-none-eabi-8-2018-q4-major/bin/../lib/gcc/arm-none-eabi/8.2.1/../../../../arm-none-eabi/lib/thumb/v7e-m+fp/hard/libc_nano.a(lib_a-writer.o) (_write)
/home/user/Devel/stm32/gcc-arm-none-eabi-8-2018-q4-major/bin/../lib/gcc/arm-none-eabi/8.2.1/../../../../arm-none-eabi/lib/thumb/v7e-m+fp/hard/libnosys.a(_exit.o)
                              /home/user/Devel/stm32/gcc-arm-none-eabi-8-2018-q4-major/bin/../lib/gcc/arm-none-eabi/8.2.1/../../../../arm-none-eabi/lib/thumb/v7e-m+fp/hard/libc_nano.a(lib_a-abort.o) (_exit)

Allocating common symbols
Common symbol       size              file

__lock___atexit_recursive_mutex
                    0x1               /home/user/Devel/stm32/gcc-arm-none-eabi-8-2018-q4-major/bin/../lib/gcc/arm-none-eabi/8.2.1/../../../../arm-none-eabi/lib/thumb/v7e-m+fp/hard/libc_nano.a(lib_a-lock.o)
__lock___arc4random_mutex
                    0x1               /home/user/Devel/stm32/gcc-arm-none-eabi-8-2018-q4-major/bin/../lib/gcc/arm-none-eabi/8.2.1/../../../../arm-none-eabi/lib/thumb/v7e-m+fp/hard/libc_nano.a(lib_a-lock.o)
errno               0x4               /home/user/Devel/stm32/gcc-arm-none-eabi-8-2018-q4-major/bin/../lib/gcc/arm-none-eabi/8.2.1/../../../../arm-none-eabi/lib/thumb/v7e-m+fp/hard/libc_nano.a(lib_a-reent.o)
__lock___env_recursive_mutex
                    0x1               /home/user/Devel/stm32/gcc-arm-none-eabi-8-2018-q4-major/bin/../lib/gcc/arm-none-eabi/8.2.1/../../../../arm-none-eabi/lib/thumb/v7e-m+fp/hard/libc_nano.a(lib_a-lock.o)
__lock___sinit_recursive_mutex
                    0x1               /home/user/Devel/stm32/gcc-arm-none-eabi-8-2018-q4-major/bin/../lib/gcc/arm-none-eabi/8.2.1/../../../../arm-none-eabi/lib/thumb/v7e-m+fp/hard/libc_nano.a(lib_a-lock.o)
__lock___malloc_recursive_mutex
                    0x1               /home/user/Devel/stm32/gcc-arm-none-eabi-8-2018-q4-major/bin/../lib/gcc/arm-none-eabi/8.2.1/../../../../arm-none-eabi/lib/thumb/v7e-m+fp/hard/libc_nano.a(lib_a-lock.o)
__lock___at_quick_exit_mutex
                    0x1               /home/user/Devel/stm32/gcc-arm-none-eabi-8-2018-q4-major/bin/../lib/gcc/arm-none-eabi/8.2.1/../../../../arm-none-eabi/lib/thumb/v7e-m+fp/hard/libc_nano.a(lib_a-lock.o)
__lock___dd_hash_mutex
                    0x1               /home/user/Devel/stm32/gcc-arm-none-eabi-8-2018-q4-major/bin/../lib/gcc/arm-none-eabi/8.2.1/../../../../arm-none-eabi/lib/thumb/v7e-m+fp/hard/libc_nano.a(lib_a-lock.o)
__lock___tz_mutex   0x1               /home/user/Devel/stm32/gcc-arm-none-eabi-8-2018-q4-major/bin/../lib/gcc/arm-none-eabi/8.2.1/../../../../arm-none-eabi/lib/thumb/v7e-m+fp/hard/libc_nano.a(lib_a-lock.o)
__lock___sfp_recursive_mutex
                    0x1               /home/user/Devel/stm32/gcc-arm-none-eabi-8-2018-q4-major/bin/../lib/gcc/arm-none-eabi/8.2.1/../../../../arm-none-eabi/lib/thumb/v7e-m+fp/hard/libc_nano.a(lib_a-lock.o)

Discarded input sections

 .group         0x0000000000000000        0x8 /home/user/Devel/stm32/libopencm3/lib/libopencm3_stm32f4.a(rcc.o)
 .group         0x0000000000000000        0x8 /home/user/Devel/stm32/libopencm3/lib/libopencm3_stm32f4.a(rcc.o)
 .group         0x0000000000000000        0x8 /home/user/Devel/stm32/libopencm3/lib/libopencm3_stm32f4.a(rcc.o)
 .group         0x0000000000000000        0x8 /home/user/Devel/stm32/libopencm3/lib/libopencm3_stm32f4.a(rcc.o)
 .group         0x0000000000000000        0x8 /home/user/Devel/stm32/libopencm3/lib/libopencm3_stm32f4.a(rcc.o)
 .group         0x0000000000000000        0x8 /home/user/Devel/stm32/libopencm3/lib/libopencm3_stm32f4.a(rcc.o)
 .group         0x0000000000000000        0x8 /home/user/Devel/stm32/libopencm3/lib/libopencm3_stm32f4.a(rcc.o)
 .group         0x0000000000000000        0x8 /home/user/Devel/stm32/libopencm3/lib/libopencm3_stm32f4.a(rcc.o)
 .group         0x0000000000000000        0x8 /home/user/Devel/stm32/libopencm3/lib/libopencm3_stm32f4.a(rcc.o)
 .group         0x0000000000000000        0x8 /home/user/Devel/stm32/libopencm3/lib/libopencm3_stm32f4.a(rcc.o)
 .group         0x0000000000000000        0x8 /home/user/Devel/stm32/libopencm3/lib/libopencm3_stm32f4.a(rcc.o)
 .group         0x0000000000000000        0x8 /home/user/Devel/stm32/libopencm3/lib/libopencm3_stm32f4.a(rcc.o)
 .group         0x0000000000000000        0x8 /home/user/Devel/stm32/libopencm3/lib/libopencm3_stm32f4.a(rcc.o)
 .group         0x0000000000000000        0x8 /home/user/Devel/stm32/libopencm3/lib/libopencm3_stm32f4.a(rcc.o)
 .group         0x0000000000000000        0x8 /home/user/Devel/stm32/libopencm3/lib/libopencm3_stm32f4.a(rcc.o)
 .group         0x0000000000000000        0x8 /home/user/Devel/stm32/libopencm3/lib/libopencm3_stm32f4.a(rcc.o)
 .group         0x0000000000000000        0x8 /home/user/Devel/stm32/libopencm3/lib/libopencm3_stm32f4.a(rcc.o)
 .group         0x0000000000000000        0x8 /home/user/Devel/stm32/libopencm3/lib/libopencm3_stm32f4.a(crc_common_all.o)
 .group         0x0000000000000000        0x8 /home/user/Devel/stm32/libopencm3/lib/libopencm3_stm32f4.a(crc_common_all.o)
 .group         0x0000000000000000        0x8 /home/user/Devel/stm32/libopencm3/lib/libopencm3_stm32f4.a(crc_common_all.o)
 .group         0x0000000000000000        0x8 /home/user/Devel/stm32/libopencm3/lib/libopencm3_stm32f4.a(crc_common_all.o)
 .group         0x0000000000000000        0x8 /home/user/Devel/stm32/libopencm3/lib/libopencm3_stm32f4.a(crc_common_all.o)
 .group         0x0000000000000000        0x8 /home/user/Devel/stm32/libopencm3/lib/libopencm3_stm32f4.a(crc_common_all.o)
 .group         0x0000000000000000        0x8 /home/user/Devel/stm32/libopencm3/lib/libopencm3_stm32f4.a(crc_common_all.o)
 .group         0x0000000000000000        0x8 /home/user/Devel/stm32/libopencm3/lib/libopencm3_stm32f4.a(crc_common_all.o)
 .group         0x0000000000000000        0x8 /home/user/Devel/stm32/libopencm3/lib/libopencm3_stm32f4.a(crc_common_all.o)
 .group         0x0000000000000000        0x8 /home/user/Devel/stm32/libopencm3/lib/libopencm3_stm32f4.a(crc_common_all.o)
 .group         0x0000000000000000        0x8 /home/user/Devel/stm32/libopencm3/lib/libopencm3_stm32f4.a(crc_common_all.o)
 .group         0x0000000000000000        0x8 /home/user/Devel/stm32/libopencm3/lib/libopencm3_stm32f4.a(crc_common_all.o)
 .debug_macro   0x0000000000000000      0x88c /home/user/Devel/stm32/libopencm3/lib/libopencm3_stm32f4.a(crc_common_all.o)
 .debug_macro   0x0000000000000000       0x22 /home/user/Devel/stm32/libopencm3/lib/libopencm3_stm32f4.a(crc_common_all.o)
 .debug_macro   0x0000000000000000       0x87 /home/user/Devel/stm32/libopencm3/lib/libopencm3_stm32f4.a(crc_common_all.o)
 .debug_macro   0x0000000000000000       0x44 /home/user/Devel/stm32/libopencm3/lib/libopencm3_stm32f4.a(crc_common_all.o)
 .debug_macro   0x0000000000000000       0xfd /home/user/Devel/stm32/libopencm3/lib/libopencm3_stm32f4.a(crc_common_all.o)
 .debug_macro   0x0000000000000000       0x5e /home/user/Devel/stm32/libopencm3/lib/libopencm3_stm32f4.a(crc_common_all.o)
 .debug_macro   0x0000000000000000      0x1df /home/user/Devel/stm32/libopencm3/lib/libopencm3_stm32f4.a(crc_common_all.o)
 .debug_macro   0x0000000000000000       0x22 /home/user/Devel/stm32/libopencm3/lib/libopencm3_stm32f4.a(crc_common_all.o)
 .debug_macro   0x0000000000000000       0xfa /home/user/Devel/stm32/libopencm3/lib/libopencm3_stm32f4.a(crc_common_all.o)
 .debug_macro   0x0000000000000000       0x58 /home/user/Devel/stm32/libopencm3/lib/libopencm3_stm32f4.a(crc_common_all.o)
 .debug_macro   0x0000000000000000      0x26d /home/user/Devel/stm32/libopencm3/lib/libopencm3_stm32f4.a(crc_common_all.o)
 .group         0x0000000000000000        0x8 /home/user/Devel/stm32/libopencm3/lib/libopencm3_stm32f4.a(dma_common_f24.o)
 .group         0x0000000000000000        0x8 /home/user/Devel/stm32/libopencm3/lib/libopencm3_stm32f4.a(dma_common_f24.o)
 .group         0x0000000000000000        0x8 /home/user/Devel/stm32/libopencm3/lib/libopencm3_stm32f4.a(dma_common_f24.o)
 .group         0x0000000000000000        0x8 /home/user/Devel/stm32/libopencm3/lib/libopencm3_stm32f4.a(dma_common_f24.o)
 .group         0x0000000000000000        0x8 /home/user/Devel/stm32/libopencm3/lib/libopencm3_stm32f4.a(dma_common_f24.o)
 .group         0x0000000000000000        0x8 /home/user/Devel/stm32/libopencm3/lib/libopencm3_stm32f4.a(dma_common_f24.o)
 .group         0x0000000000000000        0x8 /home/user/Devel/stm32/libopencm3/lib/libopencm3_stm32f4.a(dma_common_f24.o)
 .group         0x0000000000000000        0x8 /home/user/Devel/stm32/libopencm3/lib/libopencm3_stm32f4.a(dma_common_f24.o)
 .group         0x0000000000000000        0x8 /home/user/Devel/stm32/libopencm3/lib/libopencm3_stm32f4.a(dma_common_f24.o)
 .group         0x0000000000000000        0x8 /home/user/Devel/stm32/libopencm3/lib/libopencm3_stm32f4.a(dma_common_f24.o)
 .group         0x0000000000000000        0x8 /home/user/Devel/stm32/libopencm3/lib/libopencm3_stm32f4.a(dma_common_f24.o)
 .group         0x0000000000000000        0x8 /home/user/Devel/stm32/libopencm3/lib/libopencm3_stm32f4.a(dma_common_f24.o)
 .debug_macro   0x0000000000000000      0x88c /home/user/Devel/stm32/libopencm3/lib/libopencm3_stm32f4.a(dma_common_f24.o)
 .debug_macro   0x0000000000000000       0x22 /home/user/Devel/stm32/libopencm3/lib/libopencm3_stm32f4.a(dma_common_f24.o)
 .debug_macro   0x0000000000000000       0x87 /home/user/Devel/stm32/libopencm3/lib/libopencm3_stm32f4.a(dma_common_f24.o)
 .debug_macro   0x0000000000000000       0x44 /home/user/Devel/stm32/libopencm3/lib/libopencm3_stm32f4.a(dma_common_f24.o)
 .debug_macro   0x0000000000000000       0xfd /home/user/Devel/stm32/libopencm3/lib/libopencm3_stm32f4.a(dma_common_f24.o)
 .debug_macro   0x0000000000000000       0x5e /home/user/Devel/stm32/libopencm3/lib/libopencm3_stm32f4.a(dma_common_f24.o)
 .debug_macro   0x0000000000000000      0x1df /home/user/Devel/stm32/libopencm3/lib/libopencm3_stm32f4.a(dma_common_f24.o)
 .debug_macro   0x0000000000000000       0x22 /home/user/Devel/stm32/libopencm3/lib/libopencm3_stm32f4.a(dma_common_f24.o)
 .debug_macro   0x0000000000000000       0xfa /home/user/Devel/stm32/libopencm3/lib/libopencm3_stm32f4.a(dma_common_f24.o)
 .debug_macro   0x0000000000000000       0x58 /home/user/Devel/stm32/libopencm3/lib/libopencm3_stm32f4.a(dma_common_f24.o)
 .debug_macro   0x0000000000000000      0x26d /home/user/Devel/stm32/libopencm3/lib/libopencm3_stm32f4.a(dma_common_f24.o)
 .group         0x0000000000000000        0x8 /home/user/Devel/stm32/libopencm3/lib/libopencm3_stm32f4.a(gpio_common_all.o)
 .group         0x0000000000000000        0x8 /home/user/Devel/stm32/libopencm3/lib/libopencm3_stm32f4.a(gpio_common_all.o)
 .group         0x0000000000000000        0x8 /home/user/Devel/stm32/libopencm3/lib/libopencm3_stm32f4.a(gpio_common_all.o)
 .group         0x0000000000000000        0x8 /home/user/Devel/stm32/libopencm3/lib/libopencm3_stm32f4.a(gpio_common_all.o)
 .group         0x0000000000000000        0x8 /home/user/Devel/stm32/libopencm3/lib/libopencm3_stm32f4.a(gpio_common_all.o)
 .group         0x0000000000000000        0x8 /home/user/Devel/stm32/libopencm3/lib/libopencm3_stm32f4.a(gpio_common_all.o)
 .group         0x0000000000000000        0x8 /home/user/Devel/stm32/libopencm3/lib/libopencm3_stm32f4.a(gpio_common_all.o)
 .group         0x0000000000000000        0x8 /home/user/Devel/stm32/libopencm3/lib/libopencm3_stm32f4.a(gpio_common_all.o)
 .group         0x0000000000000000        0x8 /home/user/Devel/stm32/libopencm3/lib/libopencm3_stm32f4.a(gpio_common_all.o)
 .group         0x0000000000000000        0x8 /home/user/Devel/stm32/libopencm3/lib/libopencm3_stm32f4.a(gpio_common_all.o)
 .group         0x0000000000000000        0x8 /home/user/Devel/stm32/libopencm3/lib/libopencm3_stm32f4.a(gpio_common_all.o)
 .group         0x0000000000000000        0x8 /home/user/Devel/stm32/libopencm3/lib/libopencm3_stm32f4.a(gpio_common_all.o)
 .group         0x0000000000000000        0x8 /home/user/Devel/stm32/libopencm3/lib/libopencm3_stm32f4.a(gpio_common_all.o)
 .group         0x0000000000000000        0x8 /home/user/Devel/stm32/libopencm3/lib/libopencm3_stm32f4.a(gpio_common_all.o)
 .debug_macro   0x0000000000000000      0x88c /home/user/Devel/stm32/libopencm3/lib/libopencm3_stm32f4.a(gpio_common_all.o)
 .debug_macro   0x0000000000000000       0x22 /home/user/Devel/stm32/libopencm3/lib/libopencm3_stm32f4.a(gpio_common_all.o)
 .debug_macro   0x0000000000000000       0x87 /home/user/Devel/stm32/libopencm3/lib/libopencm3_stm32f4.a(gpio_common_all.o)
 .debug_macro   0x0000000000000000       0x44 /home/user/Devel/stm32/libopencm3/lib/libopencm3_stm32f4.a(gpio_common_all.o)
 .debug_macro   0x0000000000000000       0xfd /home/user/Devel/stm32/libopencm3/lib/libopencm3_stm32f4.a(gpio_common_all.o)
 .debug_macro   0x0000000000000000       0x5e /home/user/Devel/stm32/libopencm3/lib/libopencm3_stm32f4.a(gpio_common_all.o)
 .debug_macro   0x0000000000000000      0x1df /home/user/Devel/stm32/libopencm3/lib/libopencm3_stm32f4.a(gpio_common_all.o)
 .debug_macro   0x0000000000000000       0x22 /home/user/Devel/stm32/libopencm3/lib/libopencm3_stm32f4.a(gpio_common_all.o)
 .debug_macro   0x0000000000000000       0xfa /home/user/Devel/stm32/libopencm3/lib/libopencm3_stm32f4.a(gpio_common_all.o)
 .debug_macro   0x0000000000000000       0x58 /home/user/Devel/stm32/libopencm3/lib/libopencm3_stm32f4.a(gpio_common_all.o)
 .debug_macro   0x0000000000000000      0x26d /home/user/Devel/stm32/libopencm3/lib/libopencm3_stm32f4.a(gpio_common_all.o)
 .group         0x0000000000000000        0x8 /home/user/Devel/stm32/libopencm3/lib/libopencm3_stm32f4.a(gpio_common_f0234.o)
 .group         0x0000000000000000        0x8 /home/user/Devel/stm32/libopencm3/lib/libopencm3_stm32f4.a(gpio_common_f0234.o)
 .group         0x0000000000000000        0x8 /home/user/Devel/stm32/libopencm3/lib/libopencm3_stm32f4.a(gpio_common_f0234.o)
 .group         0x0000000000000000        0x8 /home/user/Devel/stm32/libopencm3/lib/libopencm3_stm32f4.a(gpio_common_f0234.o)
 .group         0x0000000000000000        0x8 /home/user/Devel/stm32/libopencm3/lib/libopencm3_stm32f4.a(gpio_common_f0234.o)
 .group         0x0000000000000000        0x8 /home/user/Devel/stm32/libopencm3/lib/libopencm3_stm32f4.a(gpio_common_f0234.o)
 .group         0x0000000000000000        0x8 /home/user/Devel/stm32/libopencm3/lib/libopencm3_stm32f4.a(gpio_common_f0234.o)
 .group         0x0000000000000000        0x8 /home/user/Devel/stm32/libopencm3/lib/libopencm3_stm32f4.a(gpio_common_f0234.o)
 .group         0x0000000000000000        0x8 /home/user/Devel/stm32/libopencm3/lib/libopencm3_stm32f4.a(gpio_common_f0234.o)
 .group         0x0000000000000000        0x8 /home/user/Devel/stm32/libopencm3/lib/libopencm3_stm32f4.a(gpio_common_f0234.o)
 .group         0x0000000000000000        0x8 /home/user/Devel/stm32/libopencm3/lib/libopencm3_stm32f4.a(gpio_common_f0234.o)
 .group         0x0000000000000000        0x8 /home/user/Devel/stm32/libopencm3/lib/libopencm3_stm32f4.a(gpio_common_f0234.o)
 .group         0x0000000000000000        0x8 /home/user/Devel/stm32/libopencm3/lib/libopencm3_stm32f4.a(gpio_common_f0234.o)
 .group         0x0000000000000000        0x8 /home/user/Devel/stm32/libopencm3/lib/libopencm3_stm32f4.a(gpio_common_f0234.o)
 .debug_macro   0x0000000000000000      0x88c /home/user/Devel/stm32/libopencm3/lib/libopencm3_stm32f4.a(gpio_common_f0234.o)
 .debug_macro   0x0000000000000000       0x22 /home/user/Devel/stm32/libopencm3/lib/libopencm3_stm32f4.a(gpio_common_f0234.o)
 .debug_macro   0x0000000000000000       0x87 /home/user/Devel/stm32/libopencm3/lib/libopencm3_stm32f4.a(gpio_common_f0234.o)
 .debug_macro   0x0000000000000000       0x44 /home/user/Devel/stm32/libopencm3/lib/libopencm3_stm32f4.a(gpio_common_f0234.o)
 .debug_macro   0x0000000000000000       0xfd /home/user/Devel/stm32/libopencm3/lib/libopencm3_stm32f4.a(gpio_common_f0234.o)
 .debug_macro   0x0000000000000000       0x5e /home/user/Devel/stm32/libopencm3/lib/libopencm3_stm32f4.a(gpio_common_f0234.o)
 .debug_macro   0x0000000000000000      0x1df /home/user/Devel/stm32/libopencm3/lib/libopencm3_stm32f4.a(gpio_common_f0234.o)
 .debug_macro   0x0000000000000000       0x22 /home/user/Devel/stm32/libopencm3/lib/libopencm3_stm32f4.a(gpio_common_f0234.o)
 .debug_macro   0x0000000000000000       0xfa /home/user/Devel/stm32/libopencm3/lib/libopencm3_stm32f4.a(gpio_common_f0234.o)
 .debug_macro   0x0000000000000000       0x58 /home/user/Devel/stm32/libopencm3/lib/libopencm3_stm32f4.a(gpio_common_f0234.o)
 .debug_macro   0x0000000000000000      0x26d /home/user/Devel/stm32/libopencm3/lib/libopencm3_stm32f4.a(gpio_common_f0234.o)
 .debug_macro   0x0000000000000000       0x76 /home/user/Devel/stm32/libopencm3/lib/libopencm3_stm32f4.a(gpio_common_f0234.o)
 .debug_macro   0x0000000000000000      0x2e6 /home/user/Devel/stm32/libopencm3/lib/libopencm3_stm32f4.a(gpio_common_f0234.o)
 .debug_macro   0x0000000000000000      0x14e /home/user/Devel/stm32/libopencm3/lib/libopencm3_stm32f4.a(gpio_common_f0234.o)
 .group         0x0000000000000000        0x8 /home/user/Devel/stm32/libopencm3/lib/libopencm3_stm32f4.a(i2c_common_v1.o)
 .group         0x0000000000000000        0x8 /home/user/Devel/stm32/libopencm3/lib/libopencm3_stm32f4.a(i2c_common_v1.o)
 .group         0x0000000000000000        0x8 /home/user/Devel/stm32/libopencm3/lib/libopencm3_stm32f4.a(i2c_common_v1.o)
 .group         0x0000000000000000        0x8 /home/user/Devel/stm32/libopencm3/lib/libopencm3_stm32f4.a(i2c_common_v1.o)
 .group         0x0000000000000000        0x8 /home/user/Devel/stm32/libopencm3/lib/libopencm3_stm32f4.a(i2c_common_v1.o)
 .group         0x0000000000000000        0x8 /home/user/Devel/stm32/libopencm3/lib/libopencm3_stm32f4.a(i2c_common_v1.o)
 .group         0x0000000000000000        0x8 /home/user/Devel/stm32/libopencm3/lib/libopencm3_stm32f4.a(i2c_common_v1.o)
 .group         0x0000000000000000        0x8 /home/user/Devel/stm32/libopencm3/lib/libopencm3_stm32f4.a(i2c_common_v1.o)
 .group         0x0000000000000000        0x8 /home/user/Devel/stm32/libopencm3/lib/libopencm3_stm32f4.a(i2c_common_v1.o)
 .group         0x0000000000000000        0x8 /home/user/Devel/stm32/libopencm3/lib/libopencm3_stm32f4.a(i2c_common_v1.o)
 .group         0x0000000000000000        0x8 /home/user/Devel/stm32/libopencm3/lib/libopencm3_stm32f4.a(i2c_common_v1.o)
 .group         0x0000000000000000        0x8 /home/user/Devel/stm32/libopencm3/lib/libopencm3_stm32f4.a(i2c_common_v1.o)
 .group         0x0000000000000000        0x8 /home/user/Devel/stm32/libopencm3/lib/libopencm3_stm32f4.a(i2c_common_v1.o)
 .group         0x0000000000000000        0x8 /home/user/Devel/stm32/libopencm3/lib/libopencm3_stm32f4.a(i2c_common_v1.o)
 .debug_macro   0x0000000000000000      0x88c /home/user/Devel/stm32/libopencm3/lib/libopencm3_stm32f4.a(i2c_common_v1.o)
 .debug_macro   0x0000000000000000       0x22 /home/user/Devel/stm32/libopencm3/lib/libopencm3_stm32f4.a(i2c_common_v1.o)
 .debug_macro   0x0000000000000000       0x87 /home/user/Devel/stm32/libopencm3/lib/libopencm3_stm32f4.a(i2c_common_v1.o)
 .debug_macro   0x0000000000000000       0x44 /home/user/Devel/stm32/libopencm3/lib/libopencm3_stm32f4.a(i2c_common_v1.o)
 .debug_macro   0x0000000000000000       0xfd /home/user/Devel/stm32/libopencm3/lib/libopencm3_stm32f4.a(i2c_common_v1.o)
 .debug_macro   0x0000000000000000       0x5e /home/user/Devel/stm32/libopencm3/lib/libopencm3_stm32f4.a(i2c_common_v1.o)
 .debug_macro   0x0000000000000000      0x1df /home/user/Devel/stm32/libopencm3/lib/libopencm3_stm32f4.a(i2c_common_v1.o)
 .debug_macro   0x0000000000000000       0x22 /home/user/Devel/stm32/libopencm3/lib/libopencm3_stm32f4.a(i2c_common_v1.o)
 .debug_macro   0x0000000000000000       0xfa /home/user/Devel/stm32/libopencm3/lib/libopencm3_stm32f4.a(i2c_common_v1.o)
 .debug_macro   0x0000000000000000       0x58 /home/user/Devel/stm32/libopencm3/lib/libopencm3_stm32f4.a(i2c_common_v1.o)
 .debug_macro   0x0000000000000000      0x26d /home/user/Devel/stm32/libopencm3/lib/libopencm3_stm32f4.a(i2c_common_v1.o)
 .debug_macro   0x0000000000000000      0xb3f /home/user/Devel/stm32/libopencm3/lib/libopencm3_stm32f4.a(i2c_common_v1.o)
 .group         0x0000000000000000        0x8 /home/user/Devel/stm32/libopencm3/lib/libopencm3_stm32f4.a(spi_common_all.o)
 .group         0x0000000000000000        0x8 /home/user/Devel/stm32/libopencm3/lib/libopencm3_stm32f4.a(spi_common_all.o)
 .group         0x0000000000000000        0x8 /home/user/Devel/stm32/libopencm3/lib/libopencm3_stm32f4.a(spi_common_all.o)
 .group         0x0000000000000000        0x8 /home/user/Devel/stm32/libopencm3/lib/libopencm3_stm32f4.a(spi_common_all.o)
 .group         0x0000000000000000        0x8 /home/user/Devel/stm32/libopencm3/lib/libopencm3_stm32f4.a(spi_common_all.o)
 .group         0x0000000000000000        0x8 /home/user/Devel/stm32/libopencm3/lib/libopencm3_stm32f4.a(spi_common_all.o)
 .group         0x0000000000000000        0x8 /home/user/Devel/stm32/libopencm3/lib/libopencm3_stm32f4.a(spi_common_all.o)
 .group         0x0000000000000000        0x8 /home/user/Devel/stm32/libopencm3/lib/libopencm3_stm32f4.a(spi_common_all.o)
 .group         0x0000000000000000        0x8 /home/user/Devel/stm32/libopencm3/lib/libopencm3_stm32f4.a(spi_common_all.o)
 .group         0x0000000000000000        0x8 /home/user/Devel/stm32/libopencm3/lib/libopencm3_stm32f4.a(spi_common_all.o)
 .group         0x0000000000000000        0x8 /home/user/Devel/stm32/libopencm3/lib/libopencm3_stm32f4.a(spi_common_all.o)
 .group         0x0000000000000000        0x8 /home/user/Devel/stm32/libopencm3/lib/libopencm3_stm32f4.a(spi_common_all.o)
 .group         0x0000000000000000        0x8 /home/user/Devel/stm32/libopencm3/lib/libopencm3_stm32f4.a(spi_common_all.o)
 .group         0x0000000000000000        0x8 /home/user/Devel/stm32/libopencm3/lib/libopencm3_stm32f4.a(spi_common_all.o)
 .group         0x0000000000000000        0x8 /home/user/Devel/stm32/libopencm3/lib/libopencm3_stm32f4.a(spi_common_all.o)
 .debug_macro   0x0000000000000000      0x88c /home/user/Devel/stm32/libopencm3/lib/libopencm3_stm32f4.a(spi_common_all.o)
 .debug_macro   0x0000000000000000       0x22 /home/user/Devel/stm32/libopencm3/lib/libopencm3_stm32f4.a(spi_common_all.o)
 .debug_macro   0x0000000000000000       0x87 /home/user/Devel/stm32/libopencm3/lib/libopencm3_stm32f4.a(spi_common_all.o)
 .debug_macro   0x0000000000000000       0x44 /home/user/Devel/stm32/libopencm3/lib/libopencm3_stm32f4.a(spi_common_all.o)
 .debug_macro   0x0000000000000000       0xfd /home/user/Devel/stm32/libopencm3/lib/libopencm3_stm32f4.a(spi_common_all.o)
 .debug_macro   0x0000000000000000       0x5e /home/user/Devel/stm32/libopencm3/lib/libopencm3_stm32f4.a(spi_common_all.o)
 .debug_macro   0x0000000000000000      0x1df /home/user/Devel/stm32/libopencm3/lib/libopencm3_stm32f4.a(spi_common_all.o)
 .debug_macro   0x0000000000000000       0x22 /home/user/Devel/stm32/libopencm3/lib/libopencm3_stm32f4.a(spi_common_all.o)
 .debug_macro   0x0000000000000000       0xfa /home/user/Devel/stm32/libopencm3/lib/libopencm3_stm32f4.a(spi_common_all.o)
 .debug_macro   0x0000000000000000       0x58 /home/user/Devel/stm32/libopencm3/lib/libopencm3_stm32f4.a(spi_common_all.o)
 .debug_macro   0x0000000000000000      0x26d /home/user/Devel/stm32/libopencm3/lib/libopencm3_stm32f4.a(spi_common_all.o)
 .debug_macro   0x0000000000000000      0xb3f /home/user/Devel/stm32/libopencm3/lib/libopencm3_stm32f4.a(spi_common_all.o)
 .group         0x0000000000000000        0x8 /home/user/Devel/stm32/libopencm3/lib/libopencm3_stm32f4.a(spi_common_l1f124.o)
 .group         0x0000000000000000        0x8 /home/user/Devel/stm32/libopencm3/lib/libopencm3_stm32f4.a(spi_common_l1f124.o)
 .group         0x0000000000000000        0x8 /home/user/Devel/stm32/libopencm3/lib/libopencm3_stm32f4.a(spi_common_l1f124.o)
 .group         0x0000000000000000        0x8 /home/user/Devel/stm32/libopencm3/lib/libopencm3_stm32f4.a(spi_common_l1f124.o)
 .group         0x0000000000000000        0x8 /home/user/Devel/stm32/libopencm3/lib/libopencm3_stm32f4.a(spi_common_l1f124.o)
 .group         0x0000000000000000        0x8 /home/user/Devel/stm32/libopencm3/lib/libopencm3_stm32f4.a(spi_common_l1f124.o)
 .group         0x0000000000000000        0x8 /home/user/Devel/stm32/libopencm3/lib/libopencm3_stm32f4.a(spi_common_l1f124.o)
 .group         0x0000000000000000        0x8 /home/user/Devel/stm32/libopencm3/lib/libopencm3_stm32f4.a(spi_common_l1f124.o)
 .group         0x0000000000000000        0x8 /home/user/Devel/stm32/libopencm3/lib/libopencm3_stm32f4.a(spi_common_l1f124.o)
 .group         0x0000000000000000        0x8 /home/user/Devel/stm32/libopencm3/lib/libopencm3_stm32f4.a(spi_common_l1f124.o)
 .group         0x0000000000000000        0x8 /home/user/Devel/stm32/libopencm3/lib/libopencm3_stm32f4.a(spi_common_l1f124.o)
 .group         0x0000000000000000        0x8 /home/user/Devel/stm32/libopencm3/lib/libopencm3_stm32f4.a(spi_common_l1f124.o)
 .group         0x0000000000000000        0x8 /home/user/Devel/stm32/libopencm3/lib/libopencm3_stm32f4.a(spi_common_l1f124.o)
 .group         0x0000000000000000        0x8 /home/user/Devel/stm32/libopencm3/lib/libopencm3_stm32f4.a(spi_common_l1f124.o)
 .group         0x0000000000000000        0x8 /home/user/Devel/stm32/libopencm3/lib/libopencm3_stm32f4.a(spi_common_l1f124.o)
 .debug_macro   0x0000000000000000      0x88c /home/user/Devel/stm32/libopencm3/lib/libopencm3_stm32f4.a(spi_common_l1f124.o)
 .debug_macro   0x0000000000000000       0x22 /home/user/Devel/stm32/libopencm3/lib/libopencm3_stm32f4.a(spi_common_l1f124.o)
 .debug_macro   0x0000000000000000       0x87 /home/user/Devel/stm32/libopencm3/lib/libopencm3_stm32f4.a(spi_common_l1f124.o)
 .debug_macro   0x0000000000000000       0x44 /home/user/Devel/stm32/libopencm3/lib/libopencm3_stm32f4.a(spi_common_l1f124.o)
 .debug_macro   0x0000000000000000       0xfd /home/user/Devel/stm32/libopencm3/lib/libopencm3_stm32f4.a(spi_common_l1f124.o)
 .debug_macro   0x0000000000000000       0x5e /home/user/Devel/stm32/libopencm3/lib/libopencm3_stm32f4.a(spi_common_l1f124.o)
 .debug_macro   0x0000000000000000      0x1df /home/user/Devel/stm32/libopencm3/lib/libopencm3_stm32f4.a(spi_common_l1f124.o)
 .debug_macro   0x0000000000000000       0x22 /home/user/Devel/stm32/libopencm3/lib/libopencm3_stm32f4.a(spi_common_l1f124.o)
 .debug_macro   0x0000000000000000       0xfa /home/user/Devel/stm32/libopencm3/lib/libopencm3_stm32f4.a(spi_common_l1f124.o)
 .debug_macro   0x0000000000000000       0x58 /home/user/Devel/stm32/libopencm3/lib/libopencm3_stm32f4.a(spi_common_l1f124.o)
 .debug_macro   0x0000000000000000      0x26d /home/user/Devel/stm32/libopencm3/lib/libopencm3_stm32f4.a(spi_common_l1f124.o)
 .debug_macro   0x0000000000000000      0x2eb /home/user/Devel/stm32/libopencm3/lib/libopencm3_stm32f4.a(spi_common_l1f124.o)
 .debug_macro   0x0000000000000000       0x16 /home/user/Devel/stm32/libopencm3/lib/libopencm3_stm32f4.a(spi_common_l1f124.o)
 .debug_macro   0x0000000000000000       0x1c /home/user/Devel/stm32/libopencm3/lib/libopencm3_stm32f4.a(spi_common_l1f124.o)
 .debug_macro   0x0000000000000000      0xb3f /home/user/Devel/stm32/libopencm3/lib/libopencm3_stm32f4.a(spi_common_l1f124.o)
 .group         0x0000000000000000        0x8 /home/user/Devel/stm32/libopencm3/lib/libopencm3_stm32f4.a(usart_common_all.o)
 .group         0x0000000000000000        0x8 /home/user/Devel/stm32/libopencm3/lib/libopencm3_stm32f4.a(usart_common_all.o)
 .group         0x0000000000000000        0x8 /home/user/Devel/stm32/libopencm3/lib/libopencm3_stm32f4.a(usart_common_all.o)
 .group         0x0000000000000000        0x8 /home/user/Devel/stm32/libopencm3/lib/libopencm3_stm32f4.a(usart_common_all.o)
 .group         0x0000000000000000        0x8 /home/user/Devel/stm32/libopencm3/lib/libopencm3_stm32f4.a(usart_common_all.o)
 .group         0x0000000000000000        0x8 /home/user/Devel/stm32/libopencm3/lib/libopencm3_stm32f4.a(usart_common_all.o)
 .group         0x0000000000000000        0x8 /home/user/Devel/stm32/libopencm3/lib/libopencm3_stm32f4.a(usart_common_all.o)
 .group         0x0000000000000000        0x8 /home/user/Devel/stm32/libopencm3/lib/libopencm3_stm32f4.a(usart_common_all.o)
 .group         0x0000000000000000        0x8 /home/user/Devel/stm32/libopencm3/lib/libopencm3_stm32f4.a(usart_common_all.o)
 .group         0x0000000000000000        0x8 /home/user/Devel/stm32/libopencm3/lib/libopencm3_stm32f4.a(usart_common_all.o)
 .group         0x0000000000000000        0x8 /home/user/Devel/stm32/libopencm3/lib/libopencm3_stm32f4.a(usart_common_all.o)
 .group         0x0000000000000000        0x8 /home/user/Devel/stm32/libopencm3/lib/libopencm3_stm32f4.a(usart_common_all.o)
 .group         0x0000000000000000        0x8 /home/user/Devel/stm32/libopencm3/lib/libopencm3_stm32f4.a(usart_common_all.o)
 .group         0x0000000000000000        0x8 /home/user/Devel/stm32/libopencm3/lib/libopencm3_stm32f4.a(usart_common_all.o)
 .group         0x0000000000000000        0x8 /home/user/Devel/stm32/libopencm3/lib/libopencm3_stm32f4.a(usart_common_all.o)
 .debug_macro   0x0000000000000000      0x88c /home/user/Devel/stm32/libopencm3/lib/libopencm3_stm32f4.a(usart_common_all.o)
 .debug_macro   0x0000000000000000       0x22 /home/user/Devel/stm32/libopencm3/lib/libopencm3_stm32f4.a(usart_common_all.o)
 .debug_macro   0x0000000000000000       0x87 /home/user/Devel/stm32/libopencm3/lib/libopencm3_stm32f4.a(usart_common_all.o)
 .debug_macro   0x0000000000000000       0x44 /home/user/Devel/stm32/libopencm3/lib/libopencm3_stm32f4.a(usart_common_all.o)
 .debug_macro   0x0000000000000000       0xfd /home/user/Devel/stm32/libopencm3/lib/libopencm3_stm32f4.a(usart_common_all.o)
 .debug_macro   0x0000000000000000       0x5e /home/user/Devel/stm32/libopencm3/lib/libopencm3_stm32f4.a(usart_common_all.o)
 .debug_macro   0x0000000000000000      0x1df /home/user/Devel/stm32/libopencm3/lib/libopencm3_stm32f4.a(usart_common_all.o)
 .debug_macro   0x0000000000000000       0x22 /home/user/Devel/stm32/libopencm3/lib/libopencm3_stm32f4.a(usart_common_all.o)
 .debug_macro   0x0000000000000000       0xfa /home/user/Devel/stm32/libopencm3/lib/libopencm3_stm32f4.a(usart_common_all.o)
 .debug_macro   0x0000000000000000       0x58 /home/user/Devel/stm32/libopencm3/lib/libopencm3_stm32f4.a(usart_common_all.o)
 .debug_macro   0x0000000000000000      0x26d /home/user/Devel/stm32/libopencm3/lib/libopencm3_stm32f4.a(usart_common_all.o)
 .debug_macro   0x0000000000000000      0xb3f /home/user/Devel/stm32/libopencm3/lib/libopencm3_stm32f4.a(usart_common_all.o)
 .group         0x0000000000000000        0x8 /home/user/Devel/stm32/libopencm3/lib/libopencm3_stm32f4.a(usart_common_f124.o)
 .group         0x0000000000000000        0x8 /home/user/Devel/stm32/libopencm3/lib/libopencm3_stm32f4.a(usart_common_f124.o)
 .group         0x0000000000000000        0x8 /home/user/Devel/stm32/libopencm3/lib/libopencm3_stm32f4.a(usart_common_f124.o)
 .group         0x0000000000000000        0x8 /home/user/Devel/stm32/libopencm3/lib/libopencm3_stm32f4.a(usart_common_f124.o)
 .group         0x0000000000000000        0x8 /home/user/Devel/stm32/libopencm3/lib/libopencm3_stm32f4.a(usart_common_f124.o)
 .group         0x0000000000000000        0x8 /home/user/Devel/stm32/libopencm3/lib/libopencm3_stm32f4.a(usart_common_f124.o)
 .group         0x0000000000000000        0x8 /home/user/Devel/stm32/libopencm3/lib/libopencm3_stm32f4.a(usart_common_f124.o)
 .group         0x0000000000000000        0x8 /home/user/Devel/stm32/libopencm3/lib/libopencm3_stm32f4.a(usart_common_f124.o)
 .group         0x0000000000000000        0x8 /home/user/Devel/stm32/libopencm3/lib/libopencm3_stm32f4.a(usart_common_f124.o)
 .group         0x0000000000000000        0x8 /home/user/Devel/stm32/libopencm3/lib/libopencm3_stm32f4.a(usart_common_f124.o)
 .group         0x0000000000000000        0x8 /home/user/Devel/stm32/libopencm3/lib/libopencm3_stm32f4.a(usart_common_f124.o)
 .group         0x0000000000000000        0x8 /home/user/Devel/stm32/libopencm3/lib/libopencm3_stm32f4.a(usart_common_f124.o)
 .group         0x0000000000000000        0x8 /home/user/Devel/stm32/libopencm3/lib/libopencm3_stm32f4.a(usart_common_f124.o)
 .group         0x0000000000000000        0x8 /home/user/Devel/stm32/libopencm3/lib/libopencm3_stm32f4.a(usart_common_f124.o)
 .group         0x0000000000000000        0x8 /home/user/Devel/stm32/libopencm3/lib/libopencm3_stm32f4.a(usart_common_f124.o)
 .debug_macro   0x0000000000000000      0x88c /home/user/Devel/stm32/libopencm3/lib/libopencm3_stm32f4.a(usart_common_f124.o)
 .debug_macro   0x0000000000000000       0x22 /home/user/Devel/stm32/libopencm3/lib/libopencm3_stm32f4.a(usart_common_f124.o)
 .debug_macro   0x0000000000000000       0x87 /home/user/Devel/stm32/libopencm3/lib/libopencm3_stm32f4.a(usart_common_f124.o)
 .debug_macro   0x0000000000000000       0x44 /home/user/Devel/stm32/libopencm3/lib/libopencm3_stm32f4.a(usart_common_f124.o)
 .debug_macro   0x0000000000000000       0xfd /home/user/Devel/stm32/libopencm3/lib/libopencm3_stm32f4.a(usart_common_f124.o)
 .debug_macro   0x0000000000000000       0x5e /home/user/Devel/stm32/libopencm3/lib/libopencm3_stm32f4.a(usart_common_f124.o)
 .debug_macro   0x0000000000000000      0x1df /home/user/Devel/stm32/libopencm3/lib/libopencm3_stm32f4.a(usart_common_f124.o)
 .debug_macro   0x0000000000000000       0x22 /home/user/Devel/stm32/libopencm3/lib/libopencm3_stm32f4.a(usart_common_f124.o)
 .debug_macro   0x0000000000000000       0xfa /home/user/Devel/stm32/libopencm3/lib/libopencm3_stm32f4.a(usart_common_f124.o)
 .debug_macro   0x0000000000000000       0x58 /home/user/Devel/stm32/libopencm3/lib/libopencm3_stm32f4.a(usart_common_f124.o)
 .debug_macro   0x0000000000000000      0x26d /home/user/Devel/stm32/libopencm3/lib/libopencm3_stm32f4.a(usart_common_f124.o)
 .debug_macro   0x0000000000000000       0x8e /home/user/Devel/stm32/libopencm3/lib/libopencm3_stm32f4.a(usart_common_f124.o)
 .debug_macro   0x0000000000000000      0x273 /home/user/Devel/stm32/libopencm3/lib/libopencm3_stm32f4.a(usart_common_f124.o)
 .debug_macro   0x0000000000000000       0xa0 /home/user/Devel/stm32/libopencm3/lib/libopencm3_stm32f4.a(usart_common_f124.o)
 .debug_macro   0x0000000000000000      0xb3f /home/user/Devel/stm32/libopencm3/lib/libopencm3_stm32f4.a(usart_common_f124.o)
 .group         0x0000000000000000        0x8 /home/user/Devel/stm32/libopencm3/lib/libopencm3_stm32f4.a(flash_common_f234.o)
 .group         0x0000000000000000        0x8 /home/user/Devel/stm32/libopencm3/lib/libopencm3_stm32f4.a(flash_common_f234.o)
 .group         0x0000000000000000        0x8 /home/user/Devel/stm32/libopencm3/lib/libopencm3_stm32f4.a(flash_common_f234.o)
 .group         0x0000000000000000        0x8 /home/user/Devel/stm32/libopencm3/lib/libopencm3_stm32f4.a(flash_common_f234.o)
 .group         0x0000000000000000        0x8 /home/user/Devel/stm32/libopencm3/lib/libopencm3_stm32f4.a(flash_common_f234.o)
 .group         0x0000000000000000        0x8 /home/user/Devel/stm32/libopencm3/lib/libopencm3_stm32f4.a(flash_common_f234.o)
 .group         0x0000000000000000        0x8 /home/user/Devel/stm32/libopencm3/lib/libopencm3_stm32f4.a(flash_common_f234.o)
 .group         0x0000000000000000        0x8 /home/user/Devel/stm32/libopencm3/lib/libopencm3_stm32f4.a(flash_common_f234.o)
 .group         0x0000000000000000        0x8 /home/user/Devel/stm32/libopencm3/lib/libopencm3_stm32f4.a(flash_common_f234.o)
 .group         0x0000000000000000        0x8 /home/user/Devel/stm32/libopencm3/lib/libopencm3_stm32f4.a(flash_common_f234.o)
 .group         0x0000000000000000        0x8 /home/user/Devel/stm32/libopencm3/lib/libopencm3_stm32f4.a(flash_common_f234.o)
 .group         0x0000000000000000        0x8 /home/user/Devel/stm32/libopencm3/lib/libopencm3_stm32f4.a(flash_common_f234.o)
 .group         0x0000000000000000        0x8 /home/user/Devel/stm32/libopencm3/lib/libopencm3_stm32f4.a(flash_common_f234.o)
 .debug_macro   0x0000000000000000      0x88c /home/user/Devel/stm32/libopencm3/lib/libopencm3_stm32f4.a(flash_common_f234.o)
 .debug_macro   0x0000000000000000       0x22 /home/user/Devel/stm32/libopencm3/lib/libopencm3_stm32f4.a(flash_common_f234.o)
 .debug_macro   0x0000000000000000       0x87 /home/user/Devel/stm32/libopencm3/lib/libopencm3_stm32f4.a(flash_common_f234.o)
 .debug_macro   0x0000000000000000       0x44 /home/user/Devel/stm32/libopencm3/lib/libopencm3_stm32f4.a(flash_common_f234.o)
 .debug_macro   0x0000000000000000       0xfd /home/user/Devel/stm32/libopencm3/lib/libopencm3_stm32f4.a(flash_common_f234.o)
 .debug_macro   0x0000000000000000       0x5e /home/user/Devel/stm32/libopencm3/lib/libopencm3_stm32f4.a(flash_common_f234.o)
 .debug_macro   0x0000000000000000      0x1df /home/user/Devel/stm32/libopencm3/lib/libopencm3_stm32f4.a(flash_common_f234.o)
 .debug_macro   0x0000000000000000       0x22 /home/user/Devel/stm32/libopencm3/lib/libopencm3_stm32f4.a(flash_common_f234.o)
 .debug_macro   0x0000000000000000       0xfa /home/user/Devel/stm32/libopencm3/lib/libopencm3_stm32f4.a(flash_common_f234.o)
 .debug_macro   0x0000000000000000       0x58 /home/user/Devel/stm32/libopencm3/lib/libopencm3_stm32f4.a(flash_common_f234.o)
 .debug_macro   0x0000000000000000      0x26d /home/user/Devel/stm32/libopencm3/lib/libopencm3_stm32f4.a(flash_common_f234.o)
 .debug_macro   0x0000000000000000       0x6a /home/user/Devel/stm32/libopencm3/lib/libopencm3_stm32f4.a(flash_common_f234.o)
 .debug_macro   0x0000000000000000       0xf4 /home/user/Devel/stm32/libopencm3/lib/libopencm3_stm32f4.a(flash_common_f234.o)
 .group         0x0000000000000000        0x8 /home/user/Devel/stm32/libopencm3/lib/libopencm3_stm32f4.a(flash_common_f24.o)
 .group         0x0000000000000000        0x8 /home/user/Devel/stm32/libopencm3/lib/libopencm3_stm32f4.a(flash_common_f24.o)
 .group         0x0000000000000000        0x8 /home/user/Devel/stm32/libopencm3/lib/libopencm3_stm32f4.a(flash_common_f24.o)
 .group         0x0000000000000000        0x8 /home/user/Devel/stm32/libopencm3/lib/libopencm3_stm32f4.a(flash_common_f24.o)
 .group         0x0000000000000000        0x8 /home/user/Devel/stm32/libopencm3/lib/libopencm3_stm32f4.a(flash_common_f24.o)
 .group         0x0000000000000000        0x8 /home/user/Devel/stm32/libopencm3/lib/libopencm3_stm32f4.a(flash_common_f24.o)
 .group         0x0000000000000000        0x8 /home/user/Devel/stm32/libopencm3/lib/libopencm3_stm32f4.a(flash_common_f24.o)
 .group         0x0000000000000000        0x8 /home/user/Devel/stm32/libopencm3/lib/libopencm3_stm32f4.a(flash_common_f24.o)
 .group         0x0000000000000000        0x8 /home/user/Devel/stm32/libopencm3/lib/libopencm3_stm32f4.a(flash_common_f24.o)
 .group         0x0000000000000000        0x8 /home/user/Devel/stm32/libopencm3/lib/libopencm3_stm32f4.a(flash_common_f24.o)
 .group         0x0000000000000000        0x8 /home/user/Devel/stm32/libopencm3/lib/libopencm3_stm32f4.a(flash_common_f24.o)
 .group         0x0000000000000000        0x8 /home/user/Devel/stm32/libopencm3/lib/libopencm3_stm32f4.a(flash_common_f24.o)
 .group         0x0000000000000000        0x8 /home/user/Devel/stm32/libopencm3/lib/libopencm3_stm32f4.a(flash_common_f24.o)
 .debug_macro   0x0000000000000000      0x88c /home/user/Devel/stm32/libopencm3/lib/libopencm3_stm32f4.a(flash_common_f24.o)
 .debug_macro   0x0000000000000000       0x22 /home/user/Devel/stm32/libopencm3/lib/libopencm3_stm32f4.a(flash_common_f24.o)
 .debug_macro   0x0000000000000000       0x87 /home/user/Devel/stm32/libopencm3/lib/libopencm3_stm32f4.a(flash_common_f24.o)
 .debug_macro   0x0000000000000000       0x44 /home/user/Devel/stm32/libopencm3/lib/libopencm3_stm32f4.a(flash_common_f24.o)
 .debug_macro   0x0000000000000000       0xfd /home/user/Devel/stm32/libopencm3/lib/libopencm3_stm32f4.a(flash_common_f24.o)
 .debug_macro   0x0000000000000000       0x5e /home/user/Devel/stm32/libopencm3/lib/libopencm3_stm32f4.a(flash_common_f24.o)
 .debug_macro   0x0000000000000000      0x1df /home/user/Devel/stm32/libopencm3/lib/libopencm3_stm32f4.a(flash_common_f24.o)
 .debug_macro   0x0000000000000000       0x22 /home/user/Devel/stm32/libopencm3/lib/libopencm3_stm32f4.a(flash_common_f24.o)
 .debug_macro   0x0000000000000000       0xfa /home/user/Devel/stm32/libopencm3/lib/libopencm3_stm32f4.a(flash_common_f24.o)
 .debug_macro   0x0000000000000000       0x58 /home/user/Devel/stm32/libopencm3/lib/libopencm3_stm32f4.a(flash_common_f24.o)
 .debug_macro   0x0000000000000000      0x26d /home/user/Devel/stm32/libopencm3/lib/libopencm3_stm32f4.a(flash_common_f24.o)
 .debug_macro   0x0000000000000000       0x6a /home/user/Devel/stm32/libopencm3/lib/libopencm3_stm32f4.a(flash_common_f24.o)
 .debug_macro   0x0000000000000000       0xf4 /home/user/Devel/stm32/libopencm3/lib/libopencm3_stm32f4.a(flash_common_f24.o)
 .group         0x0000000000000000        0x8 /home/user/Devel/stm32/libopencm3/lib/libopencm3_stm32f4.a(exti_common_all.o)
 .group         0x0000000000000000        0x8 /home/user/Devel/stm32/libopencm3/lib/libopencm3_stm32f4.a(exti_common_all.o)
 .group         0x0000000000000000        0x8 /home/user/Devel/stm32/libopencm3/lib/libopencm3_stm32f4.a(exti_common_all.o)
 .group         0x0000000000000000        0x8 /home/user/Devel/stm32/libopencm3/lib/libopencm3_stm32f4.a(exti_common_all.o)
 .group         0x0000000000000000        0x8 /home/user/Devel/stm32/libopencm3/lib/libopencm3_stm32f4.a(exti_common_all.o)
 .group         0x0000000000000000        0x8 /home/user/Devel/stm32/libopencm3/lib/libopencm3_stm32f4.a(exti_common_all.o)
 .group         0x0000000000000000        0x8 /home/user/Devel/stm32/libopencm3/lib/libopencm3_stm32f4.a(exti_common_all.o)
 .group         0x0000000000000000        0x8 /home/user/Devel/stm32/libopencm3/lib/libopencm3_stm32f4.a(exti_common_all.o)
 .group         0x0000000000000000        0x8 /home/user/Devel/stm32/libopencm3/lib/libopencm3_stm32f4.a(exti_common_all.o)
 .group         0x0000000000000000        0x8 /home/user/Devel/stm32/libopencm3/lib/libopencm3_stm32f4.a(exti_common_all.o)
 .group         0x0000000000000000        0x8 /home/user/Devel/stm32/libopencm3/lib/libopencm3_stm32f4.a(exti_common_all.o)
 .group         0x0000000000000000        0x8 /home/user/Devel/stm32/libopencm3/lib/libopencm3_stm32f4.a(exti_common_all.o)
 .group         0x0000000000000000        0x8 /home/user/Devel/stm32/libopencm3/lib/libopencm3_stm32f4.a(exti_common_all.o)
 .group         0x0000000000000000        0x8 /home/user/Devel/stm32/libopencm3/lib/libopencm3_stm32f4.a(exti_common_all.o)
 .group         0x0000000000000000        0x8 /home/user/Devel/stm32/libopencm3/lib/libopencm3_stm32f4.a(exti_common_all.o)
 .group         0x0000000000000000        0x8 /home/user/Devel/stm32/libopencm3/lib/libopencm3_stm32f4.a(exti_common_all.o)
 .debug_macro   0x0000000000000000      0x88c /home/user/Devel/stm32/libopencm3/lib/libopencm3_stm32f4.a(exti_common_all.o)
 .debug_macro   0x0000000000000000       0x22 /home/user/Devel/stm32/libopencm3/lib/libopencm3_stm32f4.a(exti_common_all.o)
 .debug_macro   0x0000000000000000       0x87 /home/user/Devel/stm32/libopencm3/lib/libopencm3_stm32f4.a(exti_common_all.o)
 .debug_macro   0x0000000000000000       0x44 /home/user/Devel/stm32/libopencm3/lib/libopencm3_stm32f4.a(exti_common_all.o)
 .debug_macro   0x0000000000000000       0xfd /home/user/Devel/stm32/libopencm3/lib/libopencm3_stm32f4.a(exti_common_all.o)
 .debug_macro   0x0000000000000000       0x5e /home/user/Devel/stm32/libopencm3/lib/libopencm3_stm32f4.a(exti_common_all.o)
 .debug_macro   0x0000000000000000      0x1df /home/user/Devel/stm32/libopencm3/lib/libopencm3_stm32f4.a(exti_common_all.o)
 .debug_macro   0x0000000000000000       0x22 /home/user/Devel/stm32/libopencm3/lib/libopencm3_stm32f4.a(exti_common_all.o)
 .debug_macro   0x0000000000000000       0xfa /home/user/Devel/stm32/libopencm3/lib/libopencm3_stm32f4.a(exti_common_all.o)
 .debug_macro   0x0000000000000000       0x58 /home/user/Devel/stm32/libopencm3/lib/libopencm3_stm32f4.a(exti_common_all.o)
 .debug_macro   0x0000000000000000      0x26d /home/user/Devel/stm32/libopencm3/lib/libopencm3_stm32f4.a(exti_common_all.o)
 .debug_macro   0x0000000000000000       0x76 /home/user/Devel/stm32/libopencm3/lib/libopencm3_stm32f4.a(exti_common_all.o)
 .debug_macro   0x0000000000000000      0x2e6 /home/user/Devel/stm32/libopencm3/lib/libopencm3_stm32f4.a(exti_common_all.o)
 .debug_macro   0x0000000000000000      0x14e /home/user/Devel/stm32/libopencm3/lib/libopencm3_stm32f4.a(exti_common_all.o)
 .group         0x0000000000000000        0x8 /home/user/Devel/stm32/libopencm3/lib/libopencm3_stm32f4.a(rcc_common_all.o)
 .group         0x0000000000000000        0x8 /home/user/Devel/stm32/libopencm3/lib/libopencm3_stm32f4.a(rcc_common_all.o)
 .group         0x0000000000000000        0x8 /home/user/Devel/stm32/libopencm3/lib/libopencm3_stm32f4.a(rcc_common_all.o)
 .group         0x0000000000000000        0x8 /home/user/Devel/stm32/libopencm3/lib/libopencm3_stm32f4.a(rcc_common_all.o)
 .group         0x0000000000000000        0x8 /home/user/Devel/stm32/libopencm3/lib/libopencm3_stm32f4.a(rcc_common_all.o)
 .group         0x0000000000000000        0x8 /home/user/Devel/stm32/libopencm3/lib/libopencm3_stm32f4.a(rcc_common_all.o)
 .group         0x0000000000000000        0x8 /home/user/Devel/stm32/libopencm3/lib/libopencm3_stm32f4.a(rcc_common_all.o)
 .group         0x0000000000000000        0x8 /home/user/Devel/stm32/libopencm3/lib/libopencm3_stm32f4.a(rcc_common_all.o)
 .group         0x0000000000000000        0x8 /home/user/Devel/stm32/libopencm3/lib/libopencm3_stm32f4.a(rcc_common_all.o)
 .group         0x0000000000000000        0x8 /home/user/Devel/stm32/libopencm3/lib/libopencm3_stm32f4.a(rcc_common_all.o)
 .group         0x0000000000000000        0x8 /home/user/Devel/stm32/libopencm3/lib/libopencm3_stm32f4.a(rcc_common_all.o)
 .group         0x0000000000000000        0x8 /home/user/Devel/stm32/libopencm3/lib/libopencm3_stm32f4.a(rcc_common_all.o)
 .debug_macro   0x0000000000000000      0x88c /home/user/Devel/stm32/libopencm3/lib/libopencm3_stm32f4.a(rcc_common_all.o)
 .debug_macro   0x0000000000000000       0x22 /home/user/Devel/stm32/libopencm3/lib/libopencm3_stm32f4.a(rcc_common_all.o)
 .debug_macro   0x0000000000000000       0x87 /home/user/Devel/stm32/libopencm3/lib/libopencm3_stm32f4.a(rcc_common_all.o)
 .debug_macro   0x0000000000000000       0x44 /home/user/Devel/stm32/libopencm3/lib/libopencm3_stm32f4.a(rcc_common_all.o)
 .debug_macro   0x0000000000000000       0xfd /home/user/Devel/stm32/libopencm3/lib/libopencm3_stm32f4.a(rcc_common_all.o)
 .debug_macro   0x0000000000000000       0x5e /home/user/Devel/stm32/libopencm3/lib/libopencm3_stm32f4.a(rcc_common_all.o)
 .debug_macro   0x0000000000000000      0x1df /home/user/Devel/stm32/libopencm3/lib/libopencm3_stm32f4.a(rcc_common_all.o)
 .debug_macro   0x0000000000000000       0x22 /home/user/Devel/stm32/libopencm3/lib/libopencm3_stm32f4.a(rcc_common_all.o)
 .debug_macro   0x0000000000000000       0xfa /home/user/Devel/stm32/libopencm3/lib/libopencm3_stm32f4.a(rcc_common_all.o)
 .debug_macro   0x0000000000000000       0x58 /home/user/Devel/stm32/libopencm3/lib/libopencm3_stm32f4.a(rcc_common_all.o)
 .debug_macro   0x0000000000000000      0x26d /home/user/Devel/stm32/libopencm3/lib/libopencm3_stm32f4.a(rcc_common_all.o)
 .debug_macro   0x0000000000000000      0xb3f /home/user/Devel/stm32/libopencm3/lib/libopencm3_stm32f4.a(rcc_common_all.o)
 .group         0x0000000000000000        0x8 /home/user/Devel/stm32/libopencm3/lib/libopencm3_stm32f4.a(usb.o)
 .group         0x0000000000000000        0x8 /home/user/Devel/stm32/libopencm3/lib/libopencm3_stm32f4.a(usb.o)
 .group         0x0000000000000000        0x8 /home/user/Devel/stm32/libopencm3/lib/libopencm3_stm32f4.a(usb.o)
 .group         0x0000000000000000        0x8 /home/user/Devel/stm32/libopencm3/lib/libopencm3_stm32f4.a(usb.o)
 .group         0x0000000000000000        0x8 /home/user/Devel/stm32/libopencm3/lib/libopencm3_stm32f4.a(usb.o)
 .group         0x0000000000000000        0x8 /home/user/Devel/stm32/libopencm3/lib/libopencm3_stm32f4.a(usb.o)
 .group         0x0000000000000000        0x8 /home/user/Devel/stm32/libopencm3/lib/libopencm3_stm32f4.a(usb.o)
 .group         0x0000000000000000        0x8 /home/user/Devel/stm32/libopencm3/lib/libopencm3_stm32f4.a(usb.o)
 .group         0x0000000000000000        0x8 /home/user/Devel/stm32/libopencm3/lib/libopencm3_stm32f4.a(usb.o)
 .group         0x0000000000000000        0x8 /home/user/Devel/stm32/libopencm3/lib/libopencm3_stm32f4.a(usb.o)
 .group         0x0000000000000000        0x8 /home/user/Devel/stm32/libopencm3/lib/libopencm3_stm32f4.a(usb.o)
 .group         0x0000000000000000        0x8 /home/user/Devel/stm32/libopencm3/lib/libopencm3_stm32f4.a(usb.o)
 .group         0x0000000000000000        0x8 /home/user/Devel/stm32/libopencm3/lib/libopencm3_stm32f4.a(usb.o)
 .group         0x0000000000000000        0x8 /home/user/Devel/stm32/libopencm3/lib/libopencm3_stm32f4.a(usb.o)
 .group         0x0000000000000000        0x8 /home/user/Devel/stm32/libopencm3/lib/libopencm3_stm32f4.a(usb.o)
 .group         0x0000000000000000        0x8 /home/user/Devel/stm32/libopencm3/lib/libopencm3_stm32f4.a(usb.o)
 .group         0x0000000000000000        0x8 /home/user/Devel/stm32/libopencm3/lib/libopencm3_stm32f4.a(usb.o)
 .group         0x0000000000000000        0x8 /home/user/Devel/stm32/libopencm3/lib/libopencm3_stm32f4.a(usb.o)
 .group         0x0000000000000000        0x8 /home/user/Devel/stm32/libopencm3/lib/libopencm3_stm32f4.a(usb.o)
 .group         0x0000000000000000        0x8 /home/user/Devel/stm32/libopencm3/lib/libopencm3_stm32f4.a(usb.o)
 .group         0x0000000000000000        0x8 /home/user/Devel/stm32/libopencm3/lib/libopencm3_stm32f4.a(usb.o)
 .group         0x0000000000000000        0x8 /home/user/Devel/stm32/libopencm3/lib/libopencm3_stm32f4.a(usb.o)
 .group         0x0000000000000000        0x8 /home/user/Devel/stm32/libopencm3/lib/libopencm3_stm32f4.a(usb.o)
 .group         0x0000000000000000        0x8 /home/user/Devel/stm32/libopencm3/lib/libopencm3_stm32f4.a(usb.o)
 .debug_macro   0x0000000000000000      0x88c /home/user/Devel/stm32/libopencm3/lib/libopencm3_stm32f4.a(usb.o)
 .debug_macro   0x0000000000000000       0x22 /home/user/Devel/stm32/libopencm3/lib/libopencm3_stm32f4.a(usb.o)
 .debug_macro   0x0000000000000000      0x174 /home/user/Devel/stm32/libopencm3/lib/libopencm3_stm32f4.a(usb.o)
 .debug_macro   0x0000000000000000       0xfd /home/user/Devel/stm32/libopencm3/lib/libopencm3_stm32f4.a(usb.o)
 .debug_macro   0x0000000000000000       0x5e /home/user/Devel/stm32/libopencm3/lib/libopencm3_stm32f4.a(usb.o)
 .debug_macro   0x0000000000000000      0x1df /home/user/Devel/stm32/libopencm3/lib/libopencm3_stm32f4.a(usb.o)
 .debug_macro   0x0000000000000000       0x22 /home/user/Devel/stm32/libopencm3/lib/libopencm3_stm32f4.a(usb.o)
 .debug_macro   0x0000000000000000       0xfa /home/user/Devel/stm32/libopencm3/lib/libopencm3_stm32f4.a(usb.o)
 .group         0x0000000000000000        0x8 /home/user/Devel/stm32/libopencm3/lib/libopencm3_stm32f4.a(usb_standard.o)
 .group         0x0000000000000000        0x8 /home/user/Devel/stm32/libopencm3/lib/libopencm3_stm32f4.a(usb_standard.o)
 .group         0x0000000000000000        0x8 /home/user/Devel/stm32/libopencm3/lib/libopencm3_stm32f4.a(usb_standard.o)
 .group         0x0000000000000000        0x8 /home/user/Devel/stm32/libopencm3/lib/libopencm3_stm32f4.a(usb_standard.o)
 .group         0x0000000000000000        0x8 /home/user/Devel/stm32/libopencm3/lib/libopencm3_stm32f4.a(usb_standard.o)
 .group         0x0000000000000000        0x8 /home/user/Devel/stm32/libopencm3/lib/libopencm3_stm32f4.a(usb_standard.o)
 .group         0x0000000000000000        0x8 /home/user/Devel/stm32/libopencm3/lib/libopencm3_stm32f4.a(usb_standard.o)
 .group         0x0000000000000000        0x8 /home/user/Devel/stm32/libopencm3/lib/libopencm3_stm32f4.a(usb_standard.o)
 .group         0x0000000000000000        0x8 /home/user/Devel/stm32/libopencm3/lib/libopencm3_stm32f4.a(usb_standard.o)
 .group         0x0000000000000000        0x8 /home/user/Devel/stm32/libopencm3/lib/libopencm3_stm32f4.a(usb_standard.o)
 .group         0x0000000000000000        0x8 /home/user/Devel/stm32/libopencm3/lib/libopencm3_stm32f4.a(usb_standard.o)
 .group         0x0000000000000000        0x8 /home/user/Devel/stm32/libopencm3/lib/libopencm3_stm32f4.a(usb_standard.o)
 .group         0x0000000000000000        0x8 /home/user/Devel/stm32/libopencm3/lib/libopencm3_stm32f4.a(usb_standard.o)
 .group         0x0000000000000000        0x8 /home/user/Devel/stm32/libopencm3/lib/libopencm3_stm32f4.a(usb_standard.o)
 .group         0x0000000000000000        0x8 /home/user/Devel/stm32/libopencm3/lib/libopencm3_stm32f4.a(usb_standard.o)
 .group         0x0000000000000000        0x8 /home/user/Devel/stm32/libopencm3/lib/libopencm3_stm32f4.a(usb_standard.o)
 .group         0x0000000000000000        0x8 /home/user/Devel/stm32/libopencm3/lib/libopencm3_stm32f4.a(usb_standard.o)
 .group         0x0000000000000000        0x8 /home/user/Devel/stm32/libopencm3/lib/libopencm3_stm32f4.a(usb_standard.o)
 .group         0x0000000000000000        0x8 /home/user/Devel/stm32/libopencm3/lib/libopencm3_stm32f4.a(usb_standard.o)
 .group         0x0000000000000000        0x8 /home/user/Devel/stm32/libopencm3/lib/libopencm3_stm32f4.a(usb_standard.o)
 .group         0x0000000000000000        0x8 /home/user/Devel/stm32/libopencm3/lib/libopencm3_stm32f4.a(usb_standard.o)
 .group         0x0000000000000000        0x8 /home/user/Devel/stm32/libopencm3/lib/libopencm3_stm32f4.a(usb_standard.o)
 .group         0x0000000000000000        0x8 /home/user/Devel/stm32/libopencm3/lib/libopencm3_stm32f4.a(usb_standard.o)
 .group         0x0000000000000000        0x8 /home/user/Devel/stm32/libopencm3/lib/libopencm3_stm32f4.a(usb_standard.o)
 .debug_macro   0x0000000000000000      0x88c /home/user/Devel/stm32/libopencm3/lib/libopencm3_stm32f4.a(usb_standard.o)
 .debug_macro   0x0000000000000000       0x22 /home/user/Devel/stm32/libopencm3/lib/libopencm3_stm32f4.a(usb_standard.o)
 .debug_macro   0x0000000000000000       0x4c /home/user/Devel/stm32/libopencm3/lib/libopencm3_stm32f4.a(usb_standard.o)
 .debug_macro   0x0000000000000000       0x8d /home/user/Devel/stm32/libopencm3/lib/libopencm3_stm32f4.a(usb_standard.o)
 .debug_macro   0x0000000000000000       0x35 /home/user/Devel/stm32/libopencm3/lib/libopencm3_stm32f4.a(usb_standard.o)
 .debug_macro   0x0000000000000000       0x9c /home/user/Devel/stm32/libopencm3/lib/libopencm3_stm32f4.a(usb_standard.o)
 .debug_macro   0x0000000000000000      0x174 /home/user/Devel/stm32/libopencm3/lib/libopencm3_stm32f4.a(usb_standard.o)
 .debug_macro   0x0000000000000000       0x4a /home/user/Devel/stm32/libopencm3/lib/libopencm3_stm32f4.a(usb_standard.o)
 .debug_macro   0x0000000000000000       0x52 /home/user/Devel/stm32/libopencm3/lib/libopencm3_stm32f4.a(usb_standard.o)
 .debug_macro   0x0000000000000000       0x1f /home/user/Devel/stm32/libopencm3/lib/libopencm3_stm32f4.a(usb_standard.o)
 .debug_macro   0x0000000000000000       0x43 /home/user/Devel/stm32/libopencm3/lib/libopencm3_stm32f4.a(usb_standard.o)
 .debug_macro   0x0000000000000000       0x20 /home/user/Devel/stm32/libopencm3/lib/libopencm3_stm32f4.a(usb_standard.o)
 .debug_macro   0x0000000000000000      0x187 /home/user/Devel/stm32/libopencm3/lib/libopencm3_stm32f4.a(usb_standard.o)
 .debug_macro   0x0000000000000000      0x30d /home/user/Devel/stm32/libopencm3/lib/libopencm3_stm32f4.a(usb_standard.o)
 .debug_macro   0x0000000000000000       0x10 /home/user/Devel/stm32/libopencm3/lib/libopencm3_stm32f4.a(usb_standard.o)
 .debug_macro   0x0000000000000000       0x35 /home/user/Devel/stm32/libopencm3/lib/libopencm3_stm32f4.a(usb_standard.o)
 .debug_macro   0x0000000000000000       0xfd /home/user/Devel/stm32/libopencm3/lib/libopencm3_stm32f4.a(usb_standard.o)
 .debug_macro   0x0000000000000000       0x5e /home/user/Devel/stm32/libopencm3/lib/libopencm3_stm32f4.a(usb_standard.o)
 .debug_macro   0x0000000000000000      0x1df /home/user/Devel/stm32/libopencm3/lib/libopencm3_stm32f4.a(usb_standard.o)
 .debug_macro   0x0000000000000000       0x22 /home/user/Devel/stm32/libopencm3/lib/libopencm3_stm32f4.a(usb_standard.o)
 .debug_macro   0x0000000000000000       0xfa /home/user/Devel/stm32/libopencm3/lib/libopencm3_stm32f4.a(usb_standard.o)
 .debug_macro   0x0000000000000000      0x196 /home/user/Devel/stm32/libopencm3/lib/libopencm3_stm32f4.a(usb_standard.o)
 .debug_macro   0x0000000000000000       0x10 /home/user/Devel/stm32/libopencm3/lib/libopencm3_stm32f4.a(usb_standard.o)
 .debug_macro   0x0000000000000000       0x1c /home/user/Devel/stm32/libopencm3/lib/libopencm3_stm32f4.a(usb_standard.o)
 .group         0x0000000000000000        0x8 /home/user/Devel/stm32/libopencm3/lib/libopencm3_stm32f4.a(usb_control.o)
 .group         0x0000000000000000        0x8 /home/user/Devel/stm32/libopencm3/lib/libopencm3_stm32f4.a(usb_control.o)
 .group         0x0000000000000000        0x8 /home/user/Devel/stm32/libopencm3/lib/libopencm3_stm32f4.a(usb_control.o)
 .group         0x0000000000000000        0x8 /home/user/Devel/stm32/libopencm3/lib/libopencm3_stm32f4.a(usb_control.o)
 .group         0x0000000000000000        0x8 /home/user/Devel/stm32/libopencm3/lib/libopencm3_stm32f4.a(usb_control.o)
 .group         0x0000000000000000        0x8 /home/user/Devel/stm32/libopencm3/lib/libopencm3_stm32f4.a(usb_control.o)
 .group         0x0000000000000000        0x8 /home/user/Devel/stm32/libopencm3/lib/libopencm3_stm32f4.a(usb_control.o)
 .group         0x0000000000000000        0x8 /home/user/Devel/stm32/libopencm3/lib/libopencm3_stm32f4.a(usb_control.o)
 .group         0x0000000000000000        0x8 /home/user/Devel/stm32/libopencm3/lib/libopencm3_stm32f4.a(usb_control.o)
 .group         0x0000000000000000        0x8 /home/user/Devel/stm32/libopencm3/lib/libopencm3_stm32f4.a(usb_control.o)
 .group         0x0000000000000000        0x8 /home/user/Devel/stm32/libopencm3/lib/libopencm3_stm32f4.a(usb_control.o)
 .group         0x0000000000000000        0x8 /home/user/Devel/stm32/libopencm3/lib/libopencm3_stm32f4.a(usb_control.o)
 .group         0x0000000000000000        0x8 /home/user/Devel/stm32/libopencm3/lib/libopencm3_stm32f4.a(usb_control.o)
 .group         0x0000000000000000        0x8 /home/user/Devel/stm32/libopencm3/lib/libopencm3_stm32f4.a(usb_control.o)
 .group         0x0000000000000000        0x8 /home/user/Devel/stm32/libopencm3/lib/libopencm3_stm32f4.a(usb_control.o)
 .group         0x0000000000000000        0x8 /home/user/Devel/stm32/libopencm3/lib/libopencm3_stm32f4.a(usb_control.o)
 .group         0x0000000000000000        0x8 /home/user/Devel/stm32/libopencm3/lib/libopencm3_stm32f4.a(usb_control.o)
 .group         0x0000000000000000        0x8 /home/user/Devel/stm32/libopencm3/lib/libopencm3_stm32f4.a(usb_control.o)
 .group         0x0000000000000000        0x8 /home/user/Devel/stm32/libopencm3/lib/libopencm3_stm32f4.a(usb_control.o)
 .group         0x0000000000000000        0x8 /home/user/Devel/stm32/libopencm3/lib/libopencm3_stm32f4.a(usb_control.o)
 .group         0x0000000000000000        0x8 /home/user/Devel/stm32/libopencm3/lib/libopencm3_stm32f4.a(usb_control.o)
 .group         0x0000000000000000        0x8 /home/user/Devel/stm32/libopencm3/lib/libopencm3_stm32f4.a(usb_control.o)
 .group         0x0000000000000000        0x8 /home/user/Devel/stm32/libopencm3/lib/libopencm3_stm32f4.a(usb_control.o)
 .group         0x0000000000000000        0x8 /home/user/Devel/stm32/libopencm3/lib/libopencm3_stm32f4.a(usb_control.o)
 .group         0x0000000000000000        0x8 /home/user/Devel/stm32/libopencm3/lib/libopencm3_stm32f4.a(usb_control.o)
 .group         0x0000000000000000        0x8 /home/user/Devel/stm32/libopencm3/lib/libopencm3_stm32f4.a(usb_control.o)
 .debug_macro   0x0000000000000000      0x88c /home/user/Devel/stm32/libopencm3/lib/libopencm3_stm32f4.a(usb_control.o)
 .debug_macro   0x0000000000000000       0x22 /home/user/Devel/stm32/libopencm3/lib/libopencm3_stm32f4.a(usb_control.o)
 .debug_macro   0x0000000000000000       0x4c /home/user/Devel/stm32/libopencm3/lib/libopencm3_stm32f4.a(usb_control.o)
 .debug_macro   0x0000000000000000       0x8d /home/user/Devel/stm32/libopencm3/lib/libopencm3_stm32f4.a(usb_control.o)
 .debug_macro   0x0000000000000000       0x35 /home/user/Devel/stm32/libopencm3/lib/libopencm3_stm32f4.a(usb_control.o)
 .debug_macro   0x0000000000000000       0x9c /home/user/Devel/stm32/libopencm3/lib/libopencm3_stm32f4.a(usb_control.o)
 .debug_macro   0x0000000000000000       0x4a /home/user/Devel/stm32/libopencm3/lib/libopencm3_stm32f4.a(usb_control.o)
 .debug_macro   0x0000000000000000       0x52 /home/user/Devel/stm32/libopencm3/lib/libopencm3_stm32f4.a(usb_control.o)
 .debug_macro   0x0000000000000000       0x1f /home/user/Devel/stm32/libopencm3/lib/libopencm3_stm32f4.a(usb_control.o)
 .debug_macro   0x0000000000000000       0x43 /home/user/Devel/stm32/libopencm3/lib/libopencm3_stm32f4.a(usb_control.o)
 .debug_macro   0x0000000000000000       0x20 /home/user/Devel/stm32/libopencm3/lib/libopencm3_stm32f4.a(usb_control.o)
 .debug_macro   0x0000000000000000      0x187 /home/user/Devel/stm32/libopencm3/lib/libopencm3_stm32f4.a(usb_control.o)
 .debug_macro   0x0000000000000000      0x30d /home/user/Devel/stm32/libopencm3/lib/libopencm3_stm32f4.a(usb_control.o)
 .debug_macro   0x0000000000000000       0xfd /home/user/Devel/stm32/libopencm3/lib/libopencm3_stm32f4.a(usb_control.o)
 .debug_macro   0x0000000000000000       0x5e /home/user/Devel/stm32/libopencm3/lib/libopencm3_stm32f4.a(usb_control.o)
 .debug_macro   0x0000000000000000      0x1df /home/user/Devel/stm32/libopencm3/lib/libopencm3_stm32f4.a(usb_control.o)
 .debug_macro   0x0000000000000000       0x22 /home/user/Devel/stm32/libopencm3/lib/libopencm3_stm32f4.a(usb_control.o)
 .debug_macro   0x0000000000000000       0xfa /home/user/Devel/stm32/libopencm3/lib/libopencm3_stm32f4.a(usb_control.o)
 .debug_macro   0x0000000000000000      0x196 /home/user/Devel/stm32/libopencm3/lib/libopencm3_stm32f4.a(usb_control.o)
 .debug_macro   0x0000000000000000       0x10 /home/user/Devel/stm32/libopencm3/lib/libopencm3_stm32f4.a(usb_control.o)
 .debug_macro   0x0000000000000000       0x1c /home/user/Devel/stm32/libopencm3/lib/libopencm3_stm32f4.a(usb_control.o)
 .group         0x0000000000000000        0x8 /home/user/Devel/stm32/libopencm3/lib/libopencm3_stm32f4.a(usb_f107.o)
 .group         0x0000000000000000        0x8 /home/user/Devel/stm32/libopencm3/lib/libopencm3_stm32f4.a(usb_f107.o)
 .group         0x0000000000000000        0x8 /home/user/Devel/stm32/libopencm3/lib/libopencm3_stm32f4.a(usb_f107.o)
 .group         0x0000000000000000        0x8 /home/user/Devel/stm32/libopencm3/lib/libopencm3_stm32f4.a(usb_f107.o)
 .group         0x0000000000000000        0x8 /home/user/Devel/stm32/libopencm3/lib/libopencm3_stm32f4.a(usb_f107.o)
 .group         0x0000000000000000        0x8 /home/user/Devel/stm32/libopencm3/lib/libopencm3_stm32f4.a(usb_f107.o)
 .group         0x0000000000000000        0x8 /home/user/Devel/stm32/libopencm3/lib/libopencm3_stm32f4.a(usb_f107.o)
 .group         0x0000000000000000        0x8 /home/user/Devel/stm32/libopencm3/lib/libopencm3_stm32f4.a(usb_f107.o)
 .group         0x0000000000000000        0x8 /home/user/Devel/stm32/libopencm3/lib/libopencm3_stm32f4.a(usb_f107.o)
 .group         0x0000000000000000        0x8 /home/user/Devel/stm32/libopencm3/lib/libopencm3_stm32f4.a(usb_f107.o)
 .group         0x0000000000000000        0x8 /home/user/Devel/stm32/libopencm3/lib/libopencm3_stm32f4.a(usb_f107.o)
 .group         0x0000000000000000        0x8 /home/user/Devel/stm32/libopencm3/lib/libopencm3_stm32f4.a(usb_f107.o)
 .group         0x0000000000000000        0x8 /home/user/Devel/stm32/libopencm3/lib/libopencm3_stm32f4.a(usb_f107.o)
 .group         0x0000000000000000        0x8 /home/user/Devel/stm32/libopencm3/lib/libopencm3_stm32f4.a(usb_f107.o)
 .group         0x0000000000000000        0x8 /home/user/Devel/stm32/libopencm3/lib/libopencm3_stm32f4.a(usb_f107.o)
 .group         0x0000000000000000        0x8 /home/user/Devel/stm32/libopencm3/lib/libopencm3_stm32f4.a(usb_f107.o)
 .group         0x0000000000000000        0x8 /home/user/Devel/stm32/libopencm3/lib/libopencm3_stm32f4.a(usb_f107.o)
 .group         0x0000000000000000        0x8 /home/user/Devel/stm32/libopencm3/lib/libopencm3_stm32f4.a(usb_f107.o)
 .group         0x0000000000000000        0x8 /home/user/Devel/stm32/libopencm3/lib/libopencm3_stm32f4.a(usb_f107.o)
 .group         0x0000000000000000        0x8 /home/user/Devel/stm32/libopencm3/lib/libopencm3_stm32f4.a(usb_f107.o)
 .group         0x0000000000000000        0x8 /home/user/Devel/stm32/libopencm3/lib/libopencm3_stm32f4.a(usb_f107.o)
 .group         0x0000000000000000        0x8 /home/user/Devel/stm32/libopencm3/lib/libopencm3_stm32f4.a(usb_f107.o)
 .group         0x0000000000000000        0x8 /home/user/Devel/stm32/libopencm3/lib/libopencm3_stm32f4.a(usb_f107.o)
 .group         0x0000000000000000        0x8 /home/user/Devel/stm32/libopencm3/lib/libopencm3_stm32f4.a(usb_f107.o)
 .group         0x0000000000000000        0x8 /home/user/Devel/stm32/libopencm3/lib/libopencm3_stm32f4.a(usb_f107.o)
 .group         0x0000000000000000        0x8 /home/user/Devel/stm32/libopencm3/lib/libopencm3_stm32f4.a(usb_f107.o)
 .group         0x0000000000000000        0x8 /home/user/Devel/stm32/libopencm3/lib/libopencm3_stm32f4.a(usb_f107.o)
 .group         0x0000000000000000        0x8 /home/user/Devel/stm32/libopencm3/lib/libopencm3_stm32f4.a(usb_f107.o)
 .group         0x0000000000000000        0x8 /home/user/Devel/stm32/libopencm3/lib/libopencm3_stm32f4.a(usb_f107.o)
 .group         0x0000000000000000        0x8 /home/user/Devel/stm32/libopencm3/lib/libopencm3_stm32f4.a(usb_f107.o)
 .debug_macro   0x0000000000000000      0x88c /home/user/Devel/stm32/libopencm3/lib/libopencm3_stm32f4.a(usb_f107.o)
 .debug_macro   0x0000000000000000       0x22 /home/user/Devel/stm32/libopencm3/lib/libopencm3_stm32f4.a(usb_f107.o)
 .debug_macro   0x0000000000000000       0x4c /home/user/Devel/stm32/libopencm3/lib/libopencm3_stm32f4.a(usb_f107.o)
 .debug_macro   0x0000000000000000       0x8d /home/user/Devel/stm32/libopencm3/lib/libopencm3_stm32f4.a(usb_f107.o)
 .debug_macro   0x0000000000000000       0x35 /home/user/Devel/stm32/libopencm3/lib/libopencm3_stm32f4.a(usb_f107.o)
 .debug_macro   0x0000000000000000       0x9c /home/user/Devel/stm32/libopencm3/lib/libopencm3_stm32f4.a(usb_f107.o)
 .debug_macro   0x0000000000000000      0x174 /home/user/Devel/stm32/libopencm3/lib/libopencm3_stm32f4.a(usb_f107.o)
 .debug_macro   0x0000000000000000       0x4a /home/user/Devel/stm32/libopencm3/lib/libopencm3_stm32f4.a(usb_f107.o)
 .debug_macro   0x0000000000000000       0x52 /home/user/Devel/stm32/libopencm3/lib/libopencm3_stm32f4.a(usb_f107.o)
 .debug_macro   0x0000000000000000       0x1f /home/user/Devel/stm32/libopencm3/lib/libopencm3_stm32f4.a(usb_f107.o)
 .debug_macro   0x0000000000000000       0x43 /home/user/Devel/stm32/libopencm3/lib/libopencm3_stm32f4.a(usb_f107.o)
 .debug_macro   0x0000000000000000       0x20 /home/user/Devel/stm32/libopencm3/lib/libopencm3_stm32f4.a(usb_f107.o)
 .debug_macro   0x0000000000000000      0x187 /home/user/Devel/stm32/libopencm3/lib/libopencm3_stm32f4.a(usb_f107.o)
 .debug_macro   0x0000000000000000      0x30d /home/user/Devel/stm32/libopencm3/lib/libopencm3_stm32f4.a(usb_f107.o)
 .debug_macro   0x0000000000000000       0x10 /home/user/Devel/stm32/libopencm3/lib/libopencm3_stm32f4.a(usb_f107.o)
 .debug_macro   0x0000000000000000       0x35 /home/user/Devel/stm32/libopencm3/lib/libopencm3_stm32f4.a(usb_f107.o)
 .debug_macro   0x0000000000000000       0xfd /home/user/Devel/stm32/libopencm3/lib/libopencm3_stm32f4.a(usb_f107.o)
 .debug_macro   0x0000000000000000       0x5e /home/user/Devel/stm32/libopencm3/lib/libopencm3_stm32f4.a(usb_f107.o)
 .debug_macro   0x0000000000000000      0x1df /home/user/Devel/stm32/libopencm3/lib/libopencm3_stm32f4.a(usb_f107.o)
 .debug_macro   0x0000000000000000       0x22 /home/user/Devel/stm32/libopencm3/lib/libopencm3_stm32f4.a(usb_f107.o)
 .debug_macro   0x0000000000000000       0xfa /home/user/Devel/stm32/libopencm3/lib/libopencm3_stm32f4.a(usb_f107.o)
 .debug_macro   0x0000000000000000       0x58 /home/user/Devel/stm32/libopencm3/lib/libopencm3_stm32f4.a(usb_f107.o)
 .debug_macro   0x0000000000000000      0x26d /home/user/Devel/stm32/libopencm3/lib/libopencm3_stm32f4.a(usb_f107.o)
 .debug_macro   0x0000000000000000      0xb3f /home/user/Devel/stm32/libopencm3/lib/libopencm3_stm32f4.a(usb_f107.o)
 .debug_macro   0x0000000000000000       0x10 /home/user/Devel/stm32/libopencm3/lib/libopencm3_stm32f4.a(usb_f107.o)
 .debug_macro   0x0000000000000000       0x1c /home/user/Devel/stm32/libopencm3/lib/libopencm3_stm32f4.a(usb_f107.o)
 .group         0x0000000000000000        0x8 /home/user/Devel/stm32/libopencm3/lib/libopencm3_stm32f4.a(vector.o)
 .group         0x0000000000000000        0x8 /home/user/Devel/stm32/libopencm3/lib/libopencm3_stm32f4.a(vector.o)
 .group         0x0000000000000000        0x8 /home/user/Devel/stm32/libopencm3/lib/libopencm3_stm32f4.a(vector.o)
 .group         0x0000000000000000        0x8 /home/user/Devel/stm32/libopencm3/lib/libopencm3_stm32f4.a(vector.o)
 .group         0x0000000000000000        0x8 /home/user/Devel/stm32/libopencm3/lib/libopencm3_stm32f4.a(vector.o)
 .group         0x0000000000000000        0x8 /home/user/Devel/stm32/libopencm3/lib/libopencm3_stm32f4.a(vector.o)
 .group         0x0000000000000000        0x8 /home/user/Devel/stm32/libopencm3/lib/libopencm3_stm32f4.a(vector.o)
 .group         0x0000000000000000        0x8 /home/user/Devel/stm32/libopencm3/lib/libopencm3_stm32f4.a(vector.o)
 .group         0x0000000000000000        0x8 /home/user/Devel/stm32/libopencm3/lib/libopencm3_stm32f4.a(vector.o)
 .group         0x0000000000000000        0x8 /home/user/Devel/stm32/libopencm3/lib/libopencm3_stm32f4.a(vector.o)
 .group         0x0000000000000000        0x8 /home/user/Devel/stm32/libopencm3/lib/libopencm3_stm32f4.a(vector.o)
 .group         0x0000000000000000        0x8 /home/user/Devel/stm32/libopencm3/lib/libopencm3_stm32f4.a(vector.o)
 .group         0x0000000000000000        0x8 /home/user/Devel/stm32/libopencm3/lib/libopencm3_stm32f4.a(vector.o)
 .debug_macro   0x0000000000000000      0x88c /home/user/Devel/stm32/libopencm3/lib/libopencm3_stm32f4.a(vector.o)
 .debug_macro   0x0000000000000000       0x58 /home/user/Devel/stm32/libopencm3/lib/libopencm3_stm32f4.a(vector.o)
 .debug_macro   0x0000000000000000       0x22 /home/user/Devel/stm32/libopencm3/lib/libopencm3_stm32f4.a(vector.o)
 .debug_macro   0x0000000000000000       0x87 /home/user/Devel/stm32/libopencm3/lib/libopencm3_stm32f4.a(vector.o)
 .debug_macro   0x0000000000000000       0x44 /home/user/Devel/stm32/libopencm3/lib/libopencm3_stm32f4.a(vector.o)
 .debug_macro   0x0000000000000000       0xfd /home/user/Devel/stm32/libopencm3/lib/libopencm3_stm32f4.a(vector.o)
 .debug_macro   0x0000000000000000       0x5e /home/user/Devel/stm32/libopencm3/lib/libopencm3_stm32f4.a(vector.o)
 .debug_macro   0x0000000000000000      0x1df /home/user/Devel/stm32/libopencm3/lib/libopencm3_stm32f4.a(vector.o)
 .debug_macro   0x0000000000000000       0x22 /home/user/Devel/stm32/libopencm3/lib/libopencm3_stm32f4.a(vector.o)
 .debug_macro   0x0000000000000000       0xfa /home/user/Devel/stm32/libopencm3/lib/libopencm3_stm32f4.a(vector.o)
 .group         0x0000000000000000        0x8 /home/user/Devel/stm32/libopencm3/lib/libopencm3_stm32f4.a(systick.o)
 .group         0x0000000000000000        0x8 /home/user/Devel/stm32/libopencm3/lib/libopencm3_stm32f4.a(systick.o)
 .group         0x0000000000000000        0x8 /home/user/Devel/stm32/libopencm3/lib/libopencm3_stm32f4.a(systick.o)
 .group         0x0000000000000000        0x8 /home/user/Devel/stm32/libopencm3/lib/libopencm3_stm32f4.a(systick.o)
 .group         0x0000000000000000        0x8 /home/user/Devel/stm32/libopencm3/lib/libopencm3_stm32f4.a(systick.o)
 .group         0x0000000000000000        0x8 /home/user/Devel/stm32/libopencm3/lib/libopencm3_stm32f4.a(systick.o)
 .group         0x0000000000000000        0x8 /home/user/Devel/stm32/libopencm3/lib/libopencm3_stm32f4.a(systick.o)
 .group         0x0000000000000000        0x8 /home/user/Devel/stm32/libopencm3/lib/libopencm3_stm32f4.a(systick.o)
 .group         0x0000000000000000        0x8 /home/user/Devel/stm32/libopencm3/lib/libopencm3_stm32f4.a(systick.o)
 .group         0x0000000000000000        0x8 /home/user/Devel/stm32/libopencm3/lib/libopencm3_stm32f4.a(systick.o)
 .group         0x0000000000000000        0x8 /home/user/Devel/stm32/libopencm3/lib/libopencm3_stm32f4.a(systick.o)
 .debug_macro   0x0000000000000000      0x88c /home/user/Devel/stm32/libopencm3/lib/libopencm3_stm32f4.a(systick.o)
 .debug_macro   0x0000000000000000       0x58 /home/user/Devel/stm32/libopencm3/lib/libopencm3_stm32f4.a(systick.o)
 .debug_macro   0x0000000000000000       0x22 /home/user/Devel/stm32/libopencm3/lib/libopencm3_stm32f4.a(systick.o)
 .debug_macro   0x0000000000000000       0x87 /home/user/Devel/stm32/libopencm3/lib/libopencm3_stm32f4.a(systick.o)
 .debug_macro   0x0000000000000000       0x44 /home/user/Devel/stm32/libopencm3/lib/libopencm3_stm32f4.a(systick.o)
 .debug_macro   0x0000000000000000       0xfd /home/user/Devel/stm32/libopencm3/lib/libopencm3_stm32f4.a(systick.o)
 .debug_macro   0x0000000000000000       0x5e /home/user/Devel/stm32/libopencm3/lib/libopencm3_stm32f4.a(systick.o)
 .debug_macro   0x0000000000000000      0x1df /home/user/Devel/stm32/libopencm3/lib/libopencm3_stm32f4.a(systick.o)
 .debug_macro   0x0000000000000000       0x22 /home/user/Devel/stm32/libopencm3/lib/libopencm3_stm32f4.a(systick.o)
 .debug_macro   0x0000000000000000       0xfa /home/user/Devel/stm32/libopencm3/lib/libopencm3_stm32f4.a(systick.o)
 .group         0x0000000000000000        0x8 /home/user/Devel/stm32/libopencm3/lib/libopencm3_stm32f4.a(nvic.o)
 .group         0x0000000000000000        0x8 /home/user/Devel/stm32/libopencm3/lib/libopencm3_stm32f4.a(nvic.o)
 .group         0x0000000000000000        0x8 /home/user/Devel/stm32/libopencm3/lib/libopencm3_stm32f4.a(nvic.o)
 .group         0x0000000000000000        0x8 /home/user/Devel/stm32/libopencm3/lib/libopencm3_stm32f4.a(nvic.o)
 .group         0x0000000000000000        0x8 /home/user/Devel/stm32/libopencm3/lib/libopencm3_stm32f4.a(nvic.o)
 .group         0x0000000000000000        0x8 /home/user/Devel/stm32/libopencm3/lib/libopencm3_stm32f4.a(nvic.o)
 .group         0x0000000000000000        0x8 /home/user/Devel/stm32/libopencm3/lib/libopencm3_stm32f4.a(nvic.o)
 .group         0x0000000000000000        0x8 /home/user/Devel/stm32/libopencm3/lib/libopencm3_stm32f4.a(nvic.o)
 .group         0x0000000000000000        0x8 /home/user/Devel/stm32/libopencm3/lib/libopencm3_stm32f4.a(nvic.o)
 .group         0x0000000000000000        0x8 /home/user/Devel/stm32/libopencm3/lib/libopencm3_stm32f4.a(nvic.o)
 .group         0x0000000000000000        0x8 /home/user/Devel/stm32/libopencm3/lib/libopencm3_stm32f4.a(nvic.o)
 .group         0x0000000000000000        0x8 /home/user/Devel/stm32/libopencm3/lib/libopencm3_stm32f4.a(nvic.o)
 .group         0x0000000000000000        0x8 /home/user/Devel/stm32/libopencm3/lib/libopencm3_stm32f4.a(nvic.o)
 .debug_macro   0x0000000000000000      0x88c /home/user/Devel/stm32/libopencm3/lib/libopencm3_stm32f4.a(nvic.o)
 .debug_macro   0x0000000000000000       0x22 /home/user/Devel/stm32/libopencm3/lib/libopencm3_stm32f4.a(nvic.o)
 .debug_macro   0x0000000000000000       0x87 /home/user/Devel/stm32/libopencm3/lib/libopencm3_stm32f4.a(nvic.o)
 .debug_macro   0x0000000000000000       0x44 /home/user/Devel/stm32/libopencm3/lib/libopencm3_stm32f4.a(nvic.o)
 .debug_macro   0x0000000000000000       0xfd /home/user/Devel/stm32/libopencm3/lib/libopencm3_stm32f4.a(nvic.o)
 .debug_macro   0x0000000000000000       0x5e /home/user/Devel/stm32/libopencm3/lib/libopencm3_stm32f4.a(nvic.o)
 .debug_macro   0x0000000000000000      0x1df /home/user/Devel/stm32/libopencm3/lib/libopencm3_stm32f4.a(nvic.o)
 .debug_macro   0x0000000000000000       0x22 /home/user/Devel/stm32/libopencm3/lib/libopencm3_stm32f4.a(nvic.o)
 .debug_macro   0x0000000000000000       0xfa /home/user/Devel/stm32/libopencm3/lib/libopencm3_stm32f4.a(nvic.o)
 .debug_macro   0x0000000000000000       0x58 /home/user/Devel/stm32/libopencm3/lib/libopencm3_stm32f4.a(nvic.o)
 .debug_macro   0x0000000000000000      0x22c /home/user/Devel/stm32/libopencm3/lib/libopencm3_stm32f4.a(nvic.o)
 .group         0x0000000000000000        0x8 /home/user/Devel/stm32/libopencm3/lib/libopencm3_stm32f4.a(pwr.o)
 .group         0x0000000000000000        0x8 /home/user/Devel/stm32/libopencm3/lib/libopencm3_stm32f4.a(pwr.o)
 .group         0x0000000000000000        0x8 /home/user/Devel/stm32/libopencm3/lib/libopencm3_stm32f4.a(pwr.o)
 .group         0x0000000000000000        0x8 /home/user/Devel/stm32/libopencm3/lib/libopencm3_stm32f4.a(pwr.o)
 .group         0x0000000000000000        0x8 /home/user/Devel/stm32/libopencm3/lib/libopencm3_stm32f4.a(pwr.o)
 .group         0x0000000000000000        0x8 /home/user/Devel/stm32/libopencm3/lib/libopencm3_stm32f4.a(pwr.o)
 .group         0x0000000000000000        0x8 /home/user/Devel/stm32/libopencm3/lib/libopencm3_stm32f4.a(pwr.o)
 .group         0x0000000000000000        0x8 /home/user/Devel/stm32/libopencm3/lib/libopencm3_stm32f4.a(pwr.o)
 .group         0x0000000000000000        0x8 /home/user/Devel/stm32/libopencm3/lib/libopencm3_stm32f4.a(pwr.o)
 .group         0x0000000000000000        0x8 /home/user/Devel/stm32/libopencm3/lib/libopencm3_stm32f4.a(pwr.o)
 .group         0x0000000000000000        0x8 /home/user/Devel/stm32/libopencm3/lib/libopencm3_stm32f4.a(pwr.o)
 .group         0x0000000000000000        0x8 /home/user/Devel/stm32/libopencm3/lib/libopencm3_stm32f4.a(pwr.o)
 .group         0x0000000000000000        0x8 /home/user/Devel/stm32/libopencm3/lib/libopencm3_stm32f4.a(pwr.o)
 .debug_macro   0x0000000000000000      0x88c /home/user/Devel/stm32/libopencm3/lib/libopencm3_stm32f4.a(pwr.o)
 .debug_macro   0x0000000000000000       0x22 /home/user/Devel/stm32/libopencm3/lib/libopencm3_stm32f4.a(pwr.o)
 .debug_macro   0x0000000000000000       0x87 /home/user/Devel/stm32/libopencm3/lib/libopencm3_stm32f4.a(pwr.o)
 .debug_macro   0x0000000000000000       0x44 /home/user/Devel/stm32/libopencm3/lib/libopencm3_stm32f4.a(pwr.o)
 .debug_macro   0x0000000000000000       0xfd /home/user/Devel/stm32/libopencm3/lib/libopencm3_stm32f4.a(pwr.o)
 .debug_macro   0x0000000000000000       0x5e /home/user/Devel/stm32/libopencm3/lib/libopencm3_stm32f4.a(pwr.o)
 .debug_macro   0x0000000000000000      0x1df /home/user/Devel/stm32/libopencm3/lib/libopencm3_stm32f4.a(pwr.o)
 .debug_macro   0x0000000000000000       0x22 /home/user/Devel/stm32/libopencm3/lib/libopencm3_stm32f4.a(pwr.o)
 .debug_macro   0x0000000000000000       0xfa /home/user/Devel/stm32/libopencm3/lib/libopencm3_stm32f4.a(pwr.o)
 .debug_macro   0x0000000000000000       0x58 /home/user/Devel/stm32/libopencm3/lib/libopencm3_stm32f4.a(pwr.o)
 .debug_macro   0x0000000000000000      0x26d /home/user/Devel/stm32/libopencm3/lib/libopencm3_stm32f4.a(pwr.o)
 .debug_macro   0x0000000000000000       0x8e /home/user/Devel/stm32/libopencm3/lib/libopencm3_stm32f4.a(pwr.o)
 .debug_macro   0x0000000000000000       0x22 /home/user/Devel/stm32/libopencm3/lib/libopencm3_stm32f4.a(pwr.o)
 .group         0x0000000000000000        0x8 /home/user/Devel/stm32/libopencm3/lib/libopencm3_stm32f4.a(usb_fx07_common.o)
 .group         0x0000000000000000        0x8 /home/user/Devel/stm32/libopencm3/lib/libopencm3_stm32f4.a(usb_fx07_common.o)
 .group         0x0000000000000000        0x8 /home/user/Devel/stm32/libopencm3/lib/libopencm3_stm32f4.a(usb_fx07_common.o)
 .group         0x0000000000000000        0x8 /home/user/Devel/stm32/libopencm3/lib/libopencm3_stm32f4.a(usb_fx07_common.o)
 .group         0x0000000000000000        0x8 /home/user/Devel/stm32/libopencm3/lib/libopencm3_stm32f4.a(usb_fx07_common.o)
 .group         0x0000000000000000        0x8 /home/user/Devel/stm32/libopencm3/lib/libopencm3_stm32f4.a(usb_fx07_common.o)
 .group         0x0000000000000000        0x8 /home/user/Devel/stm32/libopencm3/lib/libopencm3_stm32f4.a(usb_fx07_common.o)
 .group         0x0000000000000000        0x8 /home/user/Devel/stm32/libopencm3/lib/libopencm3_stm32f4.a(usb_fx07_common.o)
 .group         0x0000000000000000        0x8 /home/user/Devel/stm32/libopencm3/lib/libopencm3_stm32f4.a(usb_fx07_common.o)
 .group         0x0000000000000000        0x8 /home/user/Devel/stm32/libopencm3/lib/libopencm3_stm32f4.a(usb_fx07_common.o)
 .group         0x0000000000000000        0x8 /home/user/Devel/stm32/libopencm3/lib/libopencm3_stm32f4.a(usb_fx07_common.o)
 .group         0x0000000000000000        0x8 /home/user/Devel/stm32/libopencm3/lib/libopencm3_stm32f4.a(usb_fx07_common.o)
 .group         0x0000000000000000        0x8 /home/user/Devel/stm32/libopencm3/lib/libopencm3_stm32f4.a(usb_fx07_common.o)
 .group         0x0000000000000000        0x8 /home/user/Devel/stm32/libopencm3/lib/libopencm3_stm32f4.a(usb_fx07_common.o)
 .group         0x0000000000000000        0x8 /home/user/Devel/stm32/libopencm3/lib/libopencm3_stm32f4.a(usb_fx07_common.o)
 .group         0x0000000000000000        0x8 /home/user/Devel/stm32/libopencm3/lib/libopencm3_stm32f4.a(usb_fx07_common.o)
 .group         0x0000000000000000        0x8 /home/user/Devel/stm32/libopencm3/lib/libopencm3_stm32f4.a(usb_fx07_common.o)
 .group         0x0000000000000000        0x8 /home/user/Devel/stm32/libopencm3/lib/libopencm3_stm32f4.a(usb_fx07_common.o)
 .group         0x0000000000000000        0x8 /home/user/Devel/stm32/libopencm3/lib/libopencm3_stm32f4.a(usb_fx07_common.o)
 .group         0x0000000000000000        0x8 /home/user/Devel/stm32/libopencm3/lib/libopencm3_stm32f4.a(usb_fx07_common.o)
 .group         0x0000000000000000        0x8 /home/user/Devel/stm32/libopencm3/lib/libopencm3_stm32f4.a(usb_fx07_common.o)
 .group         0x0000000000000000        0x8 /home/user/Devel/stm32/libopencm3/lib/libopencm3_stm32f4.a(usb_fx07_common.o)
 .group         0x0000000000000000        0x8 /home/user/Devel/stm32/libopencm3/lib/libopencm3_stm32f4.a(usb_fx07_common.o)
 .group         0x0000000000000000        0x8 /home/user/Devel/stm32/libopencm3/lib/libopencm3_stm32f4.a(usb_fx07_common.o)
 .group         0x0000000000000000        0x8 /home/user/Devel/stm32/libopencm3/lib/libopencm3_stm32f4.a(usb_fx07_common.o)
 .group         0x0000000000000000        0x8 /home/user/Devel/stm32/libopencm3/lib/libopencm3_stm32f4.a(usb_fx07_common.o)
 .group         0x0000000000000000        0x8 /home/user/Devel/stm32/libopencm3/lib/libopencm3_stm32f4.a(usb_fx07_common.o)
 .group         0x0000000000000000        0x8 /home/user/Devel/stm32/libopencm3/lib/libopencm3_stm32f4.a(usb_fx07_common.o)
 .group         0x0000000000000000        0x8 /home/user/Devel/stm32/libopencm3/lib/libopencm3_stm32f4.a(usb_fx07_common.o)
 .group         0x0000000000000000        0x8 /home/user/Devel/stm32/libopencm3/lib/libopencm3_stm32f4.a(usb_fx07_common.o)
 .debug_macro   0x0000000000000000      0x88c /home/user/Devel/stm32/libopencm3/lib/libopencm3_stm32f4.a(usb_fx07_common.o)
 .debug_macro   0x0000000000000000       0x22 /home/user/Devel/stm32/libopencm3/lib/libopencm3_stm32f4.a(usb_fx07_common.o)
 .debug_macro   0x0000000000000000       0x4c /home/user/Devel/stm32/libopencm3/lib/libopencm3_stm32f4.a(usb_fx07_common.o)
 .debug_macro   0x0000000000000000       0x8d /home/user/Devel/stm32/libopencm3/lib/libopencm3_stm32f4.a(usb_fx07_common.o)
 .debug_macro   0x0000000000000000       0x35 /home/user/Devel/stm32/libopencm3/lib/libopencm3_stm32f4.a(usb_fx07_common.o)
 .debug_macro   0x0000000000000000       0x9c /home/user/Devel/stm32/libopencm3/lib/libopencm3_stm32f4.a(usb_fx07_common.o)
 .debug_macro   0x0000000000000000      0x174 /home/user/Devel/stm32/libopencm3/lib/libopencm3_stm32f4.a(usb_fx07_common.o)
 .debug_macro   0x0000000000000000       0x4a /home/user/Devel/stm32/libopencm3/lib/libopencm3_stm32f4.a(usb_fx07_common.o)
 .debug_macro   0x0000000000000000       0x52 /home/user/Devel/stm32/libopencm3/lib/libopencm3_stm32f4.a(usb_fx07_common.o)
 .debug_macro   0x0000000000000000       0x1f /home/user/Devel/stm32/libopencm3/lib/libopencm3_stm32f4.a(usb_fx07_common.o)
 .debug_macro   0x0000000000000000       0x43 /home/user/Devel/stm32/libopencm3/lib/libopencm3_stm32f4.a(usb_fx07_common.o)
 .debug_macro   0x0000000000000000       0x20 /home/user/Devel/stm32/libopencm3/lib/libopencm3_stm32f4.a(usb_fx07_common.o)
 .debug_macro   0x0000000000000000      0x187 /home/user/Devel/stm32/libopencm3/lib/libopencm3_stm32f4.a(usb_fx07_common.o)
 .debug_macro   0x0000000000000000      0x30d /home/user/Devel/stm32/libopencm3/lib/libopencm3_stm32f4.a(usb_fx07_common.o)
 .debug_macro   0x0000000000000000       0x10 /home/user/Devel/stm32/libopencm3/lib/libopencm3_stm32f4.a(usb_fx07_common.o)
 .debug_macro   0x0000000000000000       0x35 /home/user/Devel/stm32/libopencm3/lib/libopencm3_stm32f4.a(usb_fx07_common.o)
 .debug_macro   0x0000000000000000       0xfd /home/user/Devel/stm32/libopencm3/lib/libopencm3_stm32f4.a(usb_fx07_common.o)
 .debug_macro   0x0000000000000000       0x5e /home/user/Devel/stm32/libopencm3/lib/libopencm3_stm32f4.a(usb_fx07_common.o)
 .debug_macro   0x0000000000000000      0x1df /home/user/Devel/stm32/libopencm3/lib/libopencm3_stm32f4.a(usb_fx07_common.o)
 .debug_macro   0x0000000000000000       0x22 /home/user/Devel/stm32/libopencm3/lib/libopencm3_stm32f4.a(usb_fx07_common.o)
 .debug_macro   0x0000000000000000       0xfa /home/user/Devel/stm32/libopencm3/lib/libopencm3_stm32f4.a(usb_fx07_common.o)
 .debug_macro   0x0000000000000000       0x3a /home/user/Devel/stm32/libopencm3/lib/libopencm3_stm32f4.a(usb_fx07_common.o)
 .debug_macro   0x0000000000000000       0x58 /home/user/Devel/stm32/libopencm3/lib/libopencm3_stm32f4.a(usb_fx07_common.o)
 .debug_macro   0x0000000000000000      0x26d /home/user/Devel/stm32/libopencm3/lib/libopencm3_stm32f4.a(usb_fx07_common.o)
 .debug_macro   0x0000000000000000      0x8d7 /home/user/Devel/stm32/libopencm3/lib/libopencm3_stm32f4.a(usb_fx07_common.o)
 .debug_macro   0x0000000000000000      0x130 /home/user/Devel/stm32/libopencm3/lib/libopencm3_stm32f4.a(usb_fx07_common.o)
 .debug_macro   0x0000000000000000      0x19c /home/user/Devel/stm32/libopencm3/lib/libopencm3_stm32f4.a(usb_fx07_common.o)
 .debug_macro   0x0000000000000000       0x10 /home/user/Devel/stm32/libopencm3/lib/libopencm3_stm32f4.a(usb_fx07_common.o)
 .debug_macro   0x0000000000000000       0x1c /home/user/Devel/stm32/libopencm3/lib/libopencm3_stm32f4.a(usb_fx07_common.o)

Memory Configuration

Name             Origin             Length             Attributes
rom              0x0000000008020000 0x00000000000e0000 xr
ccm              0x0000000010000000 0x0000000000010000 xrw
ram              0x0000000020000000 0x0000000000030000 xrw
*default*        0x0000000000000000 0xffffffffffffffff

Linker script and memory map

START GROUP
LOAD /home/user/Devel/stm32/gcc-arm-none-eabi-8-2018-q4-major/bin/../lib/gcc/arm-none-eabi/8.2.1/../../../../arm-none-eabi/lib/thumb/v7e-m+fp/hard/libc_nano.a
LOAD /home/user/Devel/stm32/gcc-arm-none-eabi-8-2018-q4-major/bin/../lib/gcc/arm-none-eabi/8.2.1/thumb/v7e-m+fp/hard/libgcc.a
LOAD /home/user/Devel/stm32/gcc-arm-none-eabi-8-2018-q4-major/bin/../lib/gcc/arm-none-eabi/8.2.1/../../../../arm-none-eabi/lib/thumb/v7e-m+fp/hard/libnosys.a
END GROUP
LOAD ././mew.o
LOAD ././lvgl/porting/lv_port_disp_template.o
LOAD ././lvgl/porting/lv_port_indev_template.o
LOAD ././lvgl/porting/lv_port_fs_template.o
LOAD ././lvgl/src/lv_misc/lv_async.o
LOAD ././lvgl/src/lv_misc/lv_mem.o
LOAD ././lvgl/src/lv_misc/lv_txt.o
LOAD ././lvgl/src/lv_misc/lv_utils.o
LOAD ././lvgl/src/lv_misc/lv_area.o
LOAD ././lvgl/src/lv_misc/lv_templ.o
LOAD ././lvgl/src/lv_misc/lv_fs.o
LOAD ././lvgl/src/lv_misc/lv_task.o
LOAD ././lvgl/src/lv_misc/lv_log.o
LOAD ././lvgl/src/lv_misc/lv_ll.o
LOAD ././lvgl/src/lv_misc/lv_circ.o
LOAD ././lvgl/src/lv_misc/lv_color.o
LOAD ././lvgl/src/lv_misc/lv_anim.o
LOAD ././lvgl/src/lv_misc/lv_math.o
LOAD ././lvgl/src/lv_misc/lv_gc.o
LOAD ././lvgl/src/lv_core/lv_refr.o
LOAD ././lvgl/src/lv_core/lv_group.o
LOAD ././lvgl/src/lv_core/lv_indev.o
LOAD ././lvgl/src/lv_core/lv_obj.o
LOAD ././lvgl/src/lv_core/lv_disp.o
LOAD ././lvgl/src/lv_core/lv_style.o
LOAD ././lvgl/src/lv_hal/lv_hal_indev.o
LOAD ././lvgl/src/lv_hal/lv_hal_disp.o
LOAD ././lvgl/src/lv_hal/lv_hal_tick.o
LOAD ././lvgl/src/lv_objx/lv_objx_templ.o
LOAD ././lvgl/src/lv_objx/lv_win.o
LOAD ././lvgl/src/lv_objx/lv_calendar.o
LOAD ././lvgl/src/lv_objx/lv_img.o
LOAD ././lvgl/src/lv_objx/lv_table.o
LOAD ././lvgl/src/lv_objx/lv_spinbox.o
LOAD ././lvgl/src/lv_objx/lv_ta.o
LOAD ././lvgl/src/lv_objx/lv_preload.o
LOAD ././lvgl/src/lv_objx/lv_list.o
LOAD ././lvgl/src/lv_objx/lv_cont.o
LOAD ././lvgl/src/lv_objx/lv_cb.o
LOAD ././lvgl/src/lv_objx/lv_slider.o
LOAD ././lvgl/src/lv_objx/lv_page.o
LOAD ././lvgl/src/lv_objx/lv_imgbtn.o
LOAD ././lvgl/src/lv_objx/lv_chart.o
LOAD ././lvgl/src/lv_objx/lv_line.o
LOAD ././lvgl/src/lv_objx/lv_bar.o
LOAD ././lvgl/src/lv_objx/lv_label.o
LOAD ././lvgl/src/lv_objx/lv_led.o
LOAD ././lvgl/src/lv_objx/lv_kb.o
LOAD ././lvgl/src/lv_objx/lv_sw.o
LOAD ././lvgl/src/lv_objx/lv_btn.o
LOAD ././lvgl/src/lv_objx/lv_gauge.o
LOAD ././lvgl/src/lv_objx/lv_btnm.o
LOAD ././lvgl/src/lv_objx/lv_mbox.o
LOAD ././lvgl/src/lv_objx/lv_roller.o
LOAD ././lvgl/src/lv_objx/lv_ddlist.o
LOAD ././lvgl/src/lv_objx/lv_canvas.o
LOAD ././lvgl/src/lv_objx/lv_tileview.o
LOAD ././lvgl/src/lv_objx/lv_lmeter.o
LOAD ././lvgl/src/lv_objx/lv_tabview.o
LOAD ././lvgl/src/lv_objx/lv_arc.o
LOAD ././lvgl/src/lv_draw/lv_draw_basic.o
LOAD ././lvgl/src/lv_draw/lv_draw_triangle.o
LOAD ././lvgl/src/lv_draw/lv_draw_img.o
LOAD ././lvgl/src/lv_draw/lv_img_cache.o
LOAD ././lvgl/src/lv_draw/lv_draw_label.o
LOAD ././lvgl/src/lv_draw/lv_draw.o
LOAD ././lvgl/src/lv_draw/lv_img_decoder.o
LOAD ././lvgl/src/lv_draw/lv_draw_arc.o
LOAD ././lvgl/src/lv_draw/lv_draw_rect.o
LOAD ././lvgl/src/lv_draw/lv_draw_line.o
LOAD ././lvgl/src/lv_themes/lv_theme_night.o
LOAD ././lvgl/src/lv_themes/lv_theme_alien.o
LOAD ././lvgl/src/lv_themes/lv_theme_mono.o
LOAD ././lvgl/src/lv_themes/lv_theme_nemo.o
LOAD ././lvgl/src/lv_themes/lv_theme_material.o
LOAD ././lvgl/src/lv_themes/lv_theme.o
LOAD ././lvgl/src/lv_themes/lv_theme_default.o
LOAD ././lvgl/src/lv_themes/lv_theme_templ.o
LOAD ././lvgl/src/lv_themes/lv_theme_zen.o
LOAD ././lvgl/src/lv_font/lv_font_roboto_28.o
LOAD ././lvgl/src/lv_font/lv_font_roboto_22.o
LOAD ././lvgl/src/lv_font/lv_font_roboto_12.o
LOAD ././lvgl/src/lv_font/lv_font_unscii_8.o
LOAD ././lvgl/src/lv_font/lv_font_fmt_txt.o
LOAD ././lvgl/src/lv_font/lv_font_roboto_16.o
LOAD ././lvgl/src/lv_font/lv_font.o
LOAD ././app/pwd_generator/mew_xor_algo.o
LOAD ././app/pwd_generator/mew_passgen.o
LOAD ././app/qr_code/qrcodegen.o
LOAD ././app/packet_parser/parser.o
LOAD ././drivers/i2c/i2c.o
LOAD ././drivers/bluetooth/bt_usart.o
LOAD ././drivers/duart/duart.o
LOAD ././drivers/display/ts_tsc2007.o
LOAD ././drivers/display/display.o
LOAD ././drivers/usb/mew_usb_hid.o
LOAD ././drivers/spi_flash/flash.o
LOAD ././drivers/spi_flash/w25n01gvzeig.o
LOAD ././drivers/flash/otp_storage.o
LOAD ././drivers/hw_crypt/aes256.o
LOAD ././drivers/hw_crypt/P256-cortex-ecdh.o
LOAD ././drivers/hw_crypt/secure_eeprom.o
LOAD ././drivers/hw_crypt/sha2_256.o
LOAD ././drivers/system/systick.o
LOAD ././drivers/system/system.o
LOAD ././drivers/system/random.o
LOAD ././drivers/system/clock.o
LOAD ././debug.o
LOAD ././ui/ui_main_win.o
LOAD ././ui/qrcode_ui.o
LOAD ././ui/ui_win_startup_1.o
LOAD ././ui/ui_header.o
LOAD ././ui/ui_msgbox.o
LOAD ././ui/mew_font_ru_bold_title.o
LOAD ././ui/ui_lhandlers.o
LOAD ././ui/mew_logo.o
LOAD ././ui/mew_font_ru_bold.o
LOAD ././drivers/hw_crypt/P256-cortex-m4-ecdh-speedopt-gcc.o
LOAD ././drivers/system/byteorder.o
LOAD /home/user/Devel/stm32/libopencm3/lib/libopencm3_stm32f4.a
START GROUP
LOAD /home/user/Devel/stm32/gcc-arm-none-eabi-8-2018-q4-major/bin/../lib/gcc/arm-none-eabi/8.2.1/../../../../arm-none-eabi/lib/thumb/v7e-m+fp/hard/libc_nano.a
LOAD /home/user/Devel/stm32/gcc-arm-none-eabi-8-2018-q4-major/bin/../lib/gcc/arm-none-eabi/8.2.1/thumb/v7e-m+fp/hard/libgcc.a
END GROUP
START GROUP
LOAD /home/user/Devel/stm32/gcc-arm-none-eabi-8-2018-q4-major/bin/../lib/gcc/arm-none-eabi/8.2.1/thumb/v7e-m+fp/hard/libgcc.a
LOAD /home/user/Devel/stm32/gcc-arm-none-eabi-8-2018-q4-major/bin/../lib/gcc/arm-none-eabi/8.2.1/../../../../arm-none-eabi/lib/thumb/v7e-m+fp/hard/libc_nano.a
END GROUP
START GROUP
LOAD /home/user/Devel/stm32/gcc-arm-none-eabi-8-2018-q4-major/bin/../lib/gcc/arm-none-eabi/8.2.1/thumb/v7e-m+fp/hard/libgcc.a
LOAD /home/user/Devel/stm32/gcc-arm-none-eabi-8-2018-q4-major/bin/../lib/gcc/arm-none-eabi/8.2.1/../../../../arm-none-eabi/lib/thumb/v7e-m+fp/hard/libc_nano.a
LOAD /home/user/Devel/stm32/gcc-arm-none-eabi-8-2018-q4-major/bin/../lib/gcc/arm-none-eabi/8.2.1/../../../../arm-none-eabi/lib/thumb/v7e-m+fp/hard/libnosys.a
END GROUP
START GROUP
LOAD /home/user/Devel/stm32/gcc-arm-none-eabi-8-2018-q4-major/bin/../lib/gcc/arm-none-eabi/8.2.1/thumb/v7e-m+fp/hard/libgcc.a
LOAD /home/user/Devel/stm32/gcc-arm-none-eabi-8-2018-q4-major/bin/../lib/gcc/arm-none-eabi/8.2.1/../../../../arm-none-eabi/lib/thumb/v7e-m+fp/hard/libc_nano.a
LOAD /home/user/Devel/stm32/gcc-arm-none-eabi-8-2018-q4-major/bin/../lib/gcc/arm-none-eabi/8.2.1/../../../../arm-none-eabi/lib/thumb/v7e-m+fp/hard/libnosys.a
END GROUP

.text           0x0000000008020000    0x3b9ec
 *(.vectors)
 .vectors       0x0000000008020000      0x1ac /home/user/Devel/stm32/libopencm3/lib/libopencm3_stm32f4.a(vector.o)
                0x0000000008020000                vector_table
 *(.text*)
 .text          0x00000000080201ac        0x0 ././mew.o
 .text.startup.main
                0x00000000080201ac       0x90 ././mew.o
                0x00000000080201ac                main
 .text          0x000000000802023c        0x0 ././lvgl/porting/lv_port_disp_template.o
 .text          0x000000000802023c        0x0 ././lvgl/porting/lv_port_indev_template.o
 .text          0x000000000802023c        0x0 ././lvgl/porting/lv_port_fs_template.o
 .text          0x000000000802023c        0x0 ././lvgl/src/lv_misc/lv_async.o
 .text.lv_async_task_cb
                0x000000000802023c       0x14 ././lvgl/src/lv_misc/lv_async.o
 .text.lv_async_call
                0x0000000008020250       0x3c ././lvgl/src/lv_misc/lv_async.o
                0x0000000008020250                lv_async_call
 .text          0x000000000802028c        0x0 ././lvgl/src/lv_misc/lv_mem.o
 .text.lv_mem_alloc.part.0
                0x000000000802028c       0x8c ././lvgl/src/lv_misc/lv_mem.o
 .text.lv_mem_free.part.1
                0x0000000008020318       0x98 ././lvgl/src/lv_misc/lv_mem.o
 .text.lv_mem_init
                0x00000000080203b0       0x18 ././lvgl/src/lv_misc/lv_mem.o
                0x00000000080203b0                lv_mem_init
 .text.lv_mem_alloc
                0x00000000080203c8       0x10 ././lvgl/src/lv_misc/lv_mem.o
                0x00000000080203c8                lv_mem_alloc
 .text.lv_mem_free
                0x00000000080203d8       0x14 ././lvgl/src/lv_misc/lv_mem.o
                0x00000000080203d8                lv_mem_free
 .text.lv_mem_realloc
                0x00000000080203ec       0xc8 ././lvgl/src/lv_misc/lv_mem.o
                0x00000000080203ec                lv_mem_realloc
 .text.lv_mem_defrag
                0x00000000080204b4       0xa4 ././lvgl/src/lv_misc/lv_mem.o
                0x00000000080204b4                lv_mem_defrag
 .text.lv_mem_monitor
                0x0000000008020558       0x80 ././lvgl/src/lv_misc/lv_mem.o
                0x0000000008020558                lv_mem_monitor
 .text.lv_mem_get_size
                0x00000000080205d8       0x1c ././lvgl/src/lv_misc/lv_mem.o
                0x00000000080205d8                lv_mem_get_size
 .text          0x00000000080205f4        0x0 ././lvgl/src/lv_misc/lv_txt.o
 .text.lv_txt_utf8_size
                0x00000000080205f4       0x30 ././lvgl/src/lv_misc/lv_txt.o
 .text.lv_txt_utf8_next
                0x0000000008020624       0xe4 ././lvgl/src/lv_misc/lv_txt.o
 .text.lv_txt_utf8_get_byte_id
                0x0000000008020708       0x34 ././lvgl/src/lv_misc/lv_txt.o
 .text.lv_txt_utf8_get_char_id
                0x000000000802073c       0x34 ././lvgl/src/lv_misc/lv_txt.o
 .text.lv_txt_utf8_get_length
                0x0000000008020770       0x34 ././lvgl/src/lv_misc/lv_txt.o
 .text.lv_txt_unicode_to_utf8
                0x00000000080207a4       0x9c ././lvgl/src/lv_misc/lv_txt.o
 .text.lv_txt_utf8_conv_wc
                0x0000000008020840       0x30 ././lvgl/src/lv_misc/lv_txt.o
 .text.lv_txt_utf8_prev
                0x0000000008020870       0x4c ././lvgl/src/lv_misc/lv_txt.o
 .text.lv_txt_get_next_line.part.4
                0x00000000080208bc      0x144 ././lvgl/src/lv_misc/lv_txt.o
 .text.lv_txt_get_width.part.5
                0x0000000008020a00       0xb0 ././lvgl/src/lv_misc/lv_txt.o
 .text.lv_txt_get_size
                0x0000000008020ab0       0xc8 ././lvgl/src/lv_misc/lv_txt.o
                0x0000000008020ab0                lv_txt_get_size
 .text.lv_txt_get_next_line
                0x0000000008020b78       0x18 ././lvgl/src/lv_misc/lv_txt.o
                0x0000000008020b78                lv_txt_get_next_line
 .text.lv_txt_get_width
                0x0000000008020b90       0x18 ././lvgl/src/lv_misc/lv_txt.o
                0x0000000008020b90                lv_txt_get_width
 .text.lv_txt_is_cmd
                0x0000000008020ba8       0x40 ././lvgl/src/lv_misc/lv_txt.o
                0x0000000008020ba8                lv_txt_is_cmd
 .text.lv_txt_ins
                0x0000000008020be8       0x58 ././lvgl/src/lv_misc/lv_txt.o
                0x0000000008020be8                lv_txt_ins
 .text.lv_txt_cut
                0x0000000008020c40       0x4c ././lvgl/src/lv_misc/lv_txt.o
                0x0000000008020c40                lv_txt_cut
 .text          0x0000000008020c8c        0x0 ././lvgl/src/lv_misc/lv_utils.o
 .text.lv_utils_num_to_str
                0x0000000008020c8c       0x68 ././lvgl/src/lv_misc/lv_utils.o
                0x0000000008020c8c                lv_utils_num_to_str
 .text.lv_utils_bsearch
                0x0000000008020cf4       0x48 ././lvgl/src/lv_misc/lv_utils.o
                0x0000000008020cf4                lv_utils_bsearch
 .text          0x0000000008020d3c        0x0 ././lvgl/src/lv_misc/lv_area.o
 .text.lv_area_set
                0x0000000008020d3c       0x14 ././lvgl/src/lv_misc/lv_area.o
                0x0000000008020d3c                lv_area_set
 .text.lv_area_set_width
                0x0000000008020d50        0xc ././lvgl/src/lv_misc/lv_area.o
                0x0000000008020d50                lv_area_set_width
 .text.lv_area_set_height
                0x0000000008020d5c        0xc ././lvgl/src/lv_misc/lv_area.o
                0x0000000008020d5c                lv_area_set_height
 .text.lv_area_set_pos
                0x0000000008020d68       0x20 ././lvgl/src/lv_misc/lv_area.o
                0x0000000008020d68                lv_area_set_pos
 .text.lv_area_get_size
                0x0000000008020d88       0x24 ././lvgl/src/lv_misc/lv_area.o
                0x0000000008020d88                lv_area_get_size
 .text.lv_area_intersect
                0x0000000008020dac       0x58 ././lvgl/src/lv_misc/lv_area.o
                0x0000000008020dac                lv_area_intersect
 .text.lv_area_join
                0x0000000008020e04       0x48 ././lvgl/src/lv_misc/lv_area.o
                0x0000000008020e04                lv_area_join
 .text.lv_area_is_point_on
                0x0000000008020e4c       0x34 ././lvgl/src/lv_misc/lv_area.o
                0x0000000008020e4c                lv_area_is_point_on
 .text.lv_area_is_on
                0x0000000008020e80       0x3c ././lvgl/src/lv_misc/lv_area.o
                0x0000000008020e80                lv_area_is_on
 .text.lv_area_is_in
                0x0000000008020ebc       0x3c ././lvgl/src/lv_misc/lv_area.o
                0x0000000008020ebc                lv_area_is_in
 .text          0x0000000008020ef8        0x0 ././lvgl/src/lv_misc/lv_templ.o
 .text          0x0000000008020ef8        0x0 ././lvgl/src/lv_misc/lv_fs.o
 .text          0x0000000008020ef8        0x0 ././lvgl/src/lv_misc/lv_task.o
 .text.lv_task_core_init
                0x0000000008020ef8       0x1c ././lvgl/src/lv_misc/lv_task.o
                0x0000000008020ef8                lv_task_core_init
 .text.lv_task_create_basic
                0x0000000008020f14       0x80 ././lvgl/src/lv_misc/lv_task.o
                0x0000000008020f14                lv_task_create_basic
 .text.lv_task_set_cb
                0x0000000008020f94        0x4 ././lvgl/src/lv_misc/lv_task.o
                0x0000000008020f94                lv_task_set_cb
 .text.lv_task_del
                0x0000000008020f98       0x30 ././lvgl/src/lv_misc/lv_task.o
                0x0000000008020f98                lv_task_del
 .text.lv_task_exec
                0x0000000008020fc8       0x4c ././lvgl/src/lv_misc/lv_task.o
 .text.lv_task_handler
                0x0000000008021014      0x124 ././lvgl/src/lv_misc/lv_task.o
                0x0000000008021014                lv_task_handler
 .text.lv_task_set_prio
                0x0000000008021138       0x70 ././lvgl/src/lv_misc/lv_task.o
                0x0000000008021138                lv_task_set_prio
 .text.lv_task_create
                0x00000000080211a8       0x2c ././lvgl/src/lv_misc/lv_task.o
                0x00000000080211a8                lv_task_create
 .text.lv_task_set_period
                0x00000000080211d4        0x4 ././lvgl/src/lv_misc/lv_task.o
                0x00000000080211d4                lv_task_set_period
 .text.lv_task_ready
                0x00000000080211d8       0x14 ././lvgl/src/lv_misc/lv_task.o
                0x00000000080211d8                lv_task_ready
 .text.lv_task_once
                0x00000000080211ec        0xc ././lvgl/src/lv_misc/lv_task.o
                0x00000000080211ec                lv_task_once
 .text.lv_task_reset
                0x00000000080211f8        0xc ././lvgl/src/lv_misc/lv_task.o
                0x00000000080211f8                lv_task_reset
 .text.lv_task_enable
                0x0000000008021204        0xc ././lvgl/src/lv_misc/lv_task.o
                0x0000000008021204                lv_task_enable
 .text.lv_task_get_idle
                0x0000000008021210        0xc ././lvgl/src/lv_misc/lv_task.o
                0x0000000008021210                lv_task_get_idle
 .text          0x000000000802121c        0x0 ././lvgl/src/lv_misc/lv_log.o
 .text          0x000000000802121c        0x0 ././lvgl/src/lv_misc/lv_ll.o
 .text.node_set_next.isra.0.part.1
                0x000000000802121c        0xc ././lvgl/src/lv_misc/lv_ll.o
 .text.node_set_prev.isra.2.part.3
                0x0000000008021228        0x8 ././lvgl/src/lv_misc/lv_ll.o
 .text.lv_ll_init
                0x0000000008021230       0x14 ././lvgl/src/lv_misc/lv_ll.o
                0x0000000008021230                lv_ll_init
 .text.lv_ll_ins_head
                0x0000000008021244       0x40 ././lvgl/src/lv_misc/lv_ll.o
                0x0000000008021244                lv_ll_ins_head
 .text.lv_ll_ins_prev
                0x0000000008021284       0x50 ././lvgl/src/lv_misc/lv_ll.o
                0x0000000008021284                lv_ll_ins_prev
 .text.lv_ll_ins_tail
                0x00000000080212d4       0x40 ././lvgl/src/lv_misc/lv_ll.o
                0x00000000080212d4                lv_ll_ins_tail
 .text.lv_ll_rem
                0x0000000008021314       0x58 ././lvgl/src/lv_misc/lv_ll.o
                0x0000000008021314                lv_ll_rem
 .text.lv_ll_clear
                0x000000000802136c       0x28 ././lvgl/src/lv_misc/lv_ll.o
                0x000000000802136c                lv_ll_clear
 .text.lv_ll_chg_list
                0x0000000008021394       0x8c ././lvgl/src/lv_misc/lv_ll.o
                0x0000000008021394                lv_ll_chg_list
 .text.lv_ll_get_head
                0x0000000008021420        0x8 ././lvgl/src/lv_misc/lv_ll.o
                0x0000000008021420                lv_ll_get_head
 .text.lv_ll_get_tail
                0x0000000008021428        0x8 ././lvgl/src/lv_misc/lv_ll.o
                0x0000000008021428                lv_ll_get_tail
 .text.lv_ll_get_next
                0x0000000008021430        0xc ././lvgl/src/lv_misc/lv_ll.o
                0x0000000008021430                lv_ll_get_next
 .text.lv_ll_get_prev
                0x000000000802143c        0x8 ././lvgl/src/lv_misc/lv_ll.o
                0x000000000802143c                lv_ll_get_prev
 .text.lv_ll_get_len
                0x0000000008021444       0x1c ././lvgl/src/lv_misc/lv_ll.o
                0x0000000008021444                lv_ll_get_len
 .text.lv_ll_swap
                0x0000000008021460        0x4 ././lvgl/src/lv_misc/lv_ll.o
                0x0000000008021460                lv_ll_swap
 .text.lv_ll_move_before
                0x0000000008021464       0xa4 ././lvgl/src/lv_misc/lv_ll.o
                0x0000000008021464                lv_ll_move_before
 .text.lv_ll_is_empty
                0x0000000008021508       0x18 ././lvgl/src/lv_misc/lv_ll.o
                0x0000000008021508                lv_ll_is_empty
 .text          0x0000000008021520        0x0 ././lvgl/src/lv_misc/lv_circ.o
 .text.lv_circ_init
                0x0000000008021520       0x14 ././lvgl/src/lv_misc/lv_circ.o
                0x0000000008021520                lv_circ_init
 .text.lv_circ_cont
                0x0000000008021534       0x14 ././lvgl/src/lv_misc/lv_circ.o
                0x0000000008021534                lv_circ_cont
 .text.lv_circ_next
                0x0000000008021548       0x3c ././lvgl/src/lv_misc/lv_circ.o
                0x0000000008021548                lv_circ_next
 .text          0x0000000008021584        0x0 ././lvgl/src/lv_misc/lv_color.o
 .text.lv_color_hsv_to_rgb
                0x0000000008021584       0xf8 ././lvgl/src/lv_misc/lv_color.o
                0x0000000008021584                lv_color_hsv_to_rgb
 .text.lv_color_rgb_to_hsv
                0x000000000802167c       0xa4 ././lvgl/src/lv_misc/lv_color.o
                0x000000000802167c                lv_color_rgb_to_hsv
 .text          0x0000000008021720        0x0 ././lvgl/src/lv_misc/lv_anim.o
 .text          0x0000000008021720        0x0 ././lvgl/src/lv_misc/lv_math.o
 .text.lv_trigo_sin
                0x0000000008021720       0x6c ././lvgl/src/lv_misc/lv_math.o
                0x0000000008021720                lv_trigo_sin
 .text.lv_bezier3
                0x000000000802178c       0x54 ././lvgl/src/lv_misc/lv_math.o
                0x000000000802178c                lv_bezier3
 .text          0x00000000080217e0        0x0 ././lvgl/src/lv_misc/lv_gc.o
 .text          0x00000000080217e0        0x0 ././lvgl/src/lv_core/lv_refr.o
 .text.lv_refr_vdb_flush
                0x00000000080217e0       0x50 ././lvgl/src/lv_core/lv_refr.o
 .text.lv_refr_get_top_obj
                0x0000000008021830       0x64 ././lvgl/src/lv_core/lv_refr.o
 .text.lv_refr_obj.part.2
                0x0000000008021894       0xe4 ././lvgl/src/lv_core/lv_refr.o
 .text.lv_refr_obj_and_children
                0x0000000008021978       0x78 ././lvgl/src/lv_core/lv_refr.o
 .text.lv_refr_area_part
                0x00000000080219f0       0x78 ././lvgl/src/lv_core/lv_refr.o
 .text.lv_refr_init
                0x0000000008021a68        0x4 ././lvgl/src/lv_core/lv_refr.o
                0x0000000008021a68                lv_refr_init
 .text.lv_inv_area
                0x0000000008021a6c       0xd4 ././lvgl/src/lv_core/lv_refr.o
                0x0000000008021a6c                lv_inv_area
 .text.lv_refr_get_disp_refreshing
                0x0000000008021b40        0xc ././lvgl/src/lv_core/lv_refr.o
                0x0000000008021b40                lv_refr_get_disp_refreshing
 .text.lv_refr_set_disp_refreshing
                0x0000000008021b4c        0xc ././lvgl/src/lv_core/lv_refr.o
                0x0000000008021b4c                lv_refr_set_disp_refreshing
 .text.lv_disp_refr_task
                0x0000000008021b58      0x3d4 ././lvgl/src/lv_core/lv_refr.o
                0x0000000008021b58                lv_disp_refr_task
 .text.lv_refr_now
                0x0000000008021f2c       0x28 ././lvgl/src/lv_core/lv_refr.o
                0x0000000008021f2c                lv_refr_now
 .text          0x0000000008021f54        0x0 ././lvgl/src/lv_core/lv_group.o
 .text.style_mod_def
                0x0000000008021f54      0x1d4 ././lvgl/src/lv_core/lv_group.o
 .text.style_mod_edit_def
                0x0000000008022128      0x1bc ././lvgl/src/lv_core/lv_group.o
 .text.obj_to_foreground
                0x00000000080222e4       0x30 ././lvgl/src/lv_core/lv_group.o
 .text.focus_next_core.part.1
                0x0000000008022314       0xdc ././lvgl/src/lv_core/lv_group.o
 .text.lv_group_refocus
                0x00000000080223f0       0x60 ././lvgl/src/lv_core/lv_group.o
 .text.lv_group_init
                0x0000000008022450        0xc ././lvgl/src/lv_core/lv_group.o
                0x0000000008022450                lv_group_init
 .text.lv_group_create
                0x000000000802245c       0x5c ././lvgl/src/lv_core/lv_group.o
                0x000000000802245c                lv_group_create
 .text.lv_group_del
                0x00000000080224b8       0x50 ././lvgl/src/lv_core/lv_group.o
                0x00000000080224b8                lv_group_del
 .text.lv_group_add_obj
                0x0000000008022508       0x64 ././lvgl/src/lv_core/lv_group.o
                0x0000000008022508                lv_group_add_obj
 .text.lv_group_remove_obj
                0x000000000802256c       0x88 ././lvgl/src/lv_core/lv_group.o
                0x000000000802256c                lv_group_remove_obj
 .text.lv_group_remove_all_objs
                0x00000000080225f4       0x44 ././lvgl/src/lv_core/lv_group.o
                0x00000000080225f4                lv_group_remove_all_objs
 .text.lv_group_focus_next
                0x0000000008022638       0x1c ././lvgl/src/lv_core/lv_group.o
                0x0000000008022638                lv_group_focus_next
 .text.lv_group_focus_prev
                0x0000000008022654       0x1c ././lvgl/src/lv_core/lv_group.o
                0x0000000008022654                lv_group_focus_prev
 .text.lv_group_focus_freeze
                0x0000000008022670       0x10 ././lvgl/src/lv_core/lv_group.o
                0x0000000008022670                lv_group_focus_freeze
 .text.lv_group_send_data
                0x0000000008022680       0x38 ././lvgl/src/lv_core/lv_group.o
                0x0000000008022680                lv_group_send_data
 .text.lv_group_set_style_mod_cb
                0x00000000080226b8       0x10 ././lvgl/src/lv_core/lv_group.o
                0x00000000080226b8                lv_group_set_style_mod_cb
 .text.lv_group_set_style_mod_edit_cb
                0x00000000080226c8       0x10 ././lvgl/src/lv_core/lv_group.o
                0x00000000080226c8                lv_group_set_style_mod_edit_cb
 .text.lv_group_set_focus_cb
                0x00000000080226d8        0x4 ././lvgl/src/lv_core/lv_group.o
                0x00000000080226d8                lv_group_set_focus_cb
 .text.lv_group_set_editing
                0x00000000080226dc       0x48 ././lvgl/src/lv_core/lv_group.o
                0x00000000080226dc                lv_group_set_editing
 .text.lv_group_focus_obj
                0x0000000008022724       0xa8 ././lvgl/src/lv_core/lv_group.o
                0x0000000008022724                lv_group_focus_obj
 .text.lv_group_set_click_focus
                0x00000000080227cc       0x10 ././lvgl/src/lv_core/lv_group.o
                0x00000000080227cc                lv_group_set_click_focus
 .text.lv_group_set_refocus_policy
                0x00000000080227dc       0x10 ././lvgl/src/lv_core/lv_group.o
                0x00000000080227dc                lv_group_set_refocus_policy
 .text.lv_group_set_wrap
                0x00000000080227ec       0x10 ././lvgl/src/lv_core/lv_group.o
                0x00000000080227ec                lv_group_set_wrap
 .text.lv_group_mod_style
                0x00000000080227fc       0x30 ././lvgl/src/lv_core/lv_group.o
                0x00000000080227fc                lv_group_mod_style
 .text.lv_group_get_focused
                0x000000000802282c        0xc ././lvgl/src/lv_core/lv_group.o
                0x000000000802282c                lv_group_get_focused
 .text.lv_group_get_style_mod_cb
                0x0000000008022838        0x8 ././lvgl/src/lv_core/lv_group.o
                0x0000000008022838                lv_group_get_style_mod_cb
 .text.lv_group_get_style_mod_edit_cb
                0x0000000008022840        0x8 ././lvgl/src/lv_core/lv_group.o
                0x0000000008022840                lv_group_get_style_mod_edit_cb
 .text.lv_group_get_focus_cb
                0x0000000008022848        0x8 ././lvgl/src/lv_core/lv_group.o
                0x0000000008022848                lv_group_get_focus_cb
 .text.lv_group_get_editing
                0x0000000008022850        0xc ././lvgl/src/lv_core/lv_group.o
                0x0000000008022850                lv_group_get_editing
 .text.lv_group_get_click_focus
                0x000000000802285c        0xc ././lvgl/src/lv_core/lv_group.o
                0x000000000802285c                lv_group_get_click_focus
 .text.lv_group_get_wrap
                0x0000000008022868        0xc ././lvgl/src/lv_core/lv_group.o
                0x0000000008022868                lv_group_get_wrap
 .text.lv_group_report_style_mod
                0x0000000008022874       0x7c ././lvgl/src/lv_core/lv_group.o
                0x0000000008022874                lv_group_report_style_mod
 .text          0x00000000080228f0        0x0 ././lvgl/src/lv_core/lv_indev.o
 .text.indev_proc_reset_query_handler.part.0
                0x00000000080228f0       0x38 ././lvgl/src/lv_core/lv_indev.o
 .text.indev_search_obj
                0x0000000008022928       0x60 ././lvgl/src/lv_core/lv_indev.o
 .text.indev_drag_throw.part.2
                0x0000000008022988      0x1bc ././lvgl/src/lv_core/lv_indev.o
 .text.indev_proc_press
                0x0000000008022b44      0x520 ././lvgl/src/lv_core/lv_indev.o
 .text.indev_proc_release
                0x0000000008023064      0x298 ././lvgl/src/lv_core/lv_indev.o
 .text.lv_indev_reset.part.5
                0x00000000080232fc       0x20 ././lvgl/src/lv_core/lv_indev.o
 .text.lv_indev_init
                0x000000000802331c        0x4 ././lvgl/src/lv_core/lv_indev.o
                0x000000000802331c                lv_indev_init
 .text.lv_indev_read_task
                0x0000000008023320      0x760 ././lvgl/src/lv_core/lv_indev.o
                0x0000000008023320                lv_indev_read_task
 .text.lv_indev_get_act
                0x0000000008023a80        0xc ././lvgl/src/lv_core/lv_indev.o
                0x0000000008023a80                lv_indev_get_act
 .text.lv_indev_get_type
                0x0000000008023a8c        0x8 ././lvgl/src/lv_core/lv_indev.o
                0x0000000008023a8c                lv_indev_get_type
 .text.lv_indev_reset
                0x0000000008023a94       0x14 ././lvgl/src/lv_core/lv_indev.o
                0x0000000008023a94                lv_indev_reset
 .text.lv_indev_reset_long_press
                0x0000000008023aa8       0x20 ././lvgl/src/lv_core/lv_indev.o
                0x0000000008023aa8                lv_indev_reset_long_press
 .text.lv_indev_enable
                0x0000000008023ac8       0x14 ././lvgl/src/lv_core/lv_indev.o
                0x0000000008023ac8                lv_indev_enable
 .text.lv_indev_set_cursor
                0x0000000008023adc       0x30 ././lvgl/src/lv_core/lv_indev.o
                0x0000000008023adc                lv_indev_set_cursor
 .text.lv_indev_set_group
                0x0000000008023b0c       0x10 ././lvgl/src/lv_core/lv_indev.o
                0x0000000008023b0c                lv_indev_set_group
 .text.lv_indev_set_button_points
                0x0000000008023b1c        0xc ././lvgl/src/lv_core/lv_indev.o
                0x0000000008023b1c                lv_indev_set_button_points
 .text.lv_indev_get_point
                0x0000000008023b28       0x24 ././lvgl/src/lv_core/lv_indev.o
                0x0000000008023b28                lv_indev_get_point
 .text.lv_indev_get_key
                0x0000000008023b4c        0xc ././lvgl/src/lv_core/lv_indev.o
                0x0000000008023b4c                lv_indev_get_key
 .text.lv_indev_is_dragging
                0x0000000008023b58       0x1c ././lvgl/src/lv_core/lv_indev.o
                0x0000000008023b58                lv_indev_is_dragging
 .text.lv_indev_get_vect
                0x0000000008023b74       0x24 ././lvgl/src/lv_core/lv_indev.o
                0x0000000008023b74                lv_indev_get_vect
 .text.lv_indev_wait_release
                0x0000000008023b98       0x10 ././lvgl/src/lv_core/lv_indev.o
                0x0000000008023b98                lv_indev_wait_release
 .text.lv_indev_get_read_task
                0x0000000008023ba8        0x8 ././lvgl/src/lv_core/lv_indev.o
                0x0000000008023ba8                lv_indev_get_read_task
 .text.lv_indev_get_obj_act
                0x0000000008023bb0        0xc ././lvgl/src/lv_core/lv_indev.o
                0x0000000008023bb0                lv_indev_get_obj_act
 .text          0x0000000008023bbc        0x0 ././lvgl/src/lv_core/lv_obj.o
 .text.refresh_children_position
                0x0000000008023bbc       0x50 ././lvgl/src/lv_core/lv_obj.o
 .text.lv_init  0x0000000008023c0c       0x50 ././lvgl/src/lv_core/lv_obj.o
                0x0000000008023c0c                lv_init
 .text.lv_obj_del_async
                0x0000000008023c5c        0xc ././lvgl/src/lv_core/lv_obj.o
                0x0000000008023c5c                lv_obj_del_async
 .text.lv_obj_set_auto_realign
                0x0000000008023c68       0x10 ././lvgl/src/lv_core/lv_obj.o
                0x0000000008023c68                lv_obj_set_auto_realign
 .text.lv_obj_set_ext_click_area
                0x0000000008023c78        0x4 ././lvgl/src/lv_core/lv_obj.o
                0x0000000008023c78                lv_obj_set_ext_click_area
 .text.lv_obj_set_click
                0x0000000008023c7c       0x10 ././lvgl/src/lv_core/lv_obj.o
                0x0000000008023c7c                lv_obj_set_click
 .text.lv_obj_set_top
                0x0000000008023c8c       0x10 ././lvgl/src/lv_core/lv_obj.o
                0x0000000008023c8c                lv_obj_set_top
 .text.lv_obj_set_drag
                0x0000000008023c9c       0x1c ././lvgl/src/lv_core/lv_obj.o
                0x0000000008023c9c                lv_obj_set_drag
 .text.lv_obj_set_drag_dir
                0x0000000008023cb8       0x24 ././lvgl/src/lv_core/lv_obj.o
                0x0000000008023cb8                lv_obj_set_drag_dir
 .text.lv_obj_set_drag_throw
                0x0000000008023cdc       0x10 ././lvgl/src/lv_core/lv_obj.o
                0x0000000008023cdc                lv_obj_set_drag_throw
 .text.lv_obj_set_drag_parent
                0x0000000008023cec       0x10 ././lvgl/src/lv_core/lv_obj.o
                0x0000000008023cec                lv_obj_set_drag_parent
 .text.lv_obj_set_parent_event
                0x0000000008023cfc       0x10 ././lvgl/src/lv_core/lv_obj.o
                0x0000000008023cfc                lv_obj_set_parent_event
 .text.lv_obj_set_opa_scale_enable
                0x0000000008023d0c       0x10 ././lvgl/src/lv_core/lv_obj.o
                0x0000000008023d0c                lv_obj_set_opa_scale_enable
 .text.lv_obj_set_protect
                0x0000000008023d1c        0xc ././lvgl/src/lv_core/lv_obj.o
                0x0000000008023d1c                lv_obj_set_protect
 .text.lv_obj_clear_protect
                0x0000000008023d28       0x10 ././lvgl/src/lv_core/lv_obj.o
                0x0000000008023d28                lv_obj_clear_protect
 .text.lv_obj_set_event_cb
                0x0000000008023d38        0x4 ././lvgl/src/lv_core/lv_obj.o
                0x0000000008023d38                lv_obj_set_event_cb
 .text.lv_event_send_func
                0x0000000008023d3c       0x90 ././lvgl/src/lv_core/lv_obj.o
                0x0000000008023d3c                lv_event_send_func
 .text.lv_event_send
                0x0000000008023dcc       0x14 ././lvgl/src/lv_core/lv_obj.o
                0x0000000008023dcc                lv_event_send
 .text.delete_children
                0x0000000008023de0       0xd4 ././lvgl/src/lv_core/lv_obj.o
 .text.lv_event_get_data
                0x0000000008023eb4        0xc ././lvgl/src/lv_core/lv_obj.o
                0x0000000008023eb4                lv_event_get_data
 .text.lv_obj_set_signal_cb
                0x0000000008023ec0        0x4 ././lvgl/src/lv_core/lv_obj.o
                0x0000000008023ec0                lv_obj_set_signal_cb
 .text.lv_signal_send
                0x0000000008023ec4        0x8 ././lvgl/src/lv_core/lv_obj.o
                0x0000000008023ec4                lv_signal_send
 .text.lv_obj_set_design_cb
                0x0000000008023ecc        0x4 ././lvgl/src/lv_core/lv_obj.o
                0x0000000008023ecc                lv_obj_set_design_cb
 .text.lv_obj_allocate_ext_attr
                0x0000000008023ed0       0x10 ././lvgl/src/lv_core/lv_obj.o
                0x0000000008023ed0                lv_obj_allocate_ext_attr
 .text.lv_obj_get_screen
                0x0000000008023ee0        0xc ././lvgl/src/lv_core/lv_obj.o
                0x0000000008023ee0                lv_obj_get_screen
 .text.lv_obj_get_disp
                0x0000000008023eec       0x58 ././lvgl/src/lv_core/lv_obj.o
                0x0000000008023eec                lv_obj_get_disp
 .text.lv_obj_invalidate.part.3
                0x0000000008023f44       0xa8 ././lvgl/src/lv_core/lv_obj.o
 .text.lv_obj_invalidate
                0x0000000008023fec       0x10 ././lvgl/src/lv_core/lv_obj.o
                0x0000000008023fec                lv_obj_invalidate
 .text.lv_obj_move_foreground
                0x0000000008023ffc       0x4c ././lvgl/src/lv_core/lv_obj.o
                0x0000000008023ffc                lv_obj_move_foreground
 .text.lv_obj_move_background
                0x0000000008024048       0x4c ././lvgl/src/lv_core/lv_obj.o
                0x0000000008024048                lv_obj_move_background
 .text.lv_obj_set_pos
                0x0000000008024094       0xa0 ././lvgl/src/lv_core/lv_obj.o
                0x0000000008024094                lv_obj_set_pos
 .text.lv_obj_set_x
                0x0000000008024134       0x14 ././lvgl/src/lv_core/lv_obj.o
                0x0000000008024134                lv_obj_set_x
 .text.lv_obj_set_y
                0x0000000008024148       0x18 ././lvgl/src/lv_core/lv_obj.o
                0x0000000008024148                lv_obj_set_y
 .text.lv_obj_align
                0x0000000008024160      0x360 ././lvgl/src/lv_core/lv_obj.o
                0x0000000008024160                lv_obj_align
 .text.lv_obj_align_origo
                0x00000000080244c0      0x1c8 ././lvgl/src/lv_core/lv_obj.o
                0x00000000080244c0                lv_obj_align_origo
 .text.lv_obj_realign
                0x0000000008024688       0x2c ././lvgl/src/lv_core/lv_obj.o
                0x0000000008024688                lv_obj_realign
 .text.lv_obj_create
                0x00000000080246b4      0x240 ././lvgl/src/lv_core/lv_obj.o
                0x00000000080246b4                lv_obj_create
 .text.lv_obj_set_parent
                0x00000000080248f4       0x74 ././lvgl/src/lv_core/lv_obj.o
                0x00000000080248f4                lv_obj_set_parent
 .text.lv_obj_set_size
                0x0000000008024968       0xb0 ././lvgl/src/lv_core/lv_obj.o
                0x0000000008024968                lv_obj_set_size
 .text.lv_obj_set_width
                0x0000000008024a18       0x10 ././lvgl/src/lv_core/lv_obj.o
                0x0000000008024a18                lv_obj_set_width
 .text.lv_obj_set_height
                0x0000000008024a28       0x10 ././lvgl/src/lv_core/lv_obj.o
                0x0000000008024a28                lv_obj_set_height
 .text.lv_obj_refresh_style
                0x0000000008024a38       0x30 ././lvgl/src/lv_core/lv_obj.o
                0x0000000008024a38                lv_obj_refresh_style
 .text.lv_obj_set_hidden
                0x0000000008024a68       0x3c ././lvgl/src/lv_core/lv_obj.o
                0x0000000008024a68                lv_obj_set_hidden
 .text.lv_obj_set_opa_scale
                0x0000000008024aa4       0x14 ././lvgl/src/lv_core/lv_obj.o
                0x0000000008024aa4                lv_obj_set_opa_scale
 .text.lv_obj_refresh_ext_draw_pad
                0x0000000008024ab8       0x24 ././lvgl/src/lv_core/lv_obj.o
                0x0000000008024ab8                lv_obj_refresh_ext_draw_pad
 .text.lv_obj_del
                0x0000000008024adc      0x108 ././lvgl/src/lv_core/lv_obj.o
                0x0000000008024adc                lv_obj_del
 .text.lv_obj_del_async_cb
                0x0000000008024be4        0x4 ././lvgl/src/lv_core/lv_obj.o
 .text.lv_obj_get_parent
                0x0000000008024be8        0x4 ././lvgl/src/lv_core/lv_obj.o
                0x0000000008024be8                lv_obj_get_parent
 .text.lv_obj_get_child
                0x0000000008024bec        0xc ././lvgl/src/lv_core/lv_obj.o
                0x0000000008024bec                lv_obj_get_child
 .text.refresh_children_style
                0x0000000008024bf8       0x40 ././lvgl/src/lv_core/lv_obj.o
 .text.lv_obj_set_style
                0x0000000008024c38       0x14 ././lvgl/src/lv_core/lv_obj.o
                0x0000000008024c38                lv_obj_set_style
 .text.report_style_mod_core
                0x0000000008024c4c       0x40 ././lvgl/src/lv_core/lv_obj.o
 .text.lv_obj_report_style_mod
                0x0000000008024c8c       0x54 ././lvgl/src/lv_core/lv_obj.o
                0x0000000008024c8c                lv_obj_report_style_mod
 .text.lv_obj_clean
                0x0000000008024ce0       0x28 ././lvgl/src/lv_core/lv_obj.o
                0x0000000008024ce0                lv_obj_clean
 .text.lv_obj_get_child_back
                0x0000000008024d08        0xc ././lvgl/src/lv_core/lv_obj.o
                0x0000000008024d08                lv_obj_get_child_back
 .text.lv_obj_count_children
                0x0000000008024d14       0x28 ././lvgl/src/lv_core/lv_obj.o
                0x0000000008024d14                lv_obj_count_children
 .text.lv_obj_count_children_recursive
                0x0000000008024d3c       0x34 ././lvgl/src/lv_core/lv_obj.o
                0x0000000008024d3c                lv_obj_count_children_recursive
 .text.lv_obj_get_coords
                0x0000000008024d70        0xc ././lvgl/src/lv_core/lv_obj.o
                0x0000000008024d70                lv_obj_get_coords
 .text.lv_obj_get_x
                0x0000000008024d7c        0xc ././lvgl/src/lv_core/lv_obj.o
                0x0000000008024d7c                lv_obj_get_x
 .text.lv_obj_get_y
                0x0000000008024d88        0xc ././lvgl/src/lv_core/lv_obj.o
                0x0000000008024d88                lv_obj_get_y
 .text.lv_obj_get_width
                0x0000000008024d94        0xc ././lvgl/src/lv_core/lv_obj.o
                0x0000000008024d94                lv_obj_get_width
 .text.lv_obj_get_height
                0x0000000008024da0        0xc ././lvgl/src/lv_core/lv_obj.o
                0x0000000008024da0                lv_obj_get_height
 .text.lv_obj_get_auto_realign
                0x0000000008024dac        0xc ././lvgl/src/lv_core/lv_obj.o
                0x0000000008024dac                lv_obj_get_auto_realign
 .text.lv_obj_get_ext_click_pad_left
                0x0000000008024db8        0x4 ././lvgl/src/lv_core/lv_obj.o
                0x0000000008024db8                lv_obj_get_ext_click_pad_left
 .text.lv_obj_get_ext_click_pad_right
                0x0000000008024dbc        0x4 ././lvgl/src/lv_core/lv_obj.o
                0x0000000008024dbc                lv_obj_get_ext_click_pad_right
 .text.lv_obj_get_ext_click_pad_top
                0x0000000008024dc0        0x4 ././lvgl/src/lv_core/lv_obj.o
                0x0000000008024dc0                lv_obj_get_ext_click_pad_top
 .text.lv_obj_get_ext_click_pad_bottom
                0x0000000008024dc4        0x4 ././lvgl/src/lv_core/lv_obj.o
                0x0000000008024dc4                lv_obj_get_ext_click_pad_bottom
 .text.lv_obj_get_ext_draw_pad
                0x0000000008024dc8        0x8 ././lvgl/src/lv_core/lv_obj.o
                0x0000000008024dc8                lv_obj_get_ext_draw_pad
 .text.lv_obj_get_style
                0x0000000008024dd0       0x78 ././lvgl/src/lv_core/lv_obj.o
                0x0000000008024dd0                lv_obj_get_style
 .text.lv_obj_design
                0x0000000008024e48       0xc4 ././lvgl/src/lv_core/lv_obj.o
 .text.lv_obj_signal
                0x0000000008024f0c       0x54 ././lvgl/src/lv_core/lv_obj.o
 .text.lv_obj_get_inner_coords
                0x0000000008024f60       0x3c ././lvgl/src/lv_core/lv_obj.o
                0x0000000008024f60                lv_obj_get_inner_coords
 .text.lv_obj_get_width_fit
                0x0000000008024f9c       0x1c ././lvgl/src/lv_core/lv_obj.o
                0x0000000008024f9c                lv_obj_get_width_fit
 .text.lv_obj_get_height_fit
                0x0000000008024fb8       0x1c ././lvgl/src/lv_core/lv_obj.o
                0x0000000008024fb8                lv_obj_get_height_fit
 .text.lv_obj_get_hidden
                0x0000000008024fd4        0xc ././lvgl/src/lv_core/lv_obj.o
                0x0000000008024fd4                lv_obj_get_hidden
 .text.lv_obj_get_click
                0x0000000008024fe0        0xc ././lvgl/src/lv_core/lv_obj.o
                0x0000000008024fe0                lv_obj_get_click
 .text.lv_obj_get_top
                0x0000000008024fec        0xc ././lvgl/src/lv_core/lv_obj.o
                0x0000000008024fec                lv_obj_get_top
 .text.lv_obj_get_drag
                0x0000000008024ff8        0xc ././lvgl/src/lv_core/lv_obj.o
                0x0000000008024ff8                lv_obj_get_drag
 .text.lv_obj_get_drag_dir
                0x0000000008025004        0xc ././lvgl/src/lv_core/lv_obj.o
                0x0000000008025004                lv_obj_get_drag_dir
 .text.lv_obj_get_drag_throw
                0x0000000008025010        0xc ././lvgl/src/lv_core/lv_obj.o
                0x0000000008025010                lv_obj_get_drag_throw
 .text.lv_obj_get_drag_parent
                0x000000000802501c        0xc ././lvgl/src/lv_core/lv_obj.o
                0x000000000802501c                lv_obj_get_drag_parent
 .text.lv_obj_get_parent_event
                0x0000000008025028        0x8 ././lvgl/src/lv_core/lv_obj.o
                0x0000000008025028                lv_obj_get_parent_event
 .text.lv_obj_get_opa_scale_enable
                0x0000000008025030        0xc ././lvgl/src/lv_core/lv_obj.o
                0x0000000008025030                lv_obj_get_opa_scale_enable
 .text.lv_obj_get_opa_scale
                0x000000000802503c       0x1c ././lvgl/src/lv_core/lv_obj.o
                0x000000000802503c                lv_obj_get_opa_scale
 .text.lv_obj_get_protect
                0x0000000008025058        0x8 ././lvgl/src/lv_core/lv_obj.o
                0x0000000008025058                lv_obj_get_protect
 .text.lv_obj_is_protected
                0x0000000008025060       0x10 ././lvgl/src/lv_core/lv_obj.o
                0x0000000008025060                lv_obj_is_protected
 .text.lv_obj_get_signal_cb
                0x0000000008025070        0x4 ././lvgl/src/lv_core/lv_obj.o
                0x0000000008025070                lv_obj_get_signal_cb
 .text.lv_obj_get_design_cb
                0x0000000008025074        0x4 ././lvgl/src/lv_core/lv_obj.o
                0x0000000008025074                lv_obj_get_design_cb
 .text.lv_obj_get_event_cb
                0x0000000008025078        0x4 ././lvgl/src/lv_core/lv_obj.o
                0x0000000008025078                lv_obj_get_event_cb
 .text.lv_obj_get_ext_attr
                0x000000000802507c        0x4 ././lvgl/src/lv_core/lv_obj.o
                0x000000000802507c                lv_obj_get_ext_attr
 .text.lv_obj_get_type
                0x0000000008025080       0x64 ././lvgl/src/lv_core/lv_obj.o
                0x0000000008025080                lv_obj_get_type
 .text.lv_obj_get_group
                0x00000000080250e4        0x4 ././lvgl/src/lv_core/lv_obj.o
                0x00000000080250e4                lv_obj_get_group
 .text.lv_obj_is_focused
                0x00000000080250e8       0x1c ././lvgl/src/lv_core/lv_obj.o
                0x00000000080250e8                lv_obj_is_focused
 .text          0x0000000008025104        0x0 ././lvgl/src/lv_core/lv_disp.o
 .text.lv_disp_get_scr_act
                0x0000000008025104       0x14 ././lvgl/src/lv_core/lv_disp.o
                0x0000000008025104                lv_disp_get_scr_act
 .text.lv_disp_load_scr
                0x0000000008025118       0x14 ././lvgl/src/lv_core/lv_disp.o
                0x0000000008025118                lv_disp_load_scr
 .text.lv_disp_get_layer_top
                0x000000000802512c       0x14 ././lvgl/src/lv_core/lv_disp.o
                0x000000000802512c                lv_disp_get_layer_top
 .text.lv_disp_get_layer_sys
                0x0000000008025140       0x14 ././lvgl/src/lv_core/lv_disp.o
                0x0000000008025140                lv_disp_get_layer_sys
 .text.lv_disp_assign_screen
                0x0000000008025154       0x2c ././lvgl/src/lv_core/lv_disp.o
                0x0000000008025154                lv_disp_assign_screen
 .text.lv_disp_get_refr_task
                0x0000000008025180       0x14 ././lvgl/src/lv_core/lv_disp.o
                0x0000000008025180                lv_disp_get_refr_task
 .text.lv_disp_get_inactive_time
                0x0000000008025194       0x20 ././lvgl/src/lv_core/lv_disp.o
                0x0000000008025194                lv_disp_get_inactive_time
 .text.lv_disp_trig_activity
                0x00000000080251b4       0x1c ././lvgl/src/lv_core/lv_disp.o
                0x00000000080251b4                lv_disp_trig_activity
 .text          0x00000000080251d0        0x0 ././lvgl/src/lv_core/lv_style.o
 .text.lv_style_init
                0x00000000080251d0      0x3a4 ././lvgl/src/lv_core/lv_style.o
                0x00000000080251d0                lv_style_init
 .text.lv_style_copy
                0x0000000008025574       0x30 ././lvgl/src/lv_core/lv_style.o
                0x0000000008025574                lv_style_copy
 .text.lv_style_mix
                0x00000000080255a4      0x544 ././lvgl/src/lv_core/lv_style.o
                0x00000000080255a4                lv_style_mix
 .text          0x0000000008025ae8        0x0 ././lvgl/src/lv_hal/lv_hal_indev.o
 .text.lv_indev_drv_init
                0x0000000008025ae8       0x20 ././lvgl/src/lv_hal/lv_hal_indev.o
                0x0000000008025ae8                lv_indev_drv_init
 .text.lv_indev_drv_register
                0x0000000008025b08       0x78 ././lvgl/src/lv_hal/lv_hal_indev.o
                0x0000000008025b08                lv_indev_drv_register
 .text.lv_indev_drv_update
                0x0000000008025b80       0x24 ././lvgl/src/lv_hal/lv_hal_indev.o
                0x0000000008025b80                lv_indev_drv_update
 .text.lv_indev_get_next
                0x0000000008025ba4       0x14 ././lvgl/src/lv_hal/lv_hal_indev.o
                0x0000000008025ba4                lv_indev_get_next
 .text.lv_indev_read
                0x0000000008025bb8       0x30 ././lvgl/src/lv_hal/lv_hal_indev.o
                0x0000000008025bb8                lv_indev_read
 .text          0x0000000008025be8        0x0 ././lvgl/src/lv_hal/lv_hal_disp.o
 .text.lv_disp_drv_init
                0x0000000008025be8       0x34 ././lvgl/src/lv_hal/lv_hal_disp.o
                0x0000000008025be8                lv_disp_drv_init
 .text.lv_disp_buf_init
                0x0000000008025c1c       0x18 ././lvgl/src/lv_hal/lv_hal_disp.o
                0x0000000008025c1c                lv_disp_buf_init
 .text.lv_disp_drv_register
                0x0000000008025c34       0xd0 ././lvgl/src/lv_hal/lv_hal_disp.o
                0x0000000008025c34                lv_disp_drv_register
 .text.lv_disp_drv_update
                0x0000000008025d04       0x78 ././lvgl/src/lv_hal/lv_hal_disp.o
                0x0000000008025d04                lv_disp_drv_update
 .text.lv_disp_remove
                0x0000000008025d7c       0x50 ././lvgl/src/lv_hal/lv_hal_disp.o
                0x0000000008025d7c                lv_disp_remove
 .text.lv_disp_set_default
                0x0000000008025dcc        0xc ././lvgl/src/lv_hal/lv_hal_disp.o
                0x0000000008025dcc                lv_disp_set_default
 .text.lv_disp_get_default
                0x0000000008025dd8        0xc ././lvgl/src/lv_hal/lv_hal_disp.o
                0x0000000008025dd8                lv_disp_get_default
 .text.lv_disp_get_hor_res
                0x0000000008025de4       0x24 ././lvgl/src/lv_hal/lv_hal_disp.o
                0x0000000008025de4                lv_disp_get_hor_res
 .text.lv_disp_get_ver_res
                0x0000000008025e08       0x24 ././lvgl/src/lv_hal/lv_hal_disp.o
                0x0000000008025e08                lv_disp_get_ver_res
 .text.lv_disp_get_antialiasing
                0x0000000008025e2c       0x18 ././lvgl/src/lv_hal/lv_hal_disp.o
                0x0000000008025e2c                lv_disp_get_antialiasing
 .text.lv_disp_flush_ready
                0x0000000008025e44        0xc ././lvgl/src/lv_hal/lv_hal_disp.o
                0x0000000008025e44                lv_disp_flush_ready
 .text.lv_disp_get_next
                0x0000000008025e50       0x14 ././lvgl/src/lv_hal/lv_hal_disp.o
                0x0000000008025e50                lv_disp_get_next
 .text.lv_disp_get_buf
                0x0000000008025e64        0x4 ././lvgl/src/lv_hal/lv_hal_disp.o
                0x0000000008025e64                lv_disp_get_buf
 .text.lv_disp_get_inv_buf_size
                0x0000000008025e68        0xc ././lvgl/src/lv_hal/lv_hal_disp.o
                0x0000000008025e68                lv_disp_get_inv_buf_size
 .text.lv_disp_pop_from_inv_buf
                0x0000000008025e74       0x24 ././lvgl/src/lv_hal/lv_hal_disp.o
                0x0000000008025e74                lv_disp_pop_from_inv_buf
 .text.lv_disp_is_double_buf
                0x0000000008025e98       0x10 ././lvgl/src/lv_hal/lv_hal_disp.o
                0x0000000008025e98                lv_disp_is_double_buf
 .text.lv_disp_is_true_double_buf
                0x0000000008025ea8       0x24 ././lvgl/src/lv_hal/lv_hal_disp.o
                0x0000000008025ea8                lv_disp_is_true_double_buf
 .text          0x0000000008025ecc        0x0 ././lvgl/src/lv_hal/lv_hal_tick.o
 .text.lv_tick_inc
                0x0000000008025ecc       0x20 ././lvgl/src/lv_hal/lv_hal_tick.o
                0x0000000008025ecc                lv_tick_inc
 .text.lv_tick_get
                0x0000000008025eec       0x1c ././lvgl/src/lv_hal/lv_hal_tick.o
                0x0000000008025eec                lv_tick_get
 .text.lv_tick_elaps
                0x0000000008025f08       0x24 ././lvgl/src/lv_hal/lv_hal_tick.o
                0x0000000008025f08                lv_tick_elaps
 .text          0x0000000008025f2c        0x0 ././lvgl/src/lv_objx/lv_objx_templ.o
 .text          0x0000000008025f2c        0x0 ././lvgl/src/lv_objx/lv_win.o
 .text.lv_win_clean
                0x0000000008025f2c       0x10 ././lvgl/src/lv_objx/lv_win.o
                0x0000000008025f2c                lv_win_clean
 .text.lv_win_close_event_cb
                0x0000000008025f3c       0x18 ././lvgl/src/lv_objx/lv_win.o
                0x0000000008025f3c                lv_win_close_event_cb
 .text.lv_win_set_layout
                0x0000000008025f54       0x18 ././lvgl/src/lv_objx/lv_win.o
                0x0000000008025f54                lv_win_set_layout
 .text.lv_win_set_sb_mode
                0x0000000008025f6c       0x14 ././lvgl/src/lv_objx/lv_win.o
                0x0000000008025f6c                lv_win_set_sb_mode
 .text.lv_win_set_anim_time
                0x0000000008025f80       0x14 ././lvgl/src/lv_objx/lv_win.o
                0x0000000008025f80                lv_win_set_anim_time
 .text.lv_win_set_drag
                0x0000000008025f94       0x20 ././lvgl/src/lv_objx/lv_win.o
                0x0000000008025f94                lv_win_set_drag
 .text.lv_win_get_title
                0x0000000008025fb4       0x10 ././lvgl/src/lv_objx/lv_win.o
                0x0000000008025fb4                lv_win_get_title
 .text.lv_win_get_content
                0x0000000008025fc4        0xc ././lvgl/src/lv_objx/lv_win.o
                0x0000000008025fc4                lv_win_get_content
 .text.lv_win_get_btn_size
                0x0000000008025fd0        0xc ././lvgl/src/lv_objx/lv_win.o
                0x0000000008025fd0                lv_win_get_btn_size
 .text.lv_win_get_from_btn
                0x0000000008025fdc       0x10 ././lvgl/src/lv_objx/lv_win.o
                0x0000000008025fdc                lv_win_get_from_btn
 .text.lv_win_get_layout
                0x0000000008025fec       0x14 ././lvgl/src/lv_objx/lv_win.o
                0x0000000008025fec                lv_win_get_layout
 .text.lv_win_get_sb_mode
                0x0000000008026000       0x10 ././lvgl/src/lv_objx/lv_win.o
                0x0000000008026000                lv_win_get_sb_mode
 .text.lv_win_get_anim_time
                0x0000000008026010       0x10 ././lvgl/src/lv_objx/lv_win.o
                0x0000000008026010                lv_win_get_anim_time
 .text.lv_win_get_width
                0x0000000008026020       0x28 ././lvgl/src/lv_objx/lv_win.o
                0x0000000008026020                lv_win_get_width
 .text.lv_win_get_style
                0x0000000008026048       0x50 ././lvgl/src/lv_objx/lv_win.o
                0x0000000008026048                lv_win_get_style
 .text.lv_win_realign
                0x0000000008026098      0x110 ././lvgl/src/lv_objx/lv_win.o
 .text.lv_win_signal
                0x00000000080261a8       0xe0 ././lvgl/src/lv_objx/lv_win.o
 .text.lv_win_add_btn
                0x0000000008026288       0x58 ././lvgl/src/lv_objx/lv_win.o
                0x0000000008026288                lv_win_add_btn
 .text.lv_win_set_title
                0x00000000080262e0       0x1c ././lvgl/src/lv_objx/lv_win.o
                0x00000000080262e0                lv_win_set_title
 .text.lv_win_set_btn_size
                0x00000000080262fc       0x20 ././lvgl/src/lv_objx/lv_win.o
                0x00000000080262fc                lv_win_set_btn_size
 .text.lv_win_set_style
                0x000000000802631c       0x98 ././lvgl/src/lv_objx/lv_win.o
                0x000000000802631c                lv_win_set_style
 .text.lv_win_create
                0x00000000080263b4      0x1e0 ././lvgl/src/lv_objx/lv_win.o
                0x00000000080263b4                lv_win_create
 .text.lv_win_focus
                0x0000000008026594       0x18 ././lvgl/src/lv_objx/lv_win.o
                0x0000000008026594                lv_win_focus
 .text          0x00000000080265ac        0x0 ././lvgl/src/lv_objx/lv_calendar.o
 .text          0x00000000080265ac        0x0 ././lvgl/src/lv_objx/lv_img.o
 .text.lv_img_design
                0x00000000080265ac      0x164 ././lvgl/src/lv_objx/lv_img.o
 .text.lv_img_set_src
                0x0000000008026710      0x170 ././lvgl/src/lv_objx/lv_img.o
                0x0000000008026710                lv_img_set_src
 .text.lv_img_create
                0x0000000008026880       0xd8 ././lvgl/src/lv_objx/lv_img.o
                0x0000000008026880                lv_img_create
 .text.lv_img_signal
                0x0000000008026958       0x88 ././lvgl/src/lv_objx/lv_img.o
 .text.lv_img_set_auto_size
                0x00000000080269e0       0x14 ././lvgl/src/lv_objx/lv_img.o
                0x00000000080269e0                lv_img_set_auto_size
 .text.lv_img_set_offset_x
                0x00000000080269f4       0x24 ././lvgl/src/lv_objx/lv_img.o
                0x00000000080269f4                lv_img_set_offset_x
 .text.lv_img_set_offset_y
                0x0000000008026a18       0x24 ././lvgl/src/lv_objx/lv_img.o
                0x0000000008026a18                lv_img_set_offset_y
 .text.lv_img_get_src
                0x0000000008026a3c        0xc ././lvgl/src/lv_objx/lv_img.o
                0x0000000008026a3c                lv_img_get_src
 .text.lv_img_get_file_name
                0x0000000008026a48       0x1c ././lvgl/src/lv_objx/lv_img.o
                0x0000000008026a48                lv_img_get_file_name
 .text.lv_img_get_auto_size
                0x0000000008026a64       0x10 ././lvgl/src/lv_objx/lv_img.o
                0x0000000008026a64                lv_img_get_auto_size
 .text.lv_img_get_offset_x
                0x0000000008026a74        0xc ././lvgl/src/lv_objx/lv_img.o
                0x0000000008026a74                lv_img_get_offset_x
 .text.lv_img_get_offset_y
                0x0000000008026a80        0xc ././lvgl/src/lv_objx/lv_img.o
                0x0000000008026a80                lv_img_get_offset_y
 .text          0x0000000008026a8c        0x0 ././lvgl/src/lv_objx/lv_table.o
 .text.get_row_height
                0x0000000008026a8c      0x128 ././lvgl/src/lv_objx/lv_table.o
 .text.refr_size
                0x0000000008026bb4       0x9c ././lvgl/src/lv_objx/lv_table.o
 .text.lv_table_design
                0x0000000008026c50      0x388 ././lvgl/src/lv_objx/lv_table.o
 .text.lv_table_signal
                0x0000000008026fd8       0x88 ././lvgl/src/lv_objx/lv_table.o
 .text.lv_table_set_col_cnt.part.4
                0x0000000008027060       0x58 ././lvgl/src/lv_objx/lv_table.o
 .text.lv_table_set_cell_value
                0x00000000080270b8       0x70 ././lvgl/src/lv_objx/lv_table.o
                0x00000000080270b8                lv_table_set_cell_value
 .text.lv_table_set_row_cnt
                0x0000000008027128       0x5c ././lvgl/src/lv_objx/lv_table.o
                0x0000000008027128                lv_table_set_row_cnt
 .text.lv_table_create
                0x0000000008027184      0x150 ././lvgl/src/lv_objx/lv_table.o
                0x0000000008027184                lv_table_create
 .text.lv_table_set_col_cnt
                0x00000000080272d4        0xc ././lvgl/src/lv_objx/lv_table.o
                0x00000000080272d4                lv_table_set_col_cnt
 .text.lv_table_set_col_width
                0x00000000080272e0       0x24 ././lvgl/src/lv_objx/lv_table.o
                0x00000000080272e0                lv_table_set_col_width
 .text.lv_table_set_cell_align
                0x0000000008027304       0x58 ././lvgl/src/lv_objx/lv_table.o
                0x0000000008027304                lv_table_set_cell_align
 .text.lv_table_set_cell_type
                0x000000000802735c       0x68 ././lvgl/src/lv_objx/lv_table.o
                0x000000000802735c                lv_table_set_cell_type
 .text.lv_table_set_cell_crop
                0x00000000080273c4       0x58 ././lvgl/src/lv_objx/lv_table.o
                0x00000000080273c4                lv_table_set_cell_crop
 .text.lv_table_set_cell_merge_right
                0x000000000802741c       0x64 ././lvgl/src/lv_objx/lv_table.o
                0x000000000802741c                lv_table_set_cell_merge_right
 .text.lv_table_set_style
                0x0000000008027480       0x60 ././lvgl/src/lv_objx/lv_table.o
                0x0000000008027480                lv_table_set_style
 .text.lv_table_get_cell_value
                0x00000000080274e0       0x30 ././lvgl/src/lv_objx/lv_table.o
                0x00000000080274e0                lv_table_get_cell_value
 .text.lv_table_get_row_cnt
                0x0000000008027510        0xc ././lvgl/src/lv_objx/lv_table.o
                0x0000000008027510                lv_table_get_row_cnt
 .text.lv_table_get_col_cnt
                0x000000000802751c        0xc ././lvgl/src/lv_objx/lv_table.o
                0x000000000802751c                lv_table_get_col_cnt
 .text.lv_table_get_col_width
                0x0000000008027528       0x1c ././lvgl/src/lv_objx/lv_table.o
                0x0000000008027528                lv_table_get_col_width
 .text.lv_table_get_cell_align
                0x0000000008027544       0x30 ././lvgl/src/lv_objx/lv_table.o
                0x0000000008027544                lv_table_get_cell_align
 .text.lv_table_get_cell_type
                0x0000000008027574       0x34 ././lvgl/src/lv_objx/lv_table.o
                0x0000000008027574                lv_table_get_cell_type
 .text.lv_table_get_cell_crop
                0x00000000080275a8       0x30 ././lvgl/src/lv_objx/lv_table.o
                0x00000000080275a8                lv_table_get_cell_crop
 .text.lv_table_get_cell_merge_right
                0x00000000080275d8       0x30 ././lvgl/src/lv_objx/lv_table.o
                0x00000000080275d8                lv_table_get_cell_merge_right
 .text.lv_table_get_style
                0x0000000008027608       0x38 ././lvgl/src/lv_objx/lv_table.o
                0x0000000008027608                lv_table_get_style
 .text          0x0000000008027640        0x0 ././lvgl/src/lv_objx/lv_spinbox.o
 .text.lv_spinbox_updatevalue
                0x0000000008027640      0x17c ././lvgl/src/lv_objx/lv_spinbox.o
 .text.lv_spinbox_set_value
                0x00000000080277bc       0x2c ././lvgl/src/lv_objx/lv_spinbox.o
                0x00000000080277bc                lv_spinbox_set_value
 .text.lv_spinbox_set_digit_format
                0x00000000080277e8       0x38 ././lvgl/src/lv_objx/lv_spinbox.o
                0x00000000080277e8                lv_spinbox_set_digit_format
 .text.lv_spinbox_set_step
                0x0000000008027820       0x10 ././lvgl/src/lv_objx/lv_spinbox.o
                0x0000000008027820                lv_spinbox_set_step
 .text.lv_spinbox_set_range
                0x0000000008027830       0x3c ././lvgl/src/lv_objx/lv_spinbox.o
                0x0000000008027830                lv_spinbox_set_range
 .text.lv_spinbox_create
                0x000000000802786c      0x128 ././lvgl/src/lv_objx/lv_spinbox.o
                0x000000000802786c                lv_spinbox_create
 .text.lv_spinbox_set_padding_left
                0x0000000008027994       0x24 ././lvgl/src/lv_objx/lv_spinbox.o
                0x0000000008027994                lv_spinbox_set_padding_left
 .text.lv_spinbox_get_value
                0x00000000080279b8        0xc ././lvgl/src/lv_objx/lv_spinbox.o
                0x00000000080279b8                lv_spinbox_get_value
 .text.lv_spinbox_step_next
                0x00000000080279c4       0x38 ././lvgl/src/lv_objx/lv_spinbox.o
                0x00000000080279c4                lv_spinbox_step_next
 .text.lv_spinbox_step_prev
                0x00000000080279fc       0x34 ././lvgl/src/lv_objx/lv_spinbox.o
                0x00000000080279fc                lv_spinbox_step_prev
 .text.lv_spinbox_increment
                0x0000000008027a30       0x38 ././lvgl/src/lv_objx/lv_spinbox.o
                0x0000000008027a30                lv_spinbox_increment
 .text.lv_spinbox_decrement
                0x0000000008027a68       0x3c ././lvgl/src/lv_objx/lv_spinbox.o
                0x0000000008027a68                lv_spinbox_decrement
 .text.lv_spinbox_signal
                0x0000000008027aa4      0x108 ././lvgl/src/lv_objx/lv_spinbox.o
 .text          0x0000000008027bac        0x0 ././lvgl/src/lv_objx/lv_ta.o
 .text.pwd_char_hider
                0x0000000008027bac       0x50 ././lvgl/src/lv_objx/lv_ta.o
 .text.get_cursor_style
                0x0000000008027bfc       0x4c ././lvgl/src/lv_objx/lv_ta.o
 .text.refr_cursor_area
                0x0000000008027c48      0x2bc ././lvgl/src/lv_objx/lv_ta.o
 .text.lv_ta_design
                0x0000000008027f04       0x24 ././lvgl/src/lv_objx/lv_ta.o
 .text.lv_ta_scrollable_design
                0x0000000008027f28      0x164 ././lvgl/src/lv_objx/lv_ta.o
 .text.lv_ta_set_cursor_pos
                0x000000000802808c      0x140 ././lvgl/src/lv_objx/lv_ta.o
                0x000000000802808c                lv_ta_set_cursor_pos
 .text.update_cursor_position_on_click
                0x00000000080281cc       0xa8 ././lvgl/src/lv_objx/lv_ta.o
 .text.lv_ta_scrollable_signal
                0x0000000008028274       0xd4 ././lvgl/src/lv_objx/lv_ta.o
 .text.lv_ta_set_cursor_type
                0x0000000008028348       0x2c ././lvgl/src/lv_objx/lv_ta.o
                0x0000000008028348                lv_ta_set_cursor_type
 .text.lv_ta_set_cursor_click_pos
                0x0000000008028374       0x18 ././lvgl/src/lv_objx/lv_ta.o
                0x0000000008028374                lv_ta_set_cursor_click_pos
 .text.lv_ta_set_pwd_mode
                0x000000000802838c       0xa0 ././lvgl/src/lv_objx/lv_ta.o
                0x000000000802838c                lv_ta_set_pwd_mode
 .text.lv_ta_set_text_align
                0x000000000802842c       0xb8 ././lvgl/src/lv_objx/lv_ta.o
                0x000000000802842c                lv_ta_set_text_align
 .text.lv_ta_set_accepted_chars
                0x00000000080284e4        0xc ././lvgl/src/lv_objx/lv_ta.o
                0x00000000080284e4                lv_ta_set_accepted_chars
 .text.lv_ta_set_max_length
                0x00000000080284f0        0xc ././lvgl/src/lv_objx/lv_ta.o
                0x00000000080284f0                lv_ta_set_max_length
 .text.lv_ta_set_insert_replace
                0x00000000080284fc        0xc ././lvgl/src/lv_objx/lv_ta.o
                0x00000000080284fc                lv_ta_set_insert_replace
 .text.lv_ta_set_style
                0x0000000008028508       0x6c ././lvgl/src/lv_objx/lv_ta.o
                0x0000000008028508                lv_ta_set_style
 .text.lv_ta_set_text_sel
                0x0000000008028574        0x4 ././lvgl/src/lv_objx/lv_ta.o
                0x0000000008028574                lv_ta_set_text_sel
 .text.lv_ta_set_pwd_show_time
                0x0000000008028578        0xc ././lvgl/src/lv_objx/lv_ta.o
                0x0000000008028578                lv_ta_set_pwd_show_time
 .text.lv_ta_set_cursor_blink_time
                0x0000000008028584       0x1c ././lvgl/src/lv_objx/lv_ta.o
                0x0000000008028584                lv_ta_set_cursor_blink_time
 .text.lv_ta_get_text
                0x00000000080285a0       0x1c ././lvgl/src/lv_objx/lv_ta.o
                0x00000000080285a0                lv_ta_get_text
 .text.placeholder_update
                0x00000000080285bc       0x6c ././lvgl/src/lv_objx/lv_ta.o
 .text.lv_ta_set_one_line
                0x0000000008028628      0x108 ././lvgl/src/lv_objx/lv_ta.o
                0x0000000008028628                lv_ta_set_one_line
 .text.lv_ta_create
                0x0000000008028730      0x260 ././lvgl/src/lv_objx/lv_ta.o
                0x0000000008028730                lv_ta_create
 .text.lv_ta_set_placeholder_text
                0x0000000008028990       0x50 ././lvgl/src/lv_objx/lv_ta.o
                0x0000000008028990                lv_ta_set_placeholder_text
 .text.lv_ta_add_text
                0x00000000080289e0      0x134 ././lvgl/src/lv_objx/lv_ta.o
                0x00000000080289e0                lv_ta_add_text
 .text.lv_ta_add_char
                0x0000000008028b14      0x144 ././lvgl/src/lv_objx/lv_ta.o
                0x0000000008028b14                lv_ta_add_char
 .text.lv_ta_del_char
                0x0000000008028c58       0xf8 ././lvgl/src/lv_objx/lv_ta.o
                0x0000000008028c58                lv_ta_del_char
 .text.lv_ta_del_char_forward
                0x0000000008028d50       0x2c ././lvgl/src/lv_objx/lv_ta.o
                0x0000000008028d50                lv_ta_del_char_forward
 .text.lv_ta_set_text
                0x0000000008028d7c       0xec ././lvgl/src/lv_objx/lv_ta.o
                0x0000000008028d7c                lv_ta_set_text
 .text.lv_ta_get_placeholder_text
                0x0000000008028e68       0x14 ././lvgl/src/lv_objx/lv_ta.o
                0x0000000008028e68                lv_ta_get_placeholder_text
 .text.lv_ta_get_label
                0x0000000008028e7c        0xc ././lvgl/src/lv_objx/lv_ta.o
                0x0000000008028e7c                lv_ta_get_label
 .text.lv_ta_get_cursor_pos
                0x0000000008028e88        0xc ././lvgl/src/lv_objx/lv_ta.o
                0x0000000008028e88                lv_ta_get_cursor_pos
 .text.lv_ta_get_cursor_type
                0x0000000008028e94       0x10 ././lvgl/src/lv_objx/lv_ta.o
                0x0000000008028e94                lv_ta_get_cursor_type
 .text.lv_ta_get_cursor_click_pos
                0x0000000008028ea4       0x10 ././lvgl/src/lv_objx/lv_ta.o
                0x0000000008028ea4                lv_ta_get_cursor_click_pos
 .text.lv_ta_get_pwd_mode
                0x0000000008028eb4       0x10 ././lvgl/src/lv_objx/lv_ta.o
                0x0000000008028eb4                lv_ta_get_pwd_mode
 .text.lv_ta_get_one_line
                0x0000000008028ec4       0x10 ././lvgl/src/lv_objx/lv_ta.o
                0x0000000008028ec4                lv_ta_get_one_line
 .text.lv_ta_get_accepted_chars
                0x0000000008028ed4        0xc ././lvgl/src/lv_objx/lv_ta.o
                0x0000000008028ed4                lv_ta_get_accepted_chars
 .text.lv_ta_get_max_length
                0x0000000008028ee0        0xc ././lvgl/src/lv_objx/lv_ta.o
                0x0000000008028ee0                lv_ta_get_max_length
 .text.lv_ta_get_style
                0x0000000008028eec       0x50 ././lvgl/src/lv_objx/lv_ta.o
                0x0000000008028eec                lv_ta_get_style
 .text.lv_ta_text_is_selected
                0x0000000008028f3c        0x4 ././lvgl/src/lv_objx/lv_ta.o
                0x0000000008028f3c                lv_ta_text_is_selected
 .text.lv_ta_get_text_sel_en
                0x0000000008028f40        0x4 ././lvgl/src/lv_objx/lv_ta.o
                0x0000000008028f40                lv_ta_get_text_sel_en
 .text.lv_ta_get_pwd_show_time
                0x0000000008028f44        0xc ././lvgl/src/lv_objx/lv_ta.o
                0x0000000008028f44                lv_ta_get_pwd_show_time
 .text.lv_ta_get_cursor_blink_time
                0x0000000008028f50        0xc ././lvgl/src/lv_objx/lv_ta.o
                0x0000000008028f50                lv_ta_get_cursor_blink_time
 .text.lv_ta_clear_selection
                0x0000000008028f5c        0x4 ././lvgl/src/lv_objx/lv_ta.o
                0x0000000008028f5c                lv_ta_clear_selection
 .text.lv_ta_cursor_right
                0x0000000008028f60       0x18 ././lvgl/src/lv_objx/lv_ta.o
                0x0000000008028f60                lv_ta_cursor_right
 .text.lv_ta_cursor_left
                0x0000000008028f78       0x1c ././lvgl/src/lv_objx/lv_ta.o
                0x0000000008028f78                lv_ta_cursor_left
 .text.lv_ta_cursor_down
                0x0000000008028f94       0x68 ././lvgl/src/lv_objx/lv_ta.o
                0x0000000008028f94                lv_ta_cursor_down
 .text.lv_ta_cursor_up
                0x0000000008028ffc       0x58 ././lvgl/src/lv_objx/lv_ta.o
                0x0000000008028ffc                lv_ta_cursor_up
 .text.lv_ta_signal
                0x0000000008029054      0x2ec ././lvgl/src/lv_objx/lv_ta.o
 .text          0x0000000008029340        0x0 ././lvgl/src/lv_objx/lv_preload.o
 .text          0x0000000008029340        0x0 ././lvgl/src/lv_objx/lv_list.o
 .text.lv_list_is_list_btn
                0x0000000008029340       0x38 ././lvgl/src/lv_objx/lv_list.o
 .text.lv_list_clean
                0x0000000008029378       0x18 ././lvgl/src/lv_objx/lv_list.o
                0x0000000008029378                lv_list_clean
 .text.lv_list_set_single_mode
                0x0000000008029390       0x18 ././lvgl/src/lv_objx/lv_list.o
                0x0000000008029390                lv_list_set_single_mode
 .text.lv_list_set_btn_selected
                0x00000000080293a8       0x74 ././lvgl/src/lv_objx/lv_list.o
                0x00000000080293a8                lv_list_set_btn_selected
 .text.lv_list_add_btn
                0x000000000802941c      0x15c ././lvgl/src/lv_objx/lv_list.o
                0x000000000802941c                lv_list_add_btn
 .text.lv_list_get_single_mode
                0x0000000008029578       0x10 ././lvgl/src/lv_objx/lv_list.o
                0x0000000008029578                lv_list_get_single_mode
 .text.lv_list_get_btn_label
                0x0000000008029588       0x54 ././lvgl/src/lv_objx/lv_list.o
                0x0000000008029588                lv_list_get_btn_label
 .text.lv_list_get_btn_text
                0x00000000080295dc       0x18 ././lvgl/src/lv_objx/lv_list.o
                0x00000000080295dc                lv_list_get_btn_text
 .text.lv_list_get_btn_img
                0x00000000080295f4       0x54 ././lvgl/src/lv_objx/lv_list.o
                0x00000000080295f4                lv_list_get_btn_img
 .text.lv_list_get_prev_btn
                0x0000000008029648       0x38 ././lvgl/src/lv_objx/lv_list.o
                0x0000000008029648                lv_list_get_prev_btn
 .text.lv_list_set_style
                0x0000000008029680       0xa4 ././lvgl/src/lv_objx/lv_list.o
                0x0000000008029680                lv_list_set_style
 .text.lv_list_get_next_btn
                0x0000000008029724       0x38 ././lvgl/src/lv_objx/lv_list.o
                0x0000000008029724                lv_list_get_next_btn
 .text.lv_list_create
                0x000000000802975c      0x1c0 ././lvgl/src/lv_objx/lv_list.o
                0x000000000802975c                lv_list_create
 .text.lv_list_signal
                0x000000000802991c      0x210 ././lvgl/src/lv_objx/lv_list.o
 .text.lv_list_remove
                0x0000000008029b2c       0x48 ././lvgl/src/lv_objx/lv_list.o
                0x0000000008029b2c                lv_list_remove
 .text.lv_list_btn_signal
                0x0000000008029b74      0x138 ././lvgl/src/lv_objx/lv_list.o
 .text.lv_list_get_btn_index
                0x0000000008029cac       0x44 ././lvgl/src/lv_objx/lv_list.o
                0x0000000008029cac                lv_list_get_btn_index
 .text.lv_list_get_size
                0x0000000008029cf0        0xc ././lvgl/src/lv_objx/lv_list.o
                0x0000000008029cf0                lv_list_get_size
 .text.lv_list_get_btn_selected
                0x0000000008029cfc        0xc ././lvgl/src/lv_objx/lv_list.o
                0x0000000008029cfc                lv_list_get_btn_selected
 .text.lv_list_get_style
                0x0000000008029d08       0x64 ././lvgl/src/lv_objx/lv_list.o
                0x0000000008029d08                lv_list_get_style
 .text.lv_list_up
                0x0000000008029d6c       0x78 ././lvgl/src/lv_objx/lv_list.o
                0x0000000008029d6c                lv_list_up
 .text.lv_list_down
                0x0000000008029de4       0x4c ././lvgl/src/lv_objx/lv_list.o
                0x0000000008029de4                lv_list_down
 .text.lv_list_focus
                0x0000000008029e30       0x18 ././lvgl/src/lv_objx/lv_list.o
                0x0000000008029e30                lv_list_focus
 .text          0x0000000008029e48        0x0 ././lvgl/src/lv_objx/lv_cont.o
 .text.lv_cont_refr_layout
                0x0000000008029e48      0x5b0 ././lvgl/src/lv_objx/lv_cont.o
 .text.lv_cont_refr_autofit
                0x000000000802a3f8      0x318 ././lvgl/src/lv_objx/lv_cont.o
 .text.lv_cont_signal
                0x000000000802a710       0x90 ././lvgl/src/lv_objx/lv_cont.o
 .text.lv_cont_create
                0x000000000802a7a0       0xcc ././lvgl/src/lv_objx/lv_cont.o
                0x000000000802a7a0                lv_cont_create
 .text.lv_cont_set_layout
                0x000000000802a86c       0x2c ././lvgl/src/lv_objx/lv_cont.o
                0x000000000802a86c                lv_cont_set_layout
 .text.lv_cont_set_fit4
                0x000000000802a898       0x68 ././lvgl/src/lv_objx/lv_cont.o
                0x000000000802a898                lv_cont_set_fit4
 .text.lv_cont_get_layout
                0x000000000802a900       0x10 ././lvgl/src/lv_objx/lv_cont.o
                0x000000000802a900                lv_cont_get_layout
 .text.lv_cont_get_fit_left
                0x000000000802a910       0x10 ././lvgl/src/lv_objx/lv_cont.o
                0x000000000802a910                lv_cont_get_fit_left
 .text.lv_cont_get_fit_right
                0x000000000802a920        0xc ././lvgl/src/lv_objx/lv_cont.o
                0x000000000802a920                lv_cont_get_fit_right
 .text.lv_cont_get_fit_top
                0x000000000802a92c       0x10 ././lvgl/src/lv_objx/lv_cont.o
                0x000000000802a92c                lv_cont_get_fit_top
 .text.lv_cont_get_fit_bottom
                0x000000000802a93c       0x10 ././lvgl/src/lv_objx/lv_cont.o
                0x000000000802a93c                lv_cont_get_fit_bottom
 .text          0x000000000802a94c        0x0 ././lvgl/src/lv_objx/lv_cb.o
 .text.lv_cb_design
                0x000000000802a94c       0x48 ././lvgl/src/lv_objx/lv_cb.o
 .text.lv_bullet_design
                0x000000000802a994       0x78 ././lvgl/src/lv_objx/lv_cb.o
 .text.lv_cb_signal
                0x000000000802aa0c       0x94 ././lvgl/src/lv_objx/lv_cb.o
 .text.lv_cb_set_text
                0x000000000802aaa0       0x14 ././lvgl/src/lv_objx/lv_cb.o
                0x000000000802aaa0                lv_cb_set_text
 .text.lv_cb_set_static_text
                0x000000000802aab4       0x14 ././lvgl/src/lv_objx/lv_cb.o
                0x000000000802aab4                lv_cb_set_static_text
 .text.lv_cb_set_style
                0x000000000802aac8       0x98 ././lvgl/src/lv_objx/lv_cb.o
                0x000000000802aac8                lv_cb_set_style
 .text.lv_cb_create
                0x000000000802ab60      0x188 ././lvgl/src/lv_objx/lv_cb.o
                0x000000000802ab60                lv_cb_create
 .text.lv_cb_get_text
                0x000000000802ace8       0x10 ././lvgl/src/lv_objx/lv_cb.o
                0x000000000802ace8                lv_cb_get_text
 .text.lv_cb_get_style
                0x000000000802acf8       0x58 ././lvgl/src/lv_objx/lv_cb.o
                0x000000000802acf8                lv_cb_get_style
 .text          0x000000000802ad50        0x0 ././lvgl/src/lv_objx/lv_slider.o
 .text.lv_slider_set_knob_in
                0x000000000802ad50       0x28 ././lvgl/src/lv_objx/lv_slider.o
                0x000000000802ad50                lv_slider_set_knob_in
 .text.lv_slider_set_style
                0x000000000802ad78       0x40 ././lvgl/src/lv_objx/lv_slider.o
                0x000000000802ad78                lv_slider_set_style
 .text.lv_slider_create
                0x000000000802adb8       0xec ././lvgl/src/lv_objx/lv_slider.o
                0x000000000802adb8                lv_slider_create
 .text.lv_slider_get_value
                0x000000000802aea4       0x20 ././lvgl/src/lv_objx/lv_slider.o
                0x000000000802aea4                lv_slider_get_value
 .text.lv_slider_design
                0x000000000802aec4      0x3d4 ././lvgl/src/lv_objx/lv_slider.o
 .text.lv_slider_signal
                0x000000000802b298      0x280 ././lvgl/src/lv_objx/lv_slider.o
 .text.lv_slider_is_dragged
                0x000000000802b518       0x14 ././lvgl/src/lv_objx/lv_slider.o
                0x000000000802b518                lv_slider_is_dragged
 .text.lv_slider_get_knob_in
                0x000000000802b52c       0x10 ././lvgl/src/lv_objx/lv_slider.o
                0x000000000802b52c                lv_slider_get_knob_in
 .text.lv_slider_get_style
                0x000000000802b53c       0x2c ././lvgl/src/lv_objx/lv_slider.o
                0x000000000802b53c                lv_slider_get_style
 .text          0x000000000802b568        0x0 ././lvgl/src/lv_objx/lv_page.o
 .text.scrl_def_event_cb
                0x000000000802b568       0x24 ././lvgl/src/lv_objx/lv_page.o
 .text.lv_page_sb_refresh
                0x000000000802b58c      0x3b0 ././lvgl/src/lv_objx/lv_page.o
 .text.lv_scrl_design
                0x000000000802b93c       0x9c ././lvgl/src/lv_objx/lv_page.o
 .text.lv_page_scrollable_signal
                0x000000000802b9d8      0x41c ././lvgl/src/lv_objx/lv_page.o
 .text.lv_page_design
                0x000000000802bdf4      0x13c ././lvgl/src/lv_objx/lv_page.o
 .text.lv_page_clean
                0x000000000802bf30       0x10 ././lvgl/src/lv_objx/lv_page.o
                0x000000000802bf30                lv_page_clean
 .text.lv_page_set_sb_mode
                0x000000000802bf40       0x60 ././lvgl/src/lv_objx/lv_page.o
                0x000000000802bf40                lv_page_set_sb_mode
 .text.lv_page_set_anim_time
                0x000000000802bfa0        0x4 ././lvgl/src/lv_objx/lv_page.o
                0x000000000802bfa0                lv_page_set_anim_time
 .text.lv_page_set_scroll_propagation
                0x000000000802bfa4       0x18 ././lvgl/src/lv_objx/lv_page.o
                0x000000000802bfa4                lv_page_set_scroll_propagation
 .text.lv_page_set_edge_flash
                0x000000000802bfbc        0x4 ././lvgl/src/lv_objx/lv_page.o
                0x000000000802bfbc                lv_page_set_edge_flash
 .text.lv_page_set_style
                0x000000000802bfc0       0x64 ././lvgl/src/lv_objx/lv_page.o
                0x000000000802bfc0                lv_page_set_style
 .text.lv_page_create
                0x000000000802c024      0x200 ././lvgl/src/lv_objx/lv_page.o
                0x000000000802c024                lv_page_create
 .text.lv_page_get_scrl
                0x000000000802c224        0xc ././lvgl/src/lv_objx/lv_page.o
                0x000000000802c224                lv_page_get_scrl
 .text.lv_page_get_anim_time
                0x000000000802c230        0x4 ././lvgl/src/lv_objx/lv_page.o
                0x000000000802c230                lv_page_get_anim_time
 .text.lv_page_get_sb_mode
                0x000000000802c234       0x10 ././lvgl/src/lv_objx/lv_page.o
                0x000000000802c234                lv_page_get_sb_mode
 .text.lv_page_get_scroll_propagation
                0x000000000802c244       0x10 ././lvgl/src/lv_objx/lv_page.o
                0x000000000802c244                lv_page_get_scroll_propagation
 .text.lv_page_get_edge_flash
                0x000000000802c254        0x4 ././lvgl/src/lv_objx/lv_page.o
                0x000000000802c254                lv_page_get_edge_flash
 .text.lv_page_get_fit_width
                0x000000000802c258       0x38 ././lvgl/src/lv_objx/lv_page.o
                0x000000000802c258                lv_page_get_fit_width
 .text.lv_page_get_fit_height
                0x000000000802c290       0x38 ././lvgl/src/lv_objx/lv_page.o
                0x000000000802c290                lv_page_get_fit_height
 .text.lv_page_get_style
                0x000000000802c2c8       0x30 ././lvgl/src/lv_objx/lv_page.o
                0x000000000802c2c8                lv_page_get_style
 .text.lv_page_on_edge
                0x000000000802c2f8       0x8c ././lvgl/src/lv_objx/lv_page.o
                0x000000000802c2f8                lv_page_on_edge
 .text.lv_page_glue_obj
                0x000000000802c384       0x18 ././lvgl/src/lv_objx/lv_page.o
                0x000000000802c384                lv_page_glue_obj
 .text.lv_page_focus
                0x000000000802c39c      0x158 ././lvgl/src/lv_objx/lv_page.o
                0x000000000802c39c                lv_page_focus
 .text.lv_page_scroll_hor
                0x000000000802c4f4       0x20 ././lvgl/src/lv_objx/lv_page.o
                0x000000000802c4f4                lv_page_scroll_hor
 .text.lv_page_scroll_ver
                0x000000000802c514       0x20 ././lvgl/src/lv_objx/lv_page.o
                0x000000000802c514                lv_page_scroll_ver
 .text.lv_page_signal
                0x000000000802c534      0x28c ././lvgl/src/lv_objx/lv_page.o
 .text.lv_page_start_edge_flash
                0x000000000802c7c0        0x4 ././lvgl/src/lv_objx/lv_page.o
                0x000000000802c7c0                lv_page_start_edge_flash
 .text          0x000000000802c7c4        0x0 ././lvgl/src/lv_objx/lv_imgbtn.o
 .text.refr_img
                0x000000000802c7c4       0x5c ././lvgl/src/lv_objx/lv_imgbtn.o
 .text.lv_imgbtn_signal
                0x000000000802c820       0x4c ././lvgl/src/lv_objx/lv_imgbtn.o
 .text.lv_imgbtn_design
                0x000000000802c86c       0x78 ././lvgl/src/lv_objx/lv_imgbtn.o
 .text.lv_imgbtn_create
                0x000000000802c8e4       0x98 ././lvgl/src/lv_objx/lv_imgbtn.o
                0x000000000802c8e4                lv_imgbtn_create
 .text.lv_imgbtn_set_src
                0x000000000802c97c       0x1c ././lvgl/src/lv_objx/lv_imgbtn.o
                0x000000000802c97c                lv_imgbtn_set_src
 .text.lv_imgbtn_set_style
                0x000000000802c998        0x4 ././lvgl/src/lv_objx/lv_imgbtn.o
                0x000000000802c998                lv_imgbtn_set_style
 .text.lv_imgbtn_get_src
                0x000000000802c99c       0x10 ././lvgl/src/lv_objx/lv_imgbtn.o
                0x000000000802c99c                lv_imgbtn_get_src
 .text.lv_imgbtn_get_style
                0x000000000802c9ac        0x4 ././lvgl/src/lv_objx/lv_imgbtn.o
                0x000000000802c9ac                lv_imgbtn_get_style
 .text          0x000000000802c9b0        0x0 ././lvgl/src/lv_objx/lv_chart.o
 .text          0x000000000802c9b0        0x0 ././lvgl/src/lv_objx/lv_line.o
 .text.lv_line_signal
                0x000000000802c9b0       0x58 ././lvgl/src/lv_objx/lv_line.o
 .text.lv_line_design
                0x000000000802ca08      0x198 ././lvgl/src/lv_objx/lv_line.o
 .text.lv_line_set_points
                0x000000000802cba0       0x68 ././lvgl/src/lv_objx/lv_line.o
                0x000000000802cba0                lv_line_set_points
 .text.lv_line_set_auto_size
                0x000000000802cc08       0x30 ././lvgl/src/lv_objx/lv_line.o
                0x000000000802cc08                lv_line_set_auto_size
 .text.lv_line_set_y_invert
                0x000000000802cc38       0x28 ././lvgl/src/lv_objx/lv_line.o
                0x000000000802cc38                lv_line_set_y_invert
 .text.lv_line_create
                0x000000000802cc60       0xd0 ././lvgl/src/lv_objx/lv_line.o
                0x000000000802cc60                lv_line_create
 .text.lv_line_get_auto_size
                0x000000000802cd30       0x10 ././lvgl/src/lv_objx/lv_line.o
                0x000000000802cd30                lv_line_get_auto_size
 .text.lv_line_get_y_invert
                0x000000000802cd40       0x10 ././lvgl/src/lv_objx/lv_line.o
                0x000000000802cd40                lv_line_get_y_invert
 .text          0x000000000802cd50        0x0 ././lvgl/src/lv_objx/lv_bar.o
 .text.lv_bar_design
                0x000000000802cd50      0x200 ././lvgl/src/lv_objx/lv_bar.o
 .text.lv_bar_signal
                0x000000000802cf50       0x5c ././lvgl/src/lv_objx/lv_bar.o
 .text.lv_bar_set_value
                0x000000000802cfac       0x3c ././lvgl/src/lv_objx/lv_bar.o
                0x000000000802cfac                lv_bar_set_value
 .text.lv_bar_create
                0x000000000802cfe8      0x114 ././lvgl/src/lv_objx/lv_bar.o
                0x000000000802cfe8                lv_bar_create
 .text.lv_bar_set_range
                0x000000000802d0fc       0x64 ././lvgl/src/lv_objx/lv_bar.o
                0x000000000802d0fc                lv_bar_set_range
 .text.lv_bar_set_sym
                0x000000000802d160       0x14 ././lvgl/src/lv_objx/lv_bar.o
                0x000000000802d160                lv_bar_set_sym
 .text.lv_bar_set_anim_time
                0x000000000802d174        0x4 ././lvgl/src/lv_objx/lv_bar.o
                0x000000000802d174                lv_bar_set_anim_time
 .text.lv_bar_set_style
                0x000000000802d178       0x2c ././lvgl/src/lv_objx/lv_bar.o
                0x000000000802d178                lv_bar_set_style
 .text.lv_bar_get_value
                0x000000000802d1a4        0xc ././lvgl/src/lv_objx/lv_bar.o
                0x000000000802d1a4                lv_bar_get_value
 .text.lv_bar_get_min_value
                0x000000000802d1b0        0xc ././lvgl/src/lv_objx/lv_bar.o
                0x000000000802d1b0                lv_bar_get_min_value
 .text.lv_bar_get_max_value
                0x000000000802d1bc        0xc ././lvgl/src/lv_objx/lv_bar.o
                0x000000000802d1bc                lv_bar_get_max_value
 .text.lv_bar_get_sym
                0x000000000802d1c8       0x10 ././lvgl/src/lv_objx/lv_bar.o
                0x000000000802d1c8                lv_bar_get_sym
 .text.lv_bar_get_anim_time
                0x000000000802d1d8        0x4 ././lvgl/src/lv_objx/lv_bar.o
                0x000000000802d1d8                lv_bar_get_anim_time
 .text.lv_bar_get_style
                0x000000000802d1dc       0x24 ././lvgl/src/lv_objx/lv_bar.o
                0x000000000802d1dc                lv_bar_get_style
 .text          0x000000000802d200        0x0 ././lvgl/src/lv_objx/lv_label.o
 .text.lv_label_dot_tmp_free
                0x000000000802d200       0x24 ././lvgl/src/lv_objx/lv_label.o
 .text.lv_label_revert_dots
                0x000000000802d224       0x74 ././lvgl/src/lv_objx/lv_label.o
 .text.lv_label_set_dot_tmp
                0x000000000802d298       0x54 ././lvgl/src/lv_objx/lv_label.o
 .text.lv_label_design
                0x000000000802d2ec      0x218 ././lvgl/src/lv_objx/lv_label.o
 .text.lv_label_set_align
                0x000000000802d504       0x28 ././lvgl/src/lv_objx/lv_label.o
                0x000000000802d504                lv_label_set_align
 .text.lv_label_set_body_draw
                0x000000000802d52c       0x2c ././lvgl/src/lv_objx/lv_label.o
                0x000000000802d52c                lv_label_set_body_draw
 .text.lv_label_set_anim_speed
                0x000000000802d558        0x4 ././lvgl/src/lv_objx/lv_label.o
                0x000000000802d558                lv_label_set_anim_speed
 .text.lv_label_set_text_sel_start
                0x000000000802d55c        0x4 ././lvgl/src/lv_objx/lv_label.o
                0x000000000802d55c                lv_label_set_text_sel_start
 .text.lv_label_set_text_sel_end
                0x000000000802d560        0x4 ././lvgl/src/lv_objx/lv_label.o
                0x000000000802d560                lv_label_set_text_sel_end
 .text.lv_label_get_text
                0x000000000802d564        0xc ././lvgl/src/lv_objx/lv_label.o
                0x000000000802d564                lv_label_get_text
 .text.lv_label_get_long_mode
                0x000000000802d570       0x10 ././lvgl/src/lv_objx/lv_label.o
                0x000000000802d570                lv_label_get_long_mode
 .text.lv_label_get_align
                0x000000000802d580       0x10 ././lvgl/src/lv_objx/lv_label.o
                0x000000000802d580                lv_label_get_align
 .text.lv_label_get_recolor
                0x000000000802d590       0x10 ././lvgl/src/lv_objx/lv_label.o
                0x000000000802d590                lv_label_get_recolor
 .text.lv_label_get_body_draw
                0x000000000802d5a0       0x10 ././lvgl/src/lv_objx/lv_label.o
                0x000000000802d5a0                lv_label_get_body_draw
 .text.lv_label_get_anim_speed
                0x000000000802d5b0        0x4 ././lvgl/src/lv_objx/lv_label.o
                0x000000000802d5b0                lv_label_get_anim_speed
 .text.lv_label_get_letter_pos
                0x000000000802d5b4      0x1ac ././lvgl/src/lv_objx/lv_label.o
                0x000000000802d5b4                lv_label_get_letter_pos
 .text.lv_label_get_letter_on
                0x000000000802d760      0x194 ././lvgl/src/lv_objx/lv_label.o
                0x000000000802d760                lv_label_get_letter_on
 .text.lv_label_refr_text
                0x000000000802d8f4      0x184 ././lvgl/src/lv_objx/lv_label.o
 .text.lv_label_signal
                0x000000000802da78       0xe8 ././lvgl/src/lv_objx/lv_label.o
 .text.lv_label_set_text
                0x000000000802db60       0x84 ././lvgl/src/lv_objx/lv_label.o
                0x000000000802db60                lv_label_set_text
 .text.lv_label_set_array_text
                0x000000000802dbe4       0x78 ././lvgl/src/lv_objx/lv_label.o
                0x000000000802dbe4                lv_label_set_array_text
 .text.lv_label_set_static_text
                0x000000000802dc5c       0x34 ././lvgl/src/lv_objx/lv_label.o
                0x000000000802dc5c                lv_label_set_static_text
 .text.lv_label_set_long_mode
                0x000000000802dc90       0x50 ././lvgl/src/lv_objx/lv_label.o
                0x000000000802dc90                lv_label_set_long_mode
 .text.lv_label_set_recolor
                0x000000000802dce0       0x28 ././lvgl/src/lv_objx/lv_label.o
                0x000000000802dce0                lv_label_set_recolor
 .text.lv_label_create
                0x000000000802dd08      0x180 ././lvgl/src/lv_objx/lv_label.o
                0x000000000802dd08                lv_label_create
 .text.lv_label_get_text_sel_start
                0x000000000802de88        0x8 ././lvgl/src/lv_objx/lv_label.o
                0x000000000802de88                lv_label_get_text_sel_start
 .text.lv_label_get_text_sel_end
                0x000000000802de90        0x8 ././lvgl/src/lv_objx/lv_label.o
                0x000000000802de90                lv_label_get_text_sel_end
 .text.lv_label_is_char_under_pos
                0x000000000802de98      0x1c4 ././lvgl/src/lv_objx/lv_label.o
                0x000000000802de98                lv_label_is_char_under_pos
 .text.lv_label_ins_text
                0x000000000802e05c       0x70 ././lvgl/src/lv_objx/lv_label.o
                0x000000000802e05c                lv_label_ins_text
 .text.lv_label_cut_text
                0x000000000802e0cc       0x34 ././lvgl/src/lv_objx/lv_label.o
                0x000000000802e0cc                lv_label_cut_text
 .text          0x000000000802e100        0x0 ././lvgl/src/lv_objx/lv_led.o
 .text.lv_led_signal
                0x000000000802e100       0x38 ././lvgl/src/lv_objx/lv_led.o
 .text.lv_led_design
                0x000000000802e138      0x180 ././lvgl/src/lv_objx/lv_led.o
 .text.lv_led_create
                0x000000000802e2b8       0xa4 ././lvgl/src/lv_objx/lv_led.o
                0x000000000802e2b8                lv_led_create
 .text.lv_led_set_bright
                0x000000000802e35c       0x20 ././lvgl/src/lv_objx/lv_led.o
                0x000000000802e35c                lv_led_set_bright
 .text.lv_led_on
                0x000000000802e37c        0x8 ././lvgl/src/lv_objx/lv_led.o
                0x000000000802e37c                lv_led_on
 .text.lv_led_off
                0x000000000802e384        0x8 ././lvgl/src/lv_objx/lv_led.o
                0x000000000802e384                lv_led_off
 .text.lv_led_toggle
                0x000000000802e38c       0x24 ././lvgl/src/lv_objx/lv_led.o
                0x000000000802e38c                lv_led_toggle
 .text.lv_led_get_bright
                0x000000000802e3b0        0xc ././lvgl/src/lv_objx/lv_led.o
                0x000000000802e3b0                lv_led_get_bright
 .text          0x000000000802e3bc        0x0 ././lvgl/src/lv_objx/lv_kb.o
 .text          0x000000000802e3bc        0x0 ././lvgl/src/lv_objx/lv_sw.o
 .text.lv_sw_on
                0x000000000802e3bc       0x24 ././lvgl/src/lv_objx/lv_sw.o
                0x000000000802e3bc                lv_sw_on
 .text.lv_sw_off
                0x000000000802e3e0       0x24 ././lvgl/src/lv_objx/lv_sw.o
                0x000000000802e3e0                lv_sw_off
 .text.lv_sw_signal
                0x000000000802e404      0x250 ././lvgl/src/lv_objx/lv_sw.o
 .text.lv_sw_toggle
                0x000000000802e654       0x30 ././lvgl/src/lv_objx/lv_sw.o
                0x000000000802e654                lv_sw_toggle
 .text.lv_sw_set_style
                0x000000000802e684       0x5c ././lvgl/src/lv_objx/lv_sw.o
                0x000000000802e684                lv_sw_set_style
 .text.lv_sw_create
                0x000000000802e6e0       0xd0 ././lvgl/src/lv_objx/lv_sw.o
                0x000000000802e6e0                lv_sw_create
 .text.lv_sw_set_anim_time
                0x000000000802e7b0        0x4 ././lvgl/src/lv_objx/lv_sw.o
                0x000000000802e7b0                lv_sw_set_anim_time
 .text.lv_sw_get_style
                0x000000000802e7b4       0x3c ././lvgl/src/lv_objx/lv_sw.o
                0x000000000802e7b4                lv_sw_get_style
 .text.lv_sw_get_anim_time
                0x000000000802e7f0        0x4 ././lvgl/src/lv_objx/lv_sw.o
                0x000000000802e7f0                lv_sw_get_anim_time
 .text          0x000000000802e7f4        0x0 ././lvgl/src/lv_objx/lv_btn.o
 .text.lv_btn_design
                0x000000000802e7f4       0x24 ././lvgl/src/lv_objx/lv_btn.o
 .text.lv_btn_set_toggle
                0x000000000802e818       0x14 ././lvgl/src/lv_objx/lv_btn.o
                0x000000000802e818                lv_btn_set_toggle
 .text.lv_btn_set_state
                0x000000000802e82c       0x2c ././lvgl/src/lv_objx/lv_btn.o
                0x000000000802e82c                lv_btn_set_state
 .text.lv_btn_signal
                0x000000000802e858      0x178 ././lvgl/src/lv_objx/lv_btn.o
 .text.lv_btn_toggle
                0x000000000802e9d0       0x4c ././lvgl/src/lv_objx/lv_btn.o
                0x000000000802e9d0                lv_btn_toggle
 .text.lv_btn_set_ink_in_time
                0x000000000802ea1c        0x4 ././lvgl/src/lv_objx/lv_btn.o
                0x000000000802ea1c                lv_btn_set_ink_in_time
 .text.lv_btn_set_ink_wait_time
                0x000000000802ea20        0x4 ././lvgl/src/lv_objx/lv_btn.o
                0x000000000802ea20                lv_btn_set_ink_wait_time
 .text.lv_btn_set_ink_out_time
                0x000000000802ea24        0x4 ././lvgl/src/lv_objx/lv_btn.o
                0x000000000802ea24                lv_btn_set_ink_out_time
 .text.lv_btn_set_style
                0x000000000802ea28       0x44 ././lvgl/src/lv_objx/lv_btn.o
                0x000000000802ea28                lv_btn_set_style
 .text.lv_btn_create
                0x000000000802ea6c      0x138 ././lvgl/src/lv_objx/lv_btn.o
                0x000000000802ea6c                lv_btn_create
 .text.lv_btn_get_state
                0x000000000802eba4       0x10 ././lvgl/src/lv_objx/lv_btn.o
                0x000000000802eba4                lv_btn_get_state
 .text.lv_btn_get_toggle
                0x000000000802ebb4       0x10 ././lvgl/src/lv_objx/lv_btn.o
                0x000000000802ebb4                lv_btn_get_toggle
 .text.lv_btn_get_ink_in_time
                0x000000000802ebc4        0x4 ././lvgl/src/lv_objx/lv_btn.o
                0x000000000802ebc4                lv_btn_get_ink_in_time
 .text.lv_btn_get_ink_wait_time
                0x000000000802ebc8        0x4 ././lvgl/src/lv_objx/lv_btn.o
                0x000000000802ebc8                lv_btn_get_ink_wait_time
 .text.lv_btn_get_ink_out_time
                0x000000000802ebcc        0x4 ././lvgl/src/lv_objx/lv_btn.o
                0x000000000802ebcc                lv_btn_get_ink_out_time
 .text.lv_btn_get_style
                0x000000000802ebd0       0x60 ././lvgl/src/lv_objx/lv_btn.o
                0x000000000802ebd0                lv_btn_get_style
 .text          0x000000000802ec30        0x0 ././lvgl/src/lv_objx/lv_gauge.o
 .text.lv_gauge_design
                0x000000000802ec30      0x490 ././lvgl/src/lv_objx/lv_gauge.o
 .text.lv_gauge_signal
                0x000000000802f0c0       0x54 ././lvgl/src/lv_objx/lv_gauge.o
 .text.lv_gauge_set_needle_count
                0x000000000802f114       0x68 ././lvgl/src/lv_objx/lv_gauge.o
                0x000000000802f114                lv_gauge_set_needle_count
 .text.lv_gauge_set_value
                0x000000000802f17c       0x54 ././lvgl/src/lv_objx/lv_gauge.o
                0x000000000802f17c                lv_gauge_set_value
 .text.lv_gauge_set_scale
                0x000000000802f1d0       0x1c ././lvgl/src/lv_objx/lv_gauge.o
                0x000000000802f1d0                lv_gauge_set_scale
 .text.lv_gauge_create
                0x000000000802f1ec       0xf4 ././lvgl/src/lv_objx/lv_gauge.o
                0x000000000802f1ec                lv_gauge_create
 .text.lv_gauge_get_value
                0x000000000802f2e0       0x20 ././lvgl/src/lv_objx/lv_gauge.o
                0x000000000802f2e0                lv_gauge_get_value
 .text.lv_gauge_get_needle_count
                0x000000000802f300        0xc ././lvgl/src/lv_objx/lv_gauge.o
                0x000000000802f300                lv_gauge_get_needle_count
 .text.lv_gauge_get_label_count
                0x000000000802f30c        0xc ././lvgl/src/lv_objx/lv_gauge.o
                0x000000000802f30c                lv_gauge_get_label_count
 .text          0x000000000802f318        0x0 ././lvgl/src/lv_objx/lv_btnm.o
 .text.get_button_from_point
                0x000000000802f318       0x88 ././lvgl/src/lv_objx/lv_btnm.o
 .text.invalidate_button_area.part.2
                0x000000000802f3a0       0x64 ././lvgl/src/lv_objx/lv_btnm.o
 .text.lv_btnm_design
                0x000000000802f404      0x2c8 ././lvgl/src/lv_objx/lv_btnm.o
 .text.lv_btnm_set_map.part.4
                0x000000000802f6cc      0x310 ././lvgl/src/lv_objx/lv_btnm.o
 .text.lv_btnm_set_map
                0x000000000802f9dc        0x8 ././lvgl/src/lv_objx/lv_btnm.o
                0x000000000802f9dc                lv_btnm_set_map
 .text.lv_btnm_set_ctrl_map
                0x000000000802f9e4       0x28 ././lvgl/src/lv_objx/lv_btnm.o
                0x000000000802f9e4                lv_btnm_set_ctrl_map
 .text.lv_btnm_set_pressed
                0x000000000802fa0c       0x2c ././lvgl/src/lv_objx/lv_btnm.o
                0x000000000802fa0c                lv_btnm_set_pressed
 .text.lv_btnm_set_style
                0x000000000802fa38       0x64 ././lvgl/src/lv_objx/lv_btnm.o
                0x000000000802fa38                lv_btnm_set_style
 .text.lv_btnm_create
                0x000000000802fa9c      0x15c ././lvgl/src/lv_objx/lv_btnm.o
                0x000000000802fa9c                lv_btnm_create
 .text.lv_btnm_set_recolor
                0x000000000802fbf8       0x24 ././lvgl/src/lv_objx/lv_btnm.o
                0x000000000802fbf8                lv_btnm_set_recolor
 .text.lv_btnm_set_btn_ctrl
                0x000000000802fc1c       0x34 ././lvgl/src/lv_objx/lv_btnm.o
                0x000000000802fc1c                lv_btnm_set_btn_ctrl
 .text.lv_btnm_clear_btn_ctrl
                0x000000000802fc50       0x38 ././lvgl/src/lv_objx/lv_btnm.o
                0x000000000802fc50                lv_btnm_clear_btn_ctrl
 .text.lv_btnm_set_btn_ctrl_all
                0x000000000802fc88       0x28 ././lvgl/src/lv_objx/lv_btnm.o
                0x000000000802fc88                lv_btnm_set_btn_ctrl_all
 .text.lv_btnm_clear_btn_ctrl_all
                0x000000000802fcb0       0x28 ././lvgl/src/lv_objx/lv_btnm.o
                0x000000000802fcb0                lv_btnm_clear_btn_ctrl_all
 .text.make_one_button_toggled
                0x000000000802fcd8       0x40 ././lvgl/src/lv_objx/lv_btnm.o
 .text.lv_btnm_signal
                0x000000000802fd18      0x400 ././lvgl/src/lv_objx/lv_btnm.o
 .text.lv_btnm_set_btn_width
                0x0000000008030118       0x38 ././lvgl/src/lv_objx/lv_btnm.o
                0x0000000008030118                lv_btnm_set_btn_width
 .text.lv_btnm_set_one_toggle
                0x0000000008030150       0x24 ././lvgl/src/lv_objx/lv_btnm.o
                0x0000000008030150                lv_btnm_set_one_toggle
 .text.lv_btnm_get_map_array
                0x0000000008030174        0xc ././lvgl/src/lv_objx/lv_btnm.o
                0x0000000008030174                lv_btnm_get_map_array
 .text.lv_btnm_get_recolor
                0x0000000008030180       0x10 ././lvgl/src/lv_objx/lv_btnm.o
                0x0000000008030180                lv_btnm_get_recolor
 .text.lv_btnm_get_active_btn
                0x0000000008030190        0xc ././lvgl/src/lv_objx/lv_btnm.o
                0x0000000008030190                lv_btnm_get_active_btn
 .text.lv_btnm_get_pressed_btn
                0x000000000803019c        0xc ././lvgl/src/lv_objx/lv_btnm.o
                0x000000000803019c                lv_btnm_get_pressed_btn
 .text.lv_btnm_get_btn_text
                0x00000000080301a8       0x6c ././lvgl/src/lv_objx/lv_btnm.o
                0x00000000080301a8                lv_btnm_get_btn_text
 .text.lv_btnm_get_active_btn_text
                0x0000000008030214       0x20 ././lvgl/src/lv_objx/lv_btnm.o
                0x0000000008030214                lv_btnm_get_active_btn_text
 .text.lv_btnm_get_btn_ctrl
                0x0000000008030234       0x24 ././lvgl/src/lv_objx/lv_btnm.o
                0x0000000008030234                lv_btnm_get_btn_ctrl
 .text.lv_btnm_get_style
                0x0000000008030258       0x3c ././lvgl/src/lv_objx/lv_btnm.o
                0x0000000008030258                lv_btnm_get_style
 .text.lv_btnm_get_one_toggle
                0x0000000008030294       0x10 ././lvgl/src/lv_objx/lv_btnm.o
                0x0000000008030294                lv_btnm_get_one_toggle
 .text          0x00000000080302a4        0x0 ././lvgl/src/lv_objx/lv_mbox.o
 .text.lv_mbox_btnm_event_cb
                0x00000000080302a4       0x28 ././lvgl/src/lv_objx/lv_mbox.o
 .text.lv_mbox_set_anim_time
                0x00000000080302cc        0x4 ././lvgl/src/lv_objx/lv_mbox.o
                0x00000000080302cc                lv_mbox_set_anim_time
 .text.lv_mbox_start_auto_close
                0x00000000080302d0        0x4 ././lvgl/src/lv_objx/lv_mbox.o
                0x00000000080302d0                lv_mbox_start_auto_close
 .text.lv_mbox_stop_auto_close
                0x00000000080302d4        0x4 ././lvgl/src/lv_objx/lv_mbox.o
                0x00000000080302d4                lv_mbox_stop_auto_close
 .text.lv_mbox_set_recolor
                0x00000000080302d8       0x18 ././lvgl/src/lv_objx/lv_mbox.o
                0x00000000080302d8                lv_mbox_set_recolor
 .text.lv_mbox_get_text
                0x00000000080302f0       0x10 ././lvgl/src/lv_objx/lv_mbox.o
                0x00000000080302f0                lv_mbox_get_text
 .text.lv_mbox_get_active_btn
                0x0000000008030300       0x18 ././lvgl/src/lv_objx/lv_mbox.o
                0x0000000008030300                lv_mbox_get_active_btn
 .text.lv_mbox_default_event_cb
                0x0000000008030318       0x24 ././lvgl/src/lv_objx/lv_mbox.o
 .text.lv_mbox_get_active_btn_text
                0x000000000803033c       0x14 ././lvgl/src/lv_objx/lv_mbox.o
                0x000000000803033c                lv_mbox_get_active_btn_text
 .text.lv_mbox_get_anim_time
                0x0000000008030350        0x4 ././lvgl/src/lv_objx/lv_mbox.o
                0x0000000008030350                lv_mbox_get_anim_time
 .text.lv_mbox_get_style
                0x0000000008030354       0x70 ././lvgl/src/lv_objx/lv_mbox.o
                0x0000000008030354                lv_mbox_get_style
 .text.mbox_realign
                0x00000000080303c4       0x6c ././lvgl/src/lv_objx/lv_mbox.o
 .text.lv_mbox_signal
                0x0000000008030430      0x128 ././lvgl/src/lv_objx/lv_mbox.o
 .text.lv_mbox_set_text
                0x0000000008030558       0x1c ././lvgl/src/lv_objx/lv_mbox.o
                0x0000000008030558                lv_mbox_set_text
 .text.lv_mbox_set_style
                0x0000000008030574       0xa8 ././lvgl/src/lv_objx/lv_mbox.o
                0x0000000008030574                lv_mbox_set_style
 .text.lv_mbox_create
                0x000000000803061c       0xf0 ././lvgl/src/lv_objx/lv_mbox.o
                0x000000000803061c                lv_mbox_create
 .text.lv_mbox_add_btns
                0x000000000803070c       0x88 ././lvgl/src/lv_objx/lv_mbox.o
                0x000000000803070c                lv_mbox_add_btns
 .text.lv_mbox_get_recolor
                0x0000000008030794       0x14 ././lvgl/src/lv_objx/lv_mbox.o
                0x0000000008030794                lv_mbox_get_recolor
 .text.lv_mbox_get_btnm
                0x00000000080307a8        0xc ././lvgl/src/lv_objx/lv_mbox.o
                0x00000000080307a8                lv_mbox_get_btnm
 .text          0x00000000080307b4        0x0 ././lvgl/src/lv_objx/lv_roller.o
 .text.refr_height
                0x00000000080307b4       0x6c ././lvgl/src/lv_objx/lv_roller.o
 .text.refr_position.isra.3
                0x0000000008030820       0xe4 ././lvgl/src/lv_objx/lv_roller.o
 .text.lv_roller_scrl_signal
                0x0000000008030904       0xf0 ././lvgl/src/lv_objx/lv_roller.o
 .text.lv_roller_design
                0x00000000080309f4      0x324 ././lvgl/src/lv_objx/lv_roller.o
 .text.lv_roller_set_align
                0x0000000008030d18       0x60 ././lvgl/src/lv_objx/lv_roller.o
                0x0000000008030d18                lv_roller_set_align
 .text.lv_roller_set_visible_row_count
                0x0000000008030d78       0x38 ././lvgl/src/lv_objx/lv_roller.o
                0x0000000008030d78                lv_roller_set_visible_row_count
 .text.lv_roller_create
                0x0000000008030db0      0x138 ././lvgl/src/lv_objx/lv_roller.o
                0x0000000008030db0                lv_roller_create
 .text.lv_roller_set_style
                0x0000000008030ee8       0x18 ././lvgl/src/lv_objx/lv_roller.o
                0x0000000008030ee8                lv_roller_set_style
 .text.lv_roller_get_selected
                0x0000000008030f00       0x44 ././lvgl/src/lv_objx/lv_roller.o
                0x0000000008030f00                lv_roller_get_selected
 .text.lv_roller_set_selected
                0x0000000008030f44       0x24 ././lvgl/src/lv_objx/lv_roller.o
                0x0000000008030f44                lv_roller_set_selected
 .text.lv_roller_signal
                0x0000000008030f68      0x158 ././lvgl/src/lv_objx/lv_roller.o
 .text.lv_roller_set_options
                0x00000000080310c0       0xd0 ././lvgl/src/lv_objx/lv_roller.o
                0x00000000080310c0                lv_roller_set_options
 .text.lv_roller_get_align
                0x0000000008031190       0x18 ././lvgl/src/lv_objx/lv_roller.o
                0x0000000008031190                lv_roller_get_align
 .text.lv_roller_get_hor_fit
                0x00000000080311a8       0x14 ././lvgl/src/lv_objx/lv_roller.o
                0x00000000080311a8                lv_roller_get_hor_fit
 .text.lv_roller_get_style
                0x00000000080311bc       0x14 ././lvgl/src/lv_objx/lv_roller.o
                0x00000000080311bc                lv_roller_get_style
 .text          0x00000000080311d0        0x0 ././lvgl/src/lv_objx/lv_ddlist.o
 .text.lv_ddlist_pos_current_option
                0x00000000080311d0       0x64 ././lvgl/src/lv_objx/lv_ddlist.o
 .text.lv_ddlist_refr_size.isra.1
                0x0000000008031234       0x78 ././lvgl/src/lv_objx/lv_ddlist.o
 .text.release_handler
                0x00000000080312ac      0x150 ././lvgl/src/lv_objx/lv_ddlist.o
 .text.lv_ddlist_signal
                0x00000000080313fc      0x17c ././lvgl/src/lv_objx/lv_ddlist.o
 .text.lv_ddlist_scrl_signal
                0x0000000008031578       0x70 ././lvgl/src/lv_objx/lv_ddlist.o
 .text.lv_ddlist_refr_width
                0x00000000080315e8       0x44 ././lvgl/src/lv_objx/lv_ddlist.o
 .text.lv_ddlist_set_style.part.3
                0x000000000803162c       0x18 ././lvgl/src/lv_objx/lv_ddlist.o
 .text.lv_ddlist_design
                0x0000000008031644      0x254 ././lvgl/src/lv_objx/lv_ddlist.o
 .text.lv_ddlist_set_options
                0x0000000008031898       0xac ././lvgl/src/lv_objx/lv_ddlist.o
                0x0000000008031898                lv_ddlist_set_options
 .text.lv_ddlist_set_selected
                0x0000000008031944       0x3c ././lvgl/src/lv_objx/lv_ddlist.o
                0x0000000008031944                lv_ddlist_set_selected
 .text.lv_ddlist_set_fix_height
                0x0000000008031980       0x20 ././lvgl/src/lv_objx/lv_ddlist.o
                0x0000000008031980                lv_ddlist_set_fix_height
 .text.lv_ddlist_set_fix_width
                0x00000000080319a0       0xa8 ././lvgl/src/lv_objx/lv_ddlist.o
                0x00000000080319a0                lv_ddlist_set_fix_width
 .text.lv_ddlist_set_draw_arrow
                0x0000000008031a48       0x18 ././lvgl/src/lv_objx/lv_ddlist.o
                0x0000000008031a48                lv_ddlist_set_draw_arrow
 .text.lv_ddlist_set_stay_open
                0x0000000008031a60       0x18 ././lvgl/src/lv_objx/lv_ddlist.o
                0x0000000008031a60                lv_ddlist_set_stay_open
 .text.lv_ddlist_set_style
                0x0000000008031a78       0x44 ././lvgl/src/lv_objx/lv_ddlist.o
                0x0000000008031a78                lv_ddlist_set_style
 .text.lv_ddlist_create
                0x0000000008031abc      0x248 ././lvgl/src/lv_objx/lv_ddlist.o
                0x0000000008031abc                lv_ddlist_create
 .text.lv_ddlist_set_align
                0x0000000008031d04       0x54 ././lvgl/src/lv_objx/lv_ddlist.o
                0x0000000008031d04                lv_ddlist_set_align
 .text.lv_ddlist_get_options
                0x0000000008031d58       0x10 ././lvgl/src/lv_objx/lv_ddlist.o
                0x0000000008031d58                lv_ddlist_get_options
 .text.lv_ddlist_get_selected
                0x0000000008031d68        0xc ././lvgl/src/lv_objx/lv_ddlist.o
                0x0000000008031d68                lv_ddlist_get_selected
 .text.lv_ddlist_get_selected_str
                0x0000000008031d74       0xa8 ././lvgl/src/lv_objx/lv_ddlist.o
                0x0000000008031d74                lv_ddlist_get_selected_str
 .text.lv_ddlist_get_fix_height
                0x0000000008031e1c        0xc ././lvgl/src/lv_objx/lv_ddlist.o
                0x0000000008031e1c                lv_ddlist_get_fix_height
 .text.lv_ddlist_get_draw_arrow
                0x0000000008031e28       0x10 ././lvgl/src/lv_objx/lv_ddlist.o
                0x0000000008031e28                lv_ddlist_get_draw_arrow
 .text.lv_ddlist_get_stay_open
                0x0000000008031e38       0x10 ././lvgl/src/lv_objx/lv_ddlist.o
                0x0000000008031e38                lv_ddlist_get_stay_open
 .text.lv_ddlist_get_style
                0x0000000008031e48       0x2c ././lvgl/src/lv_objx/lv_ddlist.o
                0x0000000008031e48                lv_ddlist_get_style
 .text.lv_ddlist_get_align
                0x0000000008031e74       0x10 ././lvgl/src/lv_objx/lv_ddlist.o
                0x0000000008031e74                lv_ddlist_get_align
 .text.lv_ddlist_open
                0x0000000008031e84       0x2c ././lvgl/src/lv_objx/lv_ddlist.o
                0x0000000008031e84                lv_ddlist_open
 .text.lv_ddlist_close
                0x0000000008031eb0       0x2c ././lvgl/src/lv_objx/lv_ddlist.o
                0x0000000008031eb0                lv_ddlist_close
 .text          0x0000000008031edc        0x0 ././lvgl/src/lv_objx/lv_canvas.o
 .text.lv_canvas_signal
                0x0000000008031edc       0x38 ././lvgl/src/lv_objx/lv_canvas.o
 .text.lv_canvas_create
                0x0000000008031f14       0x78 ././lvgl/src/lv_objx/lv_canvas.o
                0x0000000008031f14                lv_canvas_create
 .text.lv_canvas_set_buffer
                0x0000000008031f8c       0x5c ././lvgl/src/lv_objx/lv_canvas.o
                0x0000000008031f8c                lv_canvas_set_buffer
 .text.lv_canvas_set_px
                0x0000000008031fe8       0x24 ././lvgl/src/lv_objx/lv_canvas.o
                0x0000000008031fe8                lv_canvas_set_px
 .text.lv_canvas_set_palette
                0x000000000803200c       0x20 ././lvgl/src/lv_objx/lv_canvas.o
                0x000000000803200c                lv_canvas_set_palette
 .text.lv_canvas_set_style
                0x000000000803202c        0xc ././lvgl/src/lv_objx/lv_canvas.o
                0x000000000803202c                lv_canvas_set_style
 .text.lv_canvas_get_px
                0x0000000008032038       0x28 ././lvgl/src/lv_objx/lv_canvas.o
                0x0000000008032038                lv_canvas_get_px
 .text.lv_canvas_get_img
                0x0000000008032060        0xc ././lvgl/src/lv_objx/lv_canvas.o
                0x0000000008032060                lv_canvas_get_img
 .text.lv_canvas_get_style
                0x000000000803206c        0xc ././lvgl/src/lv_objx/lv_canvas.o
                0x000000000803206c                lv_canvas_get_style
 .text.lv_canvas_copy_buf
                0x0000000008032078       0x84 ././lvgl/src/lv_objx/lv_canvas.o
                0x0000000008032078                lv_canvas_copy_buf
 .text.lv_canvas_rotate
                0x00000000080320fc      0x558 ././lvgl/src/lv_objx/lv_canvas.o
                0x00000000080320fc                lv_canvas_rotate
 .text.lv_canvas_fill_bg
                0x0000000008032654       0x54 ././lvgl/src/lv_objx/lv_canvas.o
                0x0000000008032654                lv_canvas_fill_bg
 .text.lv_canvas_draw_rect
                0x00000000080326a8       0xf0 ././lvgl/src/lv_objx/lv_canvas.o
                0x00000000080326a8                lv_canvas_draw_rect
 .text.lv_canvas_draw_text
                0x0000000008032798       0xe4 ././lvgl/src/lv_objx/lv_canvas.o
                0x0000000008032798                lv_canvas_draw_text
 .text.lv_canvas_draw_img
                0x000000000803287c       0xe0 ././lvgl/src/lv_objx/lv_canvas.o
                0x000000000803287c                lv_canvas_draw_img
 .text.lv_canvas_draw_line
                0x000000000803295c       0xf4 ././lvgl/src/lv_objx/lv_canvas.o
                0x000000000803295c                lv_canvas_draw_line
 .text.lv_canvas_draw_polygon
                0x0000000008032a50       0xdc ././lvgl/src/lv_objx/lv_canvas.o
                0x0000000008032a50                lv_canvas_draw_polygon
 .text.lv_canvas_draw_arc
                0x0000000008032b2c       0xe8 ././lvgl/src/lv_objx/lv_canvas.o
                0x0000000008032b2c                lv_canvas_draw_arc
 .text          0x0000000008032c14        0x0 ././lvgl/src/lv_objx/lv_tileview.o
 .text.lv_tileview_signal
                0x0000000008032c14       0x38 ././lvgl/src/lv_objx/lv_tileview.o
 .text.lv_tileview_scrl_signal
                0x0000000008032c4c      0x204 ././lvgl/src/lv_objx/lv_tileview.o
 .text.lv_tileview_create
                0x0000000008032e50      0x144 ././lvgl/src/lv_objx/lv_tileview.o
                0x0000000008032e50                lv_tileview_create
 .text.lv_tileview_set_tile_act
                0x0000000008032f94       0x88 ././lvgl/src/lv_objx/lv_tileview.o
                0x0000000008032f94                lv_tileview_set_tile_act
 .text.tileview_scrl_event_cb
                0x000000000803301c      0x278 ././lvgl/src/lv_objx/lv_tileview.o
 .text.lv_tileview_add_element
                0x0000000008033294       0x34 ././lvgl/src/lv_objx/lv_tileview.o
                0x0000000008033294                lv_tileview_add_element
 .text.lv_tileview_set_valid_positions
                0x00000000080332c8       0x4c ././lvgl/src/lv_objx/lv_tileview.o
                0x00000000080332c8                lv_tileview_set_valid_positions
 .text.lv_tileview_set_style
                0x0000000008033314        0xc ././lvgl/src/lv_objx/lv_tileview.o
                0x0000000008033314                lv_tileview_set_style
 .text.lv_tileview_get_style
                0x0000000008033320        0xc ././lvgl/src/lv_objx/lv_tileview.o
                0x0000000008033320                lv_tileview_get_style
 .text          0x000000000803332c        0x0 ././lvgl/src/lv_objx/lv_lmeter.o
 .text.lv_lmeter_design
                0x000000000803332c      0x290 ././lvgl/src/lv_objx/lv_lmeter.o
 .text.lv_lmeter_signal
                0x00000000080335bc       0x68 ././lvgl/src/lv_objx/lv_lmeter.o
 .text.lv_lmeter_create
                0x0000000008033624       0xb4 ././lvgl/src/lv_objx/lv_lmeter.o
                0x0000000008033624                lv_lmeter_create
 .text.lv_lmeter_set_value
                0x00000000080336d8       0x38 ././lvgl/src/lv_objx/lv_lmeter.o
                0x00000000080336d8                lv_lmeter_set_value
 .text.lv_lmeter_set_range
                0x0000000008033710       0x60 ././lvgl/src/lv_objx/lv_lmeter.o
                0x0000000008033710                lv_lmeter_set_range
 .text.lv_lmeter_set_scale
                0x0000000008033770       0x28 ././lvgl/src/lv_objx/lv_lmeter.o
                0x0000000008033770                lv_lmeter_set_scale
 .text.lv_lmeter_get_value
                0x0000000008033798        0xc ././lvgl/src/lv_objx/lv_lmeter.o
                0x0000000008033798                lv_lmeter_get_value
 .text.lv_lmeter_get_min_value
                0x00000000080337a4        0xc ././lvgl/src/lv_objx/lv_lmeter.o
                0x00000000080337a4                lv_lmeter_get_min_value
 .text.lv_lmeter_get_max_value
                0x00000000080337b0        0xc ././lvgl/src/lv_objx/lv_lmeter.o
                0x00000000080337b0                lv_lmeter_get_max_value
 .text.lv_lmeter_get_line_count
                0x00000000080337bc        0xc ././lvgl/src/lv_objx/lv_lmeter.o
                0x00000000080337bc                lv_lmeter_get_line_count
 .text.lv_lmeter_get_scale_angle
                0x00000000080337c8        0xc ././lvgl/src/lv_objx/lv_lmeter.o
                0x00000000080337c8                lv_lmeter_get_scale_angle
 .text          0x00000000080337d4        0x0 ././lvgl/src/lv_objx/lv_tabview.o
 .text.tabpage_pressing_handler
                0x00000000080337d4      0x158 ././lvgl/src/lv_objx/lv_tabview.o
 .text.tabpage_pressed_handler.isra.3
                0x000000000803392c       0x18 ././lvgl/src/lv_objx/lv_tabview.o
 .text.lv_tabview_clean
                0x0000000008033944       0x10 ././lvgl/src/lv_objx/lv_tabview.o
                0x0000000008033944                lv_tabview_clean
 .text.lv_tabview_set_tab_act
                0x0000000008033954      0x104 ././lvgl/src/lv_objx/lv_tabview.o
                0x0000000008033954                lv_tabview_set_tab_act
 .text.tab_btnm_event_cb
                0x0000000008033a58       0x64 ././lvgl/src/lv_objx/lv_tabview.o
 .text.tabpage_press_lost_handler
                0x0000000008033abc       0xe8 ././lvgl/src/lv_objx/lv_tabview.o
 .text.tabpage_signal
                0x0000000008033ba4       0x5c ././lvgl/src/lv_objx/lv_tabview.o
 .text.tabpage_scrl_signal
                0x0000000008033c00       0x60 ././lvgl/src/lv_objx/lv_tabview.o
 .text.lv_tabview_set_sliding
                0x0000000008033c60       0x14 ././lvgl/src/lv_objx/lv_tabview.o
                0x0000000008033c60                lv_tabview_set_sliding
 .text.lv_tabview_set_anim_time
                0x0000000008033c74        0x4 ././lvgl/src/lv_objx/lv_tabview.o
                0x0000000008033c74                lv_tabview_set_anim_time
 .text.lv_tabview_get_tab_act
                0x0000000008033c78        0xc ././lvgl/src/lv_objx/lv_tabview.o
                0x0000000008033c78                lv_tabview_get_tab_act
 .text.lv_tabview_get_tab_count
                0x0000000008033c84        0xc ././lvgl/src/lv_objx/lv_tabview.o
                0x0000000008033c84                lv_tabview_get_tab_count
 .text.lv_tabview_get_tab
                0x0000000008033c90       0x34 ././lvgl/src/lv_objx/lv_tabview.o
                0x0000000008033c90                lv_tabview_get_tab
 .text.lv_tabview_get_sliding
                0x0000000008033cc4       0x10 ././lvgl/src/lv_objx/lv_tabview.o
                0x0000000008033cc4                lv_tabview_get_sliding
 .text.lv_tabview_get_anim_time
                0x0000000008033cd4        0x4 ././lvgl/src/lv_objx/lv_tabview.o
                0x0000000008033cd4                lv_tabview_get_anim_time
 .text.lv_tabview_get_style
                0x0000000008033cd8       0x64 ././lvgl/src/lv_objx/lv_tabview.o
                0x0000000008033cd8                lv_tabview_get_style
 .text.tabview_realign
                0x0000000008033d3c      0x3ac ././lvgl/src/lv_objx/lv_tabview.o
 .text.lv_tabview_signal
                0x00000000080340e8      0x148 ././lvgl/src/lv_objx/lv_tabview.o
 .text.lv_tabview_add_tab
                0x0000000008034230      0x20c ././lvgl/src/lv_objx/lv_tabview.o
                0x0000000008034230                lv_tabview_add_tab
 .text.lv_tabview_set_style
                0x000000000803443c       0xac ././lvgl/src/lv_objx/lv_tabview.o
                0x000000000803443c                lv_tabview_set_style
 .text.lv_tabview_create
                0x00000000080344e8      0x280 ././lvgl/src/lv_objx/lv_tabview.o
                0x00000000080344e8                lv_tabview_create
 .text.lv_tabview_set_btns_pos
                0x0000000008034768       0x20 ././lvgl/src/lv_objx/lv_tabview.o
                0x0000000008034768                lv_tabview_set_btns_pos
 .text.lv_tabview_set_btns_hidden
                0x0000000008034788       0x20 ././lvgl/src/lv_objx/lv_tabview.o
                0x0000000008034788                lv_tabview_set_btns_hidden
 .text.lv_tabview_get_btns_pos
                0x00000000080347a8       0x10 ././lvgl/src/lv_objx/lv_tabview.o
                0x00000000080347a8                lv_tabview_get_btns_pos
 .text.lv_tabview_get_btns_hidden
                0x00000000080347b8       0x10 ././lvgl/src/lv_objx/lv_tabview.o
                0x00000000080347b8                lv_tabview_get_btns_hidden
 .text          0x00000000080347c8        0x0 ././lvgl/src/lv_objx/lv_arc.o
 .text.lv_arc_signal
                0x00000000080347c8       0x38 ././lvgl/src/lv_objx/lv_arc.o
 .text.lv_arc_design
                0x0000000008034800      0x194 ././lvgl/src/lv_objx/lv_arc.o
 .text.lv_arc_create
                0x0000000008034994       0xa4 ././lvgl/src/lv_objx/lv_arc.o
                0x0000000008034994                lv_arc_create
 .text.lv_arc_set_angles
                0x0000000008034a38       0x30 ././lvgl/src/lv_objx/lv_arc.o
                0x0000000008034a38                lv_arc_set_angles
 .text.lv_arc_set_style
                0x0000000008034a68        0xc ././lvgl/src/lv_objx/lv_arc.o
                0x0000000008034a68                lv_arc_set_style
 .text.lv_arc_get_angle_start
                0x0000000008034a74        0xc ././lvgl/src/lv_objx/lv_arc.o
                0x0000000008034a74                lv_arc_get_angle_start
 .text.lv_arc_get_angle_end
                0x0000000008034a80        0xc ././lvgl/src/lv_objx/lv_arc.o
                0x0000000008034a80                lv_arc_get_angle_end
 .text.lv_arc_get_style
                0x0000000008034a8c        0xc ././lvgl/src/lv_objx/lv_arc.o
                0x0000000008034a8c                lv_arc_get_style
 .text          0x0000000008034a98        0x0 ././lvgl/src/lv_draw/lv_draw_basic.o
 .text.lv_draw_px
                0x0000000008034a98       0xf0 ././lvgl/src/lv_draw/lv_draw_basic.o
                0x0000000008034a98                lv_draw_px
 .text.lv_draw_fill
                0x0000000008034b88      0x1e4 ././lvgl/src/lv_draw/lv_draw_basic.o
                0x0000000008034b88                lv_draw_fill
 .text.lv_draw_letter
                0x0000000008034d6c      0x3e0 ././lvgl/src/lv_draw/lv_draw_basic.o
                0x0000000008034d6c                lv_draw_letter
 .text.lv_draw_map
                0x000000000803514c      0x41c ././lvgl/src/lv_draw/lv_draw_basic.o
                0x000000000803514c                lv_draw_map
 .text          0x0000000008035568        0x0 ././lvgl/src/lv_draw/lv_draw_triangle.o
 .text.tri_draw_flat
                0x0000000008035568      0x3f4 ././lvgl/src/lv_draw/lv_draw_triangle.o
                0x0000000008035568                tri_draw_flat
 .text.tri_draw_tall
                0x000000000803595c      0x2f8 ././lvgl/src/lv_draw/lv_draw_triangle.o
                0x000000000803595c                tri_draw_tall
 .text.lv_draw_triangle
                0x0000000008035c54       0xdc ././lvgl/src/lv_draw/lv_draw_triangle.o
                0x0000000008035c54                lv_draw_triangle
 .text.lv_draw_polygon
                0x0000000008035d30       0x68 ././lvgl/src/lv_draw/lv_draw_triangle.o
                0x0000000008035d30                lv_draw_polygon
 .text          0x0000000008035d98        0x0 ././lvgl/src/lv_draw/lv_draw_img.o
 .text.lv_draw_img
                0x0000000008035d98      0x1f0 ././lvgl/src/lv_draw/lv_draw_img.o
                0x0000000008035d98                lv_draw_img
 .text.lv_img_buf_get_px_color
                0x0000000008035f88      0x100 ././lvgl/src/lv_draw/lv_draw_img.o
                0x0000000008035f88                lv_img_buf_get_px_color
 .text.lv_img_buf_get_px_alpha
                0x0000000008036088      0x104 ././lvgl/src/lv_draw/lv_draw_img.o
                0x0000000008036088                lv_img_buf_get_px_alpha
 .text.lv_img_buf_set_px_color
                0x000000000803618c      0x140 ././lvgl/src/lv_draw/lv_draw_img.o
                0x000000000803618c                lv_img_buf_set_px_color
 .text.lv_img_buf_set_px_alpha
                0x00000000080362cc       0xdc ././lvgl/src/lv_draw/lv_draw_img.o
                0x00000000080362cc                lv_img_buf_set_px_alpha
 .text.lv_img_buf_set_palette
                0x00000000080363a8       0x5c ././lvgl/src/lv_draw/lv_draw_img.o
                0x00000000080363a8                lv_img_buf_set_palette
 .text.lv_img_color_format_get_px_size
                0x0000000008036404       0x14 ././lvgl/src/lv_draw/lv_draw_img.o
                0x0000000008036404                lv_img_color_format_get_px_size
 .text.lv_img_color_format_is_chroma_keyed
                0x0000000008036418       0x1c ././lvgl/src/lv_draw/lv_draw_img.o
                0x0000000008036418                lv_img_color_format_is_chroma_keyed
 .text.lv_img_color_format_has_alpha
                0x0000000008036434       0x20 ././lvgl/src/lv_draw/lv_draw_img.o
                0x0000000008036434                lv_img_color_format_has_alpha
 .text.lv_img_src_get_type
                0x0000000008036454       0x20 ././lvgl/src/lv_draw/lv_draw_img.o
                0x0000000008036454                lv_img_src_get_type
 .text          0x0000000008036474        0x0 ././lvgl/src/lv_draw/lv_img_cache.o
 .text.lv_img_cache_open
                0x0000000008036474      0x128 ././lvgl/src/lv_draw/lv_img_cache.o
                0x0000000008036474                lv_img_cache_open
 .text.lv_img_cache_invalidate_src
                0x000000000803659c       0x58 ././lvgl/src/lv_draw/lv_img_cache.o
                0x000000000803659c                lv_img_cache_invalidate_src
 .text.lv_img_cache_set_size
                0x00000000080365f4       0x64 ././lvgl/src/lv_draw/lv_img_cache.o
                0x00000000080365f4                lv_img_cache_set_size
 .text          0x0000000008036658        0x0 ././lvgl/src/lv_draw/lv_draw_label.o
 .text.hex_char_to_num.part.2
                0x0000000008036658       0x1c ././lvgl/src/lv_draw/lv_draw_label.o
 .text.lv_draw_label
                0x0000000008036674      0x524 ././lvgl/src/lv_draw/lv_draw_label.o
                0x0000000008036674                lv_draw_label
 .text          0x0000000008036b98        0x0 ././lvgl/src/lv_draw/lv_draw.o
 .text.lv_draw_get_buf
                0x0000000008036b98       0x3c ././lvgl/src/lv_draw/lv_draw.o
                0x0000000008036b98                lv_draw_get_buf
 .text.lv_draw_free_buf
                0x0000000008036bd4       0x20 ././lvgl/src/lv_draw/lv_draw.o
                0x0000000008036bd4                lv_draw_free_buf
 .text.lv_draw_aa_get_opa
                0x0000000008036bf4       0x2c ././lvgl/src/lv_draw/lv_draw.o
                0x0000000008036bf4                lv_draw_aa_get_opa
 .text.lv_draw_aa_ver_seg
                0x0000000008036c20       0x64 ././lvgl/src/lv_draw/lv_draw.o
                0x0000000008036c20                lv_draw_aa_ver_seg
 .text.lv_draw_aa_hor_seg
                0x0000000008036c84       0x64 ././lvgl/src/lv_draw/lv_draw.o
                0x0000000008036c84                lv_draw_aa_hor_seg
 .text          0x0000000008036ce8        0x0 ././lvgl/src/lv_draw/lv_img_decoder.o
 .text.lv_img_decoder_built_in_read_line
                0x0000000008036ce8        0x4 ././lvgl/src/lv_draw/lv_img_decoder.o
                0x0000000008036ce8                lv_img_decoder_built_in_read_line
 .text.lv_img_decoder_built_in_close
                0x0000000008036cec       0x1c ././lvgl/src/lv_draw/lv_img_decoder.o
                0x0000000008036cec                lv_img_decoder_built_in_close
 .text.lv_img_decoder_built_in_open
                0x0000000008036d08       0x40 ././lvgl/src/lv_draw/lv_img_decoder.o
                0x0000000008036d08                lv_img_decoder_built_in_open
 .text.lv_img_decoder_built_in_info
                0x0000000008036d48       0x60 ././lvgl/src/lv_draw/lv_img_decoder.o
                0x0000000008036d48                lv_img_decoder_built_in_info
 .text.lv_img_decoder_get_info
                0x0000000008036da8       0x4c ././lvgl/src/lv_draw/lv_img_decoder.o
                0x0000000008036da8                lv_img_decoder_get_info
 .text.lv_img_decoder_open
                0x0000000008036df4       0xa8 ././lvgl/src/lv_draw/lv_img_decoder.o
                0x0000000008036df4                lv_img_decoder_open
 .text.lv_img_decoder_read_line
                0x0000000008036e9c       0x28 ././lvgl/src/lv_draw/lv_img_decoder.o
                0x0000000008036e9c                lv_img_decoder_read_line
 .text.lv_img_decoder_close
                0x0000000008036ec4       0x28 ././lvgl/src/lv_draw/lv_img_decoder.o
                0x0000000008036ec4                lv_img_decoder_close
 .text.lv_img_decoder_create
                0x0000000008036eec       0x1c ././lvgl/src/lv_draw/lv_img_decoder.o
                0x0000000008036eec                lv_img_decoder_create
 .text.lv_img_decoder_init
                0x0000000008036f08       0x38 ././lvgl/src/lv_draw/lv_img_decoder.o
                0x0000000008036f08                lv_img_decoder_init
 .text.lv_img_decoder_delete
                0x0000000008036f40       0x1c ././lvgl/src/lv_draw/lv_img_decoder.o
                0x0000000008036f40                lv_img_decoder_delete
 .text.lv_img_decoder_set_info_cb
                0x0000000008036f5c        0x4 ././lvgl/src/lv_draw/lv_img_decoder.o
                0x0000000008036f5c                lv_img_decoder_set_info_cb
 .text.lv_img_decoder_set_open_cb
                0x0000000008036f60        0x4 ././lvgl/src/lv_draw/lv_img_decoder.o
                0x0000000008036f60                lv_img_decoder_set_open_cb
 .text.lv_img_decoder_set_read_line_cb
                0x0000000008036f64        0x4 ././lvgl/src/lv_draw/lv_img_decoder.o
                0x0000000008036f64                lv_img_decoder_set_read_line_cb
 .text.lv_img_decoder_set_close_cb
                0x0000000008036f68        0x4 ././lvgl/src/lv_draw/lv_img_decoder.o
                0x0000000008036f68                lv_img_decoder_set_close_cb
 .text          0x0000000008036f6c        0x0 ././lvgl/src/lv_draw/lv_draw_arc.o
 .text.deg_test_norm
                0x0000000008036f6c       0x14 ././lvgl/src/lv_draw/lv_draw_arc.o
 .text.deg_test_inv
                0x0000000008036f80       0x14 ././lvgl/src/lv_draw/lv_draw_arc.o
 .text.hor_line
                0x0000000008036f94       0x30 ././lvgl/src/lv_draw/lv_draw_arc.o
 .text.lv_draw_arc
                0x0000000008036fc4      0x454 ././lvgl/src/lv_draw/lv_draw_arc.o
                0x0000000008036fc4                lv_draw_arc
 .text          0x0000000008037418        0x0 ././lvgl/src/lv_draw/lv_draw_rect.o
 .text.lv_draw_cont_radius_corr
                0x0000000008037418       0x40 ././lvgl/src/lv_draw/lv_draw_rect.o
 .text.antialias_get_opa_circ
                0x0000000008037458       0x60 ././lvgl/src/lv_draw/lv_draw_rect.o
 .text.lv_draw_rect
                0x00000000080374b8     0x2654 ././lvgl/src/lv_draw/lv_draw_rect.o
                0x00000000080374b8                lv_draw_rect
 .text          0x0000000008039b0c        0x0 ././lvgl/src/lv_draw/lv_draw_line.o
 .text.line_next
                0x0000000008039b0c       0x5c ././lvgl/src/lv_draw/lv_draw_line.o
 .text.line_init.isra.0
                0x0000000008039b68       0x78 ././lvgl/src/lv_draw/lv_draw_line.o
 .text.lv_draw_line
                0x0000000008039be0      0xe70 ././lvgl/src/lv_draw/lv_draw_line.o
                0x0000000008039be0                lv_draw_line
 .text          0x000000000803aa50        0x0 ././lvgl/src/lv_themes/lv_theme_night.o
 .text          0x000000000803aa50        0x0 ././lvgl/src/lv_themes/lv_theme_alien.o
 .text          0x000000000803aa50        0x0 ././lvgl/src/lv_themes/lv_theme_mono.o
 .text          0x000000000803aa50        0x0 ././lvgl/src/lv_themes/lv_theme_nemo.o
 .text          0x000000000803aa50        0x0 ././lvgl/src/lv_themes/lv_theme_material.o
 .text.style_mod_edit
                0x000000000803aa50      0x2bc ././lvgl/src/lv_themes/lv_theme_material.o
 .text.style_mod
                0x000000000803ad0c      0x2c0 ././lvgl/src/lv_themes/lv_theme_material.o
 .text.lv_theme_material_init
                0x000000000803afcc      0xc9c ././lvgl/src/lv_themes/lv_theme_material.o
                0x000000000803afcc                lv_theme_material_init
 .text.lv_theme_get_material
                0x000000000803bc68        0x8 ././lvgl/src/lv_themes/lv_theme_material.o
                0x000000000803bc68                lv_theme_get_material
 .text          0x000000000803bc70        0x0 ././lvgl/src/lv_themes/lv_theme.o
 .text.lv_theme_set_current
                0x000000000803bc70       0x1c ././lvgl/src/lv_themes/lv_theme.o
                0x000000000803bc70                lv_theme_set_current
 .text.lv_theme_get_current
                0x000000000803bc8c        0xc ././lvgl/src/lv_themes/lv_theme.o
                0x000000000803bc8c                lv_theme_get_current
 .text          0x000000000803bc98        0x0 ././lvgl/src/lv_themes/lv_theme_default.o
 .text          0x000000000803bc98        0x0 ././lvgl/src/lv_themes/lv_theme_templ.o
 .text          0x000000000803bc98        0x0 ././lvgl/src/lv_themes/lv_theme_zen.o
 .text          0x000000000803bc98        0x0 ././lvgl/src/lv_font/lv_font_roboto_28.o
 .text          0x000000000803bc98        0x0 ././lvgl/src/lv_font/lv_font_roboto_22.o
 .text          0x000000000803bc98        0x0 ././lvgl/src/lv_font/lv_font_roboto_12.o
 .text          0x000000000803bc98        0x0 ././lvgl/src/lv_font/lv_font_unscii_8.o
 .text          0x000000000803bc98        0x0 ././lvgl/src/lv_font/lv_font_fmt_txt.o
 .text.kern_pair_8_compare
                0x000000000803bc98       0x14 ././lvgl/src/lv_font/lv_font_fmt_txt.o
 .text.kern_pair_16_compare
                0x000000000803bcac       0x14 ././lvgl/src/lv_font/lv_font_fmt_txt.o
 .text.unicode_list_compare
                0x000000000803bcc0        0x8 ././lvgl/src/lv_font/lv_font_fmt_txt.o
 .text.get_glyph_dsc_id.isra.0.part.1
                0x000000000803bcc8       0xd8 ././lvgl/src/lv_font/lv_font_fmt_txt.o
 .text.lv_font_get_bitmap_fmt_txt
                0x000000000803bda0       0x2c ././lvgl/src/lv_font/lv_font_fmt_txt.o
                0x000000000803bda0                lv_font_get_bitmap_fmt_txt
 .text.lv_font_get_glyph_dsc_fmt_txt
                0x000000000803bdcc      0x120 ././lvgl/src/lv_font/lv_font_fmt_txt.o
                0x000000000803bdcc                lv_font_get_glyph_dsc_fmt_txt
 .text          0x000000000803beec        0x0 ././lvgl/src/lv_font/lv_font_roboto_16.o
 .text          0x000000000803beec        0x0 ././lvgl/src/lv_font/lv_font.o
 .text.lv_font_get_glyph_bitmap
                0x000000000803beec        0x4 ././lvgl/src/lv_font/lv_font.o
                0x000000000803beec                lv_font_get_glyph_bitmap
 .text.lv_font_get_glyph_dsc
                0x000000000803bef0        0xc ././lvgl/src/lv_font/lv_font.o
                0x000000000803bef0                lv_font_get_glyph_dsc
 .text.lv_font_get_glyph_width
                0x000000000803befc       0x18 ././lvgl/src/lv_font/lv_font.o
                0x000000000803befc                lv_font_get_glyph_width
 .text          0x000000000803bf14        0x0 ././app/pwd_generator/mew_xor_algo.o
 .text.mew_xor  0x000000000803bf14       0xac ././app/pwd_generator/mew_xor_algo.o
                0x000000000803bf14                mew_xor
 .text.mew_xor_keygen
                0x000000000803bfc0       0x24 ././app/pwd_generator/mew_xor_algo.o
                0x000000000803bfc0                mew_xor_keygen
 .text.mew_xor_byte
                0x000000000803bfe4       0x80 ././app/pwd_generator/mew_xor_algo.o
                0x000000000803bfe4                mew_xor_byte
 .text          0x000000000803c064        0x0 ././app/pwd_generator/mew_passgen.o
 .text.mew_create_password
                0x000000000803c064      0x114 ././app/pwd_generator/mew_passgen.o
                0x000000000803c064                mew_create_password
 .text          0x000000000803c178        0x0 ././app/qr_code/qrcodegen.o
 .text.getAlignmentPatternPositions
                0x000000000803c178       0x6c ././app/qr_code/qrcodegen.o
 .text.finderPenaltyCountPatterns
                0x000000000803c1e4       0x6c ././app/qr_code/qrcodegen.o
 .text.calcSegmentBitLength
                0x000000000803c250       0x80 ././app/qr_code/qrcodegen.o
 .text.numCharCountBits
                0x000000000803c2d0       0x88 ././app/qr_code/qrcodegen.o
 .text.appendBitsToBuffer
                0x000000000803c358       0x54 ././app/qr_code/qrcodegen.o
 .text.getNumRawDataModules
                0x000000000803c3ac       0x80 ././app/qr_code/qrcodegen.o
 .text.getNumDataCodewords
                0x000000000803c42c       0x54 ././app/qr_code/qrcodegen.o
 .text.getModule
                0x000000000803c480       0x44 ././app/qr_code/qrcodegen.o
 .text.setModule
                0x000000000803c4c4       0x54 ././app/qr_code/qrcodegen.o
 .text.initializeFunctionModules
                0x000000000803c518      0x1bc ././app/qr_code/qrcodegen.o
 .text.setModuleBounded.constprop.11
                0x000000000803c6d4       0x20 ././app/qr_code/qrcodegen.o
 .text.qrcodegen_getSize
                0x000000000803c6f4       0x3c ././app/qr_code/qrcodegen.o
                0x000000000803c6f4                qrcodegen_getSize
 .text.applyMask
                0x000000000803c730      0x16c ././app/qr_code/qrcodegen.o
 .text.drawFormatBits
                0x000000000803c89c      0x120 ././app/qr_code/qrcodegen.o
 .text.qrcodegen_encodeSegmentsAdvanced
                0x000000000803c9bc      0xae4 ././app/qr_code/qrcodegen.o
                0x000000000803c9bc                qrcodegen_encodeSegmentsAdvanced
 .text.qrcodegen_encodeBinary
                0x000000000803d4a0       0x50 ././app/qr_code/qrcodegen.o
                0x000000000803d4a0                qrcodegen_encodeBinary
 .text.qrcodegen_encodeSegments
                0x000000000803d4f0       0x20 ././app/qr_code/qrcodegen.o
                0x000000000803d4f0                qrcodegen_encodeSegments
 .text.qrcodegen_getModule
                0x000000000803d510       0x34 ././app/qr_code/qrcodegen.o
                0x000000000803d510                qrcodegen_getModule
 .text.qrcodegen_isAlphanumeric
                0x000000000803d544       0x44 ././app/qr_code/qrcodegen.o
                0x000000000803d544                qrcodegen_isAlphanumeric
 .text.qrcodegen_isNumeric
                0x000000000803d588       0x38 ././app/qr_code/qrcodegen.o
                0x000000000803d588                qrcodegen_isNumeric
 .text.qrcodegen_calcSegmentBufferSize
                0x000000000803d5c0       0x30 ././app/qr_code/qrcodegen.o
                0x000000000803d5c0                qrcodegen_calcSegmentBufferSize
 .text.qrcodegen_makeBytes
                0x000000000803d5f0       0x74 ././app/qr_code/qrcodegen.o
                0x000000000803d5f0                qrcodegen_makeBytes
 .text.qrcodegen_makeNumeric
                0x000000000803d664      0x10c ././app/qr_code/qrcodegen.o
                0x000000000803d664                qrcodegen_makeNumeric
 .text.qrcodegen_makeAlphanumeric
                0x000000000803d770      0x120 ././app/qr_code/qrcodegen.o
                0x000000000803d770                qrcodegen_makeAlphanumeric
 .text.qrcodegen_encodeText
                0x000000000803d890      0x120 ././app/qr_code/qrcodegen.o
                0x000000000803d890                qrcodegen_encodeText
 .text.qrcodegen_makeEci
                0x000000000803d9b0       0xb8 ././app/qr_code/qrcodegen.o
                0x000000000803d9b0                qrcodegen_makeEci
 .text          0x000000000803da68        0x0 ././app/packet_parser/parser.o
 .text.__mew_pp_reset
                0x000000000803da68       0x58 ././app/packet_parser/parser.o
 .text.mew_comm_is_payload_present
                0x000000000803dac0        0xc ././app/packet_parser/parser.o
                0x000000000803dac0                mew_comm_is_payload_present
 .text.mew_comm_get_payload
                0x000000000803dacc       0x28 ././app/packet_parser/parser.o
                0x000000000803dacc                mew_comm_get_payload
 .text.mew_comm_add_byte
                0x000000000803daf4      0x1a0 ././app/packet_parser/parser.o
                0x000000000803daf4                mew_comm_add_byte
 .text.send_ok_packet
                0x000000000803dc94       0xa8 ././app/packet_parser/parser.o
                0x000000000803dc94                send_ok_packet
 .text.mew_comm_handler
                0x000000000803dd3c      0x148 ././app/packet_parser/parser.o
                0x000000000803dd3c                mew_comm_handler
 .text          0x000000000803de84        0x0 ././drivers/i2c/i2c.o
 .text.mew_i2c_init
                0x000000000803de84       0x88 ././drivers/i2c/i2c.o
                0x000000000803de84                mew_i2c_init
 .text.mew_i2c_read_block_ts2007
                0x000000000803df0c      0x120 ././drivers/i2c/i2c.o
                0x000000000803df0c                mew_i2c_read_block_ts2007
 .text.mew_i2c_read
                0x000000000803e02c       0xb0 ././drivers/i2c/i2c.o
                0x000000000803e02c                mew_i2c_read
 .text.mew_i2c_write
                0x000000000803e0dc       0x90 ././drivers/i2c/i2c.o
                0x000000000803e0dc                mew_i2c_write
 .text.mew_i2c_eeprom_write
                0x000000000803e16c       0x7c ././drivers/i2c/i2c.o
                0x000000000803e16c                mew_i2c_eeprom_write
 .text.mew_i2c_eeprom_test
                0x000000000803e1e8       0x98 ././drivers/i2c/i2c.o
                0x000000000803e1e8                mew_i2c_eeprom_test
 .text.mew_i2c_eeprom_read
                0x000000000803e280       0x28 ././drivers/i2c/i2c.o
                0x000000000803e280                mew_i2c_eeprom_read
 .text          0x000000000803e2a8        0x0 ././drivers/bluetooth/bt_usart.o
 .text.__mew_bluetooth_transmit
                0x000000000803e2a8       0xe0 ././drivers/bluetooth/bt_usart.o
 .text.__mew_bluetooth_send_at.part.0
                0x000000000803e388       0x24 ././drivers/bluetooth/bt_usart.o
 .text.usart1_isr
                0x000000000803e3ac       0xa0 ././drivers/bluetooth/bt_usart.o
                0x000000000803e3ac                usart1_isr
 .text.mew_bluetooth_init
                0x000000000803e44c      0x258 ././drivers/bluetooth/bt_usart.o
                0x000000000803e44c                mew_bluetooth_init
 .text.mew_bluetooth_transmit
                0x000000000803e6a4        0x4 ././drivers/bluetooth/bt_usart.o
                0x000000000803e6a4                mew_bluetooth_transmit
 .text.dma2_stream7_isr
                0x000000000803e6a8       0x24 ././drivers/bluetooth/bt_usart.o
                0x000000000803e6a8                dma2_stream7_isr
 .text          0x000000000803e6cc        0x0 ././drivers/duart/duart.o
 .text.mew_duart_print_hex.part.1
                0x000000000803e6cc       0x90 ././drivers/duart/duart.o
 .text.mew_init_duart
                0x000000000803e75c       0x6c ././drivers/duart/duart.o
                0x000000000803e75c                mew_init_duart
 .text.mew_duart_print_ex
                0x000000000803e7c8       0x44 ././drivers/duart/duart.o
                0x000000000803e7c8                mew_duart_print_ex
 .text.mew_duart_print
                0x000000000803e80c        0x8 ././drivers/duart/duart.o
                0x000000000803e80c                mew_duart_print
 .text.mew_duart_print_hex_ex
                0x000000000803e814       0x24 ././drivers/duart/duart.o
                0x000000000803e814                mew_duart_print_hex_ex
 .text.mew_duart_print_hex
                0x000000000803e838       0x10 ././drivers/duart/duart.o
                0x000000000803e838                mew_duart_print_hex
 .text.__mew_to_hex
                0x000000000803e848       0x18 ././drivers/duart/duart.o
                0x000000000803e848                __mew_to_hex
 .text          0x000000000803e860        0x0 ././drivers/display/ts_tsc2007.o
 .text.__mew_input_read
                0x000000000803e860      0x108 ././drivers/display/ts_tsc2007.o
 .text.mew_touchscreen_init
                0x000000000803e968       0x78 ././drivers/display/ts_tsc2007.o
                0x000000000803e968                mew_touchscreen_init
 .text.exti2_isr
                0x000000000803e9e0       0x14 ././drivers/display/ts_tsc2007.o
                0x000000000803e9e0                exti2_isr
 .text          0x000000000803e9f4        0x0 ././drivers/display/display.o
 .text.__mew_spi_init_non_dma
                0x000000000803e9f4       0x7c ././drivers/display/display.o
 .text.__mew_cmd
                0x000000000803ea70       0x28 ././drivers/display/display.o
 .text.__mew_data
                0x000000000803ea98       0x28 ././drivers/display/display.o
 .text.__mew_display_write_cmd_with_data
                0x000000000803eac0       0x4c ././drivers/display/display.o
 .text.__mew_display_write_cmd
                0x000000000803eb0c       0x24 ././drivers/display/display.o
 .text.mew_display_flush
                0x000000000803eb30      0x1b4 ././drivers/display/display.o
                0x000000000803eb30                mew_display_flush
 .text.mew_display_init
                0x000000000803ece4      0x300 ././drivers/display/display.o
                0x000000000803ece4                mew_display_init
 .text.mew_display_flush_sync
                0x000000000803efe4       0x1c ././drivers/display/display.o
                0x000000000803efe4                mew_display_flush_sync
 .text.mew_display_flush_sync_ext
                0x000000000803f000       0x3c ././drivers/display/display.o
                0x000000000803f000                mew_display_flush_sync_ext
 .text.dma1_stream4_isr
                0x000000000803f03c       0x58 ././drivers/display/display.o
                0x000000000803f03c                dma1_stream4_isr
 .text          0x000000000803f094        0x0 ././drivers/usb/mew_usb_hid.o
 .text.hid_set_config
                0x000000000803f094       0x54 ././drivers/usb/mew_usb_hid.o
 .text.hid_control_request
                0x000000000803f0e8       0xf8 ././drivers/usb/mew_usb_hid.o
 .text.mew_hid_usb_disable
                0x000000000803f1e0       0x40 ././drivers/usb/mew_usb_hid.o
                0x000000000803f1e0                mew_hid_usb_disable
 .text.mew_hid_usb_init
                0x000000000803f220       0x78 ././drivers/usb/mew_usb_hid.o
                0x000000000803f220                mew_hid_usb_init
 .text.mew_hid_send
                0x000000000803f298       0x2c ././drivers/usb/mew_usb_hid.o
                0x000000000803f298                mew_hid_send
 .text.mew_hid_send_char
                0x000000000803f2c4       0x5c ././drivers/usb/mew_usb_hid.o
                0x000000000803f2c4                mew_hid_send_char
 .text.otg_fs_isr
                0x000000000803f320        0xc ././drivers/usb/mew_usb_hid.o
                0x000000000803f320                otg_fs_isr
 .text          0x000000000803f32c        0x0 ././drivers/spi_flash/flash.o
 .text.mew_spi_flash_init
                0x000000000803f32c      0x12c ././drivers/spi_flash/flash.o
                0x000000000803f32c                mew_spi_flash_init
 .text.dma2_stream0_isr
                0x000000000803f458       0x34 ././drivers/spi_flash/flash.o
                0x000000000803f458                dma2_stream0_isr
 .text.dma2_stream3_isr
                0x000000000803f48c      0x180 ././drivers/spi_flash/flash.o
                0x000000000803f48c                dma2_stream3_isr
 .text.mew_spi_flash_xfer
                0x000000000803f60c      0x114 ././drivers/spi_flash/flash.o
                0x000000000803f60c                mew_spi_flash_xfer
 .text.mew_spi_flash_set_on_receive_handler
                0x000000000803f720       0x18 ././drivers/spi_flash/flash.o
                0x000000000803f720                mew_spi_flash_set_on_receive_handler
 .text.mew_spi_flash_handler
                0x000000000803f738       0x20 ././drivers/spi_flash/flash.o
                0x000000000803f738                mew_spi_flash_handler
 .text.mew_spi_flash_get_async_state
                0x000000000803f758       0x10 ././drivers/spi_flash/flash.o
                0x000000000803f758                mew_spi_flash_get_async_state
 .text          0x000000000803f768        0x0 ././drivers/spi_flash/w25n01gvzeig.o
 .text.__mew_flash_read_sector_async_handler
                0x000000000803f768        0x4 ././drivers/spi_flash/w25n01gvzeig.o
 .text.mew_flash_get_id
                0x000000000803f76c       0x1c ././drivers/spi_flash/w25n01gvzeig.o
                0x000000000803f76c                mew_flash_get_id
 .text.mew_flash_read_sector_async
                0x000000000803f788       0x38 ././drivers/spi_flash/w25n01gvzeig.o
                0x000000000803f788                mew_flash_read_sector_async
 .text          0x000000000803f7c0        0x0 ././drivers/flash/otp_storage.o
 .text.mew_is_first_start
                0x000000000803f7c0       0x18 ././drivers/flash/otp_storage.o
                0x000000000803f7c0                mew_is_first_start
 .text.mew_otp_write_temporary_data
                0x000000000803f7d8       0x6c ././drivers/flash/otp_storage.o
                0x000000000803f7d8                mew_otp_write_temporary_data
 .text.mew_otp_storage_init
                0x000000000803f844      0x11c ././drivers/flash/otp_storage.o
                0x000000000803f844                mew_otp_storage_init
 .text          0x000000000803f960        0x0 ././drivers/hw_crypt/aes256.o
 .text.mewcrypt_aes256
                0x000000000803f960      0x2c8 ././drivers/hw_crypt/aes256.o
                0x000000000803f960                mewcrypt_aes256
 .text.dma2_stream5_isr
                0x000000000803fc28       0x24 ././drivers/hw_crypt/aes256.o
                0x000000000803fc28                dma2_stream5_isr
 .text.dma2_stream6_isr
                0x000000000803fc4c       0x24 ././drivers/hw_crypt/aes256.o
                0x000000000803fc4c                dma2_stream6_isr
 .text          0x000000000803fc70        0x0 ././drivers/hw_crypt/P256-cortex-ecdh.o
 .text.mew_p256_ecdh_set_session_sharedkey
                0x000000000803fc70       0x24 ././drivers/hw_crypt/P256-cortex-ecdh.o
                0x000000000803fc70                mew_p256_ecdh_set_session_sharedkey
 .text.mew_p256_ecdh_get_session_sharedkey
                0x000000000803fc94       0x24 ././drivers/hw_crypt/P256-cortex-ecdh.o
                0x000000000803fc94                mew_p256_ecdh_get_session_sharedkey
 .text.mew_p256_ecdh_get_session_privkey
                0x000000000803fcb8       0x24 ././drivers/hw_crypt/P256-cortex-ecdh.o
                0x000000000803fcb8                mew_p256_ecdh_get_session_privkey
 .text.mew_p256_ecdh_get_session_pubkey
                0x000000000803fcdc       0x2c ././drivers/hw_crypt/P256-cortex-ecdh.o
                0x000000000803fcdc                mew_p256_ecdh_get_session_pubkey
 .text.mew_p256_ecdh_handler
                0x000000000803fd08       0x34 ././drivers/hw_crypt/P256-cortex-ecdh.o
                0x000000000803fd08                mew_p256_ecdh_handler
 .text.mew_p256_ecdh_test
                0x000000000803fd3c       0xb4 ././drivers/hw_crypt/P256-cortex-ecdh.o
                0x000000000803fd3c                mew_p256_ecdh_test
 .text          0x000000000803fdf0        0x0 ././drivers/hw_crypt/secure_eeprom.o
 .text.mew_load_secure_settings
                0x000000000803fdf0       0xf0 ././drivers/hw_crypt/secure_eeprom.o
                0x000000000803fdf0                mew_load_secure_settings
 .text.mew_save_secure_settings
                0x000000000803fee0       0xe4 ././drivers/hw_crypt/secure_eeprom.o
                0x000000000803fee0                mew_save_secure_settings
 .text          0x000000000803ffc4        0x0 ././drivers/hw_crypt/sha2_256.o
 .text.mew_hash32
                0x000000000803ffc4       0x78 ././drivers/hw_crypt/sha2_256.o
                0x000000000803ffc4                mew_hash32
 .text.mew_hash8
                0x000000000804003c       0xac ././drivers/hw_crypt/sha2_256.o
                0x000000000804003c                mew_hash8
 .text          0x00000000080400e8        0x0 ././drivers/system/systick.o
 .text.mew_systick_init
                0x00000000080400e8       0x20 ././drivers/system/systick.o
                0x00000000080400e8                mew_systick_init
 .text.mew_get_millis
                0x0000000008040108        0xc ././drivers/system/systick.o
                0x0000000008040108                mew_get_millis
 .text.mew_delay_ms
                0x0000000008040114       0x1c ././drivers/system/systick.o
                0x0000000008040114                mew_delay_ms
 .text.sys_tick_handler
                0x0000000008040130       0x14 ././drivers/system/systick.o
                0x0000000008040130                sys_tick_handler
 .text          0x0000000008040144        0x0 ././drivers/system/system.o
 .text.mew_check_dma_memory
                0x0000000008040144        0x4 ././drivers/system/system.o
                0x0000000008040144                mew_check_dma_memory
 .text.mew_wait_for_state
                0x0000000008040148       0x28 ././drivers/system/system.o
                0x0000000008040148                mew_wait_for_state
 .text          0x0000000008040170        0x0 ././drivers/system/random.o
 .text.mew_rng_init
                0x0000000008040170       0x1c ././drivers/system/random.o
                0x0000000008040170                mew_rng_init
 .text.mew_random32
                0x000000000804018c       0x3c ././drivers/system/random.o
                0x000000000804018c                mew_random32
 .text.mew_random64
                0x00000000080401c8       0x5c ././drivers/system/random.o
                0x00000000080401c8                mew_random64
 .text          0x0000000008040224        0x0 ././drivers/system/clock.o
 .text.mew_clock_init
                0x0000000008040224       0xa0 ././drivers/system/clock.o
                0x0000000008040224                mew_clock_init
 .text          0x00000000080402c4        0x0 ././debug.o
 .text.mew_debug_die
                0x00000000080402c4       0x10 ././debug.o
                0x00000000080402c4                mew_debug_die
 .text.mew_debug_die_with_message
                0x00000000080402d4        0xc ././debug.o
                0x00000000080402d4                mew_debug_die_with_message
 .text.mew_debug_print
                0x00000000080402e0        0x4 ././debug.o
                0x00000000080402e0                mew_debug_print
 .text.mew_debug_print_hex
                0x00000000080402e4        0x4 ././debug.o
                0x00000000080402e4                mew_debug_print_hex
 .text.mew_debug_print_hex_ex
                0x00000000080402e8        0x4 ././debug.o
                0x00000000080402e8                mew_debug_print_hex_ex
 .text.hard_fault_handler
                0x00000000080402ec        0xc ././debug.o
                0x00000000080402ec                hard_fault_handler
 .text.usage_fault_handler
                0x00000000080402f8        0xc ././debug.o
                0x00000000080402f8                usage_fault_handler
 .text.bus_fault_handler
                0x0000000008040304        0xc ././debug.o
                0x0000000008040304                bus_fault_handler
 .text          0x0000000008040310        0x0 ././ui/ui_main_win.o
 .text.mew_show_main_window
                0x0000000008040310        0x4 ././ui/ui_main_win.o
                0x0000000008040310                mew_show_main_window
 .text          0x0000000008040314        0x0 ././ui/qrcode_ui.o
 .text.__mew_setpoint
                0x0000000008040314       0x2c ././ui/qrcode_ui.o
                0x0000000008040314                __mew_setpoint
 .text.mew_qrcode_set_data
                0x0000000008040340       0x10 ././ui/qrcode_ui.o
                0x0000000008040340                mew_qrcode_set_data
 .text.mew_display_qrcode
                0x0000000008040350       0xa0 ././ui/qrcode_ui.o
                0x0000000008040350                mew_display_qrcode
 .text          0x00000000080403f0        0x0 ././ui/ui_win_startup_1.o
 .text._mew_pc_disp
                0x00000000080403f0       0x34 ././ui/ui_win_startup_1.o
 .text._mew_msgbox_event_handler
                0x0000000008040424       0x4c ././ui/ui_win_startup_1.o
 .text._mew_msgbox_bad_pin_event_handler
                0x0000000008040470       0x24 ././ui/ui_win_startup_1.o
 .text._mew_event_handler_2
                0x0000000008040494       0xe8 ././ui/ui_win_startup_1.o
 .text._mew_btnm_event_handler
                0x000000000804057c      0x128 ././ui/ui_win_startup_1.o
 .text._mew_btnm2_event_handler
                0x00000000080406a4       0x9c ././ui/ui_win_startup_1.o
 .text._mew_event_handler_1
                0x0000000008040740       0x2c ././ui/ui_win_startup_1.o
 .text.mew_show_startup_window_1
                0x000000000804076c      0x378 ././ui/ui_win_startup_1.o
                0x000000000804076c                mew_show_startup_window_1
 .text          0x0000000008040ae4        0x0 ././ui/ui_header.o
 .text.mew_ui_header_set_text
                0x0000000008040ae4       0x1c ././ui/ui_header.o
                0x0000000008040ae4                mew_ui_header_set_text
 .text.mew_display_small_header
                0x0000000008040b00      0x144 ././ui/ui_header.o
                0x0000000008040b00                mew_display_small_header
 .text.mew_remove_ui_header
                0x0000000008040c44       0x14 ././ui/ui_header.o
                0x0000000008040c44                mew_remove_ui_header
 .text.mew_display_ui_header
                0x0000000008040c58      0x18c ././ui/ui_header.o
                0x0000000008040c58                mew_display_ui_header
 .text          0x0000000008040de4        0x0 ././ui/ui_msgbox.o
 .text._mew_msgbox_event_handler
                0x0000000008040de4       0x30 ././ui/ui_msgbox.o
 .text.mew_ui_msgbox
                0x0000000008040e14      0x104 ././ui/ui_msgbox.o
                0x0000000008040e14                mew_ui_msgbox
 .text          0x0000000008040f18        0x0 ././ui/mew_font_ru_bold_title.o
 .text          0x0000000008040f18        0x0 ././ui/ui_lhandlers.o
 .text.mew_ui_show_window
                0x0000000008040f18        0xc ././ui/ui_lhandlers.o
                0x0000000008040f18                mew_ui_show_window
 .text.mew_ui_lhandler
                0x0000000008040f24       0x3c ././ui/ui_lhandlers.o
                0x0000000008040f24                mew_ui_lhandler
 .text.mew_lvgl_lhandler
                0x0000000008040f60       0x28 ././ui/ui_lhandlers.o
                0x0000000008040f60                mew_lvgl_lhandler
 .text          0x0000000008040f88        0x0 ././ui/mew_logo.o
 .text          0x0000000008040f88        0x0 ././ui/mew_font_ru_bold.o
 .text          0x0000000008040f88      0xdb4 ././drivers/hw_crypt/P256-cortex-m4-ecdh-speedopt-gcc.o
                0x0000000008041af0                P256_pointmult
                0x0000000008041cb0                P256_ecdh_keygen
                0x0000000008041cb8                P256_ecdh_shared_secret
 .text          0x0000000008041d3c        0x8 ././drivers/system/byteorder.o
                0x0000000008041d3c                big2little32
                0x0000000008041d40                big2little16
 .text          0x0000000008041d44        0x0 /home/user/Devel/stm32/libopencm3/lib/libopencm3_stm32f4.a(rcc.o)
 .text.rcc_osc_ready_int_clear
                0x0000000008041d44       0x5c /home/user/Devel/stm32/libopencm3/lib/libopencm3_stm32f4.a(rcc.o)
                0x0000000008041d44                rcc_osc_ready_int_clear
 .text.rcc_osc_ready_int_enable
                0x0000000008041da0       0x5c /home/user/Devel/stm32/libopencm3/lib/libopencm3_stm32f4.a(rcc.o)
                0x0000000008041da0                rcc_osc_ready_int_enable
 .text.rcc_osc_ready_int_disable
                0x0000000008041dfc       0x5c /home/user/Devel/stm32/libopencm3/lib/libopencm3_stm32f4.a(rcc.o)
                0x0000000008041dfc                rcc_osc_ready_int_disable
 .text.rcc_osc_ready_int_flag
                0x0000000008041e58       0x60 /home/user/Devel/stm32/libopencm3/lib/libopencm3_stm32f4.a(rcc.o)
                0x0000000008041e58                rcc_osc_ready_int_flag
 .text.rcc_css_int_clear
                0x0000000008041eb8       0x10 /home/user/Devel/stm32/libopencm3/lib/libopencm3_stm32f4.a(rcc.o)
                0x0000000008041eb8                rcc_css_int_clear
 .text.rcc_css_int_flag
                0x0000000008041ec8       0x10 /home/user/Devel/stm32/libopencm3/lib/libopencm3_stm32f4.a(rcc.o)
                0x0000000008041ec8                rcc_css_int_flag
 .text.rcc_is_osc_ready
                0x0000000008041ed8       0x5c /home/user/Devel/stm32/libopencm3/lib/libopencm3_stm32f4.a(rcc.o)
                0x0000000008041ed8                rcc_is_osc_ready
 .text.rcc_wait_for_osc_ready
                0x0000000008041f34       0x10 /home/user/Devel/stm32/libopencm3/lib/libopencm3_stm32f4.a(rcc.o)
                0x0000000008041f34                rcc_wait_for_osc_ready
 .text.rcc_wait_for_sysclk_status
                0x0000000008041f44       0x3c /home/user/Devel/stm32/libopencm3/lib/libopencm3_stm32f4.a(rcc.o)
                0x0000000008041f44                rcc_wait_for_sysclk_status
 .text.rcc_osc_on
                0x0000000008041f80       0x58 /home/user/Devel/stm32/libopencm3/lib/libopencm3_stm32f4.a(rcc.o)
                0x0000000008041f80                rcc_osc_on
 .text.rcc_osc_off
                0x0000000008041fd8       0x58 /home/user/Devel/stm32/libopencm3/lib/libopencm3_stm32f4.a(rcc.o)
                0x0000000008041fd8                rcc_osc_off
 .text.rcc_css_enable
                0x0000000008042030       0x10 /home/user/Devel/stm32/libopencm3/lib/libopencm3_stm32f4.a(rcc.o)
                0x0000000008042030                rcc_css_enable
 .text.rcc_css_disable
                0x0000000008042040       0x10 /home/user/Devel/stm32/libopencm3/lib/libopencm3_stm32f4.a(rcc.o)
                0x0000000008042040                rcc_css_disable
 .text.rcc_osc_bypass_enable
                0x0000000008042050       0x28 /home/user/Devel/stm32/libopencm3/lib/libopencm3_stm32f4.a(rcc.o)
                0x0000000008042050                rcc_osc_bypass_enable
 .text.rcc_osc_bypass_disable
                0x0000000008042078       0x28 /home/user/Devel/stm32/libopencm3/lib/libopencm3_stm32f4.a(rcc.o)
                0x0000000008042078                rcc_osc_bypass_disable
 .text.rcc_pllsai_config
                0x00000000080420a0       0x2c /home/user/Devel/stm32/libopencm3/lib/libopencm3_stm32f4.a(rcc.o)
                0x00000000080420a0                rcc_pllsai_config
 .text.rcc_pllsai_postscalers
                0x00000000080420cc       0x24 /home/user/Devel/stm32/libopencm3/lib/libopencm3_stm32f4.a(rcc.o)
                0x00000000080420cc                rcc_pllsai_postscalers
 .text.rcc_set_sysclk_source
                0x00000000080420f0       0x14 /home/user/Devel/stm32/libopencm3/lib/libopencm3_stm32f4.a(rcc.o)
                0x00000000080420f0                rcc_set_sysclk_source
 .text.rcc_set_pll_source
                0x0000000008042104       0x14 /home/user/Devel/stm32/libopencm3/lib/libopencm3_stm32f4.a(rcc.o)
                0x0000000008042104                rcc_set_pll_source
 .text.rcc_set_ppre2
                0x0000000008042118       0x14 /home/user/Devel/stm32/libopencm3/lib/libopencm3_stm32f4.a(rcc.o)
                0x0000000008042118                rcc_set_ppre2
 .text.rcc_set_ppre1
                0x000000000804212c       0x14 /home/user/Devel/stm32/libopencm3/lib/libopencm3_stm32f4.a(rcc.o)
                0x000000000804212c                rcc_set_ppre1
 .text.rcc_set_hpre
                0x0000000008042140       0x14 /home/user/Devel/stm32/libopencm3/lib/libopencm3_stm32f4.a(rcc.o)
                0x0000000008042140                rcc_set_hpre
 .text.rcc_set_rtcpre
                0x0000000008042154       0x14 /home/user/Devel/stm32/libopencm3/lib/libopencm3_stm32f4.a(rcc.o)
                0x0000000008042154                rcc_set_rtcpre
 .text.rcc_set_main_pll_hsi
                0x0000000008042168       0x44 /home/user/Devel/stm32/libopencm3/lib/libopencm3_stm32f4.a(rcc.o)
                0x0000000008042168                rcc_set_main_pll_hsi
 .text.rcc_set_main_pll_hse
                0x00000000080421ac       0x48 /home/user/Devel/stm32/libopencm3/lib/libopencm3_stm32f4.a(rcc.o)
                0x00000000080421ac                rcc_set_main_pll_hse
 .text.rcc_system_clock_source
                0x00000000080421f4       0x10 /home/user/Devel/stm32/libopencm3/lib/libopencm3_stm32f4.a(rcc.o)
                0x00000000080421f4                rcc_system_clock_source
 .text.rcc_clock_setup_hse_3v3
                0x0000000008042204       0xa8 /home/user/Devel/stm32/libopencm3/lib/libopencm3_stm32f4.a(rcc.o)
                0x0000000008042204                rcc_clock_setup_hse_3v3
 .text          0x00000000080422ac        0x0 /home/user/Devel/stm32/libopencm3/lib/libopencm3_stm32f4.a(crc_common_all.o)
 .text.crc_reset
                0x00000000080422ac       0x10 /home/user/Devel/stm32/libopencm3/lib/libopencm3_stm32f4.a(crc_common_all.o)
                0x00000000080422ac                crc_reset
 .text.crc_calculate
                0x00000000080422bc        0xc /home/user/Devel/stm32/libopencm3/lib/libopencm3_stm32f4.a(crc_common_all.o)
                0x00000000080422bc                crc_calculate
 .text.crc_calculate_block
                0x00000000080422c8       0x20 /home/user/Devel/stm32/libopencm3/lib/libopencm3_stm32f4.a(crc_common_all.o)
                0x00000000080422c8                crc_calculate_block
 .text          0x00000000080422e8        0x0 /home/user/Devel/stm32/libopencm3/lib/libopencm3_stm32f4.a(dma_common_f24.o)
 .text.dma_stream_reset
                0x00000000080422e8       0x4c /home/user/Devel/stm32/libopencm3/lib/libopencm3_stm32f4.a(dma_common_f24.o)
                0x00000000080422e8                dma_stream_reset
 .text.dma_clear_interrupt_flags
                0x0000000008042334       0x1e /home/user/Devel/stm32/libopencm3/lib/libopencm3_stm32f4.a(dma_common_f24.o)
                0x0000000008042334                dma_clear_interrupt_flags
 .text.dma_get_interrupt_flag
                0x0000000008042352       0x28 /home/user/Devel/stm32/libopencm3/lib/libopencm3_stm32f4.a(dma_common_f24.o)
                0x0000000008042352                dma_get_interrupt_flag
 .text.dma_set_transfer_mode
                0x000000000804237a       0x22 /home/user/Devel/stm32/libopencm3/lib/libopencm3_stm32f4.a(dma_common_f24.o)
                0x000000000804237a                dma_set_transfer_mode
 .text.dma_set_priority
                0x000000000804239c       0x18 /home/user/Devel/stm32/libopencm3/lib/libopencm3_stm32f4.a(dma_common_f24.o)
                0x000000000804239c                dma_set_priority
 .text.dma_set_memory_size
                0x00000000080423b4       0x18 /home/user/Devel/stm32/libopencm3/lib/libopencm3_stm32f4.a(dma_common_f24.o)
                0x00000000080423b4                dma_set_memory_size
 .text.dma_set_peripheral_size
                0x00000000080423cc       0x18 /home/user/Devel/stm32/libopencm3/lib/libopencm3_stm32f4.a(dma_common_f24.o)
                0x00000000080423cc                dma_set_peripheral_size
 .text.dma_enable_memory_increment_mode
                0x00000000080423e4       0x12 /home/user/Devel/stm32/libopencm3/lib/libopencm3_stm32f4.a(dma_common_f24.o)
                0x00000000080423e4                dma_enable_memory_increment_mode
 .text.dma_disable_memory_increment_mode
                0x00000000080423f6       0x12 /home/user/Devel/stm32/libopencm3/lib/libopencm3_stm32f4.a(dma_common_f24.o)
                0x00000000080423f6                dma_disable_memory_increment_mode
 .text.dma_enable_peripheral_increment_mode
                0x0000000008042408       0x16 /home/user/Devel/stm32/libopencm3/lib/libopencm3_stm32f4.a(dma_common_f24.o)
                0x0000000008042408                dma_enable_peripheral_increment_mode
 .text.dma_disable_peripheral_increment_mode
                0x000000000804241e       0x12 /home/user/Devel/stm32/libopencm3/lib/libopencm3_stm32f4.a(dma_common_f24.o)
                0x000000000804241e                dma_disable_peripheral_increment_mode
 .text.dma_enable_fixed_peripheral_increment_mode
                0x0000000008042430       0x12 /home/user/Devel/stm32/libopencm3/lib/libopencm3_stm32f4.a(dma_common_f24.o)
                0x0000000008042430                dma_enable_fixed_peripheral_increment_mode
 .text.dma_enable_circular_mode
                0x0000000008042442       0x12 /home/user/Devel/stm32/libopencm3/lib/libopencm3_stm32f4.a(dma_common_f24.o)
                0x0000000008042442                dma_enable_circular_mode
 .text.dma_channel_select
                0x0000000008042454       0x10 /home/user/Devel/stm32/libopencm3/lib/libopencm3_stm32f4.a(dma_common_f24.o)
                0x0000000008042454                dma_channel_select
 .text.dma_set_memory_burst
                0x0000000008042464       0x14 /home/user/Devel/stm32/libopencm3/lib/libopencm3_stm32f4.a(dma_common_f24.o)
                0x0000000008042464                dma_set_memory_burst
 .text.dma_set_peripheral_burst
                0x0000000008042478       0x14 /home/user/Devel/stm32/libopencm3/lib/libopencm3_stm32f4.a(dma_common_f24.o)
                0x0000000008042478                dma_set_peripheral_burst
 .text.dma_set_initial_target
                0x000000000804248c       0x1a /home/user/Devel/stm32/libopencm3/lib/libopencm3_stm32f4.a(dma_common_f24.o)
                0x000000000804248c                dma_set_initial_target
 .text.dma_get_target
                0x00000000080424a6       0x10 /home/user/Devel/stm32/libopencm3/lib/libopencm3_stm32f4.a(dma_common_f24.o)
                0x00000000080424a6                dma_get_target
 .text.dma_enable_double_buffer_mode
                0x00000000080424b6       0x12 /home/user/Devel/stm32/libopencm3/lib/libopencm3_stm32f4.a(dma_common_f24.o)
                0x00000000080424b6                dma_enable_double_buffer_mode
 .text.dma_disable_double_buffer_mode
                0x00000000080424c8       0x12 /home/user/Devel/stm32/libopencm3/lib/libopencm3_stm32f4.a(dma_common_f24.o)
                0x00000000080424c8                dma_disable_double_buffer_mode
 .text.dma_set_peripheral_flow_control
                0x00000000080424da       0x12 /home/user/Devel/stm32/libopencm3/lib/libopencm3_stm32f4.a(dma_common_f24.o)
                0x00000000080424da                dma_set_peripheral_flow_control
 .text.dma_set_dma_flow_control
                0x00000000080424ec       0x12 /home/user/Devel/stm32/libopencm3/lib/libopencm3_stm32f4.a(dma_common_f24.o)
                0x00000000080424ec                dma_set_dma_flow_control
 .text.dma_enable_transfer_error_interrupt
                0x00000000080424fe       0x1e /home/user/Devel/stm32/libopencm3/lib/libopencm3_stm32f4.a(dma_common_f24.o)
                0x00000000080424fe                dma_enable_transfer_error_interrupt
 .text.dma_disable_transfer_error_interrupt
                0x000000000804251c       0x12 /home/user/Devel/stm32/libopencm3/lib/libopencm3_stm32f4.a(dma_common_f24.o)
                0x000000000804251c                dma_disable_transfer_error_interrupt
 .text.dma_enable_half_transfer_interrupt
                0x000000000804252e       0x1e /home/user/Devel/stm32/libopencm3/lib/libopencm3_stm32f4.a(dma_common_f24.o)
                0x000000000804252e                dma_enable_half_transfer_interrupt
 .text.dma_disable_half_transfer_interrupt
                0x000000000804254c       0x12 /home/user/Devel/stm32/libopencm3/lib/libopencm3_stm32f4.a(dma_common_f24.o)
                0x000000000804254c                dma_disable_half_transfer_interrupt
 .text.dma_enable_transfer_complete_interrupt
                0x000000000804255e       0x1e /home/user/Devel/stm32/libopencm3/lib/libopencm3_stm32f4.a(dma_common_f24.o)
                0x000000000804255e                dma_enable_transfer_complete_interrupt
 .text.dma_disable_transfer_complete_interrupt
                0x000000000804257c       0x12 /home/user/Devel/stm32/libopencm3/lib/libopencm3_stm32f4.a(dma_common_f24.o)
                0x000000000804257c                dma_disable_transfer_complete_interrupt
 .text.dma_enable_direct_mode_error_interrupt
                0x000000000804258e       0x1e /home/user/Devel/stm32/libopencm3/lib/libopencm3_stm32f4.a(dma_common_f24.o)
                0x000000000804258e                dma_enable_direct_mode_error_interrupt
 .text.dma_disable_direct_mode_error_interrupt
                0x00000000080425ac       0x12 /home/user/Devel/stm32/libopencm3/lib/libopencm3_stm32f4.a(dma_common_f24.o)
                0x00000000080425ac                dma_disable_direct_mode_error_interrupt
 .text.dma_enable_fifo_error_interrupt
                0x00000000080425be       0x1e /home/user/Devel/stm32/libopencm3/lib/libopencm3_stm32f4.a(dma_common_f24.o)
                0x00000000080425be                dma_enable_fifo_error_interrupt
 .text.dma_disable_fifo_error_interrupt
                0x00000000080425dc       0x12 /home/user/Devel/stm32/libopencm3/lib/libopencm3_stm32f4.a(dma_common_f24.o)
                0x00000000080425dc                dma_disable_fifo_error_interrupt
 .text.dma_fifo_status
                0x00000000080425ee       0x10 /home/user/Devel/stm32/libopencm3/lib/libopencm3_stm32f4.a(dma_common_f24.o)
                0x00000000080425ee                dma_fifo_status
 .text.dma_enable_direct_mode
                0x00000000080425fe       0x12 /home/user/Devel/stm32/libopencm3/lib/libopencm3_stm32f4.a(dma_common_f24.o)
                0x00000000080425fe                dma_enable_direct_mode
 .text.dma_enable_fifo_mode
                0x0000000008042610       0x12 /home/user/Devel/stm32/libopencm3/lib/libopencm3_stm32f4.a(dma_common_f24.o)
                0x0000000008042610                dma_enable_fifo_mode
 .text.dma_set_fifo_threshold
                0x0000000008042622       0x14 /home/user/Devel/stm32/libopencm3/lib/libopencm3_stm32f4.a(dma_common_f24.o)
                0x0000000008042622                dma_set_fifo_threshold
 .text.dma_enable_stream
                0x0000000008042636       0x12 /home/user/Devel/stm32/libopencm3/lib/libopencm3_stm32f4.a(dma_common_f24.o)
                0x0000000008042636                dma_enable_stream
 .text.dma_disable_stream
                0x0000000008042648       0x12 /home/user/Devel/stm32/libopencm3/lib/libopencm3_stm32f4.a(dma_common_f24.o)
                0x0000000008042648                dma_disable_stream
 .text.dma_set_peripheral_address
                0x000000000804265a       0x10 /home/user/Devel/stm32/libopencm3/lib/libopencm3_stm32f4.a(dma_common_f24.o)
                0x000000000804265a                dma_set_peripheral_address
 .text.dma_set_memory_address
                0x000000000804266a       0x1a /home/user/Devel/stm32/libopencm3/lib/libopencm3_stm32f4.a(dma_common_f24.o)
                0x000000000804266a                dma_set_memory_address
 .text.dma_set_memory_address_1
                0x0000000008042684       0x1a /home/user/Devel/stm32/libopencm3/lib/libopencm3_stm32f4.a(dma_common_f24.o)
                0x0000000008042684                dma_set_memory_address_1
 .text.dma_set_number_of_data
                0x000000000804269e        0xc /home/user/Devel/stm32/libopencm3/lib/libopencm3_stm32f4.a(dma_common_f24.o)
                0x000000000804269e                dma_set_number_of_data
 .text          0x00000000080426aa        0x0 /home/user/Devel/stm32/libopencm3/lib/libopencm3_stm32f4.a(gpio_common_all.o)
 .text.gpio_set
                0x00000000080426aa        0x4 /home/user/Devel/stm32/libopencm3/lib/libopencm3_stm32f4.a(gpio_common_all.o)
                0x00000000080426aa                gpio_set
 .text.gpio_clear
                0x00000000080426ae        0x6 /home/user/Devel/stm32/libopencm3/lib/libopencm3_stm32f4.a(gpio_common_all.o)
                0x00000000080426ae                gpio_clear
 .text.gpio_get
                0x00000000080426b4        0x6 /home/user/Devel/stm32/libopencm3/lib/libopencm3_stm32f4.a(gpio_common_all.o)
                0x00000000080426b4                gpio_get
 .text.gpio_toggle
                0x00000000080426ba       0x12 /home/user/Devel/stm32/libopencm3/lib/libopencm3_stm32f4.a(gpio_common_all.o)
                0x00000000080426ba                gpio_toggle
 .text.gpio_port_read
                0x00000000080426cc        0x6 /home/user/Devel/stm32/libopencm3/lib/libopencm3_stm32f4.a(gpio_common_all.o)
                0x00000000080426cc                gpio_port_read
 .text.gpio_port_write
                0x00000000080426d2        0x4 /home/user/Devel/stm32/libopencm3/lib/libopencm3_stm32f4.a(gpio_common_all.o)
                0x00000000080426d2                gpio_port_write
 .text.gpio_port_config_lock
                0x00000000080426d6       0x10 /home/user/Devel/stm32/libopencm3/lib/libopencm3_stm32f4.a(gpio_common_all.o)
                0x00000000080426d6                gpio_port_config_lock
 .text          0x00000000080426e6        0x0 /home/user/Devel/stm32/libopencm3/lib/libopencm3_stm32f4.a(gpio_common_f0234.o)
 .text.gpio_mode_setup
                0x00000000080426e6       0x44 /home/user/Devel/stm32/libopencm3/lib/libopencm3_stm32f4.a(gpio_common_f0234.o)
                0x00000000080426e6                gpio_mode_setup
 .text.gpio_set_output_options
                0x000000000804272a       0x36 /home/user/Devel/stm32/libopencm3/lib/libopencm3_stm32f4.a(gpio_common_f0234.o)
                0x000000000804272a                gpio_set_output_options
 .text.gpio_set_af
                0x0000000008042760       0x58 /home/user/Devel/stm32/libopencm3/lib/libopencm3_stm32f4.a(gpio_common_f0234.o)
                0x0000000008042760                gpio_set_af
 .text          0x00000000080427b8        0x0 /home/user/Devel/stm32/libopencm3/lib/libopencm3_stm32f4.a(i2c_common_v1.o)
 .text.i2c_reset
                0x00000000080427b8       0x30 /home/user/Devel/stm32/libopencm3/lib/libopencm3_stm32f4.a(i2c_common_v1.o)
                0x00000000080427b8                i2c_reset
 .text.i2c_peripheral_enable
                0x00000000080427e8        0xa /home/user/Devel/stm32/libopencm3/lib/libopencm3_stm32f4.a(i2c_common_v1.o)
                0x00000000080427e8                i2c_peripheral_enable
 .text.i2c_peripheral_disable
                0x00000000080427f2        0xa /home/user/Devel/stm32/libopencm3/lib/libopencm3_stm32f4.a(i2c_common_v1.o)
                0x00000000080427f2                i2c_peripheral_disable
 .text.i2c_send_start
                0x00000000080427fc        0xa /home/user/Devel/stm32/libopencm3/lib/libopencm3_stm32f4.a(i2c_common_v1.o)
                0x00000000080427fc                i2c_send_start
 .text.i2c_send_stop
                0x0000000008042806        0xa /home/user/Devel/stm32/libopencm3/lib/libopencm3_stm32f4.a(i2c_common_v1.o)
                0x0000000008042806                i2c_send_stop
 .text.i2c_clear_stop
                0x0000000008042810        0xa /home/user/Devel/stm32/libopencm3/lib/libopencm3_stm32f4.a(i2c_common_v1.o)
                0x0000000008042810                i2c_clear_stop
 .text.i2c_set_own_7bit_slave_address
                0x000000000804281a        0xa /home/user/Devel/stm32/libopencm3/lib/libopencm3_stm32f4.a(i2c_common_v1.o)
                0x000000000804281a                i2c_set_own_7bit_slave_address
 .text.i2c_set_own_10bit_slave_address
                0x0000000008042824        0x8 /home/user/Devel/stm32/libopencm3/lib/libopencm3_stm32f4.a(i2c_common_v1.o)
                0x0000000008042824                i2c_set_own_10bit_slave_address
 .text.i2c_set_own_7bit_slave_address_two
                0x000000000804282c        0x6 /home/user/Devel/stm32/libopencm3/lib/libopencm3_stm32f4.a(i2c_common_v1.o)
                0x000000000804282c                i2c_set_own_7bit_slave_address_two
 .text.i2c_enable_dual_addressing_mode
                0x0000000008042832        0xa /home/user/Devel/stm32/libopencm3/lib/libopencm3_stm32f4.a(i2c_common_v1.o)
                0x0000000008042832                i2c_enable_dual_addressing_mode
 .text.i2c_disable_dual_addressing_mode
                0x000000000804283c        0xa /home/user/Devel/stm32/libopencm3/lib/libopencm3_stm32f4.a(i2c_common_v1.o)
                0x000000000804283c                i2c_disable_dual_addressing_mode
 .text.i2c_set_clock_frequency
                0x0000000008042846        0xe /home/user/Devel/stm32/libopencm3/lib/libopencm3_stm32f4.a(i2c_common_v1.o)
                0x0000000008042846                i2c_set_clock_frequency
 .text.i2c_send_data
                0x0000000008042854        0x4 /home/user/Devel/stm32/libopencm3/lib/libopencm3_stm32f4.a(i2c_common_v1.o)
                0x0000000008042854                i2c_send_data
 .text.i2c_set_fast_mode
                0x0000000008042858        0xa /home/user/Devel/stm32/libopencm3/lib/libopencm3_stm32f4.a(i2c_common_v1.o)
                0x0000000008042858                i2c_set_fast_mode
 .text.i2c_set_standard_mode
                0x0000000008042862        0xa /home/user/Devel/stm32/libopencm3/lib/libopencm3_stm32f4.a(i2c_common_v1.o)
                0x0000000008042862                i2c_set_standard_mode
 .text.i2c_set_ccr
                0x000000000804286c        0xc /home/user/Devel/stm32/libopencm3/lib/libopencm3_stm32f4.a(i2c_common_v1.o)
                0x000000000804286c                i2c_set_ccr
 .text.i2c_set_trise
                0x0000000008042878        0x4 /home/user/Devel/stm32/libopencm3/lib/libopencm3_stm32f4.a(i2c_common_v1.o)
                0x0000000008042878                i2c_set_trise
 .text.i2c_send_7bit_address
                0x000000000804287c        0xa /home/user/Devel/stm32/libopencm3/lib/libopencm3_stm32f4.a(i2c_common_v1.o)
                0x000000000804287c                i2c_send_7bit_address
 .text.i2c_get_data
                0x0000000008042886        0x6 /home/user/Devel/stm32/libopencm3/lib/libopencm3_stm32f4.a(i2c_common_v1.o)
                0x0000000008042886                i2c_get_data
 .text.i2c_enable_interrupt
                0x000000000804288c        0x8 /home/user/Devel/stm32/libopencm3/lib/libopencm3_stm32f4.a(i2c_common_v1.o)
                0x000000000804288c                i2c_enable_interrupt
 .text.i2c_disable_interrupt
                0x0000000008042894        0xa /home/user/Devel/stm32/libopencm3/lib/libopencm3_stm32f4.a(i2c_common_v1.o)
                0x0000000008042894                i2c_disable_interrupt
 .text.i2c_enable_ack
                0x000000000804289e        0xa /home/user/Devel/stm32/libopencm3/lib/libopencm3_stm32f4.a(i2c_common_v1.o)
                0x000000000804289e                i2c_enable_ack
 .text.i2c_disable_ack
                0x00000000080428a8        0xa /home/user/Devel/stm32/libopencm3/lib/libopencm3_stm32f4.a(i2c_common_v1.o)
                0x00000000080428a8                i2c_disable_ack
 .text.i2c_nack_next
                0x00000000080428b2        0xa /home/user/Devel/stm32/libopencm3/lib/libopencm3_stm32f4.a(i2c_common_v1.o)
                0x00000000080428b2                i2c_nack_next
 .text.i2c_nack_current
                0x00000000080428bc        0xa /home/user/Devel/stm32/libopencm3/lib/libopencm3_stm32f4.a(i2c_common_v1.o)
                0x00000000080428bc                i2c_nack_current
 .text.i2c_set_dutycycle
                0x00000000080428c6       0x12 /home/user/Devel/stm32/libopencm3/lib/libopencm3_stm32f4.a(i2c_common_v1.o)
                0x00000000080428c6                i2c_set_dutycycle
 .text.i2c_enable_dma
                0x00000000080428d8        0xa /home/user/Devel/stm32/libopencm3/lib/libopencm3_stm32f4.a(i2c_common_v1.o)
                0x00000000080428d8                i2c_enable_dma
 .text.i2c_disable_dma
                0x00000000080428e2        0xa /home/user/Devel/stm32/libopencm3/lib/libopencm3_stm32f4.a(i2c_common_v1.o)
                0x00000000080428e2                i2c_disable_dma
 .text.i2c_set_dma_last_transfer
                0x00000000080428ec        0xa /home/user/Devel/stm32/libopencm3/lib/libopencm3_stm32f4.a(i2c_common_v1.o)
                0x00000000080428ec                i2c_set_dma_last_transfer
 .text.i2c_clear_dma_last_transfer
                0x00000000080428f6        0xa /home/user/Devel/stm32/libopencm3/lib/libopencm3_stm32f4.a(i2c_common_v1.o)
                0x00000000080428f6                i2c_clear_dma_last_transfer
 .text.i2c_transfer7
                0x0000000008042900       0xc2 /home/user/Devel/stm32/libopencm3/lib/libopencm3_stm32f4.a(i2c_common_v1.o)
                0x0000000008042900                i2c_transfer7
 .text          0x00000000080429c2        0x0 /home/user/Devel/stm32/libopencm3/lib/libopencm3_stm32f4.a(spi_common_all.o)
 *fill*         0x00000000080429c2        0x2 
 .text.spi_reset
                0x00000000080429c4       0x60 /home/user/Devel/stm32/libopencm3/lib/libopencm3_stm32f4.a(spi_common_all.o)
                0x00000000080429c4                spi_reset
 .text.spi_enable
                0x0000000008042a24        0xa /home/user/Devel/stm32/libopencm3/lib/libopencm3_stm32f4.a(spi_common_all.o)
                0x0000000008042a24                spi_enable
 .text.spi_disable
                0x0000000008042a2e        0xa /home/user/Devel/stm32/libopencm3/lib/libopencm3_stm32f4.a(spi_common_all.o)
                0x0000000008042a2e                spi_disable
 .text.spi_clean_disable
                0x0000000008042a38       0x26 /home/user/Devel/stm32/libopencm3/lib/libopencm3_stm32f4.a(spi_common_all.o)
                0x0000000008042a38                spi_clean_disable
 .text.spi_write
                0x0000000008042a5e        0x4 /home/user/Devel/stm32/libopencm3/lib/libopencm3_stm32f4.a(spi_common_all.o)
                0x0000000008042a5e                spi_write
 .text.spi_send
                0x0000000008042a62        0xa /home/user/Devel/stm32/libopencm3/lib/libopencm3_stm32f4.a(spi_common_all.o)
                0x0000000008042a62                spi_send
 .text.spi_read
                0x0000000008042a6c        0xc /home/user/Devel/stm32/libopencm3/lib/libopencm3_stm32f4.a(spi_common_all.o)
                0x0000000008042a6c                spi_read
 .text.spi_xfer
                0x0000000008042a78        0xe /home/user/Devel/stm32/libopencm3/lib/libopencm3_stm32f4.a(spi_common_all.o)
                0x0000000008042a78                spi_xfer
 .text.spi_set_bidirectional_mode
                0x0000000008042a86        0xa /home/user/Devel/stm32/libopencm3/lib/libopencm3_stm32f4.a(spi_common_all.o)
                0x0000000008042a86                spi_set_bidirectional_mode
 .text.spi_set_unidirectional_mode
                0x0000000008042a90        0xa /home/user/Devel/stm32/libopencm3/lib/libopencm3_stm32f4.a(spi_common_all.o)
                0x0000000008042a90                spi_set_unidirectional_mode
 .text.spi_set_bidirectional_receive_only_mode
                0x0000000008042a9a       0x12 /home/user/Devel/stm32/libopencm3/lib/libopencm3_stm32f4.a(spi_common_all.o)
                0x0000000008042a9a                spi_set_bidirectional_receive_only_mode
 .text.spi_set_bidirectional_transmit_only_mode
                0x0000000008042aac       0x12 /home/user/Devel/stm32/libopencm3/lib/libopencm3_stm32f4.a(spi_common_all.o)
                0x0000000008042aac                spi_set_bidirectional_transmit_only_mode
 .text.spi_enable_crc
                0x0000000008042abe        0xa /home/user/Devel/stm32/libopencm3/lib/libopencm3_stm32f4.a(spi_common_all.o)
                0x0000000008042abe                spi_enable_crc
 .text.spi_disable_crc
                0x0000000008042ac8        0xa /home/user/Devel/stm32/libopencm3/lib/libopencm3_stm32f4.a(spi_common_all.o)
                0x0000000008042ac8                spi_disable_crc
 .text.spi_set_next_tx_from_buffer
                0x0000000008042ad2        0xa /home/user/Devel/stm32/libopencm3/lib/libopencm3_stm32f4.a(spi_common_all.o)
                0x0000000008042ad2                spi_set_next_tx_from_buffer
 .text.spi_set_next_tx_from_crc
                0x0000000008042adc        0xa /home/user/Devel/stm32/libopencm3/lib/libopencm3_stm32f4.a(spi_common_all.o)
                0x0000000008042adc                spi_set_next_tx_from_crc
 .text.spi_set_full_duplex_mode
                0x0000000008042ae6        0xa /home/user/Devel/stm32/libopencm3/lib/libopencm3_stm32f4.a(spi_common_all.o)
                0x0000000008042ae6                spi_set_full_duplex_mode
 .text.spi_set_receive_only_mode
                0x0000000008042af0        0xa /home/user/Devel/stm32/libopencm3/lib/libopencm3_stm32f4.a(spi_common_all.o)
                0x0000000008042af0                spi_set_receive_only_mode
 .text.spi_disable_software_slave_management
                0x0000000008042afa        0xa /home/user/Devel/stm32/libopencm3/lib/libopencm3_stm32f4.a(spi_common_all.o)
                0x0000000008042afa                spi_disable_software_slave_management
 .text.spi_enable_software_slave_management
                0x0000000008042b04       0x12 /home/user/Devel/stm32/libopencm3/lib/libopencm3_stm32f4.a(spi_common_all.o)
                0x0000000008042b04                spi_enable_software_slave_management
 .text.spi_set_nss_high
                0x0000000008042b16        0xa /home/user/Devel/stm32/libopencm3/lib/libopencm3_stm32f4.a(spi_common_all.o)
                0x0000000008042b16                spi_set_nss_high
 .text.spi_set_nss_low
                0x0000000008042b20        0xa /home/user/Devel/stm32/libopencm3/lib/libopencm3_stm32f4.a(spi_common_all.o)
                0x0000000008042b20                spi_set_nss_low
 .text.spi_send_lsb_first
                0x0000000008042b2a        0xa /home/user/Devel/stm32/libopencm3/lib/libopencm3_stm32f4.a(spi_common_all.o)
                0x0000000008042b2a                spi_send_lsb_first
 .text.spi_send_msb_first
                0x0000000008042b34        0xa /home/user/Devel/stm32/libopencm3/lib/libopencm3_stm32f4.a(spi_common_all.o)
                0x0000000008042b34                spi_send_msb_first
 .text.spi_set_baudrate_prescaler
                0x0000000008042b3e       0x14 /home/user/Devel/stm32/libopencm3/lib/libopencm3_stm32f4.a(spi_common_all.o)
                0x0000000008042b3e                spi_set_baudrate_prescaler
 .text.spi_set_master_mode
                0x0000000008042b52        0xa /home/user/Devel/stm32/libopencm3/lib/libopencm3_stm32f4.a(spi_common_all.o)
                0x0000000008042b52                spi_set_master_mode
 .text.spi_set_slave_mode
                0x0000000008042b5c        0xa /home/user/Devel/stm32/libopencm3/lib/libopencm3_stm32f4.a(spi_common_all.o)
                0x0000000008042b5c                spi_set_slave_mode
 .text.spi_set_clock_polarity_1
                0x0000000008042b66        0xa /home/user/Devel/stm32/libopencm3/lib/libopencm3_stm32f4.a(spi_common_all.o)
                0x0000000008042b66                spi_set_clock_polarity_1
 .text.spi_set_clock_polarity_0
                0x0000000008042b70        0xa /home/user/Devel/stm32/libopencm3/lib/libopencm3_stm32f4.a(spi_common_all.o)
                0x0000000008042b70                spi_set_clock_polarity_0
 .text.spi_set_clock_phase_1
                0x0000000008042b7a        0xa /home/user/Devel/stm32/libopencm3/lib/libopencm3_stm32f4.a(spi_common_all.o)
                0x0000000008042b7a                spi_set_clock_phase_1
 .text.spi_set_clock_phase_0
                0x0000000008042b84        0xa /home/user/Devel/stm32/libopencm3/lib/libopencm3_stm32f4.a(spi_common_all.o)
                0x0000000008042b84                spi_set_clock_phase_0
 .text.spi_enable_tx_buffer_empty_interrupt
                0x0000000008042b8e        0xa /home/user/Devel/stm32/libopencm3/lib/libopencm3_stm32f4.a(spi_common_all.o)
                0x0000000008042b8e                spi_enable_tx_buffer_empty_interrupt
 .text.spi_disable_tx_buffer_empty_interrupt
                0x0000000008042b98        0xa /home/user/Devel/stm32/libopencm3/lib/libopencm3_stm32f4.a(spi_common_all.o)
                0x0000000008042b98                spi_disable_tx_buffer_empty_interrupt
 .text.spi_enable_rx_buffer_not_empty_interrupt
                0x0000000008042ba2        0xa /home/user/Devel/stm32/libopencm3/lib/libopencm3_stm32f4.a(spi_common_all.o)
                0x0000000008042ba2                spi_enable_rx_buffer_not_empty_interrupt
 .text.spi_disable_rx_buffer_not_empty_interrupt
                0x0000000008042bac        0xa /home/user/Devel/stm32/libopencm3/lib/libopencm3_stm32f4.a(spi_common_all.o)
                0x0000000008042bac                spi_disable_rx_buffer_not_empty_interrupt
 .text.spi_enable_error_interrupt
                0x0000000008042bb6        0xa /home/user/Devel/stm32/libopencm3/lib/libopencm3_stm32f4.a(spi_common_all.o)
                0x0000000008042bb6                spi_enable_error_interrupt
 .text.spi_disable_error_interrupt
                0x0000000008042bc0        0xa /home/user/Devel/stm32/libopencm3/lib/libopencm3_stm32f4.a(spi_common_all.o)
                0x0000000008042bc0                spi_disable_error_interrupt
 .text.spi_enable_ss_output
                0x0000000008042bca        0xa /home/user/Devel/stm32/libopencm3/lib/libopencm3_stm32f4.a(spi_common_all.o)
                0x0000000008042bca                spi_enable_ss_output
 .text.spi_disable_ss_output
                0x0000000008042bd4        0xa /home/user/Devel/stm32/libopencm3/lib/libopencm3_stm32f4.a(spi_common_all.o)
                0x0000000008042bd4                spi_disable_ss_output
 .text.spi_enable_tx_dma
                0x0000000008042bde        0xa /home/user/Devel/stm32/libopencm3/lib/libopencm3_stm32f4.a(spi_common_all.o)
                0x0000000008042bde                spi_enable_tx_dma
 .text.spi_disable_tx_dma
                0x0000000008042be8        0xa /home/user/Devel/stm32/libopencm3/lib/libopencm3_stm32f4.a(spi_common_all.o)
                0x0000000008042be8                spi_disable_tx_dma
 .text.spi_enable_rx_dma
                0x0000000008042bf2        0xa /home/user/Devel/stm32/libopencm3/lib/libopencm3_stm32f4.a(spi_common_all.o)
                0x0000000008042bf2                spi_enable_rx_dma
 .text.spi_disable_rx_dma
                0x0000000008042bfc        0xa /home/user/Devel/stm32/libopencm3/lib/libopencm3_stm32f4.a(spi_common_all.o)
                0x0000000008042bfc                spi_disable_rx_dma
 .text.spi_set_standard_mode
                0x0000000008042c06       0x10 /home/user/Devel/stm32/libopencm3/lib/libopencm3_stm32f4.a(spi_common_all.o)
                0x0000000008042c06                spi_set_standard_mode
 .text          0x0000000008042c16        0x0 /home/user/Devel/stm32/libopencm3/lib/libopencm3_stm32f4.a(spi_common_l1f124.o)
 .text.spi_init_master
                0x0000000008042c16       0x2a /home/user/Devel/stm32/libopencm3/lib/libopencm3_stm32f4.a(spi_common_l1f124.o)
                0x0000000008042c16                spi_init_master
 .text.spi_set_dff_8bit
                0x0000000008042c40        0xa /home/user/Devel/stm32/libopencm3/lib/libopencm3_stm32f4.a(spi_common_l1f124.o)
                0x0000000008042c40                spi_set_dff_8bit
 .text.spi_set_dff_16bit
                0x0000000008042c4a        0xa /home/user/Devel/stm32/libopencm3/lib/libopencm3_stm32f4.a(spi_common_l1f124.o)
                0x0000000008042c4a                spi_set_dff_16bit
 .text          0x0000000008042c54        0x0 /home/user/Devel/stm32/libopencm3/lib/libopencm3_stm32f4.a(usart_common_all.o)
 .text.usart_set_baudrate
                0x0000000008042c54       0x30 /home/user/Devel/stm32/libopencm3/lib/libopencm3_stm32f4.a(usart_common_all.o)
                0x0000000008042c54                usart_set_baudrate
 .text.usart_set_databits
                0x0000000008042c84       0x12 /home/user/Devel/stm32/libopencm3/lib/libopencm3_stm32f4.a(usart_common_all.o)
                0x0000000008042c84                usart_set_databits
 .text.usart_set_stopbits
                0x0000000008042c96        0xc /home/user/Devel/stm32/libopencm3/lib/libopencm3_stm32f4.a(usart_common_all.o)
                0x0000000008042c96                usart_set_stopbits
 .text.usart_set_parity
                0x0000000008042ca2        0xc /home/user/Devel/stm32/libopencm3/lib/libopencm3_stm32f4.a(usart_common_all.o)
                0x0000000008042ca2                usart_set_parity
 .text.usart_set_mode
                0x0000000008042cae        0xc /home/user/Devel/stm32/libopencm3/lib/libopencm3_stm32f4.a(usart_common_all.o)
                0x0000000008042cae                usart_set_mode
 .text.usart_set_flow_control
                0x0000000008042cba        0xc /home/user/Devel/stm32/libopencm3/lib/libopencm3_stm32f4.a(usart_common_all.o)
                0x0000000008042cba                usart_set_flow_control
 .text.usart_enable
                0x0000000008042cc6        0xa /home/user/Devel/stm32/libopencm3/lib/libopencm3_stm32f4.a(usart_common_all.o)
                0x0000000008042cc6                usart_enable
 .text.usart_disable
                0x0000000008042cd0        0xa /home/user/Devel/stm32/libopencm3/lib/libopencm3_stm32f4.a(usart_common_all.o)
                0x0000000008042cd0                usart_disable
 .text.usart_send_blocking
                0x0000000008042cda       0x16 /home/user/Devel/stm32/libopencm3/lib/libopencm3_stm32f4.a(usart_common_all.o)
                0x0000000008042cda                usart_send_blocking
 .text.usart_recv_blocking
                0x0000000008042cf0       0x12 /home/user/Devel/stm32/libopencm3/lib/libopencm3_stm32f4.a(usart_common_all.o)
                0x0000000008042cf0                usart_recv_blocking
 .text.usart_enable_rx_dma
                0x0000000008042d02        0xa /home/user/Devel/stm32/libopencm3/lib/libopencm3_stm32f4.a(usart_common_all.o)
                0x0000000008042d02                usart_enable_rx_dma
 .text.usart_disable_rx_dma
                0x0000000008042d0c        0xa /home/user/Devel/stm32/libopencm3/lib/libopencm3_stm32f4.a(usart_common_all.o)
                0x0000000008042d0c                usart_disable_rx_dma
 .text.usart_enable_tx_dma
                0x0000000008042d16        0xa /home/user/Devel/stm32/libopencm3/lib/libopencm3_stm32f4.a(usart_common_all.o)
                0x0000000008042d16                usart_enable_tx_dma
 .text.usart_disable_tx_dma
                0x0000000008042d20        0xa /home/user/Devel/stm32/libopencm3/lib/libopencm3_stm32f4.a(usart_common_all.o)
                0x0000000008042d20                usart_disable_tx_dma
 .text.usart_enable_rx_interrupt
                0x0000000008042d2a        0xa /home/user/Devel/stm32/libopencm3/lib/libopencm3_stm32f4.a(usart_common_all.o)
                0x0000000008042d2a                usart_enable_rx_interrupt
 .text.usart_disable_rx_interrupt
                0x0000000008042d34        0xa /home/user/Devel/stm32/libopencm3/lib/libopencm3_stm32f4.a(usart_common_all.o)
                0x0000000008042d34                usart_disable_rx_interrupt
 .text.usart_enable_tx_interrupt
                0x0000000008042d3e        0xa /home/user/Devel/stm32/libopencm3/lib/libopencm3_stm32f4.a(usart_common_all.o)
                0x0000000008042d3e                usart_enable_tx_interrupt
 .text.usart_disable_tx_interrupt
                0x0000000008042d48        0xa /home/user/Devel/stm32/libopencm3/lib/libopencm3_stm32f4.a(usart_common_all.o)
                0x0000000008042d48                usart_disable_tx_interrupt
 .text.usart_enable_error_interrupt
                0x0000000008042d52        0xa /home/user/Devel/stm32/libopencm3/lib/libopencm3_stm32f4.a(usart_common_all.o)
                0x0000000008042d52                usart_enable_error_interrupt
 .text.usart_disable_error_interrupt
                0x0000000008042d5c        0xa /home/user/Devel/stm32/libopencm3/lib/libopencm3_stm32f4.a(usart_common_all.o)
                0x0000000008042d5c                usart_disable_error_interrupt
 .text          0x0000000008042d66        0x0 /home/user/Devel/stm32/libopencm3/lib/libopencm3_stm32f4.a(usart_common_f124.o)
 .text.usart_send
                0x0000000008042d66        0x8 /home/user/Devel/stm32/libopencm3/lib/libopencm3_stm32f4.a(usart_common_f124.o)
                0x0000000008042d66                usart_send
 .text.usart_recv
                0x0000000008042d6e        0x8 /home/user/Devel/stm32/libopencm3/lib/libopencm3_stm32f4.a(usart_common_f124.o)
                0x0000000008042d6e                usart_recv
 .text.usart_wait_send_ready
                0x0000000008042d76        0x8 /home/user/Devel/stm32/libopencm3/lib/libopencm3_stm32f4.a(usart_common_f124.o)
                0x0000000008042d76                usart_wait_send_ready
 .text.usart_wait_recv_ready
                0x0000000008042d7e        0x8 /home/user/Devel/stm32/libopencm3/lib/libopencm3_stm32f4.a(usart_common_f124.o)
                0x0000000008042d7e                usart_wait_recv_ready
 .text.usart_get_flag
                0x0000000008042d86        0xc /home/user/Devel/stm32/libopencm3/lib/libopencm3_stm32f4.a(usart_common_f124.o)
                0x0000000008042d86                usart_get_flag
 .text          0x0000000008042d92        0x0 /home/user/Devel/stm32/libopencm3/lib/libopencm3_stm32f4.a(flash_common_f234.o)
 *fill*         0x0000000008042d92        0x2 
 .text.flash_set_ws
                0x0000000008042d94       0x14 /home/user/Devel/stm32/libopencm3/lib/libopencm3_stm32f4.a(flash_common_f234.o)
                0x0000000008042d94                flash_set_ws
 .text.flash_unlock
                0x0000000008042da8       0x24 /home/user/Devel/stm32/libopencm3/lib/libopencm3_stm32f4.a(flash_common_f234.o)
                0x0000000008042da8                flash_unlock
 .text.flash_lock
                0x0000000008042dcc       0x10 /home/user/Devel/stm32/libopencm3/lib/libopencm3_stm32f4.a(flash_common_f234.o)
                0x0000000008042dcc                flash_lock
 .text.flash_clear_pgperr_flag
                0x0000000008042ddc       0x10 /home/user/Devel/stm32/libopencm3/lib/libopencm3_stm32f4.a(flash_common_f234.o)
                0x0000000008042ddc                flash_clear_pgperr_flag
 .text.flash_clear_eop_flag
                0x0000000008042dec       0x10 /home/user/Devel/stm32/libopencm3/lib/libopencm3_stm32f4.a(flash_common_f234.o)
                0x0000000008042dec                flash_clear_eop_flag
 .text.flash_clear_bsy_flag
                0x0000000008042dfc       0x10 /home/user/Devel/stm32/libopencm3/lib/libopencm3_stm32f4.a(flash_common_f234.o)
                0x0000000008042dfc                flash_clear_bsy_flag
 .text.flash_wait_for_last_operation
                0x0000000008042e0c       0x10 /home/user/Devel/stm32/libopencm3/lib/libopencm3_stm32f4.a(flash_common_f234.o)
                0x0000000008042e0c                flash_wait_for_last_operation
 .text          0x0000000008042e1c        0x0 /home/user/Devel/stm32/libopencm3/lib/libopencm3_stm32f4.a(flash_common_f24.o)
 .text.flash_set_program_size
                0x0000000008042e1c       0x18 /home/user/Devel/stm32/libopencm3/lib/libopencm3_stm32f4.a(flash_common_f24.o)
 .text.flash_dcache_enable
                0x0000000008042e34       0x10 /home/user/Devel/stm32/libopencm3/lib/libopencm3_stm32f4.a(flash_common_f24.o)
                0x0000000008042e34                flash_dcache_enable
 .text.flash_dcache_disable
                0x0000000008042e44       0x10 /home/user/Devel/stm32/libopencm3/lib/libopencm3_stm32f4.a(flash_common_f24.o)
                0x0000000008042e44                flash_dcache_disable
 .text.flash_icache_enable
                0x0000000008042e54       0x10 /home/user/Devel/stm32/libopencm3/lib/libopencm3_stm32f4.a(flash_common_f24.o)
                0x0000000008042e54                flash_icache_enable
 .text.flash_icache_disable
                0x0000000008042e64       0x10 /home/user/Devel/stm32/libopencm3/lib/libopencm3_stm32f4.a(flash_common_f24.o)
                0x0000000008042e64                flash_icache_disable
 .text.flash_prefetch_enable
                0x0000000008042e74       0x10 /home/user/Devel/stm32/libopencm3/lib/libopencm3_stm32f4.a(flash_common_f24.o)
                0x0000000008042e74                flash_prefetch_enable
 .text.flash_prefetch_disable
                0x0000000008042e84       0x10 /home/user/Devel/stm32/libopencm3/lib/libopencm3_stm32f4.a(flash_common_f24.o)
                0x0000000008042e84                flash_prefetch_disable
 .text.flash_dcache_reset
                0x0000000008042e94       0x10 /home/user/Devel/stm32/libopencm3/lib/libopencm3_stm32f4.a(flash_common_f24.o)
                0x0000000008042e94                flash_dcache_reset
 .text.flash_icache_reset
                0x0000000008042ea4       0x10 /home/user/Devel/stm32/libopencm3/lib/libopencm3_stm32f4.a(flash_common_f24.o)
                0x0000000008042ea4                flash_icache_reset
 .text.flash_clear_pgserr_flag
                0x0000000008042eb4       0x10 /home/user/Devel/stm32/libopencm3/lib/libopencm3_stm32f4.a(flash_common_f24.o)
                0x0000000008042eb4                flash_clear_pgserr_flag
 .text.flash_clear_pgaerr_flag
                0x0000000008042ec4       0x10 /home/user/Devel/stm32/libopencm3/lib/libopencm3_stm32f4.a(flash_common_f24.o)
                0x0000000008042ec4                flash_clear_pgaerr_flag
 .text.flash_clear_wrperr_flag
                0x0000000008042ed4       0x10 /home/user/Devel/stm32/libopencm3/lib/libopencm3_stm32f4.a(flash_common_f24.o)
                0x0000000008042ed4                flash_clear_wrperr_flag
 .text.flash_clear_status_flags
                0x0000000008042ee4       0x1e /home/user/Devel/stm32/libopencm3/lib/libopencm3_stm32f4.a(flash_common_f24.o)
                0x0000000008042ee4                flash_clear_status_flags
 *fill*         0x0000000008042f02        0x2 
 .text.flash_unlock_option_bytes
                0x0000000008042f04       0x24 /home/user/Devel/stm32/libopencm3/lib/libopencm3_stm32f4.a(flash_common_f24.o)
                0x0000000008042f04                flash_unlock_option_bytes
 .text.flash_lock_option_bytes
                0x0000000008042f28       0x10 /home/user/Devel/stm32/libopencm3/lib/libopencm3_stm32f4.a(flash_common_f24.o)
                0x0000000008042f28                flash_lock_option_bytes
 .text.flash_program_double_word
                0x0000000008042f38       0x34 /home/user/Devel/stm32/libopencm3/lib/libopencm3_stm32f4.a(flash_common_f24.o)
                0x0000000008042f38                flash_program_double_word
 .text.flash_program_word
                0x0000000008042f6c       0x30 /home/user/Devel/stm32/libopencm3/lib/libopencm3_stm32f4.a(flash_common_f24.o)
                0x0000000008042f6c                flash_program_word
 .text.flash_program_half_word
                0x0000000008042f9c       0x30 /home/user/Devel/stm32/libopencm3/lib/libopencm3_stm32f4.a(flash_common_f24.o)
                0x0000000008042f9c                flash_program_half_word
 .text.flash_program_byte
                0x0000000008042fcc       0x30 /home/user/Devel/stm32/libopencm3/lib/libopencm3_stm32f4.a(flash_common_f24.o)
                0x0000000008042fcc                flash_program_byte
 .text.flash_program
                0x0000000008042ffc       0x1a /home/user/Devel/stm32/libopencm3/lib/libopencm3_stm32f4.a(flash_common_f24.o)
                0x0000000008042ffc                flash_program
 *fill*         0x0000000008043016        0x2 
 .text.flash_erase_sector
                0x0000000008043018       0x50 /home/user/Devel/stm32/libopencm3/lib/libopencm3_stm32f4.a(flash_common_f24.o)
                0x0000000008043018                flash_erase_sector
 .text.flash_erase_all_sectors
                0x0000000008043068       0x34 /home/user/Devel/stm32/libopencm3/lib/libopencm3_stm32f4.a(flash_common_f24.o)
                0x0000000008043068                flash_erase_all_sectors
 .text.flash_program_option_bytes
                0x000000000804309c       0x30 /home/user/Devel/stm32/libopencm3/lib/libopencm3_stm32f4.a(flash_common_f24.o)
                0x000000000804309c                flash_program_option_bytes
 .text          0x00000000080430cc        0x0 /home/user/Devel/stm32/libopencm3/lib/libopencm3_stm32f4.a(exti_common_all.o)
 .text.exti_set_trigger
                0x00000000080430cc       0x3c /home/user/Devel/stm32/libopencm3/lib/libopencm3_stm32f4.a(exti_common_all.o)
                0x00000000080430cc                exti_set_trigger
 .text.exti_enable_request
                0x0000000008043108       0x14 /home/user/Devel/stm32/libopencm3/lib/libopencm3_stm32f4.a(exti_common_all.o)
                0x0000000008043108                exti_enable_request
 .text.exti_disable_request
                0x000000000804311c       0x18 /home/user/Devel/stm32/libopencm3/lib/libopencm3_stm32f4.a(exti_common_all.o)
                0x000000000804311c                exti_disable_request
 .text.exti_reset_request
                0x0000000008043134        0xc /home/user/Devel/stm32/libopencm3/lib/libopencm3_stm32f4.a(exti_common_all.o)
                0x0000000008043134                exti_reset_request
 .text.exti_get_flag_status
                0x0000000008043140        0xc /home/user/Devel/stm32/libopencm3/lib/libopencm3_stm32f4.a(exti_common_all.o)
                0x0000000008043140                exti_get_flag_status
 .text.exti_select_source
                0x000000000804314c       0xdc /home/user/Devel/stm32/libopencm3/lib/libopencm3_stm32f4.a(exti_common_all.o)
                0x000000000804314c                exti_select_source
 .text          0x0000000008043228        0x0 /home/user/Devel/stm32/libopencm3/lib/libopencm3_stm32f4.a(rcc_common_all.o)
 .text.rcc_peripheral_enable_clock
                0x0000000008043228        0x8 /home/user/Devel/stm32/libopencm3/lib/libopencm3_stm32f4.a(rcc_common_all.o)
                0x0000000008043228                rcc_peripheral_enable_clock
 .text.rcc_peripheral_disable_clock
                0x0000000008043230        0xa /home/user/Devel/stm32/libopencm3/lib/libopencm3_stm32f4.a(rcc_common_all.o)
                0x0000000008043230                rcc_peripheral_disable_clock
 .text.rcc_peripheral_reset
                0x000000000804323a        0x8 /home/user/Devel/stm32/libopencm3/lib/libopencm3_stm32f4.a(rcc_common_all.o)
                0x000000000804323a                rcc_peripheral_reset
 .text.rcc_peripheral_clear_reset
                0x0000000008043242        0xa /home/user/Devel/stm32/libopencm3/lib/libopencm3_stm32f4.a(rcc_common_all.o)
                0x0000000008043242                rcc_peripheral_clear_reset
 .text.rcc_periph_clock_enable
                0x000000000804324c       0x1c /home/user/Devel/stm32/libopencm3/lib/libopencm3_stm32f4.a(rcc_common_all.o)
                0x000000000804324c                rcc_periph_clock_enable
 .text.rcc_periph_clock_disable
                0x0000000008043268       0x1e /home/user/Devel/stm32/libopencm3/lib/libopencm3_stm32f4.a(rcc_common_all.o)
                0x0000000008043268                rcc_periph_clock_disable
 .text.rcc_periph_reset_pulse
                0x0000000008043286       0x26 /home/user/Devel/stm32/libopencm3/lib/libopencm3_stm32f4.a(rcc_common_all.o)
                0x0000000008043286                rcc_periph_reset_pulse
 .text.rcc_periph_reset_hold
                0x00000000080432ac       0x1c /home/user/Devel/stm32/libopencm3/lib/libopencm3_stm32f4.a(rcc_common_all.o)
                0x00000000080432ac                rcc_periph_reset_hold
 .text.rcc_periph_reset_release
                0x00000000080432c8       0x1e /home/user/Devel/stm32/libopencm3/lib/libopencm3_stm32f4.a(rcc_common_all.o)
                0x00000000080432c8                rcc_periph_reset_release
 *fill*         0x00000000080432e6        0x2 
 .text.rcc_set_mco
                0x00000000080432e8       0x14 /home/user/Devel/stm32/libopencm3/lib/libopencm3_stm32f4.a(rcc_common_all.o)
                0x00000000080432e8                rcc_set_mco
 .text          0x00000000080432fc        0x0 /home/user/Devel/stm32/libopencm3/lib/libopencm3_stm32f4.a(usb.o)
 .text.usbd_init
                0x00000000080432fc       0x58 /home/user/Devel/stm32/libopencm3/lib/libopencm3_stm32f4.a(usb.o)
                0x00000000080432fc                usbd_init
 .text.usbd_register_reset_callback
                0x0000000008043354        0x4 /home/user/Devel/stm32/libopencm3/lib/libopencm3_stm32f4.a(usb.o)
                0x0000000008043354                usbd_register_reset_callback
 .text.usbd_register_suspend_callback
                0x0000000008043358        0x4 /home/user/Devel/stm32/libopencm3/lib/libopencm3_stm32f4.a(usb.o)
                0x0000000008043358                usbd_register_suspend_callback
 .text.usbd_register_resume_callback
                0x000000000804335c        0x4 /home/user/Devel/stm32/libopencm3/lib/libopencm3_stm32f4.a(usb.o)
                0x000000000804335c                usbd_register_resume_callback
 .text.usbd_register_sof_callback
                0x0000000008043360        0x4 /home/user/Devel/stm32/libopencm3/lib/libopencm3_stm32f4.a(usb.o)
                0x0000000008043360                usbd_register_sof_callback
 .text.usbd_poll
                0x0000000008043364        0x8 /home/user/Devel/stm32/libopencm3/lib/libopencm3_stm32f4.a(usb.o)
                0x0000000008043364                usbd_poll
 .text.usbd_disconnect
                0x000000000804336c        0xc /home/user/Devel/stm32/libopencm3/lib/libopencm3_stm32f4.a(usb.o)
                0x000000000804336c                usbd_disconnect
 .text.usbd_ep_setup
                0x0000000008043378       0x10 /home/user/Devel/stm32/libopencm3/lib/libopencm3_stm32f4.a(usb.o)
                0x0000000008043378                usbd_ep_setup
 .text._usbd_reset
                0x0000000008043388       0x34 /home/user/Devel/stm32/libopencm3/lib/libopencm3_stm32f4.a(usb.o)
                0x0000000008043388                _usbd_reset
 .text.usbd_ep_write_packet
                0x00000000080433bc       0x10 /home/user/Devel/stm32/libopencm3/lib/libopencm3_stm32f4.a(usb.o)
                0x00000000080433bc                usbd_ep_write_packet
 .text.usbd_ep_read_packet
                0x00000000080433cc       0x10 /home/user/Devel/stm32/libopencm3/lib/libopencm3_stm32f4.a(usb.o)
                0x00000000080433cc                usbd_ep_read_packet
 .text.usbd_ep_stall_set
                0x00000000080433dc        0x8 /home/user/Devel/stm32/libopencm3/lib/libopencm3_stm32f4.a(usb.o)
                0x00000000080433dc                usbd_ep_stall_set
 .text.usbd_ep_stall_get
                0x00000000080433e4        0x8 /home/user/Devel/stm32/libopencm3/lib/libopencm3_stm32f4.a(usb.o)
                0x00000000080433e4                usbd_ep_stall_get
 .text.usbd_ep_nak_set
                0x00000000080433ec        0x8 /home/user/Devel/stm32/libopencm3/lib/libopencm3_stm32f4.a(usb.o)
                0x00000000080433ec                usbd_ep_nak_set
 .text          0x00000000080433f4        0x0 /home/user/Devel/stm32/libopencm3/lib/libopencm3_stm32f4.a(usb_standard.o)
 .text.usb_standard_set_configuration
                0x00000000080433f4       0x96 /home/user/Devel/stm32/libopencm3/lib/libopencm3_stm32f4.a(usb_standard.o)
 .text.usb_standard_get_configuration
                0x000000000804348a       0x22 /home/user/Devel/stm32/libopencm3/lib/libopencm3_stm32f4.a(usb_standard.o)
 .text.usb_standard_get_interface
                0x00000000080434ac       0x38 /home/user/Devel/stm32/libopencm3/lib/libopencm3_stm32f4.a(usb_standard.o)
 .text.usb_standard_interface_get_status
                0x00000000080434e4       0x18 /home/user/Devel/stm32/libopencm3/lib/libopencm3_stm32f4.a(usb_standard.o)
 .text.usb_standard_endpoint_get_status
                0x00000000080434fc       0x2a /home/user/Devel/stm32/libopencm3/lib/libopencm3_stm32f4.a(usb_standard.o)
 .text.usb_standard_endpoint_stall
                0x0000000008043526       0x10 /home/user/Devel/stm32/libopencm3/lib/libopencm3_stm32f4.a(usb_standard.o)
 .text.usb_standard_endpoint_unstall
                0x0000000008043536       0x10 /home/user/Devel/stm32/libopencm3/lib/libopencm3_stm32f4.a(usb_standard.o)
 .text.usb_standard_set_address
                0x0000000008043546       0x2a /home/user/Devel/stm32/libopencm3/lib/libopencm3_stm32f4.a(usb_standard.o)
 .text.usb_standard_set_interface
                0x0000000008043570       0x4e /home/user/Devel/stm32/libopencm3/lib/libopencm3_stm32f4.a(usb_standard.o)
 .text.usb_standard_get_descriptor
                0x00000000080435be      0x25e /home/user/Devel/stm32/libopencm3/lib/libopencm3_stm32f4.a(usb_standard.o)
 .text.usb_standard_device_get_status
                0x000000000804381c       0x18 /home/user/Devel/stm32/libopencm3/lib/libopencm3_stm32f4.a(usb_standard.o)
 .text.usbd_register_set_config_callback
                0x0000000008043834       0x24 /home/user/Devel/stm32/libopencm3/lib/libopencm3_stm32f4.a(usb_standard.o)
                0x0000000008043834                usbd_register_set_config_callback
 .text.usbd_register_set_altsetting_callback
                0x0000000008043858        0x6 /home/user/Devel/stm32/libopencm3/lib/libopencm3_stm32f4.a(usb_standard.o)
                0x0000000008043858                usbd_register_set_altsetting_callback
 *fill*         0x000000000804385e        0x2 
 .text._usbd_standard_request_device
                0x0000000008043860       0x20 /home/user/Devel/stm32/libopencm3/lib/libopencm3_stm32f4.a(usb_standard.o)
                0x0000000008043860                _usbd_standard_request_device
 .text._usbd_standard_request_interface
                0x0000000008043880       0x20 /home/user/Devel/stm32/libopencm3/lib/libopencm3_stm32f4.a(usb_standard.o)
                0x0000000008043880                _usbd_standard_request_interface
 .text._usbd_standard_request_endpoint
                0x00000000080438a0       0x40 /home/user/Devel/stm32/libopencm3/lib/libopencm3_stm32f4.a(usb_standard.o)
                0x00000000080438a0                _usbd_standard_request_endpoint
 .text._usbd_standard_request
                0x00000000080438e0       0x38 /home/user/Devel/stm32/libopencm3/lib/libopencm3_stm32f4.a(usb_standard.o)
                0x00000000080438e0                _usbd_standard_request
 .text          0x0000000008043918        0x0 /home/user/Devel/stm32/libopencm3/lib/libopencm3_stm32f4.a(usb_control.o)
 .text.stall_transaction
                0x0000000008043918       0x14 /home/user/Devel/stm32/libopencm3/lib/libopencm3_stm32f4.a(usb_control.o)
 .text.usb_control_recv_chunk
                0x000000000804392c       0x3c /home/user/Devel/stm32/libopencm3/lib/libopencm3_stm32f4.a(usb_control.o)
 .text.usb_control_send_chunk
                0x0000000008043968       0x56 /home/user/Devel/stm32/libopencm3/lib/libopencm3_stm32f4.a(usb_control.o)
 .text.usb_control_request_dispatch
                0x00000000080439be       0x62 /home/user/Devel/stm32/libopencm3/lib/libopencm3_stm32f4.a(usb_control.o)
 .text.usb_control_setup_read
                0x0000000008043a20       0x6a /home/user/Devel/stm32/libopencm3/lib/libopencm3_stm32f4.a(usb_control.o)
 .text.usbd_register_control_callback
                0x0000000008043a8a       0x26 /home/user/Devel/stm32/libopencm3/lib/libopencm3_stm32f4.a(usb_control.o)
                0x0000000008043a8a                usbd_register_control_callback
 .text._usbd_control_setup
                0x0000000008043ab0       0x5a /home/user/Devel/stm32/libopencm3/lib/libopencm3_stm32f4.a(usb_control.o)
                0x0000000008043ab0                _usbd_control_setup
 .text._usbd_control_out
                0x0000000008043b0a       0x86 /home/user/Devel/stm32/libopencm3/lib/libopencm3_stm32f4.a(usb_control.o)
                0x0000000008043b0a                _usbd_control_out
 .text._usbd_control_in
                0x0000000008043b90       0x56 /home/user/Devel/stm32/libopencm3/lib/libopencm3_stm32f4.a(usb_control.o)
                0x0000000008043b90                _usbd_control_in
 .text          0x0000000008043be6        0x0 /home/user/Devel/stm32/libopencm3/lib/libopencm3_stm32f4.a(usb_f107.o)
 *fill*         0x0000000008043be6        0x2 
 .text.stm32f107_usbd_init
                0x0000000008043be8       0xd0 /home/user/Devel/stm32/libopencm3/lib/libopencm3_stm32f4.a(usb_f107.o)
 .text          0x0000000008043cb8        0x0 /home/user/Devel/stm32/libopencm3/lib/libopencm3_stm32f4.a(vector.o)
 .text.blocking_handler
                0x0000000008043cb8        0x2 /home/user/Devel/stm32/libopencm3/lib/libopencm3_stm32f4.a(vector.o)
                0x0000000008043cb8                dma2_stream1_isr
                0x0000000008043cb8                tim8_brk_tim12_isr
                0x0000000008043cb8                dma1_stream7_isr
                0x0000000008043cb8                usart3_isr
                0x0000000008043cb8                tim7_isr
                0x0000000008043cb8                dma2d_isr
                0x0000000008043cb8                uart8_isr
                0x0000000008043cb8                dma1_stream2_isr
                0x0000000008043cb8                otg_hs_isr
                0x0000000008043cb8                blocking_handler
                0x0000000008043cb8                tim5_isr
                0x0000000008043cb8                rtc_wkup_isr
                0x0000000008043cb8                spi1_isr
                0x0000000008043cb8                i2c3_er_isr
                0x0000000008043cb8                spi5_isr
                0x0000000008043cb8                usb_fs_wkup_isr
                0x0000000008043cb8                tamp_stamp_isr
                0x0000000008043cb8                can1_rx1_isr
                0x0000000008043cb8                i2c3_ev_isr
                0x0000000008043cb8                can2_rx0_isr
                0x0000000008043cb8                dma1_stream6_isr
                0x0000000008043cb8                can2_rx1_isr
                0x0000000008043cb8                can1_sce_isr
                0x0000000008043cb8                tim1_cc_isr
                0x0000000008043cb8                can1_tx_isr
                0x0000000008043cb8                tim1_up_tim10_isr
                0x0000000008043cb8                sdio_isr
                0x0000000008043cb8                eth_isr
                0x0000000008043cb8                spi6_isr
                0x0000000008043cb8                pvd_isr
                0x0000000008043cb8                can1_rx0_isr
                0x0000000008043cb8                rcc_isr
                0x0000000008043cb8                flash_isr
                0x0000000008043cb8                uart4_isr
                0x0000000008043cb8                lcd_tft_isr
                0x0000000008043cb8                rtc_alarm_isr
                0x0000000008043cb8                exti15_10_isr
                0x0000000008043cb8                hash_rng_isr
                0x0000000008043cb8                tim1_trg_com_tim11_isr
                0x0000000008043cb8                exti1_isr
                0x0000000008043cb8                i2c1_ev_isr
                0x0000000008043cb8                usart6_isr
                0x0000000008043cb8                spi2_isr
                0x0000000008043cb8                cryp_isr
                0x0000000008043cb8                nvic_wwdg_isr
                0x0000000008043cb8                dma1_stream1_isr
                0x0000000008043cb8                dma2_stream4_isr
                0x0000000008043cb8                exti3_isr
                0x0000000008043cb8                tim3_isr
                0x0000000008043cb8                usart2_isr
                0x0000000008043cb8                sai1_isr
                0x0000000008043cb8                fpu_isr
                0x0000000008043cb8                i2c2_er_isr
                0x0000000008043cb8                i2c2_ev_isr
                0x0000000008043cb8                uart5_isr
                0x0000000008043cb8                spi4_isr
                0x0000000008043cb8                adc_isr
                0x0000000008043cb8                tim8_up_tim13_isr
                0x0000000008043cb8                fsmc_isr
                0x0000000008043cb8                exti4_isr
                0x0000000008043cb8                tim6_dac_isr
                0x0000000008043cb8                dma1_stream3_isr
                0x0000000008043cb8                tim8_trg_com_tim14_isr
                0x0000000008043cb8                mem_manage_handler
                0x0000000008043cb8                lcd_tft_err_isr
                0x0000000008043cb8                can2_tx_isr
                0x0000000008043cb8                exti9_5_isr
                0x0000000008043cb8                tim1_brk_tim9_isr
                0x0000000008043cb8                uart7_isr
                0x0000000008043cb8                can2_sce_isr
                0x0000000008043cb8                tim4_isr
                0x0000000008043cb8                otg_hs_wkup_isr
                0x0000000008043cb8                i2c1_er_isr
                0x0000000008043cb8                dma1_stream0_isr
                0x0000000008043cb8                tim8_cc_isr
                0x0000000008043cb8                dcmi_isr
                0x0000000008043cb8                dma2_stream2_isr
                0x0000000008043cb8                eth_wkup_isr
                0x0000000008043cb8                otg_hs_ep1_out_isr
                0x0000000008043cb8                spi3_isr
                0x0000000008043cb8                dma1_stream5_isr
                0x0000000008043cb8                otg_hs_ep1_in_isr
                0x0000000008043cb8                tim2_isr
                0x0000000008043cb8                exti0_isr
 .text.null_handler
                0x0000000008043cba        0x2 /home/user/Devel/stm32/libopencm3/lib/libopencm3_stm32f4.a(vector.o)
                0x0000000008043cba                null_handler
                0x0000000008043cba                sv_call_handler
                0x0000000008043cba                pend_sv_handler
                0x0000000008043cba                debug_monitor_handler
                0x0000000008043cba                nmi_handler
 .text.reset_handler
                0x0000000008043cbc       0x98 /home/user/Devel/stm32/libopencm3/lib/libopencm3_stm32f4.a(vector.o)
                0x0000000008043cbc                reset_handler
 .text          0x0000000008043d54        0x0 /home/user/Devel/stm32/libopencm3/lib/libopencm3_stm32f4.a(systick.o)
 .text.systick_set_reload
                0x0000000008043d54       0x10 /home/user/Devel/stm32/libopencm3/lib/libopencm3_stm32f4.a(systick.o)
                0x0000000008043d54                systick_set_reload
 .text.systick_get_reload
                0x0000000008043d64       0x10 /home/user/Devel/stm32/libopencm3/lib/libopencm3_stm32f4.a(systick.o)
                0x0000000008043d64                systick_get_reload
 .text.systick_get_value
                0x0000000008043d74       0x10 /home/user/Devel/stm32/libopencm3/lib/libopencm3_stm32f4.a(systick.o)
                0x0000000008043d74                systick_get_value
 .text.systick_set_clocksource
                0x0000000008043d84       0x18 /home/user/Devel/stm32/libopencm3/lib/libopencm3_stm32f4.a(systick.o)
                0x0000000008043d84                systick_set_clocksource
 .text.systick_set_frequency
                0x0000000008043d9c       0x3c /home/user/Devel/stm32/libopencm3/lib/libopencm3_stm32f4.a(systick.o)
                0x0000000008043d9c                systick_set_frequency
 .text.systick_interrupt_enable
                0x0000000008043dd8       0x10 /home/user/Devel/stm32/libopencm3/lib/libopencm3_stm32f4.a(systick.o)
                0x0000000008043dd8                systick_interrupt_enable
 .text.systick_interrupt_disable
                0x0000000008043de8       0x10 /home/user/Devel/stm32/libopencm3/lib/libopencm3_stm32f4.a(systick.o)
                0x0000000008043de8                systick_interrupt_disable
 .text.systick_counter_enable
                0x0000000008043df8       0x10 /home/user/Devel/stm32/libopencm3/lib/libopencm3_stm32f4.a(systick.o)
                0x0000000008043df8                systick_counter_enable
 .text.systick_counter_disable
                0x0000000008043e08       0x10 /home/user/Devel/stm32/libopencm3/lib/libopencm3_stm32f4.a(systick.o)
                0x0000000008043e08                systick_counter_disable
 .text.systick_get_countflag
                0x0000000008043e18       0x10 /home/user/Devel/stm32/libopencm3/lib/libopencm3_stm32f4.a(systick.o)
                0x0000000008043e18                systick_get_countflag
 .text.systick_clear
                0x0000000008043e28        0xc /home/user/Devel/stm32/libopencm3/lib/libopencm3_stm32f4.a(systick.o)
                0x0000000008043e28                systick_clear
 .text.systick_get_calib
                0x0000000008043e34       0x10 /home/user/Devel/stm32/libopencm3/lib/libopencm3_stm32f4.a(systick.o)
                0x0000000008043e34                systick_get_calib
 .text          0x0000000008043e44        0x0 /home/user/Devel/stm32/libopencm3/lib/libopencm3_stm32f4.a(nvic.o)
 .text.nvic_enable_irq
                0x0000000008043e44       0x1c /home/user/Devel/stm32/libopencm3/lib/libopencm3_stm32f4.a(nvic.o)
                0x0000000008043e44                nvic_enable_irq
 .text.nvic_disable_irq
                0x0000000008043e60       0x1c /home/user/Devel/stm32/libopencm3/lib/libopencm3_stm32f4.a(nvic.o)
                0x0000000008043e60                nvic_disable_irq
 .text.nvic_get_pending_irq
                0x0000000008043e7c       0x24 /home/user/Devel/stm32/libopencm3/lib/libopencm3_stm32f4.a(nvic.o)
                0x0000000008043e7c                nvic_get_pending_irq
 .text.nvic_set_pending_irq
                0x0000000008043ea0       0x1c /home/user/Devel/stm32/libopencm3/lib/libopencm3_stm32f4.a(nvic.o)
                0x0000000008043ea0                nvic_set_pending_irq
 .text.nvic_clear_pending_irq
                0x0000000008043ebc       0x1c /home/user/Devel/stm32/libopencm3/lib/libopencm3_stm32f4.a(nvic.o)
                0x0000000008043ebc                nvic_clear_pending_irq
 .text.nvic_get_irq_enabled
                0x0000000008043ed8       0x24 /home/user/Devel/stm32/libopencm3/lib/libopencm3_stm32f4.a(nvic.o)
                0x0000000008043ed8                nvic_get_irq_enabled
 .text.nvic_set_priority
                0x0000000008043efc       0x20 /home/user/Devel/stm32/libopencm3/lib/libopencm3_stm32f4.a(nvic.o)
                0x0000000008043efc                nvic_set_priority
 .text.nvic_get_active_irq
                0x0000000008043f1c       0x24 /home/user/Devel/stm32/libopencm3/lib/libopencm3_stm32f4.a(nvic.o)
                0x0000000008043f1c                nvic_get_active_irq
 .text.nvic_generate_software_interrupt
                0x0000000008043f40       0x14 /home/user/Devel/stm32/libopencm3/lib/libopencm3_stm32f4.a(nvic.o)
                0x0000000008043f40                nvic_generate_software_interrupt
 .text          0x0000000008043f54        0x0 /home/user/Devel/stm32/libopencm3/lib/libopencm3_stm32f4.a(pwr.o)
 .text.pwr_set_vos_scale
                0x0000000008043f54       0x20 /home/user/Devel/stm32/libopencm3/lib/libopencm3_stm32f4.a(pwr.o)
                0x0000000008043f54                pwr_set_vos_scale
 .text          0x0000000008043f74        0x0 /home/user/Devel/stm32/libopencm3/lib/libopencm3_stm32f4.a(usb_fx07_common.o)
 .text.stm32fx07_set_address
                0x0000000008043f74       0x18 /home/user/Devel/stm32/libopencm3/lib/libopencm3_stm32f4.a(usb_fx07_common.o)
                0x0000000008043f74                stm32fx07_set_address
 .text.stm32fx07_ep_setup
                0x0000000008043f8c      0x144 /home/user/Devel/stm32/libopencm3/lib/libopencm3_stm32f4.a(usb_fx07_common.o)
                0x0000000008043f8c                stm32fx07_ep_setup
 .text.stm32fx07_endpoints_reset
                0x00000000080440d0       0x4c /home/user/Devel/stm32/libopencm3/lib/libopencm3_stm32f4.a(usb_fx07_common.o)
                0x00000000080440d0                stm32fx07_endpoints_reset
 .text.stm32fx07_ep_stall_set
                0x000000000804411c       0x4e /home/user/Devel/stm32/libopencm3/lib/libopencm3_stm32f4.a(usb_fx07_common.o)
                0x000000000804411c                stm32fx07_ep_stall_set
 .text.stm32fx07_ep_stall_get
                0x000000000804416a       0x1e /home/user/Devel/stm32/libopencm3/lib/libopencm3_stm32f4.a(usb_fx07_common.o)
                0x000000000804416a                stm32fx07_ep_stall_get
 .text.stm32fx07_ep_nak_set
                0x0000000008044188       0x2a /home/user/Devel/stm32/libopencm3/lib/libopencm3_stm32f4.a(usb_fx07_common.o)
                0x0000000008044188                stm32fx07_ep_nak_set
 .text.stm32fx07_ep_write_packet
                0x00000000080441b2       0x4c /home/user/Devel/stm32/libopencm3/lib/libopencm3_stm32f4.a(usb_fx07_common.o)
                0x00000000080441b2                stm32fx07_ep_write_packet
 .text.stm32fx07_ep_read_packet
                0x00000000080441fe       0x60 /home/user/Devel/stm32/libopencm3/lib/libopencm3_stm32f4.a(usb_fx07_common.o)
                0x00000000080441fe                stm32fx07_ep_read_packet
 .text.stm32fx07_poll
                0x000000000804425e      0x1c6 /home/user/Devel/stm32/libopencm3/lib/libopencm3_stm32f4.a(usb_fx07_common.o)
                0x000000000804425e                stm32fx07_poll
 .text.stm32fx07_disconnect
                0x0000000008044424       0x1c /home/user/Devel/stm32/libopencm3/lib/libopencm3_stm32f4.a(usb_fx07_common.o)
                0x0000000008044424                stm32fx07_disconnect
 .text          0x0000000008044440        0x0 /home/user/Devel/stm32/gcc-arm-none-eabi-8-2018-q4-major/bin/../lib/gcc/arm-none-eabi/8.2.1/../../../../arm-none-eabi/lib/thumb/v7e-m+fp/hard/libc_nano.a(lib_a-assert.o)
 .text.__assert_func
                0x0000000008044440       0x3c /home/user/Devel/stm32/gcc-arm-none-eabi-8-2018-q4-major/bin/../lib/gcc/arm-none-eabi/8.2.1/../../../../arm-none-eabi/lib/thumb/v7e-m+fp/hard/libc_nano.a(lib_a-assert.o)
                0x0000000008044440                __assert_func
 .text.__assert
                0x000000000804447c        0xa /home/user/Devel/stm32/gcc-arm-none-eabi-8-2018-q4-major/bin/../lib/gcc/arm-none-eabi/8.2.1/../../../../arm-none-eabi/lib/thumb/v7e-m+fp/hard/libc_nano.a(lib_a-assert.o)
                0x000000000804447c                __assert
 .text          0x0000000008044486        0x0 /home/user/Devel/stm32/gcc-arm-none-eabi-8-2018-q4-major/bin/../lib/gcc/arm-none-eabi/8.2.1/../../../../arm-none-eabi/lib/thumb/v7e-m+fp/hard/libc_nano.a(lib_a-fprintf.o)
 .text._fprintf_r
                0x0000000008044486       0x1a /home/user/Devel/stm32/gcc-arm-none-eabi-8-2018-q4-major/bin/../lib/gcc/arm-none-eabi/8.2.1/../../../../arm-none-eabi/lib/thumb/v7e-m+fp/hard/libc_nano.a(lib_a-fprintf.o)
                0x0000000008044486                _fprintf_r
                0x0000000008044486                _fiprintf_r
 .text.fprintf  0x00000000080444a0       0x24 /home/user/Devel/stm32/gcc-arm-none-eabi-8-2018-q4-major/bin/../lib/gcc/arm-none-eabi/8.2.1/../../../../arm-none-eabi/lib/thumb/v7e-m+fp/hard/libc_nano.a(lib_a-fprintf.o)
                0x00000000080444a0                fprintf
                0x00000000080444a0                fiprintf
 .text          0x00000000080444c4        0x0 /home/user/Devel/stm32/gcc-arm-none-eabi-8-2018-q4-major/bin/../lib/gcc/arm-none-eabi/8.2.1/../../../../arm-none-eabi/lib/thumb/v7e-m+fp/hard/libc_nano.a(lib_a-impure.o)
 .text          0x00000000080444c4        0x0 /home/user/Devel/stm32/gcc-arm-none-eabi-8-2018-q4-major/bin/../lib/gcc/arm-none-eabi/8.2.1/../../../../arm-none-eabi/lib/thumb/v7e-m+fp/hard/libc_nano.a(lib_a-memcmp.o)
 .text.memcmp   0x00000000080444c4       0x1c /home/user/Devel/stm32/gcc-arm-none-eabi-8-2018-q4-major/bin/../lib/gcc/arm-none-eabi/8.2.1/../../../../arm-none-eabi/lib/thumb/v7e-m+fp/hard/libc_nano.a(lib_a-memcmp.o)
                0x00000000080444c4                memcmp
 .text          0x00000000080444e0        0x0 /home/user/Devel/stm32/gcc-arm-none-eabi-8-2018-q4-major/bin/../lib/gcc/arm-none-eabi/8.2.1/../../../../arm-none-eabi/lib/thumb/v7e-m+fp/hard/libc_nano.a(lib_a-memcpy-stub.o)
 .text.memcpy   0x00000000080444e0       0x1c /home/user/Devel/stm32/gcc-arm-none-eabi-8-2018-q4-major/bin/../lib/gcc/arm-none-eabi/8.2.1/../../../../arm-none-eabi/lib/thumb/v7e-m+fp/hard/libc_nano.a(lib_a-memcpy-stub.o)
                0x00000000080444e0                memcpy
 .text          0x00000000080444fc        0x0 /home/user/Devel/stm32/gcc-arm-none-eabi-8-2018-q4-major/bin/../lib/gcc/arm-none-eabi/8.2.1/../../../../arm-none-eabi/lib/thumb/v7e-m+fp/hard/libc_nano.a(lib_a-memmove.o)
 .text.memmove  0x00000000080444fc       0x34 /home/user/Devel/stm32/gcc-arm-none-eabi-8-2018-q4-major/bin/../lib/gcc/arm-none-eabi/8.2.1/../../../../arm-none-eabi/lib/thumb/v7e-m+fp/hard/libc_nano.a(lib_a-memmove.o)
                0x00000000080444fc                memmove
 .text          0x0000000008044530        0x0 /home/user/Devel/stm32/gcc-arm-none-eabi-8-2018-q4-major/bin/../lib/gcc/arm-none-eabi/8.2.1/../../../../arm-none-eabi/lib/thumb/v7e-m+fp/hard/libc_nano.a(lib_a-memset.o)
 .text.memset   0x0000000008044530       0x10 /home/user/Devel/stm32/gcc-arm-none-eabi-8-2018-q4-major/bin/../lib/gcc/arm-none-eabi/8.2.1/../../../../arm-none-eabi/lib/thumb/v7e-m+fp/hard/libc_nano.a(lib_a-memset.o)
                0x0000000008044530                memset
 .text          0x0000000008044540        0x0 /home/user/Devel/stm32/gcc-arm-none-eabi-8-2018-q4-major/bin/../lib/gcc/arm-none-eabi/8.2.1/../../../../arm-none-eabi/lib/thumb/v7e-m+fp/hard/libc_nano.a(lib_a-nano-vfprintf.o)
 .text.__sfputc_r
                0x0000000008044540       0x2e /home/user/Devel/stm32/gcc-arm-none-eabi-8-2018-q4-major/bin/../lib/gcc/arm-none-eabi/8.2.1/../../../../arm-none-eabi/lib/thumb/v7e-m+fp/hard/libc_nano.a(lib_a-nano-vfprintf.o)
 .text.__sfputs_r
                0x000000000804456e       0x24 /home/user/Devel/stm32/gcc-arm-none-eabi-8-2018-q4-major/bin/../lib/gcc/arm-none-eabi/8.2.1/../../../../arm-none-eabi/lib/thumb/v7e-m+fp/hard/libc_nano.a(lib_a-nano-vfprintf.o)
                0x000000000804456e                __sfputs_r
 .text.__sprint_r
                0x0000000008044592       0x1a /home/user/Devel/stm32/gcc-arm-none-eabi-8-2018-q4-major/bin/../lib/gcc/arm-none-eabi/8.2.1/../../../../arm-none-eabi/lib/thumb/v7e-m+fp/hard/libc_nano.a(lib_a-nano-vfprintf.o)
                0x0000000008044592                __sprint_r
 .text._vfprintf_r
                0x00000000080445ac      0x250 /home/user/Devel/stm32/gcc-arm-none-eabi-8-2018-q4-major/bin/../lib/gcc/arm-none-eabi/8.2.1/../../../../arm-none-eabi/lib/thumb/v7e-m+fp/hard/libc_nano.a(lib_a-nano-vfprintf.o)
                0x00000000080445ac                _vfiprintf_r
                0x00000000080445ac                _vfprintf_r
 .text.vfprintf
                0x00000000080447fc       0x14 /home/user/Devel/stm32/gcc-arm-none-eabi-8-2018-q4-major/bin/../lib/gcc/arm-none-eabi/8.2.1/../../../../arm-none-eabi/lib/thumb/v7e-m+fp/hard/libc_nano.a(lib_a-nano-vfprintf.o)
                0x00000000080447fc                vfiprintf
                0x00000000080447fc                vfprintf
 .text          0x0000000008044810        0x0 /home/user/Devel/stm32/gcc-arm-none-eabi-8-2018-q4-major/bin/../lib/gcc/arm-none-eabi/8.2.1/../../../../arm-none-eabi/lib/thumb/v7e-m+fp/hard/libc_nano.a(lib_a-nano-vfprintf_i.o)
 .text._printf_common
                0x0000000008044810       0xea /home/user/Devel/stm32/gcc-arm-none-eabi-8-2018-q4-major/bin/../lib/gcc/arm-none-eabi/8.2.1/../../../../arm-none-eabi/lib/thumb/v7e-m+fp/hard/libc_nano.a(lib_a-nano-vfprintf_i.o)
                0x0000000008044810                _printf_common
 *fill*         0x00000000080448fa        0x2 
 .text._printf_i
                0x00000000080448fc      0x228 /home/user/Devel/stm32/gcc-arm-none-eabi-8-2018-q4-major/bin/../lib/gcc/arm-none-eabi/8.2.1/../../../../arm-none-eabi/lib/thumb/v7e-m+fp/hard/libc_nano.a(lib_a-nano-vfprintf_i.o)
                0x00000000080448fc                _printf_i
 .text          0x0000000008044b24        0x0 /home/user/Devel/stm32/gcc-arm-none-eabi-8-2018-q4-major/bin/../lib/gcc/arm-none-eabi/8.2.1/../../../../arm-none-eabi/lib/thumb/v7e-m+fp/hard/libc_nano.a(lib_a-strchr.o)
 .text.strchr   0x0000000008044b24       0x1a /home/user/Devel/stm32/gcc-arm-none-eabi-8-2018-q4-major/bin/../lib/gcc/arm-none-eabi/8.2.1/../../../../arm-none-eabi/lib/thumb/v7e-m+fp/hard/libc_nano.a(lib_a-strchr.o)
                0x0000000008044b24                strchr
 .text          0x0000000008044b3e       0x14 /home/user/Devel/stm32/gcc-arm-none-eabi-8-2018-q4-major/bin/../lib/gcc/arm-none-eabi/8.2.1/../../../../arm-none-eabi/lib/thumb/v7e-m+fp/hard/libc_nano.a(lib_a-strcmp.o)
                0x0000000008044b3e                strcmp
 .text          0x0000000008044b52        0x0 /home/user/Devel/stm32/gcc-arm-none-eabi-8-2018-q4-major/bin/../lib/gcc/arm-none-eabi/8.2.1/../../../../arm-none-eabi/lib/thumb/v7e-m+fp/hard/libc_nano.a(lib_a-strcpy.o)
 .text.strcpy   0x0000000008044b52       0x10 /home/user/Devel/stm32/gcc-arm-none-eabi-8-2018-q4-major/bin/../lib/gcc/arm-none-eabi/8.2.1/../../../../arm-none-eabi/lib/thumb/v7e-m+fp/hard/libc_nano.a(lib_a-strcpy.o)
                0x0000000008044b52                strcpy
 .text          0x0000000008044b62       0x10 /home/user/Devel/stm32/gcc-arm-none-eabi-8-2018-q4-major/bin/../lib/gcc/arm-none-eabi/8.2.1/../../../../arm-none-eabi/lib/thumb/v7e-m+fp/hard/libc_nano.a(lib_a-strlen.o)
                0x0000000008044b62                strlen
 .text          0x0000000008044b72        0x0 /home/user/Devel/stm32/gcc-arm-none-eabi-8-2018-q4-major/bin/../lib/gcc/arm-none-eabi/8.2.1/../../../../arm-none-eabi/lib/thumb/v7e-m+fp/hard/libc_nano.a(lib_a-strstr.o)
 .text.strstr   0x0000000008044b72       0x2e /home/user/Devel/stm32/gcc-arm-none-eabi-8-2018-q4-major/bin/../lib/gcc/arm-none-eabi/8.2.1/../../../../arm-none-eabi/lib/thumb/v7e-m+fp/hard/libc_nano.a(lib_a-strstr.o)
                0x0000000008044b72                strstr
 .text          0x0000000008044ba0        0x0 /home/user/Devel/stm32/gcc-arm-none-eabi-8-2018-q4-major/bin/../lib/gcc/arm-none-eabi/8.2.1/../../../../arm-none-eabi/lib/thumb/v7e-m+fp/hard/libc_nano.a(lib_a-wbuf.o)
 .text.__swbuf_r
                0x0000000008044ba0       0xa4 /home/user/Devel/stm32/gcc-arm-none-eabi-8-2018-q4-major/bin/../lib/gcc/arm-none-eabi/8.2.1/../../../../arm-none-eabi/lib/thumb/v7e-m+fp/hard/libc_nano.a(lib_a-wbuf.o)
                0x0000000008044ba0                __swbuf_r
 .text.__swbuf  0x0000000008044c44       0x10 /home/user/Devel/stm32/gcc-arm-none-eabi-8-2018-q4-major/bin/../lib/gcc/arm-none-eabi/8.2.1/../../../../arm-none-eabi/lib/thumb/v7e-m+fp/hard/libc_nano.a(lib_a-wbuf.o)
                0x0000000008044c44                __swbuf
 .text          0x0000000008044c54        0x0 /home/user/Devel/stm32/gcc-arm-none-eabi-8-2018-q4-major/bin/../lib/gcc/arm-none-eabi/8.2.1/../../../../arm-none-eabi/lib/thumb/v7e-m+fp/hard/libc_nano.a(lib_a-wsetup.o)
 .text.__swsetup_r
                0x0000000008044c54       0xdc /home/user/Devel/stm32/gcc-arm-none-eabi-8-2018-q4-major/bin/../lib/gcc/arm-none-eabi/8.2.1/../../../../arm-none-eabi/lib/thumb/v7e-m+fp/hard/libc_nano.a(lib_a-wsetup.o)
                0x0000000008044c54                __swsetup_r
 .text          0x0000000008044d30        0x0 /home/user/Devel/stm32/gcc-arm-none-eabi-8-2018-q4-major/bin/../lib/gcc/arm-none-eabi/8.2.1/../../../../arm-none-eabi/lib/thumb/v7e-m+fp/hard/libc_nano.a(lib_a-abort.o)
 .text.abort    0x0000000008044d30        0xe /home/user/Devel/stm32/gcc-arm-none-eabi-8-2018-q4-major/bin/../lib/gcc/arm-none-eabi/8.2.1/../../../../arm-none-eabi/lib/thumb/v7e-m+fp/hard/libc_nano.a(lib_a-abort.o)
                0x0000000008044d30                abort
 .text          0x0000000008044d3e        0x0 /home/user/Devel/stm32/gcc-arm-none-eabi-8-2018-q4-major/bin/../lib/gcc/arm-none-eabi/8.2.1/../../../../arm-none-eabi/lib/thumb/v7e-m+fp/hard/libc_nano.a(lib_a-fflush.o)
 *fill*         0x0000000008044d3e        0x2 
 .text.__sflush_r
                0x0000000008044d40      0x10c /home/user/Devel/stm32/gcc-arm-none-eabi-8-2018-q4-major/bin/../lib/gcc/arm-none-eabi/8.2.1/../../../../arm-none-eabi/lib/thumb/v7e-m+fp/hard/libc_nano.a(lib_a-fflush.o)
                0x0000000008044d40                __sflush_r
 .text._fflush_r
                0x0000000008044e4c       0x78 /home/user/Devel/stm32/gcc-arm-none-eabi-8-2018-q4-major/bin/../lib/gcc/arm-none-eabi/8.2.1/../../../../arm-none-eabi/lib/thumb/v7e-m+fp/hard/libc_nano.a(lib_a-fflush.o)
                0x0000000008044e4c                _fflush_r
 .text.fflush   0x0000000008044ec4       0x24 /home/user/Devel/stm32/gcc-arm-none-eabi-8-2018-q4-major/bin/../lib/gcc/arm-none-eabi/8.2.1/../../../../arm-none-eabi/lib/thumb/v7e-m+fp/hard/libc_nano.a(lib_a-fflush.o)
                0x0000000008044ec4                fflush
 .text          0x0000000008044ee8        0x0 /home/user/Devel/stm32/gcc-arm-none-eabi-8-2018-q4-major/bin/../lib/gcc/arm-none-eabi/8.2.1/../../../../arm-none-eabi/lib/thumb/v7e-m+fp/hard/libc_nano.a(lib_a-findfp.o)
 .text.std      0x0000000008044ee8       0x48 /home/user/Devel/stm32/gcc-arm-none-eabi-8-2018-q4-major/bin/../lib/gcc/arm-none-eabi/8.2.1/../../../../arm-none-eabi/lib/thumb/v7e-m+fp/hard/libc_nano.a(lib_a-findfp.o)
 .text._cleanup_r
                0x0000000008044f30        0xc /home/user/Devel/stm32/gcc-arm-none-eabi-8-2018-q4-major/bin/../lib/gcc/arm-none-eabi/8.2.1/../../../../arm-none-eabi/lib/thumb/v7e-m+fp/hard/libc_nano.a(lib_a-findfp.o)
                0x0000000008044f30                _cleanup_r
 .text.__fp_lock
                0x0000000008044f3c       0x18 /home/user/Devel/stm32/gcc-arm-none-eabi-8-2018-q4-major/bin/../lib/gcc/arm-none-eabi/8.2.1/../../../../arm-none-eabi/lib/thumb/v7e-m+fp/hard/libc_nano.a(lib_a-findfp.o)
 .text.__fp_unlock
                0x0000000008044f54       0x18 /home/user/Devel/stm32/gcc-arm-none-eabi-8-2018-q4-major/bin/../lib/gcc/arm-none-eabi/8.2.1/../../../../arm-none-eabi/lib/thumb/v7e-m+fp/hard/libc_nano.a(lib_a-findfp.o)
 .text.__sfmoreglue
                0x0000000008044f6c       0x2c /home/user/Devel/stm32/gcc-arm-none-eabi-8-2018-q4-major/bin/../lib/gcc/arm-none-eabi/8.2.1/../../../../arm-none-eabi/lib/thumb/v7e-m+fp/hard/libc_nano.a(lib_a-findfp.o)
                0x0000000008044f6c                __sfmoreglue
 .text._cleanup
                0x0000000008044f98        0xc /home/user/Devel/stm32/gcc-arm-none-eabi-8-2018-q4-major/bin/../lib/gcc/arm-none-eabi/8.2.1/../../../../arm-none-eabi/lib/thumb/v7e-m+fp/hard/libc_nano.a(lib_a-findfp.o)
                0x0000000008044f98                _cleanup
 .text.__sfp_lock_acquire
                0x0000000008044fa4        0xc /home/user/Devel/stm32/gcc-arm-none-eabi-8-2018-q4-major/bin/../lib/gcc/arm-none-eabi/8.2.1/../../../../arm-none-eabi/lib/thumb/v7e-m+fp/hard/libc_nano.a(lib_a-findfp.o)
                0x0000000008044fa4                __sfp_lock_acquire
 .text.__sfp_lock_release
                0x0000000008044fb0        0xc /home/user/Devel/stm32/gcc-arm-none-eabi-8-2018-q4-major/bin/../lib/gcc/arm-none-eabi/8.2.1/../../../../arm-none-eabi/lib/thumb/v7e-m+fp/hard/libc_nano.a(lib_a-findfp.o)
                0x0000000008044fb0                __sfp_lock_release
 .text.__sinit_lock_acquire
                0x0000000008044fbc        0xc /home/user/Devel/stm32/gcc-arm-none-eabi-8-2018-q4-major/bin/../lib/gcc/arm-none-eabi/8.2.1/../../../../arm-none-eabi/lib/thumb/v7e-m+fp/hard/libc_nano.a(lib_a-findfp.o)
                0x0000000008044fbc                __sinit_lock_acquire
 .text.__sinit_lock_release
                0x0000000008044fc8        0xc /home/user/Devel/stm32/gcc-arm-none-eabi-8-2018-q4-major/bin/../lib/gcc/arm-none-eabi/8.2.1/../../../../arm-none-eabi/lib/thumb/v7e-m+fp/hard/libc_nano.a(lib_a-findfp.o)
                0x0000000008044fc8                __sinit_lock_release
 .text.__sinit  0x0000000008044fd4       0x70 /home/user/Devel/stm32/gcc-arm-none-eabi-8-2018-q4-major/bin/../lib/gcc/arm-none-eabi/8.2.1/../../../../arm-none-eabi/lib/thumb/v7e-m+fp/hard/libc_nano.a(lib_a-findfp.o)
                0x0000000008044fd4                __sinit
 .text.__sfp    0x0000000008045044       0x8c /home/user/Devel/stm32/gcc-arm-none-eabi-8-2018-q4-major/bin/../lib/gcc/arm-none-eabi/8.2.1/../../../../arm-none-eabi/lib/thumb/v7e-m+fp/hard/libc_nano.a(lib_a-findfp.o)
                0x0000000008045044                __sfp
 .text.__fp_lock_all
                0x00000000080450d0       0x1c /home/user/Devel/stm32/gcc-arm-none-eabi-8-2018-q4-major/bin/../lib/gcc/arm-none-eabi/8.2.1/../../../../arm-none-eabi/lib/thumb/v7e-m+fp/hard/libc_nano.a(lib_a-findfp.o)
                0x00000000080450d0                __fp_lock_all
 .text.__fp_unlock_all
                0x00000000080450ec       0x1c /home/user/Devel/stm32/gcc-arm-none-eabi-8-2018-q4-major/bin/../lib/gcc/arm-none-eabi/8.2.1/../../../../arm-none-eabi/lib/thumb/v7e-m+fp/hard/libc_nano.a(lib_a-findfp.o)
                0x00000000080450ec                __fp_unlock_all
 .text          0x0000000008045108        0x0 /home/user/Devel/stm32/gcc-arm-none-eabi-8-2018-q4-major/bin/../lib/gcc/arm-none-eabi/8.2.1/../../../../arm-none-eabi/lib/thumb/v7e-m+fp/hard/libc_nano.a(lib_a-fvwrite.o)
 .text.__sfvwrite_r
                0x0000000008045108      0x2a0 /home/user/Devel/stm32/gcc-arm-none-eabi-8-2018-q4-major/bin/../lib/gcc/arm-none-eabi/8.2.1/../../../../arm-none-eabi/lib/thumb/v7e-m+fp/hard/libc_nano.a(lib_a-fvwrite.o)
                0x0000000008045108                __sfvwrite_r
 .text          0x00000000080453a8        0x0 /home/user/Devel/stm32/gcc-arm-none-eabi-8-2018-q4-major/bin/../lib/gcc/arm-none-eabi/8.2.1/../../../../arm-none-eabi/lib/thumb/v7e-m+fp/hard/libc_nano.a(lib_a-fwalk.o)
 .text._fwalk   0x00000000080453a8       0x38 /home/user/Devel/stm32/gcc-arm-none-eabi-8-2018-q4-major/bin/../lib/gcc/arm-none-eabi/8.2.1/../../../../arm-none-eabi/lib/thumb/v7e-m+fp/hard/libc_nano.a(lib_a-fwalk.o)
                0x00000000080453a8                _fwalk
 .text._fwalk_reent
                0x00000000080453e0       0x3c /home/user/Devel/stm32/gcc-arm-none-eabi-8-2018-q4-major/bin/../lib/gcc/arm-none-eabi/8.2.1/../../../../arm-none-eabi/lib/thumb/v7e-m+fp/hard/libc_nano.a(lib_a-fwalk.o)
                0x00000000080453e0                _fwalk_reent
 .text          0x000000000804541c        0x0 /home/user/Devel/stm32/gcc-arm-none-eabi-8-2018-q4-major/bin/../lib/gcc/arm-none-eabi/8.2.1/../../../../arm-none-eabi/lib/thumb/v7e-m+fp/hard/libc_nano.a(lib_a-lock.o)
 .text.__retarget_lock_init
                0x000000000804541c        0x2 /home/user/Devel/stm32/gcc-arm-none-eabi-8-2018-q4-major/bin/../lib/gcc/arm-none-eabi/8.2.1/../../../../arm-none-eabi/lib/thumb/v7e-m+fp/hard/libc_nano.a(lib_a-lock.o)
                0x000000000804541c                __retarget_lock_init
 .text.__retarget_lock_init_recursive
                0x000000000804541e        0x2 /home/user/Devel/stm32/gcc-arm-none-eabi-8-2018-q4-major/bin/../lib/gcc/arm-none-eabi/8.2.1/../../../../arm-none-eabi/lib/thumb/v7e-m+fp/hard/libc_nano.a(lib_a-lock.o)
                0x000000000804541e                __retarget_lock_init_recursive
 .text.__retarget_lock_close
                0x0000000008045420        0x2 /home/user/Devel/stm32/gcc-arm-none-eabi-8-2018-q4-major/bin/../lib/gcc/arm-none-eabi/8.2.1/../../../../arm-none-eabi/lib/thumb/v7e-m+fp/hard/libc_nano.a(lib_a-lock.o)
                0x0000000008045420                __retarget_lock_close
 .text.__retarget_lock_close_recursive
                0x0000000008045422        0x2 /home/user/Devel/stm32/gcc-arm-none-eabi-8-2018-q4-major/bin/../lib/gcc/arm-none-eabi/8.2.1/../../../../arm-none-eabi/lib/thumb/v7e-m+fp/hard/libc_nano.a(lib_a-lock.o)
                0x0000000008045422                __retarget_lock_close_recursive
 .text.__retarget_lock_acquire
                0x0000000008045424        0x2 /home/user/Devel/stm32/gcc-arm-none-eabi-8-2018-q4-major/bin/../lib/gcc/arm-none-eabi/8.2.1/../../../../arm-none-eabi/lib/thumb/v7e-m+fp/hard/libc_nano.a(lib_a-lock.o)
                0x0000000008045424                __retarget_lock_acquire
 .text.__retarget_lock_acquire_recursive
                0x0000000008045426        0x2 /home/user/Devel/stm32/gcc-arm-none-eabi-8-2018-q4-major/bin/../lib/gcc/arm-none-eabi/8.2.1/../../../../arm-none-eabi/lib/thumb/v7e-m+fp/hard/libc_nano.a(lib_a-lock.o)
                0x0000000008045426                __retarget_lock_acquire_recursive
 .text.__retarget_lock_try_acquire
                0x0000000008045428        0x4 /home/user/Devel/stm32/gcc-arm-none-eabi-8-2018-q4-major/bin/../lib/gcc/arm-none-eabi/8.2.1/../../../../arm-none-eabi/lib/thumb/v7e-m+fp/hard/libc_nano.a(lib_a-lock.o)
                0x0000000008045428                __retarget_lock_try_acquire
 .text.__retarget_lock_try_acquire_recursive
                0x000000000804542c        0x4 /home/user/Devel/stm32/gcc-arm-none-eabi-8-2018-q4-major/bin/../lib/gcc/arm-none-eabi/8.2.1/../../../../arm-none-eabi/lib/thumb/v7e-m+fp/hard/libc_nano.a(lib_a-lock.o)
                0x000000000804542c                __retarget_lock_try_acquire_recursive
 .text.__retarget_lock_release
                0x0000000008045430        0x2 /home/user/Devel/stm32/gcc-arm-none-eabi-8-2018-q4-major/bin/../lib/gcc/arm-none-eabi/8.2.1/../../../../arm-none-eabi/lib/thumb/v7e-m+fp/hard/libc_nano.a(lib_a-lock.o)
                0x0000000008045430                __retarget_lock_release
 .text.__retarget_lock_release_recursive
                0x0000000008045432        0x2 /home/user/Devel/stm32/gcc-arm-none-eabi-8-2018-q4-major/bin/../lib/gcc/arm-none-eabi/8.2.1/../../../../arm-none-eabi/lib/thumb/v7e-m+fp/hard/libc_nano.a(lib_a-lock.o)
                0x0000000008045432                __retarget_lock_release_recursive
 .text          0x0000000008045434        0x0 /home/user/Devel/stm32/gcc-arm-none-eabi-8-2018-q4-major/bin/../lib/gcc/arm-none-eabi/8.2.1/../../../../arm-none-eabi/lib/thumb/v7e-m+fp/hard/libc_nano.a(lib_a-makebuf.o)
 .text.__swhatbuf_r
                0x0000000008045434       0x48 /home/user/Devel/stm32/gcc-arm-none-eabi-8-2018-q4-major/bin/../lib/gcc/arm-none-eabi/8.2.1/../../../../arm-none-eabi/lib/thumb/v7e-m+fp/hard/libc_nano.a(lib_a-makebuf.o)
                0x0000000008045434                __swhatbuf_r
 .text.__smakebuf_r
                0x000000000804547c       0x80 /home/user/Devel/stm32/gcc-arm-none-eabi-8-2018-q4-major/bin/../lib/gcc/arm-none-eabi/8.2.1/../../../../arm-none-eabi/lib/thumb/v7e-m+fp/hard/libc_nano.a(lib_a-makebuf.o)
                0x000000000804547c                __smakebuf_r
 *fill*         0x00000000080454fc        0x4 
 .text          0x0000000008045500       0xa0 /home/user/Devel/stm32/gcc-arm-none-eabi-8-2018-q4-major/bin/../lib/gcc/arm-none-eabi/8.2.1/../../../../arm-none-eabi/lib/thumb/v7e-m+fp/hard/libc_nano.a(lib_a-memchr.o)
                0x0000000008045500                memchr
 .text          0x00000000080455a0        0x0 /home/user/Devel/stm32/gcc-arm-none-eabi-8-2018-q4-major/bin/../lib/gcc/arm-none-eabi/8.2.1/../../../../arm-none-eabi/lib/thumb/v7e-m+fp/hard/libc_nano.a(lib_a-nano-freer.o)
 .text._free_r  0x00000000080455a0       0x9c /home/user/Devel/stm32/gcc-arm-none-eabi-8-2018-q4-major/bin/../lib/gcc/arm-none-eabi/8.2.1/../../../../arm-none-eabi/lib/thumb/v7e-m+fp/hard/libc_nano.a(lib_a-nano-freer.o)
                0x00000000080455a0                _free_r
 .text          0x000000000804563c        0x0 /home/user/Devel/stm32/gcc-arm-none-eabi-8-2018-q4-major/bin/../lib/gcc/arm-none-eabi/8.2.1/../../../../arm-none-eabi/lib/thumb/v7e-m+fp/hard/libc_nano.a(lib_a-nano-mallocr.o)
 .text._malloc_r
                0x000000000804563c       0xb4 /home/user/Devel/stm32/gcc-arm-none-eabi-8-2018-q4-major/bin/../lib/gcc/arm-none-eabi/8.2.1/../../../../arm-none-eabi/lib/thumb/v7e-m+fp/hard/libc_nano.a(lib_a-nano-mallocr.o)
                0x000000000804563c                _malloc_r
 .text          0x00000000080456f0        0x0 /home/user/Devel/stm32/gcc-arm-none-eabi-8-2018-q4-major/bin/../lib/gcc/arm-none-eabi/8.2.1/../../../../arm-none-eabi/lib/thumb/v7e-m+fp/hard/libc_nano.a(lib_a-nano-reallocr.o)
 .text._realloc_r
                0x00000000080456f0       0x4c /home/user/Devel/stm32/gcc-arm-none-eabi-8-2018-q4-major/bin/../lib/gcc/arm-none-eabi/8.2.1/../../../../arm-none-eabi/lib/thumb/v7e-m+fp/hard/libc_nano.a(lib_a-nano-reallocr.o)
                0x00000000080456f0                _realloc_r
 .text          0x000000000804573c        0x0 /home/user/Devel/stm32/gcc-arm-none-eabi-8-2018-q4-major/bin/../lib/gcc/arm-none-eabi/8.2.1/../../../../arm-none-eabi/lib/thumb/v7e-m+fp/hard/libc_nano.a(lib_a-sbrkr.o)
 .text._sbrk_r  0x000000000804573c       0x20 /home/user/Devel/stm32/gcc-arm-none-eabi-8-2018-q4-major/bin/../lib/gcc/arm-none-eabi/8.2.1/../../../../arm-none-eabi/lib/thumb/v7e-m+fp/hard/libc_nano.a(lib_a-sbrkr.o)
                0x000000000804573c                _sbrk_r
 .text          0x000000000804575c        0x0 /home/user/Devel/stm32/gcc-arm-none-eabi-8-2018-q4-major/bin/../lib/gcc/arm-none-eabi/8.2.1/../../../../arm-none-eabi/lib/thumb/v7e-m+fp/hard/libc_nano.a(lib_a-signal.o)
 .text._init_signal_r
                0x000000000804575c       0x28 /home/user/Devel/stm32/gcc-arm-none-eabi-8-2018-q4-major/bin/../lib/gcc/arm-none-eabi/8.2.1/../../../../arm-none-eabi/lib/thumb/v7e-m+fp/hard/libc_nano.a(lib_a-signal.o)
                0x000000000804575c                _init_signal_r
 .text._signal_r
                0x0000000008045784       0x30 /home/user/Devel/stm32/gcc-arm-none-eabi-8-2018-q4-major/bin/../lib/gcc/arm-none-eabi/8.2.1/../../../../arm-none-eabi/lib/thumb/v7e-m+fp/hard/libc_nano.a(lib_a-signal.o)
                0x0000000008045784                _signal_r
 .text._raise_r
                0x00000000080457b4       0x50 /home/user/Devel/stm32/gcc-arm-none-eabi-8-2018-q4-major/bin/../lib/gcc/arm-none-eabi/8.2.1/../../../../arm-none-eabi/lib/thumb/v7e-m+fp/hard/libc_nano.a(lib_a-signal.o)
                0x00000000080457b4                _raise_r
 .text.__sigtramp_r
                0x0000000008045804       0x48 /home/user/Devel/stm32/gcc-arm-none-eabi-8-2018-q4-major/bin/../lib/gcc/arm-none-eabi/8.2.1/../../../../arm-none-eabi/lib/thumb/v7e-m+fp/hard/libc_nano.a(lib_a-signal.o)
                0x0000000008045804                __sigtramp_r
 .text.raise    0x000000000804584c       0x10 /home/user/Devel/stm32/gcc-arm-none-eabi-8-2018-q4-major/bin/../lib/gcc/arm-none-eabi/8.2.1/../../../../arm-none-eabi/lib/thumb/v7e-m+fp/hard/libc_nano.a(lib_a-signal.o)
                0x000000000804584c                raise
 .text.signal   0x000000000804585c       0x10 /home/user/Devel/stm32/gcc-arm-none-eabi-8-2018-q4-major/bin/../lib/gcc/arm-none-eabi/8.2.1/../../../../arm-none-eabi/lib/thumb/v7e-m+fp/hard/libc_nano.a(lib_a-signal.o)
                0x000000000804585c                signal
 .text._init_signal
                0x000000000804586c        0xc /home/user/Devel/stm32/gcc-arm-none-eabi-8-2018-q4-major/bin/../lib/gcc/arm-none-eabi/8.2.1/../../../../arm-none-eabi/lib/thumb/v7e-m+fp/hard/libc_nano.a(lib_a-signal.o)
                0x000000000804586c                _init_signal
 .text.__sigtramp
                0x0000000008045878       0x10 /home/user/Devel/stm32/gcc-arm-none-eabi-8-2018-q4-major/bin/../lib/gcc/arm-none-eabi/8.2.1/../../../../arm-none-eabi/lib/thumb/v7e-m+fp/hard/libc_nano.a(lib_a-signal.o)
                0x0000000008045878                __sigtramp
 .text          0x0000000008045888        0x0 /home/user/Devel/stm32/gcc-arm-none-eabi-8-2018-q4-major/bin/../lib/gcc/arm-none-eabi/8.2.1/../../../../arm-none-eabi/lib/thumb/v7e-m+fp/hard/libc_nano.a(lib_a-signalr.o)
 .text._kill_r  0x0000000008045888       0x24 /home/user/Devel/stm32/gcc-arm-none-eabi-8-2018-q4-major/bin/../lib/gcc/arm-none-eabi/8.2.1/../../../../arm-none-eabi/lib/thumb/v7e-m+fp/hard/libc_nano.a(lib_a-signalr.o)
                0x0000000008045888                _kill_r
 .text._getpid_r
                0x00000000080458ac        0x4 /home/user/Devel/stm32/gcc-arm-none-eabi-8-2018-q4-major/bin/../lib/gcc/arm-none-eabi/8.2.1/../../../../arm-none-eabi/lib/thumb/v7e-m+fp/hard/libc_nano.a(lib_a-signalr.o)
                0x00000000080458ac                _getpid_r
 .text          0x00000000080458b0        0x0 /home/user/Devel/stm32/gcc-arm-none-eabi-8-2018-q4-major/bin/../lib/gcc/arm-none-eabi/8.2.1/../../../../arm-none-eabi/lib/thumb/v7e-m+fp/hard/libc_nano.a(lib_a-stdio.o)
 .text.__sread  0x00000000080458b0       0x22 /home/user/Devel/stm32/gcc-arm-none-eabi-8-2018-q4-major/bin/../lib/gcc/arm-none-eabi/8.2.1/../../../../arm-none-eabi/lib/thumb/v7e-m+fp/hard/libc_nano.a(lib_a-stdio.o)
                0x00000000080458b0                __sread
 .text.__seofread
                0x00000000080458d2        0x4 /home/user/Devel/stm32/gcc-arm-none-eabi-8-2018-q4-major/bin/../lib/gcc/arm-none-eabi/8.2.1/../../../../arm-none-eabi/lib/thumb/v7e-m+fp/hard/libc_nano.a(lib_a-stdio.o)
                0x00000000080458d2                __seofread
 .text.__swrite
                0x00000000080458d6       0x38 /home/user/Devel/stm32/gcc-arm-none-eabi-8-2018-q4-major/bin/../lib/gcc/arm-none-eabi/8.2.1/../../../../arm-none-eabi/lib/thumb/v7e-m+fp/hard/libc_nano.a(lib_a-stdio.o)
                0x00000000080458d6                __swrite
 .text.__sseek  0x000000000804590e       0x24 /home/user/Devel/stm32/gcc-arm-none-eabi-8-2018-q4-major/bin/../lib/gcc/arm-none-eabi/8.2.1/../../../../arm-none-eabi/lib/thumb/v7e-m+fp/hard/libc_nano.a(lib_a-stdio.o)
                0x000000000804590e                __sseek
 .text.__sclose
                0x0000000008045932        0x8 /home/user/Devel/stm32/gcc-arm-none-eabi-8-2018-q4-major/bin/../lib/gcc/arm-none-eabi/8.2.1/../../../../arm-none-eabi/lib/thumb/v7e-m+fp/hard/libc_nano.a(lib_a-stdio.o)
                0x0000000008045932                __sclose
 .text          0x000000000804593a        0x0 /home/user/Devel/stm32/gcc-arm-none-eabi-8-2018-q4-major/bin/../lib/gcc/arm-none-eabi/8.2.1/../../../../arm-none-eabi/lib/thumb/v7e-m+fp/hard/libc_nano.a(lib_a-writer.o)
 *fill*         0x000000000804593a        0x2 
 .text._write_r
                0x000000000804593c       0x24 /home/user/Devel/stm32/gcc-arm-none-eabi-8-2018-q4-major/bin/../lib/gcc/arm-none-eabi/8.2.1/../../../../arm-none-eabi/lib/thumb/v7e-m+fp/hard/libc_nano.a(lib_a-writer.o)
                0x000000000804593c                _write_r
 .text          0x0000000008045960        0x0 /home/user/Devel/stm32/gcc-arm-none-eabi-8-2018-q4-major/bin/../lib/gcc/arm-none-eabi/8.2.1/../../../../arm-none-eabi/lib/thumb/v7e-m+fp/hard/libc_nano.a(lib_a-closer.o)
 .text._close_r
                0x0000000008045960       0x20 /home/user/Devel/stm32/gcc-arm-none-eabi-8-2018-q4-major/bin/../lib/gcc/arm-none-eabi/8.2.1/../../../../arm-none-eabi/lib/thumb/v7e-m+fp/hard/libc_nano.a(lib_a-closer.o)
                0x0000000008045960                _close_r
 .text          0x0000000008045980        0x0 /home/user/Devel/stm32/gcc-arm-none-eabi-8-2018-q4-major/bin/../lib/gcc/arm-none-eabi/8.2.1/../../../../arm-none-eabi/lib/thumb/v7e-m+fp/hard/libc_nano.a(lib_a-fstatr.o)
 .text._fstat_r
                0x0000000008045980       0x24 /home/user/Devel/stm32/gcc-arm-none-eabi-8-2018-q4-major/bin/../lib/gcc/arm-none-eabi/8.2.1/../../../../arm-none-eabi/lib/thumb/v7e-m+fp/hard/libc_nano.a(lib_a-fstatr.o)
                0x0000000008045980                _fstat_r
 .text          0x00000000080459a4        0x0 /home/user/Devel/stm32/gcc-arm-none-eabi-8-2018-q4-major/bin/../lib/gcc/arm-none-eabi/8.2.1/../../../../arm-none-eabi/lib/thumb/v7e-m+fp/hard/libc_nano.a(lib_a-isattyr.o)
 .text._isatty_r
                0x00000000080459a4       0x20 /home/user/Devel/stm32/gcc-arm-none-eabi-8-2018-q4-major/bin/../lib/gcc/arm-none-eabi/8.2.1/../../../../arm-none-eabi/lib/thumb/v7e-m+fp/hard/libc_nano.a(lib_a-isattyr.o)
                0x00000000080459a4                _isatty_r
 .text          0x00000000080459c4        0x0 /home/user/Devel/stm32/gcc-arm-none-eabi-8-2018-q4-major/bin/../lib/gcc/arm-none-eabi/8.2.1/../../../../arm-none-eabi/lib/thumb/v7e-m+fp/hard/libc_nano.a(lib_a-lseekr.o)
 .text._lseek_r
                0x00000000080459c4       0x24 /home/user/Devel/stm32/gcc-arm-none-eabi-8-2018-q4-major/bin/../lib/gcc/arm-none-eabi/8.2.1/../../../../arm-none-eabi/lib/thumb/v7e-m+fp/hard/libc_nano.a(lib_a-lseekr.o)
                0x00000000080459c4                _lseek_r
 .text          0x00000000080459e8        0x0 /home/user/Devel/stm32/gcc-arm-none-eabi-8-2018-q4-major/bin/../lib/gcc/arm-none-eabi/8.2.1/../../../../arm-none-eabi/lib/thumb/v7e-m+fp/hard/libc_nano.a(lib_a-mlock.o)
 .text.__malloc_lock
                0x00000000080459e8        0xc /home/user/Devel/stm32/gcc-arm-none-eabi-8-2018-q4-major/bin/../lib/gcc/arm-none-eabi/8.2.1/../../../../arm-none-eabi/lib/thumb/v7e-m+fp/hard/libc_nano.a(lib_a-mlock.o)
                0x00000000080459e8                __malloc_lock
 .text.__malloc_unlock
                0x00000000080459f4        0xc /home/user/Devel/stm32/gcc-arm-none-eabi-8-2018-q4-major/bin/../lib/gcc/arm-none-eabi/8.2.1/../../../../arm-none-eabi/lib/thumb/v7e-m+fp/hard/libc_nano.a(lib_a-mlock.o)
                0x00000000080459f4                __malloc_unlock
 .text          0x0000000008045a00        0x0 /home/user/Devel/stm32/gcc-arm-none-eabi-8-2018-q4-major/bin/../lib/gcc/arm-none-eabi/8.2.1/../../../../arm-none-eabi/lib/thumb/v7e-m+fp/hard/libc_nano.a(lib_a-nano-msizer.o)
 .text._malloc_usable_size_r
                0x0000000008045a00       0x10 /home/user/Devel/stm32/gcc-arm-none-eabi-8-2018-q4-major/bin/../lib/gcc/arm-none-eabi/8.2.1/../../../../arm-none-eabi/lib/thumb/v7e-m+fp/hard/libc_nano.a(lib_a-nano-msizer.o)
                0x0000000008045a00                _malloc_usable_size_r
 .text          0x0000000008045a10        0x0 /home/user/Devel/stm32/gcc-arm-none-eabi-8-2018-q4-major/bin/../lib/gcc/arm-none-eabi/8.2.1/../../../../arm-none-eabi/lib/thumb/v7e-m+fp/hard/libc_nano.a(lib_a-readr.o)
 .text._read_r  0x0000000008045a10       0x24 /home/user/Devel/stm32/gcc-arm-none-eabi-8-2018-q4-major/bin/../lib/gcc/arm-none-eabi/8.2.1/../../../../arm-none-eabi/lib/thumb/v7e-m+fp/hard/libc_nano.a(lib_a-readr.o)
                0x0000000008045a10                _read_r
 .text          0x0000000008045a34        0x0 /home/user/Devel/stm32/gcc-arm-none-eabi-8-2018-q4-major/bin/../lib/gcc/arm-none-eabi/8.2.1/../../../../arm-none-eabi/lib/thumb/v7e-m+fp/hard/libc_nano.a(lib_a-reent.o)
 .text.cleanup_glue
                0x0000000008045a34       0x1a /home/user/Devel/stm32/gcc-arm-none-eabi-8-2018-q4-major/bin/../lib/gcc/arm-none-eabi/8.2.1/../../../../arm-none-eabi/lib/thumb/v7e-m+fp/hard/libc_nano.a(lib_a-reent.o)
                0x0000000008045a34                cleanup_glue
 *fill*         0x0000000008045a4e        0x2 
 .text._reclaim_reent
                0x0000000008045a50       0xb8 /home/user/Devel/stm32/gcc-arm-none-eabi-8-2018-q4-major/bin/../lib/gcc/arm-none-eabi/8.2.1/../../../../arm-none-eabi/lib/thumb/v7e-m+fp/hard/libc_nano.a(lib_a-reent.o)
                0x0000000008045a50                _reclaim_reent
 .text          0x0000000008045b08        0x0 /home/user/Devel/stm32/gcc-arm-none-eabi-8-2018-q4-major/bin/../lib/gcc/arm-none-eabi/8.2.1/../../../../arm-none-eabi/lib/thumb/v7e-m+fp/hard/libnosys.a(close.o)
 .text._close   0x0000000008045b08       0x10 /home/user/Devel/stm32/gcc-arm-none-eabi-8-2018-q4-major/bin/../lib/gcc/arm-none-eabi/8.2.1/../../../../arm-none-eabi/lib/thumb/v7e-m+fp/hard/libnosys.a(close.o)
                0x0000000008045b08                _close
 .text          0x0000000008045b18        0x0 /home/user/Devel/stm32/gcc-arm-none-eabi-8-2018-q4-major/bin/../lib/gcc/arm-none-eabi/8.2.1/../../../../arm-none-eabi/lib/thumb/v7e-m+fp/hard/libnosys.a(fstat.o)
 .text._fstat   0x0000000008045b18       0x10 /home/user/Devel/stm32/gcc-arm-none-eabi-8-2018-q4-major/bin/../lib/gcc/arm-none-eabi/8.2.1/../../../../arm-none-eabi/lib/thumb/v7e-m+fp/hard/libnosys.a(fstat.o)
                0x0000000008045b18                _fstat
 .text          0x0000000008045b28        0x0 /home/user/Devel/stm32/gcc-arm-none-eabi-8-2018-q4-major/bin/../lib/gcc/arm-none-eabi/8.2.1/../../../../arm-none-eabi/lib/thumb/v7e-m+fp/hard/libnosys.a(getpid.o)
 .text._getpid  0x0000000008045b28       0x10 /home/user/Devel/stm32/gcc-arm-none-eabi-8-2018-q4-major/bin/../lib/gcc/arm-none-eabi/8.2.1/../../../../arm-none-eabi/lib/thumb/v7e-m+fp/hard/libnosys.a(getpid.o)
                0x0000000008045b28                _getpid
 .text          0x0000000008045b38        0x0 /home/user/Devel/stm32/gcc-arm-none-eabi-8-2018-q4-major/bin/../lib/gcc/arm-none-eabi/8.2.1/../../../../arm-none-eabi/lib/thumb/v7e-m+fp/hard/libnosys.a(isatty.o)
 .text._isatty  0x0000000008045b38       0x10 /home/user/Devel/stm32/gcc-arm-none-eabi-8-2018-q4-major/bin/../lib/gcc/arm-none-eabi/8.2.1/../../../../arm-none-eabi/lib/thumb/v7e-m+fp/hard/libnosys.a(isatty.o)
                0x0000000008045b38                _isatty
 .text          0x0000000008045b48        0x0 /home/user/Devel/stm32/gcc-arm-none-eabi-8-2018-q4-major/bin/../lib/gcc/arm-none-eabi/8.2.1/../../../../arm-none-eabi/lib/thumb/v7e-m+fp/hard/libnosys.a(kill.o)
 .text._kill    0x0000000008045b48       0x10 /home/user/Devel/stm32/gcc-arm-none-eabi-8-2018-q4-major/bin/../lib/gcc/arm-none-eabi/8.2.1/../../../../arm-none-eabi/lib/thumb/v7e-m+fp/hard/libnosys.a(kill.o)
                0x0000000008045b48                _kill
 .text          0x0000000008045b58        0x0 /home/user/Devel/stm32/gcc-arm-none-eabi-8-2018-q4-major/bin/../lib/gcc/arm-none-eabi/8.2.1/../../../../arm-none-eabi/lib/thumb/v7e-m+fp/hard/libnosys.a(lseek.o)
 .text._lseek   0x0000000008045b58       0x10 /home/user/Devel/stm32/gcc-arm-none-eabi-8-2018-q4-major/bin/../lib/gcc/arm-none-eabi/8.2.1/../../../../arm-none-eabi/lib/thumb/v7e-m+fp/hard/libnosys.a(lseek.o)
                0x0000000008045b58                _lseek
 .text          0x0000000008045b68        0x0 /home/user/Devel/stm32/gcc-arm-none-eabi-8-2018-q4-major/bin/../lib/gcc/arm-none-eabi/8.2.1/../../../../arm-none-eabi/lib/thumb/v7e-m+fp/hard/libnosys.a(read.o)
 .text._read    0x0000000008045b68       0x10 /home/user/Devel/stm32/gcc-arm-none-eabi-8-2018-q4-major/bin/../lib/gcc/arm-none-eabi/8.2.1/../../../../arm-none-eabi/lib/thumb/v7e-m+fp/hard/libnosys.a(read.o)
                0x0000000008045b68                _read
 .text          0x0000000008045b78        0x0 /home/user/Devel/stm32/gcc-arm-none-eabi-8-2018-q4-major/bin/../lib/gcc/arm-none-eabi/8.2.1/../../../../arm-none-eabi/lib/thumb/v7e-m+fp/hard/libnosys.a(sbrk.o)
 .text._sbrk    0x0000000008045b78       0x1c /home/user/Devel/stm32/gcc-arm-none-eabi-8-2018-q4-major/bin/../lib/gcc/arm-none-eabi/8.2.1/../../../../arm-none-eabi/lib/thumb/v7e-m+fp/hard/libnosys.a(sbrk.o)
                0x0000000008045b78                _sbrk
 .text          0x0000000008045b94        0x0 /home/user/Devel/stm32/gcc-arm-none-eabi-8-2018-q4-major/bin/../lib/gcc/arm-none-eabi/8.2.1/../../../../arm-none-eabi/lib/thumb/v7e-m+fp/hard/libnosys.a(write.o)
 .text._write   0x0000000008045b94       0x10 /home/user/Devel/stm32/gcc-arm-none-eabi-8-2018-q4-major/bin/../lib/gcc/arm-none-eabi/8.2.1/../../../../arm-none-eabi/lib/thumb/v7e-m+fp/hard/libnosys.a(write.o)
                0x0000000008045b94                _write
 .text          0x0000000008045ba4        0x0 /home/user/Devel/stm32/gcc-arm-none-eabi-8-2018-q4-major/bin/../lib/gcc/arm-none-eabi/8.2.1/../../../../arm-none-eabi/lib/thumb/v7e-m+fp/hard/libnosys.a(_exit.o)
 .text._exit    0x0000000008045ba4        0x4 /home/user/Devel/stm32/gcc-arm-none-eabi-8-2018-q4-major/bin/../lib/gcc/arm-none-eabi/8.2.1/../../../../arm-none-eabi/lib/thumb/v7e-m+fp/hard/libnosys.a(_exit.o)
                0x0000000008045ba4                _exit
                0x0000000008045ba8                . = ALIGN (0x4)
 *(.rodata*)
 .rodata.drivers
                0x0000000008045ba8       0xe0 ././mew.o
                0x0000000008045ba8                drivers
 .rodata.loop_handlers
                0x0000000008045c88       0x3c ././mew.o
                0x0000000008045c88                loop_handlers
 .rodata.main.str1.4
                0x0000000008045cc4       0x15 ././mew.o
 *fill*         0x0000000008045cd9        0x3 
 .rodata.str1.4
                0x0000000008045cdc      0x1a7 ././mew.o
 *fill*         0x0000000008045e83        0x1 
 .rodata.lv_txt_get_next_line.part.4.str1.4
                0x0000000008045e84        0x8 ././lvgl/src/lv_misc/lv_txt.o
 .rodata.sin0_90_table
                0x0000000008045e8c       0xb6 ././lvgl/src/lv_misc/lv_math.o
 *fill*         0x0000000008045f42        0x2 
 .rodata.lv_obj_signal.str1.4
                0x0000000008045f44        0x7 ././lvgl/src/lv_core/lv_obj.o
 *fill*         0x0000000008045f4b        0x1 
 .rodata        0x0000000008045f4c        0xa ././lvgl/src/lv_core/lv_style.o
 *fill*         0x0000000008045f56        0x2 
 .rodata.lv_win_create.str1.4
                0x0000000008045f58        0x9 ././lvgl/src/lv_objx/lv_win.o
 *fill*         0x0000000008045f61        0x3 
 .rodata.lv_win_signal.str1.4
                0x0000000008045f64        0x7 ././lvgl/src/lv_objx/lv_win.o
 .rodata.lv_img_get_file_name.str1.4
                0x0000000008045f6b        0x7 ././lvgl/src/lv_objx/lv_img.o
                                          0x1 (size before relaxing)
 *fill*         0x0000000008045f6b        0x1 
 .rodata.lv_img_signal.str1.4
                0x0000000008045f6c        0x7 ././lvgl/src/lv_objx/lv_img.o
 .rodata.lv_table_get_cell_value.str1.4
                0x0000000008045f73        0x1 ././lvgl/src/lv_objx/lv_table.o
 *fill*         0x0000000008045f73        0x1 
 .rodata.lv_table_signal.str1.4
                0x0000000008045f74        0x9 ././lvgl/src/lv_objx/lv_table.o
 *fill*         0x0000000008045f7d        0x3 
 .rodata.lv_spinbox_signal.str1.4
                0x0000000008045f80        0xb ././lvgl/src/lv_objx/lv_spinbox.o
 *fill*         0x0000000008045f8b        0x1 
 .rodata.lv_ta_create.str1.4
                0x0000000008045f8c        0xa ././lvgl/src/lv_objx/lv_ta.o
 .rodata.lv_ta_set_text.str1.4
                0x0000000008045f96        0x1 ././lvgl/src/lv_objx/lv_ta.o
 *fill*         0x0000000008045f96        0x2 
 .rodata.lv_ta_signal.str1.4
                0x0000000008045f98        0x6 ././lvgl/src/lv_objx/lv_ta.o
 .rodata.lv_list_get_btn_img.str1.4
                0x0000000008045f9e        0x7 ././lvgl/src/lv_objx/lv_list.o
 *fill*         0x0000000008045f9e        0x2 
 .rodata.lv_list_get_btn_label.str1.4
                0x0000000008045fa0        0x9 ././lvgl/src/lv_objx/lv_list.o
 .rodata.lv_list_get_btn_text.str1.4
                0x0000000008045fa9        0x1 ././lvgl/src/lv_objx/lv_list.o
 *fill*         0x0000000008045fa9        0x3 
 .rodata.lv_list_is_list_btn.str1.4
                0x0000000008045fac        0x7 ././lvgl/src/lv_objx/lv_list.o
 *fill*         0x0000000008045fb3        0x1 
 .rodata.lv_list_signal.str1.4
                0x0000000008045fb4        0x8 ././lvgl/src/lv_objx/lv_list.o
 .rodata.lv_cont_signal.str1.4
                0x0000000008045fbc        0x8 ././lvgl/src/lv_objx/lv_cont.o
 .rodata.lv_cb_create.str1.4
                0x0000000008045fc4        0xa ././lvgl/src/lv_objx/lv_cb.o
 *fill*         0x0000000008045fce        0x2 
 .rodata.lv_cb_signal.str1.4
                0x0000000008045fd0        0x6 ././lvgl/src/lv_objx/lv_cb.o
 *fill*         0x0000000008045fd6        0x2 
 .rodata.lv_slider_signal.str1.4
                0x0000000008045fd8        0xa ././lvgl/src/lv_objx/lv_slider.o
 *fill*         0x0000000008045fe2        0x2 
 .rodata.lv_page_signal.str1.4
                0x0000000008045fe4        0x8 ././lvgl/src/lv_objx/lv_page.o
 .rodata.lv_imgbtn_signal.str1.4
                0x0000000008045fec        0xa ././lvgl/src/lv_objx/lv_imgbtn.o
 *fill*         0x0000000008045ff6        0x2 
 .rodata.lv_line_signal.str1.4
                0x0000000008045ff8        0x8 ././lvgl/src/lv_objx/lv_line.o
 .rodata.lv_bar_signal.str1.4
                0x0000000008046000        0x7 ././lvgl/src/lv_objx/lv_bar.o
 *fill*         0x0000000008046007        0x1 
 .rodata.lv_label_create.str1.4
                0x0000000008046008        0x5 ././lvgl/src/lv_objx/lv_label.o
 .rodata.lv_label_signal.str1.4
                0x000000000804600d        0x9 ././lvgl/src/lv_objx/lv_label.o
 *fill*         0x000000000804600d        0x3 
 .rodata.lv_led_signal.str1.4
                0x0000000008046010        0x7 ././lvgl/src/lv_objx/lv_led.o
 *fill*         0x0000000008046017        0x1 
 .rodata.lv_sw_signal.str1.4
                0x0000000008046018        0x6 ././lvgl/src/lv_objx/lv_sw.o
 .rodata.lv_btn_signal.str1.4
                0x000000000804601e        0x7 ././lvgl/src/lv_objx/lv_btn.o
 *fill*         0x000000000804601e        0x2 
 .rodata.lv_gauge_signal.str1.4
                0x0000000008046020        0x9 ././lvgl/src/lv_objx/lv_gauge.o
 *fill*         0x0000000008046029        0x3 
 .rodata.lv_btnm_design.str1.4
                0x000000000804602c        0x2 ././lvgl/src/lv_objx/lv_btnm.o
 *fill*         0x000000000804602e        0x2 
 .rodata.lv_btnm_signal.str1.4
                0x0000000008046030        0x8 ././lvgl/src/lv_objx/lv_btnm.o
 .rodata.str1.4
                0x0000000008046038       0x25 ././lvgl/src/lv_objx/lv_btnm.o
                                         0x29 (size before relaxing)
 *fill*         0x000000000804605d        0x3 
 .rodata.lv_mbox_create.str1.4
                0x0000000008046060        0x8 ././lvgl/src/lv_objx/lv_mbox.o
 .rodata.lv_mbox_signal.str1.4
                0x0000000008046068        0x8 ././lvgl/src/lv_objx/lv_mbox.o
 .rodata.lv_roller_signal.str1.4
                0x0000000008046070        0xa ././lvgl/src/lv_objx/lv_roller.o
 *fill*         0x000000000804607a        0x2 
 .rodata.lv_ddlist_create.str1.4
                0x000000000804607c       0x1b ././lvgl/src/lv_objx/lv_ddlist.o
 *fill*         0x0000000008046097        0x1 
 .rodata.lv_ddlist_design.str1.4
                0x0000000008046098        0x4 ././lvgl/src/lv_objx/lv_ddlist.o
 .rodata.lv_ddlist_signal.str1.4
                0x000000000804609c        0xa ././lvgl/src/lv_objx/lv_ddlist.o
 *fill*         0x00000000080460a6        0x2 
 .rodata.lv_canvas_signal.str1.4
                0x00000000080460a8        0xa ././lvgl/src/lv_objx/lv_canvas.o
 *fill*         0x00000000080460b2        0x2 
 .rodata.lv_tileview_signal.str1.4
                0x00000000080460b4        0xc ././lvgl/src/lv_objx/lv_tileview.o
 .rodata.lv_lmeter_signal.str1.4
                0x00000000080460c0        0xa ././lvgl/src/lv_objx/lv_lmeter.o
 .rodata.lv_tabview_add_tab.str1.4
                0x00000000080460ca        0x6 ././lvgl/src/lv_objx/lv_tabview.o
 *fill*         0x00000000080460ca        0x2 
 .rodata.lv_tabview_signal.str1.4
                0x00000000080460cc        0xb ././lvgl/src/lv_objx/lv_tabview.o
 *fill*         0x00000000080460d7        0x1 
 .rodata.lv_arc_signal.str1.4
                0x00000000080460d8        0x7 ././lvgl/src/lv_objx/lv_arc.o
 *fill*         0x00000000080460df        0x1 
 .rodata        0x00000000080460e0       0x10 ././lvgl/src/lv_draw/lv_draw_basic.o
 .rodata        0x00000000080460f0       0x10 ././lvgl/src/lv_draw/lv_draw_img.o
 .rodata.CSWTCH.16
                0x0000000008046100        0xb ././lvgl/src/lv_draw/lv_draw_img.o
 *fill*         0x000000000804610b        0x1 
 .rodata.lv_draw_img.str1.4
                0x000000000804610c        0x8 ././lvgl/src/lv_draw/lv_draw_img.o
 .rodata.CSWTCH.23
                0x0000000008046114        0x6 ././lvgl/src/lv_draw/lv_draw_label.o
 *fill*         0x000000000804611a        0x2 
 .rodata.seg1.7568
                0x000000000804611c        0x1 ././lvgl/src/lv_draw/lv_draw.o
 *fill*         0x000000000804611d        0x3 
 .rodata.seg2.7569
                0x0000000008046120        0x2 ././lvgl/src/lv_draw/lv_draw.o
 *fill*         0x0000000008046122        0x2 
 .rodata.seg3.7570
                0x0000000008046124        0x3 ././lvgl/src/lv_draw/lv_draw.o
 *fill*         0x0000000008046127        0x1 
 .rodata.seg4.7571
                0x0000000008046128        0x4 ././lvgl/src/lv_draw/lv_draw.o
 .rodata.seg5.7572
                0x000000000804612c        0x5 ././lvgl/src/lv_draw/lv_draw.o
 *fill*         0x0000000008046131        0x3 
 .rodata.seg6.7573
                0x0000000008046134        0x6 ././lvgl/src/lv_draw/lv_draw.o
 *fill*         0x000000000804613a        0x2 
 .rodata.seg7.7574
                0x000000000804613c        0x7 ././lvgl/src/lv_draw/lv_draw.o
 *fill*         0x0000000008046143        0x1 
 .rodata.seg8.7575
                0x0000000008046144        0x8 ././lvgl/src/lv_draw/lv_draw.o
 .rodata.seg_map.7576
                0x000000000804614c       0x20 ././lvgl/src/lv_draw/lv_draw.o
 .rodata.opa_map2.7671
                0x000000000804616c        0x2 ././lvgl/src/lv_draw/lv_draw_rect.o
 *fill*         0x000000000804616e        0x2 
 .rodata.opa_map3.7672
                0x0000000008046170        0x3 ././lvgl/src/lv_draw/lv_draw_rect.o
 *fill*         0x0000000008046173        0x1 
 .rodata.opa_map4.7673
                0x0000000008046174        0x4 ././lvgl/src/lv_draw/lv_draw_rect.o
 .rodata.opa_map8.7674
                0x0000000008046178        0x8 ././lvgl/src/lv_draw/lv_draw_rect.o
 .rodata        0x0000000008046180        0x2 ././lvgl/src/lv_themes/lv_theme_material.o
 *fill*         0x0000000008046182        0x2 
 .rodata.cmaps  0x0000000008046184       0x28 ././lvgl/src/lv_font/lv_font_roboto_12.o
 .rodata.glyph_dsc
                0x00000000080461ac      0x490 ././lvgl/src/lv_font/lv_font_roboto_12.o
 .rodata.gylph_bitmap
                0x000000000804663c     0x1453 ././lvgl/src/lv_font/lv_font_roboto_12.o
 *fill*         0x0000000008047a8f        0x1 
 .rodata.kern_pair_glyph_ids
                0x0000000008047a90      0x3c8 ././lvgl/src/lv_font/lv_font_roboto_12.o
 .rodata.kern_pair_values
                0x0000000008047e58      0x1e4 ././lvgl/src/lv_font/lv_font_roboto_12.o
 .rodata.kern_pairs
                0x000000000804803c        0xc ././lvgl/src/lv_font/lv_font_roboto_12.o
 .rodata.unicode_list_1
                0x0000000008048048       0x64 ././lvgl/src/lv_font/lv_font_roboto_12.o
 .rodata.keycodes_digits
                0x00000000080480ac       0x14 ././app/pwd_generator/mew_passgen.o
 .rodata.keycodes_letter
                0x00000000080480c0       0x34 ././app/pwd_generator/mew_passgen.o
 .rodata.keycodes_symbols
                0x00000000080480f4       0x16 ././app/pwd_generator/mew_passgen.o
 *fill*         0x000000000804810a        0x2 
 .rodata.ECC_CODEWORDS_PER_BLOCK
                0x000000000804810c       0xa4 ././app/qr_code/qrcodegen.o
 .rodata.NUM_ERROR_CORRECTION_BLOCKS
                0x00000000080481b0       0xa4 ././app/qr_code/qrcodegen.o
 .rodata.__func__.6606
                0x0000000008048254       0x13 ././app/qr_code/qrcodegen.o
 *fill*         0x0000000008048267        0x1 
 .rodata.__func__.6629
                0x0000000008048268       0x21 ././app/qr_code/qrcodegen.o
 *fill*         0x0000000008048289        0x3 
 .rodata.__func__.6669
                0x000000000804828c       0x14 ././app/qr_code/qrcodegen.o
 .rodata.__func__.6700
                0x00000000080482a0       0x14 ././app/qr_code/qrcodegen.o
 .rodata.__func__.6704
                0x00000000080482b4       0x15 ././app/qr_code/qrcodegen.o
 *fill*         0x00000000080482c9        0x3 
 .rodata.__func__.6711
                0x00000000080482cc       0x1a ././app/qr_code/qrcodegen.o
 *fill*         0x00000000080482e6        0x2 
 .rodata.__func__.6805
                0x00000000080482e8       0x19 ././app/qr_code/qrcodegen.o
 *fill*         0x0000000008048301        0x3 
 .rodata.__func__.6820
                0x0000000008048304        0xf ././app/qr_code/qrcodegen.o
 *fill*         0x0000000008048313        0x1 
 .rodata.__func__.6895
                0x0000000008048314        0xe ././app/qr_code/qrcodegen.o
 *fill*         0x0000000008048322        0x2 
 .rodata.__func__.6901
                0x0000000008048324        0xa ././app/qr_code/qrcodegen.o
 *fill*         0x000000000804832e        0x2 
 .rodata.__func__.6978
                0x0000000008048330       0x1b ././app/qr_code/qrcodegen.o
 *fill*         0x000000000804834b        0x1 
 .rodata.__func__.6993
                0x000000000804834c       0x12 ././app/qr_code/qrcodegen.o
 *fill*         0x000000000804835e        0x2 
 .rodata.__func__.7000
                0x0000000008048360       0x14 ././app/qr_code/qrcodegen.o
 .rodata.__func__.7008
                0x0000000008048374        0xa ././app/qr_code/qrcodegen.o
 *fill*         0x000000000804837e        0x2 
 .rodata.__func__.7017
                0x0000000008048380        0xa ././app/qr_code/qrcodegen.o
 *fill*         0x000000000804838a        0x2 
 .rodata.__func__.7035
                0x000000000804838c       0x19 ././app/qr_code/qrcodegen.o
 *fill*         0x00000000080483a5        0x3 
 .rodata.__func__.7042
                0x00000000080483a8       0x14 ././app/qr_code/qrcodegen.o
 .rodata.__func__.7051
                0x00000000080483bc       0x20 ././app/qr_code/qrcodegen.o
 .rodata.__func__.7057
                0x00000000080483dc       0x15 ././app/qr_code/qrcodegen.o
 *fill*         0x00000000080483f1        0x3 
 .rodata.__func__.7063
                0x00000000080483f4       0x14 ././app/qr_code/qrcodegen.o
 .rodata.__func__.7069
                0x0000000008048408       0x16 ././app/qr_code/qrcodegen.o
 *fill*         0x000000000804841e        0x2 
 .rodata.__func__.7083
                0x0000000008048420       0x1b ././app/qr_code/qrcodegen.o
 *fill*         0x000000000804843b        0x1 
 .rodata.__func__.7098
                0x000000000804843c       0x12 ././app/qr_code/qrcodegen.o
 *fill*         0x000000000804844e        0x2 
 .rodata.__func__.7104
                0x0000000008048450        0xd ././app/qr_code/qrcodegen.o
 *fill*         0x000000000804845d        0x3 
 .rodata.__func__.7117
                0x0000000008048460       0x11 ././app/qr_code/qrcodegen.o
 *fill*         0x0000000008048471        0x3 
 .rodata.appendBitsToBuffer.str1.4
                0x0000000008048474       0x44 ././app/qr_code/qrcodegen.o
 .rodata.applyMask.str1.4
                0x00000000080484b8       0x21 ././app/qr_code/qrcodegen.o
 *fill*         0x00000000080484d9        0x3 
 .rodata.calcSegmentBitLength.str1.4
                0x00000000080484dc        0x6 ././app/qr_code/qrcodegen.o
 *fill*         0x00000000080484e2        0x2 
 .rodata.drawFormatBits.str1.4
                0x00000000080484e4       0x10 ././app/qr_code/qrcodegen.o
 .rodata.finderPenaltyCountPatterns.str1.4
                0x00000000080484f4       0x28 ././app/qr_code/qrcodegen.o
 .rodata.getModule.str1.4
                0x000000000804851c       0x4e ././app/qr_code/qrcodegen.o
 *fill*         0x000000000804856a        0x2 
 .rodata.getNumDataCodewords.str1.4
                0x000000000804856c       0x10 ././app/qr_code/qrcodegen.o
 .rodata.getNumRawDataModules.str1.4
                0x000000000804857c       0x61 ././app/qr_code/qrcodegen.o
 *fill*         0x00000000080485dd        0x3 
 .rodata.numCharCountBits.str1.4
                0x00000000080485e0       0x45 ././app/qr_code/qrcodegen.o
 *fill*         0x0000000008048625        0x3 
 .rodata.qrcodegen_calcSegmentBufferSize.str1.4
                0x0000000008048628       0x1f ././app/qr_code/qrcodegen.o
 *fill*         0x0000000008048647        0x1 
 .rodata.qrcodegen_encodeSegmentsAdvanced.str1.4
                0x0000000008048648      0x244 ././app/qr_code/qrcodegen.o
 .rodata.qrcodegen_getSize.str1.4
                0x000000000804888c       0x69 ././app/qr_code/qrcodegen.o
 *fill*         0x00000000080488f5        0x3 
 .rodata.qrcodegen_isAlphanumeric.str1.4
                0x00000000080488f8       0x3e ././app/qr_code/qrcodegen.o
 *fill*         0x0000000008048936        0x2 
 .rodata.qrcodegen_makeAlphanumeric.str1.4
                0x0000000008048938        0xd ././app/qr_code/qrcodegen.o
 *fill*         0x0000000008048945        0x3 
 .rodata.qrcodegen_makeBytes.str1.4
                0x0000000008048948       0x33 ././app/qr_code/qrcodegen.o
 *fill*         0x000000000804897b        0x1 
 .rodata.qrcodegen_makeNumeric.str1.4
                0x000000000804897c       0x53 ././app/qr_code/qrcodegen.o
 *fill*         0x00000000080489cf        0x1 
 .rodata.table.6821
                0x00000000080489d0       0x10 ././app/qr_code/qrcodegen.o
 .rodata.temp.7120
                0x00000000080489e0        0xc ././app/qr_code/qrcodegen.o
 .rodata.temp.7122
                0x00000000080489ec        0xc ././app/qr_code/qrcodegen.o
 .rodata.temp.7124
                0x00000000080489f8        0xc ././app/qr_code/qrcodegen.o
 .rodata.temp.7126
                0x0000000008048a04        0xc ././app/qr_code/qrcodegen.o
 .rodata.mew_comm_handler.str1.4
                0x0000000008048a10       0x5b ././app/packet_parser/parser.o
 *fill*         0x0000000008048a6b        0x1 
 .rodata.mew_i2c_eeprom_test.str1.4
                0x0000000008048a6c       0x5c ././drivers/i2c/i2c.o
 .rodata.mew_i2c_read_block_ts2007.str1.4
                0x0000000008048ac8       0x25 ././drivers/i2c/i2c.o
 *fill*         0x0000000008048aed        0x3 
 .rodata.CSWTCH.12
                0x0000000008048af0       0x36 ././drivers/bluetooth/bt_usart.o
 *fill*         0x0000000008048b26        0x2 
 .rodata.mew_bluetooth_init.str1.4
                0x0000000008048b28       0x6b ././drivers/bluetooth/bt_usart.o
 *fill*         0x0000000008048b93        0x1 
 .rodata.CSWTCH.2
                0x0000000008048b94        0xf ././drivers/duart/duart.o
 *fill*         0x0000000008048ba3        0x1 
 .rodata.__mew_input_read.str1.4
                0x0000000008048ba4       0x6c ././drivers/display/ts_tsc2007.o
 .rodata.mew_touchscreen_init.str1.4
                0x0000000008048c10       0x25 ././drivers/display/ts_tsc2007.o
 *fill*         0x0000000008048c35        0x3 
 .rodata        0x0000000008048c38       0x7c ././drivers/display/display.o
 .rodata.mew_display_flush.str1.4
                0x0000000008048cb4       0x16 ././drivers/display/display.o
 *fill*         0x0000000008048cca        0x2 
 .rodata.config
                0x0000000008048ccc        0xd ././drivers/usb/mew_usb_hid.o
                0x0000000008048ccc                config
 *fill*         0x0000000008048cd9        0x3 
 .rodata.dev    0x0000000008048cdc       0x12 ././drivers/usb/mew_usb_hid.o
                0x0000000008048cdc                dev
 *fill*         0x0000000008048cee        0x2 
 .rodata.hid_kb_endpoints
                0x0000000008048cf0       0x1e ././drivers/usb/mew_usb_hid.o
                0x0000000008048cf0                hid_kb_endpoints
 *fill*         0x0000000008048d0e        0x2 
 .rodata.hid_kb_function
                0x0000000008048d10        0x9 ././drivers/usb/mew_usb_hid.o
 *fill*         0x0000000008048d19        0x3 
 .rodata.hid_kb_iface
                0x0000000008048d1c       0x15 ././drivers/usb/mew_usb_hid.o
                0x0000000008048d1c                hid_kb_iface
 *fill*         0x0000000008048d31        0x3 
 .rodata.hid_raw_endpoints
                0x0000000008048d34       0x1e ././drivers/usb/mew_usb_hid.o
                0x0000000008048d34                hid_raw_endpoints
 *fill*         0x0000000008048d52        0x2 
 .rodata.hid_raw_function
                0x0000000008048d54        0x9 ././drivers/usb/mew_usb_hid.o
 *fill*         0x0000000008048d5d        0x3 
 .rodata.hid_raw_iface
                0x0000000008048d60       0x15 ././drivers/usb/mew_usb_hid.o
                0x0000000008048d60                hid_raw_iface
 *fill*         0x0000000008048d75        0x3 
 .rodata.hid_raw_report_descriptor
                0x0000000008048d78       0x1c ././drivers/usb/mew_usb_hid.o
                0x0000000008048d78                hid_raw_report_descriptor
 .rodata.ifaces
                0x0000000008048d94       0x20 ././drivers/usb/mew_usb_hid.o
                0x0000000008048d94                ifaces
 .rodata.keyboard_report_descriptor
                0x0000000008048db4       0x3d ././drivers/usb/mew_usb_hid.o
                0x0000000008048db4                keyboard_report_descriptor
 *fill*         0x0000000008048df1        0x3 
 .rodata.str1.4
                0x0000000008048df4       0x29 ././drivers/usb/mew_usb_hid.o
 *fill*         0x0000000008048e1d        0x3 
 .rodata.mew_spi_flash_init.str1.4
                0x0000000008048e20        0xf ././drivers/spi_flash/flash.o
 *fill*         0x0000000008048e2f        0x1 
 .rodata.mew_spi_flash_xfer.str1.4
                0x0000000008048e30       0x3f ././drivers/spi_flash/flash.o
 *fill*         0x0000000008048e6f        0x1 
 .rodata._mew_ss_array
                0x0000000008048e70      0x240 ././drivers/flash/otp_storage.o
 .rodata.mew_otp_storage_init.str1.4
                0x00000000080490b0       0x4a ././drivers/flash/otp_storage.o
 *fill*         0x00000000080490fa        0x2 
 .rodata.mew_otp_write_temporary_data.str1.4
                0x00000000080490fc       0x55 ././drivers/flash/otp_storage.o
 *fill*         0x0000000008049151        0x3 
 .rodata.mewcrypt_aes256.str1.4
                0x0000000008049154       0x36 ././drivers/hw_crypt/aes256.o
 *fill*         0x000000000804918a        0x2 
 .rodata.mew_p256_ecdh_test.str1.4
                0x000000000804918c       0x9b ././drivers/hw_crypt/P256-cortex-ecdh.o
 *fill*         0x0000000008049227        0x1 
 .rodata.mew_load_secure_settings.str1.4
                0x0000000008049228       0x58 ././drivers/hw_crypt/secure_eeprom.o
 .rodata.mew_save_secure_settings.str1.4
                0x0000000008049280       0x48 ././drivers/hw_crypt/secure_eeprom.o
 .rodata.mew_wait_for_state.str1.4
                0x00000000080492c8       0x11 ././drivers/system/system.o
 *fill*         0x00000000080492d9        0x3 
 .rodata.bus_fault_handler.str1.4
                0x00000000080492dc       0x12 ././debug.o
 *fill*         0x00000000080492ee        0x2 
 .rodata.hard_fault_handler.str1.4
                0x00000000080492f0       0x13 ././debug.o
 *fill*         0x0000000008049303        0x1 
 .rodata.usage_fault_handler.str1.4
                0x0000000008049304       0x14 ././debug.o
 .rodata        0x0000000008049318        0x6 ././ui/ui_win_startup_1.o
 *fill*         0x000000000804931e        0x2 
 .rodata._mew_btnm2_event_handler.str1.4
                0x0000000008049320       0x25 ././ui/ui_win_startup_1.o
 *fill*         0x0000000008049345        0x3 
 .rodata._mew_btnm_event_handler.str1.4
                0x0000000008049348       0x45 ././ui/ui_win_startup_1.o
 *fill*         0x000000000804938d        0x3 
 .rodata._mew_msgbox_event_handler.str1.4
                0x0000000008049390       0x29 ././ui/ui_win_startup_1.o
 *fill*         0x00000000080493b9        0x3 
 .rodata.mew_show_startup_window_1.str1.4
                0x00000000080493bc       0xd7 ././ui/ui_win_startup_1.o
 *fill*         0x0000000008049493        0x1 
 .rodata.str1.4
                0x0000000008049494       0x28 ././ui/ui_win_startup_1.o
                                         0x33 (size before relaxing)
 .rodata        0x00000000080494bc        0xa ././ui/ui_header.o
 *fill*         0x00000000080494c6        0x2 
 .rodata.mew_display_small_header.str1.4
                0x00000000080494c8        0xe ././ui/ui_header.o
 *fill*         0x00000000080494d6        0x2 
 .rodata.str1.4
                0x00000000080494d8        0x8 ././ui/ui_msgbox.o
                                          0x9 (size before relaxing)
 .rodata.cmaps  0x00000000080494e0       0x3c ././ui/mew_font_ru_bold_title.o
 .rodata.glyph_dsc
                0x000000000804951c      0x308 ././ui/mew_font_ru_bold_title.o
 .rodata.gylph_bitmap
                0x0000000008049824     0x1ef8 ././ui/mew_font_ru_bold_title.o
 .rodata.kern_pair_glyph_ids
                0x000000000804b71c      0x388 ././ui/mew_font_ru_bold_title.o
 .rodata.kern_pair_values
                0x000000000804baa4      0x1c4 ././ui/mew_font_ru_bold_title.o
 .rodata.kern_pairs
                0x000000000804bc68        0xc ././ui/mew_font_ru_bold_title.o
 .rodata.unicode_list_0
                0x000000000804bc74        0x4 ././ui/mew_font_ru_bold_title.o
 .rodata.mew_logo
                0x000000000804bc78        0xc ././ui/mew_logo.o
                0x000000000804bc78                mew_logo
 .rodata.mew_logo_pixel_map
                0x000000000804bc84     0x2480 ././ui/mew_logo.o
 .rodata.cmaps  0x000000000804e104      0x104 ././ui/mew_font_ru_bold.o
 .rodata.glyph_dsc
                0x000000000804e208      0xe20 ././ui/mew_font_ru_bold.o
 .rodata.gylph_bitmap
                0x000000000804f028     0x5bde ././ui/mew_font_ru_bold.o
 *fill*         0x0000000008054c06        0x2 
 .rodata.kern_pair_glyph_ids
                0x0000000008054c08     0x5508 ././ui/mew_font_ru_bold.o
 .rodata.kern_pair_values
                0x000000000805a110     0x1542 ././ui/mew_font_ru_bold.o
 *fill*         0x000000000805b652        0x2 
 .rodata.kern_pairs
                0x000000000805b654        0xc ././ui/mew_font_ru_bold.o
 .rodata.unicode_list_0
                0x000000000805b660        0x4 ././ui/mew_font_ru_bold.o
 .rodata.unicode_list_12
                0x000000000805b664       0x46 ././ui/mew_font_ru_bold.o
 *fill*         0x000000000805b6aa        0x2 
 .rodata.unicode_list_8
                0x000000000805b6ac       0x1e ././ui/mew_font_ru_bold.o
 *fill*         0x000000000805b6ca        0x2 
 .rodata.rcc_hse_16mhz_3v3
                0x000000000805b6cc       0x70 /home/user/Devel/stm32/libopencm3/lib/libopencm3_stm32f4.a(rcc.o)
                0x000000000805b6cc                rcc_hse_16mhz_3v3
 .rodata.rcc_hse_12mhz_3v3
                0x000000000805b73c       0x70 /home/user/Devel/stm32/libopencm3/lib/libopencm3_stm32f4.a(rcc.o)
                0x000000000805b73c                rcc_hse_12mhz_3v3
 .rodata.rcc_hse_25mhz_3v3
                0x000000000805b7ac       0x70 /home/user/Devel/stm32/libopencm3/lib/libopencm3_stm32f4.a(rcc.o)
                0x000000000805b7ac                rcc_hse_25mhz_3v3
 .rodata.rcc_hse_8mhz_3v3
                0x000000000805b81c       0x70 /home/user/Devel/stm32/libopencm3/lib/libopencm3_stm32f4.a(rcc.o)
                0x000000000805b81c                rcc_hse_8mhz_3v3
 .rodata.CSWTCH.24
                0x000000000805b88c       0x28 /home/user/Devel/stm32/libopencm3/lib/libopencm3_stm32f4.a(usb_standard.o)
 .rodata.CSWTCH.26
                0x000000000805b8b4       0x30 /home/user/Devel/stm32/libopencm3/lib/libopencm3_stm32f4.a(usb_standard.o)
 .rodata.stm32f107_usb_driver
                0x000000000805b8e4       0x34 /home/user/Devel/stm32/libopencm3/lib/libopencm3_stm32f4.a(usb_f107.o)
                0x000000000805b8e4                stm32f107_usb_driver
 .rodata.__assert_func.str1.1
                0x000000000805b918       0x3c /home/user/Devel/stm32/gcc-arm-none-eabi-8-2018-q4-major/bin/../lib/gcc/arm-none-eabi/8.2.1/../../../../arm-none-eabi/lib/thumb/v7e-m+fp/hard/libc_nano.a(lib_a-assert.o)
                                         0x3d (size before relaxing)
 .rodata._global_impure_ptr
                0x000000000805b954        0x4 /home/user/Devel/stm32/gcc-arm-none-eabi-8-2018-q4-major/bin/../lib/gcc/arm-none-eabi/8.2.1/../../../../arm-none-eabi/lib/thumb/v7e-m+fp/hard/libc_nano.a(lib_a-impure.o)
                0x000000000805b954                _global_impure_ptr
 .rodata._vfprintf_r.str1.1
                0x000000000805b958       0x11 /home/user/Devel/stm32/gcc-arm-none-eabi-8-2018-q4-major/bin/../lib/gcc/arm-none-eabi/8.2.1/../../../../arm-none-eabi/lib/thumb/v7e-m+fp/hard/libc_nano.a(lib_a-nano-vfprintf.o)
 .rodata._printf_i.str1.1
                0x000000000805b969       0x22 /home/user/Devel/stm32/gcc-arm-none-eabi-8-2018-q4-major/bin/../lib/gcc/arm-none-eabi/8.2.1/../../../../arm-none-eabi/lib/thumb/v7e-m+fp/hard/libc_nano.a(lib_a-nano-vfprintf_i.o)
 *fill*         0x000000000805b98b        0x1 
 .rodata.__sf_fake_stderr
                0x000000000805b98c       0x20 /home/user/Devel/stm32/gcc-arm-none-eabi-8-2018-q4-major/bin/../lib/gcc/arm-none-eabi/8.2.1/../../../../arm-none-eabi/lib/thumb/v7e-m+fp/hard/libc_nano.a(lib_a-findfp.o)
                0x000000000805b98c                __sf_fake_stderr
 .rodata.__sf_fake_stdin
                0x000000000805b9ac       0x20 /home/user/Devel/stm32/gcc-arm-none-eabi-8-2018-q4-major/bin/../lib/gcc/arm-none-eabi/8.2.1/../../../../arm-none-eabi/lib/thumb/v7e-m+fp/hard/libc_nano.a(lib_a-findfp.o)
                0x000000000805b9ac                __sf_fake_stdin
 .rodata.__sf_fake_stdout
                0x000000000805b9cc       0x20 /home/user/Devel/stm32/gcc-arm-none-eabi-8-2018-q4-major/bin/../lib/gcc/arm-none-eabi/8.2.1/../../../../arm-none-eabi/lib/thumb/v7e-m+fp/hard/libc_nano.a(lib_a-findfp.o)
                0x000000000805b9cc                __sf_fake_stdout
                0x000000000805b9ec                . = ALIGN (0x4)

.glue_7         0x000000000805b9ec        0x0
 .glue_7        0x000000000805b9ec        0x0 linker stubs

.glue_7t        0x000000000805b9ec        0x0
 .glue_7t       0x000000000805b9ec        0x0 linker stubs

.vfp11_veneer   0x000000000805b9ec        0x0
 .vfp11_veneer  0x000000000805b9ec        0x0 linker stubs

.v4_bx          0x000000000805b9ec        0x0
 .v4_bx         0x000000000805b9ec        0x0 linker stubs

.iplt           0x000000000805b9ec        0x0
 .iplt          0x000000000805b9ec        0x0 ././mew.o

.rel.dyn        0x000000000805b9ec        0x0
 .rel.iplt      0x000000000805b9ec        0x0 ././mew.o

.preinit_array  0x000000000805b9ec        0x0
                0x000000000805b9ec                . = ALIGN (0x4)
                0x000000000805b9ec                __preinit_array_start = .
 *(.preinit_array)
                0x000000000805b9ec                __preinit_array_end = .

.init_array     0x000000000805b9ec        0x0
                0x000000000805b9ec                . = ALIGN (0x4)
                0x000000000805b9ec                __init_array_start = .
 *(SORT_BY_NAME(.init_array.*))
 *(.init_array)
                0x000000000805b9ec                __init_array_end = .

.fini_array     0x000000000805b9ec        0x0
                0x000000000805b9ec                . = ALIGN (0x4)
                0x000000000805b9ec                __fini_array_start = .
 *(.fini_array)
 *(SORT_BY_NAME(.fini_array.*))
                0x000000000805b9ec                __fini_array_end = .

.ARM.extab
 *(.ARM.extab*)

.ARM.exidx      0x000000000805b9ec        0x0
                0x000000000805b9ec                __exidx_start = .
 *(.ARM.exidx*)
                0x000000000805b9ec                __exidx_end = .
                0x000000000805b9ec                . = ALIGN (0x4)
                0x000000000805b9ec                _etext = .

.data           0x0000000020000000      0x1a8 load address 0x000000000805b9ec
                0x0000000020000000                _data = .
 *(.data*)
 .data          0x0000000020000000        0x0 ././mew.o
 .data          0x0000000020000000        0x0 ././lvgl/porting/lv_port_disp_template.o
 .data          0x0000000020000000        0x0 ././lvgl/porting/lv_port_indev_template.o
 .data          0x0000000020000000        0x0 ././lvgl/porting/lv_port_fs_template.o
 .data          0x0000000020000000        0x0 ././lvgl/src/lv_misc/lv_async.o
 .data          0x0000000020000000        0x0 ././lvgl/src/lv_misc/lv_mem.o
 .data          0x0000000020000000        0x0 ././lvgl/src/lv_misc/lv_txt.o
 .data.lv_encoded_get_char_id
                0x0000000020000000        0x4 ././lvgl/src/lv_misc/lv_txt.o
                0x0000000020000000                lv_encoded_get_char_id
 .data.lv_txt_encoded_conv_wc
                0x0000000020000004        0x4 ././lvgl/src/lv_misc/lv_txt.o
                0x0000000020000004                lv_txt_encoded_conv_wc
 .data.lv_txt_encoded_get_byte_id
                0x0000000020000008        0x4 ././lvgl/src/lv_misc/lv_txt.o
                0x0000000020000008                lv_txt_encoded_get_byte_id
 .data.lv_txt_encoded_next
                0x000000002000000c        0x4 ././lvgl/src/lv_misc/lv_txt.o
                0x000000002000000c                lv_txt_encoded_next
 .data.lv_txt_encoded_prev
                0x0000000020000010        0x4 ././lvgl/src/lv_misc/lv_txt.o
                0x0000000020000010                lv_txt_encoded_prev
 .data.lv_txt_encoded_size
                0x0000000020000014        0x4 ././lvgl/src/lv_misc/lv_txt.o
                0x0000000020000014                lv_txt_encoded_size
 .data.lv_txt_get_encoded_length
                0x0000000020000018        0x4 ././lvgl/src/lv_misc/lv_txt.o
                0x0000000020000018                lv_txt_get_encoded_length
 .data.lv_txt_unicode_to_encoded
                0x000000002000001c        0x4 ././lvgl/src/lv_misc/lv_txt.o
                0x000000002000001c                lv_txt_unicode_to_encoded
 .data          0x0000000020000020        0x0 ././lvgl/src/lv_misc/lv_utils.o
 .data          0x0000000020000020        0x0 ././lvgl/src/lv_misc/lv_area.o
 .data          0x0000000020000020        0x0 ././lvgl/src/lv_misc/lv_templ.o
 .data          0x0000000020000020        0x0 ././lvgl/src/lv_misc/lv_fs.o
 .data          0x0000000020000020        0x0 ././lvgl/src/lv_misc/lv_task.o
 .data          0x0000000020000020        0x0 ././lvgl/src/lv_misc/lv_log.o
 .data          0x0000000020000020        0x0 ././lvgl/src/lv_misc/lv_ll.o
 .data          0x0000000020000020        0x0 ././lvgl/src/lv_misc/lv_circ.o
 .data          0x0000000020000020        0x0 ././lvgl/src/lv_misc/lv_color.o
 .data          0x0000000020000020        0x0 ././lvgl/src/lv_misc/lv_anim.o
 .data          0x0000000020000020        0x0 ././lvgl/src/lv_misc/lv_math.o
 .data          0x0000000020000020        0x0 ././lvgl/src/lv_misc/lv_gc.o
 .data          0x0000000020000020        0x0 ././lvgl/src/lv_core/lv_refr.o
 .data          0x0000000020000020        0x0 ././lvgl/src/lv_core/lv_group.o
 .data          0x0000000020000020        0x0 ././lvgl/src/lv_core/lv_indev.o
 .data          0x0000000020000020        0x0 ././lvgl/src/lv_core/lv_obj.o
 .data          0x0000000020000020        0x0 ././lvgl/src/lv_core/lv_disp.o
 .data          0x0000000020000020        0x0 ././lvgl/src/lv_core/lv_style.o
 .data          0x0000000020000020        0x0 ././lvgl/src/lv_hal/lv_hal_indev.o
 .data          0x0000000020000020        0x0 ././lvgl/src/lv_hal/lv_hal_disp.o
 .data          0x0000000020000020        0x0 ././lvgl/src/lv_hal/lv_hal_tick.o
 .data          0x0000000020000020        0x0 ././lvgl/src/lv_objx/lv_objx_templ.o
 .data          0x0000000020000020        0x0 ././lvgl/src/lv_objx/lv_win.o
 .data          0x0000000020000020        0x0 ././lvgl/src/lv_objx/lv_calendar.o
 .data          0x0000000020000020        0x0 ././lvgl/src/lv_objx/lv_img.o
 .data          0x0000000020000020        0x0 ././lvgl/src/lv_objx/lv_table.o
 .data          0x0000000020000020        0x0 ././lvgl/src/lv_objx/lv_spinbox.o
 .data          0x0000000020000020        0x0 ././lvgl/src/lv_objx/lv_ta.o
 .data          0x0000000020000020        0x0 ././lvgl/src/lv_objx/lv_preload.o
 .data          0x0000000020000020        0x0 ././lvgl/src/lv_objx/lv_list.o
 .data          0x0000000020000020        0x0 ././lvgl/src/lv_objx/lv_cont.o
 .data          0x0000000020000020        0x0 ././lvgl/src/lv_objx/lv_cb.o
 .data          0x0000000020000020        0x0 ././lvgl/src/lv_objx/lv_slider.o
 .data          0x0000000020000020        0x0 ././lvgl/src/lv_objx/lv_page.o
 .data          0x0000000020000020        0x0 ././lvgl/src/lv_objx/lv_imgbtn.o
 .data          0x0000000020000020        0x0 ././lvgl/src/lv_objx/lv_chart.o
 .data          0x0000000020000020        0x0 ././lvgl/src/lv_objx/lv_line.o
 .data          0x0000000020000020        0x0 ././lvgl/src/lv_objx/lv_bar.o
 .data          0x0000000020000020        0x0 ././lvgl/src/lv_objx/lv_label.o
 .data          0x0000000020000020        0x0 ././lvgl/src/lv_objx/lv_led.o
 .data          0x0000000020000020        0x0 ././lvgl/src/lv_objx/lv_kb.o
 .data          0x0000000020000020        0x0 ././lvgl/src/lv_objx/lv_sw.o
 .data          0x0000000020000020        0x0 ././lvgl/src/lv_objx/lv_btn.o
 .data          0x0000000020000020        0x0 ././lvgl/src/lv_objx/lv_gauge.o
 .data          0x0000000020000020        0x0 ././lvgl/src/lv_objx/lv_btnm.o
 .data.lv_btnm_def_map
                0x0000000020000020       0x1c ././lvgl/src/lv_objx/lv_btnm.o
 .data          0x000000002000003c        0x0 ././lvgl/src/lv_objx/lv_mbox.o
 .data          0x000000002000003c        0x0 ././lvgl/src/lv_objx/lv_roller.o
 .data          0x000000002000003c        0x0 ././lvgl/src/lv_objx/lv_ddlist.o
 .data          0x000000002000003c        0x0 ././lvgl/src/lv_objx/lv_canvas.o
 .data          0x000000002000003c        0x0 ././lvgl/src/lv_objx/lv_tileview.o
 .data          0x000000002000003c        0x0 ././lvgl/src/lv_objx/lv_lmeter.o
 .data          0x000000002000003c        0x0 ././lvgl/src/lv_objx/lv_tabview.o
 .data.tab_def  0x000000002000003c        0x4 ././lvgl/src/lv_objx/lv_tabview.o
 .data          0x0000000020000040        0x0 ././lvgl/src/lv_objx/lv_arc.o
 .data          0x0000000020000040        0x0 ././lvgl/src/lv_draw/lv_draw_basic.o
 .data          0x0000000020000040        0x0 ././lvgl/src/lv_draw/lv_draw_triangle.o
 .data          0x0000000020000040        0x0 ././lvgl/src/lv_draw/lv_draw_img.o
 .data          0x0000000020000040        0x0 ././lvgl/src/lv_draw/lv_img_cache.o
 .data          0x0000000020000040        0x0 ././lvgl/src/lv_draw/lv_draw_label.o
 .data          0x0000000020000040        0x0 ././lvgl/src/lv_draw/lv_draw.o
 .data          0x0000000020000040        0x0 ././lvgl/src/lv_draw/lv_img_decoder.o
 .data          0x0000000020000040        0x0 ././lvgl/src/lv_draw/lv_draw_arc.o
 .data          0x0000000020000040        0x0 ././lvgl/src/lv_draw/lv_draw_rect.o
 .data          0x0000000020000040        0x0 ././lvgl/src/lv_draw/lv_draw_line.o
 .data          0x0000000020000040        0x0 ././lvgl/src/lv_themes/lv_theme_night.o
 .data          0x0000000020000040        0x0 ././lvgl/src/lv_themes/lv_theme_alien.o
 .data          0x0000000020000040        0x0 ././lvgl/src/lv_themes/lv_theme_mono.o
 .data          0x0000000020000040        0x0 ././lvgl/src/lv_themes/lv_theme_nemo.o
 .data          0x0000000020000040        0x0 ././lvgl/src/lv_themes/lv_theme_material.o
 .data          0x0000000020000040        0x0 ././lvgl/src/lv_themes/lv_theme.o
 .data          0x0000000020000040        0x0 ././lvgl/src/lv_themes/lv_theme_default.o
 .data          0x0000000020000040        0x0 ././lvgl/src/lv_themes/lv_theme_templ.o
 .data          0x0000000020000040        0x0 ././lvgl/src/lv_themes/lv_theme_zen.o
 .data          0x0000000020000040        0x0 ././lvgl/src/lv_font/lv_font_roboto_28.o
 .data          0x0000000020000040        0x0 ././lvgl/src/lv_font/lv_font_roboto_22.o
 .data          0x0000000020000040        0x0 ././lvgl/src/lv_font/lv_font_roboto_12.o
 .data.font_dsc
                0x0000000020000040       0x1c ././lvgl/src/lv_font/lv_font_roboto_12.o
 .data.lv_font_roboto_12
                0x000000002000005c       0x10 ././lvgl/src/lv_font/lv_font_roboto_12.o
                0x000000002000005c                lv_font_roboto_12
 .data          0x000000002000006c        0x0 ././lvgl/src/lv_font/lv_font_unscii_8.o
 .data          0x000000002000006c        0x0 ././lvgl/src/lv_font/lv_font_fmt_txt.o
 .data          0x000000002000006c        0x0 ././lvgl/src/lv_font/lv_font_roboto_16.o
 .data          0x000000002000006c        0x0 ././lvgl/src/lv_font/lv_font.o
 .data          0x000000002000006c        0x0 ././app/pwd_generator/mew_xor_algo.o
 .data          0x000000002000006c        0x0 ././app/pwd_generator/mew_passgen.o
 .data          0x000000002000006c        0x0 ././app/qr_code/qrcodegen.o
 .data          0x000000002000006c        0x0 ././app/packet_parser/parser.o
 .data          0x000000002000006c        0x0 ././drivers/i2c/i2c.o
 .data          0x000000002000006c        0x0 ././drivers/bluetooth/bt_usart.o
 .data._mew_bt_cmd_rx_state
                0x000000002000006c        0x4 ././drivers/bluetooth/bt_usart.o
 .data          0x0000000020000070        0x0 ././drivers/duart/duart.o
 .data          0x0000000020000070        0x0 ././drivers/display/ts_tsc2007.o
 .data          0x0000000020000070        0x0 ././drivers/display/display.o
 .data          0x0000000020000070        0x0 ././drivers/usb/mew_usb_hid.o
 .data.mew_kb_proto
                0x0000000020000070        0x1 ././drivers/usb/mew_usb_hid.o
 .data.usb_hid_disable
                0x0000000020000071        0x1 ././drivers/usb/mew_usb_hid.o
                0x0000000020000071                usb_hid_disable
 *fill*         0x0000000020000072        0x2 
 .data.usb_strings
                0x0000000020000074        0xc ././drivers/usb/mew_usb_hid.o
 .data          0x0000000020000080        0x0 ././drivers/spi_flash/flash.o
 .data.mew_flash_dma_dummy
                0x0000000020000080        0x1 ././drivers/spi_flash/flash.o
 .data          0x0000000020000081        0x0 ././drivers/spi_flash/w25n01gvzeig.o
 *fill*         0x0000000020000081        0x3 
 .data._mew_cmd_fast_read
                0x0000000020000084        0x4 ././drivers/spi_flash/w25n01gvzeig.o
 .data._mew_cmd_read_id
                0x0000000020000088        0x2 ././drivers/spi_flash/w25n01gvzeig.o
 .data          0x000000002000008a        0x0 ././drivers/flash/otp_storage.o
 *fill*         0x000000002000008a        0x2 
 .data.mew_keystore
                0x000000002000008c        0x4 ././drivers/flash/otp_storage.o
                0x000000002000008c                mew_keystore
 .data          0x0000000020000090        0x0 ././drivers/hw_crypt/aes256.o
 .data.dma2_crypt_in_complete
                0x0000000020000090        0x1 ././drivers/hw_crypt/aes256.o
 .data.dma2_crypt_out_complete
                0x0000000020000091        0x1 ././drivers/hw_crypt/aes256.o
 .data          0x0000000020000092        0x0 ././drivers/hw_crypt/P256-cortex-ecdh.o
 .data          0x0000000020000092        0x0 ././drivers/hw_crypt/secure_eeprom.o
 .data          0x0000000020000092        0x0 ././drivers/hw_crypt/sha2_256.o
 .data          0x0000000020000092        0x0 ././drivers/system/systick.o
 .data          0x0000000020000092        0x0 ././drivers/system/system.o
 .data          0x0000000020000092        0x0 ././drivers/system/random.o
 .data          0x0000000020000092        0x0 ././drivers/system/clock.o
 .data          0x0000000020000092        0x0 ././debug.o
 .data          0x0000000020000092        0x0 ././ui/ui_main_win.o
 .data          0x0000000020000092        0x0 ././ui/qrcode_ui.o
 .data          0x0000000020000092        0x0 ././ui/ui_win_startup_1.o
 *fill*         0x0000000020000092        0x2 
 .data._mew_btnm_map
                0x0000000020000094       0x40 ././ui/ui_win_startup_1.o
 .data          0x00000000200000d4        0x0 ././ui/ui_header.o
 .data          0x00000000200000d4        0x0 ././ui/ui_msgbox.o
 .data._mew_msgbox_btns
                0x00000000200000d4        0x8 ././ui/ui_msgbox.o
 .data          0x00000000200000dc        0x0 ././ui/mew_font_ru_bold_title.o
 .data.font_dsc
                0x00000000200000dc       0x1c ././ui/mew_font_ru_bold_title.o
 .data.mew_font_ru_bold_title
                0x00000000200000f8       0x10 ././ui/mew_font_ru_bold_title.o
                0x00000000200000f8                mew_font_ru_bold_title
 .data          0x0000000020000108        0x0 ././ui/ui_lhandlers.o
 .data._mew_current_window
                0x0000000020000108        0x4 ././ui/ui_lhandlers.o
 .data          0x000000002000010c        0x0 ././ui/mew_logo.o
 .data          0x000000002000010c        0x0 ././ui/mew_font_ru_bold.o
 .data.font_dsc
                0x000000002000010c       0x1c ././ui/mew_font_ru_bold.o
 .data.mew_font_ru_bold
                0x0000000020000128       0x10 ././ui/mew_font_ru_bold.o
                0x0000000020000128                mew_font_ru_bold
 .data          0x0000000020000138        0x0 ././drivers/hw_crypt/P256-cortex-m4-ecdh-speedopt-gcc.o
 .data          0x0000000020000138        0x0 ././drivers/system/byteorder.o
 .data          0x0000000020000138        0x0 /home/user/Devel/stm32/libopencm3/lib/libopencm3_stm32f4.a(rcc.o)
 .data.rcc_ahb_frequency
                0x0000000020000138        0x4 /home/user/Devel/stm32/libopencm3/lib/libopencm3_stm32f4.a(rcc.o)
                0x0000000020000138                rcc_ahb_frequency
 .data.rcc_apb1_frequency
                0x000000002000013c        0x4 /home/user/Devel/stm32/libopencm3/lib/libopencm3_stm32f4.a(rcc.o)
                0x000000002000013c                rcc_apb1_frequency
 .data.rcc_apb2_frequency
                0x0000000020000140        0x4 /home/user/Devel/stm32/libopencm3/lib/libopencm3_stm32f4.a(rcc.o)
                0x0000000020000140                rcc_apb2_frequency
 .data          0x0000000020000144        0x0 /home/user/Devel/stm32/libopencm3/lib/libopencm3_stm32f4.a(crc_common_all.o)
 .data          0x0000000020000144        0x0 /home/user/Devel/stm32/libopencm3/lib/libopencm3_stm32f4.a(dma_common_f24.o)
 .data          0x0000000020000144        0x0 /home/user/Devel/stm32/libopencm3/lib/libopencm3_stm32f4.a(gpio_common_all.o)
 .data          0x0000000020000144        0x0 /home/user/Devel/stm32/libopencm3/lib/libopencm3_stm32f4.a(gpio_common_f0234.o)
 .data          0x0000000020000144        0x0 /home/user/Devel/stm32/libopencm3/lib/libopencm3_stm32f4.a(i2c_common_v1.o)
 .data          0x0000000020000144        0x0 /home/user/Devel/stm32/libopencm3/lib/libopencm3_stm32f4.a(spi_common_all.o)
 .data          0x0000000020000144        0x0 /home/user/Devel/stm32/libopencm3/lib/libopencm3_stm32f4.a(spi_common_l1f124.o)
 .data          0x0000000020000144        0x0 /home/user/Devel/stm32/libopencm3/lib/libopencm3_stm32f4.a(usart_common_all.o)
 .data          0x0000000020000144        0x0 /home/user/Devel/stm32/libopencm3/lib/libopencm3_stm32f4.a(usart_common_f124.o)
 .data          0x0000000020000144        0x0 /home/user/Devel/stm32/libopencm3/lib/libopencm3_stm32f4.a(flash_common_f234.o)
 .data          0x0000000020000144        0x0 /home/user/Devel/stm32/libopencm3/lib/libopencm3_stm32f4.a(flash_common_f24.o)
 .data          0x0000000020000144        0x0 /home/user/Devel/stm32/libopencm3/lib/libopencm3_stm32f4.a(exti_common_all.o)
 .data          0x0000000020000144        0x0 /home/user/Devel/stm32/libopencm3/lib/libopencm3_stm32f4.a(rcc_common_all.o)
 .data          0x0000000020000144        0x0 /home/user/Devel/stm32/libopencm3/lib/libopencm3_stm32f4.a(usb.o)
 .data          0x0000000020000144        0x0 /home/user/Devel/stm32/libopencm3/lib/libopencm3_stm32f4.a(usb_standard.o)
 .data          0x0000000020000144        0x0 /home/user/Devel/stm32/libopencm3/lib/libopencm3_stm32f4.a(usb_control.o)
 .data          0x0000000020000144        0x0 /home/user/Devel/stm32/libopencm3/lib/libopencm3_stm32f4.a(usb_f107.o)
 .data          0x0000000020000144        0x0 /home/user/Devel/stm32/libopencm3/lib/libopencm3_stm32f4.a(vector.o)
 .data          0x0000000020000144        0x0 /home/user/Devel/stm32/libopencm3/lib/libopencm3_stm32f4.a(systick.o)
 .data          0x0000000020000144        0x0 /home/user/Devel/stm32/libopencm3/lib/libopencm3_stm32f4.a(nvic.o)
 .data          0x0000000020000144        0x0 /home/user/Devel/stm32/libopencm3/lib/libopencm3_stm32f4.a(pwr.o)
 .data          0x0000000020000144        0x0 /home/user/Devel/stm32/libopencm3/lib/libopencm3_stm32f4.a(usb_fx07_common.o)
 .data          0x0000000020000144        0x0 /home/user/Devel/stm32/gcc-arm-none-eabi-8-2018-q4-major/bin/../lib/gcc/arm-none-eabi/8.2.1/../../../../arm-none-eabi/lib/thumb/v7e-m+fp/hard/libc_nano.a(lib_a-assert.o)
 .data          0x0000000020000144        0x0 /home/user/Devel/stm32/gcc-arm-none-eabi-8-2018-q4-major/bin/../lib/gcc/arm-none-eabi/8.2.1/../../../../arm-none-eabi/lib/thumb/v7e-m+fp/hard/libc_nano.a(lib_a-fprintf.o)
 .data          0x0000000020000144        0x0 /home/user/Devel/stm32/gcc-arm-none-eabi-8-2018-q4-major/bin/../lib/gcc/arm-none-eabi/8.2.1/../../../../arm-none-eabi/lib/thumb/v7e-m+fp/hard/libc_nano.a(lib_a-impure.o)
 .data._impure_ptr
                0x0000000020000144        0x4 /home/user/Devel/stm32/gcc-arm-none-eabi-8-2018-q4-major/bin/../lib/gcc/arm-none-eabi/8.2.1/../../../../arm-none-eabi/lib/thumb/v7e-m+fp/hard/libc_nano.a(lib_a-impure.o)
                0x0000000020000144                _impure_ptr
 .data.impure_data
                0x0000000020000148       0x60 /home/user/Devel/stm32/gcc-arm-none-eabi-8-2018-q4-major/bin/../lib/gcc/arm-none-eabi/8.2.1/../../../../arm-none-eabi/lib/thumb/v7e-m+fp/hard/libc_nano.a(lib_a-impure.o)
 .data          0x00000000200001a8        0x0 /home/user/Devel/stm32/gcc-arm-none-eabi-8-2018-q4-major/bin/../lib/gcc/arm-none-eabi/8.2.1/../../../../arm-none-eabi/lib/thumb/v7e-m+fp/hard/libc_nano.a(lib_a-memcmp.o)
 .data          0x00000000200001a8        0x0 /home/user/Devel/stm32/gcc-arm-none-eabi-8-2018-q4-major/bin/../lib/gcc/arm-none-eabi/8.2.1/../../../../arm-none-eabi/lib/thumb/v7e-m+fp/hard/libc_nano.a(lib_a-memcpy-stub.o)
 .data          0x00000000200001a8        0x0 /home/user/Devel/stm32/gcc-arm-none-eabi-8-2018-q4-major/bin/../lib/gcc/arm-none-eabi/8.2.1/../../../../arm-none-eabi/lib/thumb/v7e-m+fp/hard/libc_nano.a(lib_a-memmove.o)
 .data          0x00000000200001a8        0x0 /home/user/Devel/stm32/gcc-arm-none-eabi-8-2018-q4-major/bin/../lib/gcc/arm-none-eabi/8.2.1/../../../../arm-none-eabi/lib/thumb/v7e-m+fp/hard/libc_nano.a(lib_a-memset.o)
 .data          0x00000000200001a8        0x0 /home/user/Devel/stm32/gcc-arm-none-eabi-8-2018-q4-major/bin/../lib/gcc/arm-none-eabi/8.2.1/../../../../arm-none-eabi/lib/thumb/v7e-m+fp/hard/libc_nano.a(lib_a-nano-vfprintf.o)
 .data          0x00000000200001a8        0x0 /home/user/Devel/stm32/gcc-arm-none-eabi-8-2018-q4-major/bin/../lib/gcc/arm-none-eabi/8.2.1/../../../../arm-none-eabi/lib/thumb/v7e-m+fp/hard/libc_nano.a(lib_a-nano-vfprintf_i.o)
 .data          0x00000000200001a8        0x0 /home/user/Devel/stm32/gcc-arm-none-eabi-8-2018-q4-major/bin/../lib/gcc/arm-none-eabi/8.2.1/../../../../arm-none-eabi/lib/thumb/v7e-m+fp/hard/libc_nano.a(lib_a-strchr.o)
 .data          0x00000000200001a8        0x0 /home/user/Devel/stm32/gcc-arm-none-eabi-8-2018-q4-major/bin/../lib/gcc/arm-none-eabi/8.2.1/../../../../arm-none-eabi/lib/thumb/v7e-m+fp/hard/libc_nano.a(lib_a-strcmp.o)
 .data          0x00000000200001a8        0x0 /home/user/Devel/stm32/gcc-arm-none-eabi-8-2018-q4-major/bin/../lib/gcc/arm-none-eabi/8.2.1/../../../../arm-none-eabi/lib/thumb/v7e-m+fp/hard/libc_nano.a(lib_a-strcpy.o)
 .data          0x00000000200001a8        0x0 /home/user/Devel/stm32/gcc-arm-none-eabi-8-2018-q4-major/bin/../lib/gcc/arm-none-eabi/8.2.1/../../../../arm-none-eabi/lib/thumb/v7e-m+fp/hard/libc_nano.a(lib_a-strlen.o)
 .data          0x00000000200001a8        0x0 /home/user/Devel/stm32/gcc-arm-none-eabi-8-2018-q4-major/bin/../lib/gcc/arm-none-eabi/8.2.1/../../../../arm-none-eabi/lib/thumb/v7e-m+fp/hard/libc_nano.a(lib_a-strstr.o)
 .data          0x00000000200001a8        0x0 /home/user/Devel/stm32/gcc-arm-none-eabi-8-2018-q4-major/bin/../lib/gcc/arm-none-eabi/8.2.1/../../../../arm-none-eabi/lib/thumb/v7e-m+fp/hard/libc_nano.a(lib_a-wbuf.o)
 .data          0x00000000200001a8        0x0 /home/user/Devel/stm32/gcc-arm-none-eabi-8-2018-q4-major/bin/../lib/gcc/arm-none-eabi/8.2.1/../../../../arm-none-eabi/lib/thumb/v7e-m+fp/hard/libc_nano.a(lib_a-wsetup.o)
 .data          0x00000000200001a8        0x0 /home/user/Devel/stm32/gcc-arm-none-eabi-8-2018-q4-major/bin/../lib/gcc/arm-none-eabi/8.2.1/../../../../arm-none-eabi/lib/thumb/v7e-m+fp/hard/libc_nano.a(lib_a-abort.o)
 .data          0x00000000200001a8        0x0 /home/user/Devel/stm32/gcc-arm-none-eabi-8-2018-q4-major/bin/../lib/gcc/arm-none-eabi/8.2.1/../../../../arm-none-eabi/lib/thumb/v7e-m+fp/hard/libc_nano.a(lib_a-fflush.o)
 .data          0x00000000200001a8        0x0 /home/user/Devel/stm32/gcc-arm-none-eabi-8-2018-q4-major/bin/../lib/gcc/arm-none-eabi/8.2.1/../../../../arm-none-eabi/lib/thumb/v7e-m+fp/hard/libc_nano.a(lib_a-findfp.o)
 .data          0x00000000200001a8        0x0 /home/user/Devel/stm32/gcc-arm-none-eabi-8-2018-q4-major/bin/../lib/gcc/arm-none-eabi/8.2.1/../../../../arm-none-eabi/lib/thumb/v7e-m+fp/hard/libc_nano.a(lib_a-fvwrite.o)
 .data          0x00000000200001a8        0x0 /home/user/Devel/stm32/gcc-arm-none-eabi-8-2018-q4-major/bin/../lib/gcc/arm-none-eabi/8.2.1/../../../../arm-none-eabi/lib/thumb/v7e-m+fp/hard/libc_nano.a(lib_a-fwalk.o)
 .data          0x00000000200001a8        0x0 /home/user/Devel/stm32/gcc-arm-none-eabi-8-2018-q4-major/bin/../lib/gcc/arm-none-eabi/8.2.1/../../../../arm-none-eabi/lib/thumb/v7e-m+fp/hard/libc_nano.a(lib_a-lock.o)
 .data          0x00000000200001a8        0x0 /home/user/Devel/stm32/gcc-arm-none-eabi-8-2018-q4-major/bin/../lib/gcc/arm-none-eabi/8.2.1/../../../../arm-none-eabi/lib/thumb/v7e-m+fp/hard/libc_nano.a(lib_a-makebuf.o)
 .data          0x00000000200001a8        0x0 /home/user/Devel/stm32/gcc-arm-none-eabi-8-2018-q4-major/bin/../lib/gcc/arm-none-eabi/8.2.1/../../../../arm-none-eabi/lib/thumb/v7e-m+fp/hard/libc_nano.a(lib_a-memchr.o)
 .data          0x00000000200001a8        0x0 /home/user/Devel/stm32/gcc-arm-none-eabi-8-2018-q4-major/bin/../lib/gcc/arm-none-eabi/8.2.1/../../../../arm-none-eabi/lib/thumb/v7e-m+fp/hard/libc_nano.a(lib_a-nano-freer.o)
 .data          0x00000000200001a8        0x0 /home/user/Devel/stm32/gcc-arm-none-eabi-8-2018-q4-major/bin/../lib/gcc/arm-none-eabi/8.2.1/../../../../arm-none-eabi/lib/thumb/v7e-m+fp/hard/libc_nano.a(lib_a-nano-mallocr.o)
 .data          0x00000000200001a8        0x0 /home/user/Devel/stm32/gcc-arm-none-eabi-8-2018-q4-major/bin/../lib/gcc/arm-none-eabi/8.2.1/../../../../arm-none-eabi/lib/thumb/v7e-m+fp/hard/libc_nano.a(lib_a-nano-reallocr.o)
 .data          0x00000000200001a8        0x0 /home/user/Devel/stm32/gcc-arm-none-eabi-8-2018-q4-major/bin/../lib/gcc/arm-none-eabi/8.2.1/../../../../arm-none-eabi/lib/thumb/v7e-m+fp/hard/libc_nano.a(lib_a-sbrkr.o)
 .data          0x00000000200001a8        0x0 /home/user/Devel/stm32/gcc-arm-none-eabi-8-2018-q4-major/bin/../lib/gcc/arm-none-eabi/8.2.1/../../../../arm-none-eabi/lib/thumb/v7e-m+fp/hard/libc_nano.a(lib_a-signal.o)
 .data          0x00000000200001a8        0x0 /home/user/Devel/stm32/gcc-arm-none-eabi-8-2018-q4-major/bin/../lib/gcc/arm-none-eabi/8.2.1/../../../../arm-none-eabi/lib/thumb/v7e-m+fp/hard/libc_nano.a(lib_a-signalr.o)
 .data          0x00000000200001a8        0x0 /home/user/Devel/stm32/gcc-arm-none-eabi-8-2018-q4-major/bin/../lib/gcc/arm-none-eabi/8.2.1/../../../../arm-none-eabi/lib/thumb/v7e-m+fp/hard/libc_nano.a(lib_a-stdio.o)
 .data          0x00000000200001a8        0x0 /home/user/Devel/stm32/gcc-arm-none-eabi-8-2018-q4-major/bin/../lib/gcc/arm-none-eabi/8.2.1/../../../../arm-none-eabi/lib/thumb/v7e-m+fp/hard/libc_nano.a(lib_a-writer.o)
 .data          0x00000000200001a8        0x0 /home/user/Devel/stm32/gcc-arm-none-eabi-8-2018-q4-major/bin/../lib/gcc/arm-none-eabi/8.2.1/../../../../arm-none-eabi/lib/thumb/v7e-m+fp/hard/libc_nano.a(lib_a-closer.o)
 .data          0x00000000200001a8        0x0 /home/user/Devel/stm32/gcc-arm-none-eabi-8-2018-q4-major/bin/../lib/gcc/arm-none-eabi/8.2.1/../../../../arm-none-eabi/lib/thumb/v7e-m+fp/hard/libc_nano.a(lib_a-fstatr.o)
 .data          0x00000000200001a8        0x0 /home/user/Devel/stm32/gcc-arm-none-eabi-8-2018-q4-major/bin/../lib/gcc/arm-none-eabi/8.2.1/../../../../arm-none-eabi/lib/thumb/v7e-m+fp/hard/libc_nano.a(lib_a-isattyr.o)
 .data          0x00000000200001a8        0x0 /home/user/Devel/stm32/gcc-arm-none-eabi-8-2018-q4-major/bin/../lib/gcc/arm-none-eabi/8.2.1/../../../../arm-none-eabi/lib/thumb/v7e-m+fp/hard/libc_nano.a(lib_a-lseekr.o)
 .data          0x00000000200001a8        0x0 /home/user/Devel/stm32/gcc-arm-none-eabi-8-2018-q4-major/bin/../lib/gcc/arm-none-eabi/8.2.1/../../../../arm-none-eabi/lib/thumb/v7e-m+fp/hard/libc_nano.a(lib_a-mlock.o)
 .data          0x00000000200001a8        0x0 /home/user/Devel/stm32/gcc-arm-none-eabi-8-2018-q4-major/bin/../lib/gcc/arm-none-eabi/8.2.1/../../../../arm-none-eabi/lib/thumb/v7e-m+fp/hard/libc_nano.a(lib_a-nano-msizer.o)
 .data          0x00000000200001a8        0x0 /home/user/Devel/stm32/gcc-arm-none-eabi-8-2018-q4-major/bin/../lib/gcc/arm-none-eabi/8.2.1/../../../../arm-none-eabi/lib/thumb/v7e-m+fp/hard/libc_nano.a(lib_a-readr.o)
 .data          0x00000000200001a8        0x0 /home/user/Devel/stm32/gcc-arm-none-eabi-8-2018-q4-major/bin/../lib/gcc/arm-none-eabi/8.2.1/../../../../arm-none-eabi/lib/thumb/v7e-m+fp/hard/libc_nano.a(lib_a-reent.o)
 .data          0x00000000200001a8        0x0 /home/user/Devel/stm32/gcc-arm-none-eabi-8-2018-q4-major/bin/../lib/gcc/arm-none-eabi/8.2.1/../../../../arm-none-eabi/lib/thumb/v7e-m+fp/hard/libnosys.a(close.o)
 .data          0x00000000200001a8        0x0 /home/user/Devel/stm32/gcc-arm-none-eabi-8-2018-q4-major/bin/../lib/gcc/arm-none-eabi/8.2.1/../../../../arm-none-eabi/lib/thumb/v7e-m+fp/hard/libnosys.a(fstat.o)
 .data          0x00000000200001a8        0x0 /home/user/Devel/stm32/gcc-arm-none-eabi-8-2018-q4-major/bin/../lib/gcc/arm-none-eabi/8.2.1/../../../../arm-none-eabi/lib/thumb/v7e-m+fp/hard/libnosys.a(getpid.o)
 .data          0x00000000200001a8        0x0 /home/user/Devel/stm32/gcc-arm-none-eabi-8-2018-q4-major/bin/../lib/gcc/arm-none-eabi/8.2.1/../../../../arm-none-eabi/lib/thumb/v7e-m+fp/hard/libnosys.a(isatty.o)
 .data          0x00000000200001a8        0x0 /home/user/Devel/stm32/gcc-arm-none-eabi-8-2018-q4-major/bin/../lib/gcc/arm-none-eabi/8.2.1/../../../../arm-none-eabi/lib/thumb/v7e-m+fp/hard/libnosys.a(kill.o)
 .data          0x00000000200001a8        0x0 /home/user/Devel/stm32/gcc-arm-none-eabi-8-2018-q4-major/bin/../lib/gcc/arm-none-eabi/8.2.1/../../../../arm-none-eabi/lib/thumb/v7e-m+fp/hard/libnosys.a(lseek.o)
 .data          0x00000000200001a8        0x0 /home/user/Devel/stm32/gcc-arm-none-eabi-8-2018-q4-major/bin/../lib/gcc/arm-none-eabi/8.2.1/../../../../arm-none-eabi/lib/thumb/v7e-m+fp/hard/libnosys.a(read.o)
 .data          0x00000000200001a8        0x0 /home/user/Devel/stm32/gcc-arm-none-eabi-8-2018-q4-major/bin/../lib/gcc/arm-none-eabi/8.2.1/../../../../arm-none-eabi/lib/thumb/v7e-m+fp/hard/libnosys.a(sbrk.o)
 .data          0x00000000200001a8        0x0 /home/user/Devel/stm32/gcc-arm-none-eabi-8-2018-q4-major/bin/../lib/gcc/arm-none-eabi/8.2.1/../../../../arm-none-eabi/lib/thumb/v7e-m+fp/hard/libnosys.a(write.o)
 .data          0x00000000200001a8        0x0 /home/user/Devel/stm32/gcc-arm-none-eabi-8-2018-q4-major/bin/../lib/gcc/arm-none-eabi/8.2.1/../../../../arm-none-eabi/lib/thumb/v7e-m+fp/hard/libnosys.a(_exit.o)
                0x00000000200001a8                . = ALIGN (0x4)
                0x00000000200001a8                _edata = .
                0x000000000805b9ec                _data_loadaddr = LOADADDR (.data)

.igot.plt       0x00000000200001a8        0x0 load address 0x000000000805bb94
 .igot.plt      0x00000000200001a8        0x0 ././mew.o

.bss            0x00000000200001a8     0x8dec load address 0x000000000805bb94
 *(.bss*)
 .bss           0x00000000200001a8        0x0 ././mew.o
 .bss._mew_loop_counter
                0x00000000200001a8        0x4 ././mew.o
 .bss           0x00000000200001ac        0x0 ././lvgl/porting/lv_port_disp_template.o
 .bss           0x00000000200001ac        0x0 ././lvgl/porting/lv_port_indev_template.o
 .bss           0x00000000200001ac        0x0 ././lvgl/porting/lv_port_fs_template.o
 .bss           0x00000000200001ac        0x0 ././lvgl/src/lv_misc/lv_async.o
 .bss           0x00000000200001ac        0x0 ././lvgl/src/lv_misc/lv_mem.o
 .bss.work_mem  0x00000000200001ac        0x4 ././lvgl/src/lv_misc/lv_mem.o
 .bss.zero_mem  0x00000000200001b0        0x4 ././lvgl/src/lv_misc/lv_mem.o
 .bss           0x00000000200001b4        0x0 ././lvgl/src/lv_misc/lv_txt.o
 .bss           0x00000000200001b4        0x0 ././lvgl/src/lv_misc/lv_utils.o
 .bss           0x00000000200001b4        0x0 ././lvgl/src/lv_misc/lv_area.o
 .bss           0x00000000200001b4        0x0 ././lvgl/src/lv_misc/lv_templ.o
 .bss           0x00000000200001b4        0x0 ././lvgl/src/lv_misc/lv_fs.o
 .bss           0x00000000200001b4        0x0 ././lvgl/src/lv_misc/lv_task.o
 .bss.busy_time.6607
                0x00000000200001b4        0x4 ././lvgl/src/lv_misc/lv_task.o
 .bss.handler_start.6606
                0x00000000200001b8        0x4 ././lvgl/src/lv_misc/lv_task.o
 .bss.idle_last
                0x00000000200001bc        0x1 ././lvgl/src/lv_misc/lv_task.o
 *fill*         0x00000000200001bd        0x3 
 .bss.idle_period_start.6605
                0x00000000200001c0        0x4 ././lvgl/src/lv_misc/lv_task.o
 .bss.lv_task_run
                0x00000000200001c4        0x1 ././lvgl/src/lv_misc/lv_task.o
 .bss.task_created
                0x00000000200001c5        0x1 ././lvgl/src/lv_misc/lv_task.o
 .bss.task_deleted
                0x00000000200001c6        0x1 ././lvgl/src/lv_misc/lv_task.o
 .bss.task_handler_mutex.6604
                0x00000000200001c7        0x1 ././lvgl/src/lv_misc/lv_task.o
 .bss           0x00000000200001c8        0x0 ././lvgl/src/lv_misc/lv_log.o
 .bss           0x00000000200001c8        0x0 ././lvgl/src/lv_misc/lv_ll.o
 .bss           0x00000000200001c8        0x0 ././lvgl/src/lv_misc/lv_circ.o
 .bss           0x00000000200001c8        0x0 ././lvgl/src/lv_misc/lv_color.o
 .bss           0x00000000200001c8        0x0 ././lvgl/src/lv_misc/lv_anim.o
 .bss           0x00000000200001c8        0x0 ././lvgl/src/lv_misc/lv_math.o
 .bss           0x00000000200001c8        0x0 ././lvgl/src/lv_misc/lv_gc.o
 .bss._lv_anim_ll
                0x00000000200001c8        0xc ././lvgl/src/lv_misc/lv_gc.o
                0x00000000200001c8                _lv_anim_ll
 .bss._lv_disp_ll
                0x00000000200001d4        0xc ././lvgl/src/lv_misc/lv_gc.o
                0x00000000200001d4                _lv_disp_ll
 .bss._lv_draw_buf
                0x00000000200001e0        0x4 ././lvgl/src/lv_misc/lv_gc.o
                0x00000000200001e0                _lv_draw_buf
 .bss._lv_drv_ll
                0x00000000200001e4        0xc ././lvgl/src/lv_misc/lv_gc.o
                0x00000000200001e4                _lv_drv_ll
 .bss._lv_file_ll
                0x00000000200001f0        0xc ././lvgl/src/lv_misc/lv_gc.o
                0x00000000200001f0                _lv_file_ll
 .bss._lv_group_ll
                0x00000000200001fc        0xc ././lvgl/src/lv_misc/lv_gc.o
                0x00000000200001fc                _lv_group_ll
 .bss._lv_img_cache_array
                0x0000000020000208        0x4 ././lvgl/src/lv_misc/lv_gc.o
                0x0000000020000208                _lv_img_cache_array
 .bss._lv_img_defoder_ll
                0x000000002000020c        0xc ././lvgl/src/lv_misc/lv_gc.o
                0x000000002000020c                _lv_img_defoder_ll
 .bss._lv_indev_ll
                0x0000000020000218        0xc ././lvgl/src/lv_misc/lv_gc.o
                0x0000000020000218                _lv_indev_ll
 .bss._lv_task_act
                0x0000000020000224        0x4 ././lvgl/src/lv_misc/lv_gc.o
                0x0000000020000224                _lv_task_act
 .bss._lv_task_ll
                0x0000000020000228        0xc ././lvgl/src/lv_misc/lv_gc.o
                0x0000000020000228                _lv_task_ll
 .bss           0x0000000020000234        0x0 ././lvgl/src/lv_core/lv_refr.o
 .bss.disp_refr
                0x0000000020000234        0x4 ././lvgl/src/lv_core/lv_refr.o
 .bss.px_num    0x0000000020000238        0x4 ././lvgl/src/lv_core/lv_refr.o
 .bss           0x000000002000023c        0x0 ././lvgl/src/lv_core/lv_group.o
 .bss           0x000000002000023c        0x0 ././lvgl/src/lv_core/lv_indev.o
 .bss.indev_act
                0x000000002000023c        0x4 ././lvgl/src/lv_core/lv_indev.o
 .bss.indev_obj_act
                0x0000000020000240        0x4 ././lvgl/src/lv_core/lv_indev.o
 .bss           0x0000000020000244        0x0 ././lvgl/src/lv_core/lv_obj.o
 .bss.event_act_data
                0x0000000020000244        0x4 ././lvgl/src/lv_core/lv_obj.o
 .bss.event_temp_data_head
                0x0000000020000248        0x4 ././lvgl/src/lv_core/lv_obj.o
 .bss.lv_initialized
                0x000000002000024c        0x1 ././lvgl/src/lv_core/lv_obj.o
 .bss           0x000000002000024d        0x0 ././lvgl/src/lv_core/lv_disp.o
 .bss           0x000000002000024d        0x0 ././lvgl/src/lv_core/lv_style.o
 *fill*         0x000000002000024d        0x3 
 .bss.lv_style_btn_ina
                0x0000000020000250       0x3c ././lvgl/src/lv_core/lv_style.o
                0x0000000020000250                lv_style_btn_ina
 .bss.lv_style_btn_pr
                0x000000002000028c       0x3c ././lvgl/src/lv_core/lv_style.o
                0x000000002000028c                lv_style_btn_pr
 .bss.lv_style_btn_rel
                0x00000000200002c8       0x3c ././lvgl/src/lv_core/lv_style.o
                0x00000000200002c8                lv_style_btn_rel
 .bss.lv_style_btn_tgl_pr
                0x0000000020000304       0x3c ././lvgl/src/lv_core/lv_style.o
                0x0000000020000304                lv_style_btn_tgl_pr
 .bss.lv_style_btn_tgl_rel
                0x0000000020000340       0x3c ././lvgl/src/lv_core/lv_style.o
                0x0000000020000340                lv_style_btn_tgl_rel
 .bss.lv_style_plain
                0x000000002000037c       0x3c ././lvgl/src/lv_core/lv_style.o
                0x000000002000037c                lv_style_plain
 .bss.lv_style_plain_color
                0x00000000200003b8       0x3c ././lvgl/src/lv_core/lv_style.o
                0x00000000200003b8                lv_style_plain_color
 .bss.lv_style_pretty
                0x00000000200003f4       0x3c ././lvgl/src/lv_core/lv_style.o
                0x00000000200003f4                lv_style_pretty
 .bss.lv_style_pretty_color
                0x0000000020000430       0x3c ././lvgl/src/lv_core/lv_style.o
                0x0000000020000430                lv_style_pretty_color
 .bss.lv_style_scr
                0x000000002000046c       0x3c ././lvgl/src/lv_core/lv_style.o
                0x000000002000046c                lv_style_scr
 .bss.lv_style_transp
                0x00000000200004a8       0x3c ././lvgl/src/lv_core/lv_style.o
                0x00000000200004a8                lv_style_transp
 .bss.lv_style_transp_fit
                0x00000000200004e4       0x3c ././lvgl/src/lv_core/lv_style.o
                0x00000000200004e4                lv_style_transp_fit
 .bss.lv_style_transp_tight
                0x0000000020000520       0x3c ././lvgl/src/lv_core/lv_style.o
                0x0000000020000520                lv_style_transp_tight
 .bss           0x000000002000055c        0x0 ././lvgl/src/lv_hal/lv_hal_indev.o
 .bss           0x000000002000055c        0x0 ././lvgl/src/lv_hal/lv_hal_disp.o
 .bss.disp_def  0x000000002000055c        0x4 ././lvgl/src/lv_hal/lv_hal_disp.o
 .bss           0x0000000020000560        0x0 ././lvgl/src/lv_hal/lv_hal_tick.o
 .bss.sys_time  0x0000000020000560        0x4 ././lvgl/src/lv_hal/lv_hal_tick.o
 .bss.tick_irq_flag
                0x0000000020000564        0x1 ././lvgl/src/lv_hal/lv_hal_tick.o
 .bss           0x0000000020000565        0x0 ././lvgl/src/lv_objx/lv_objx_templ.o
 .bss           0x0000000020000565        0x0 ././lvgl/src/lv_objx/lv_win.o
 *fill*         0x0000000020000565        0x3 
 .bss.ancestor_signal
                0x0000000020000568        0x4 ././lvgl/src/lv_objx/lv_win.o
 .bss           0x000000002000056c        0x0 ././lvgl/src/lv_objx/lv_calendar.o
 .bss           0x000000002000056c        0x0 ././lvgl/src/lv_objx/lv_img.o
 .bss.ancestor_signal
                0x000000002000056c        0x4 ././lvgl/src/lv_objx/lv_img.o
 .bss           0x0000000020000570        0x0 ././lvgl/src/lv_objx/lv_table.o
 .bss.ancestor_scrl_design
                0x0000000020000570        0x4 ././lvgl/src/lv_objx/lv_table.o
 .bss.ancestor_signal
                0x0000000020000574        0x4 ././lvgl/src/lv_objx/lv_table.o
 .bss           0x0000000020000578        0x0 ././lvgl/src/lv_objx/lv_spinbox.o
 .bss.ancestor_design
                0x0000000020000578        0x4 ././lvgl/src/lv_objx/lv_spinbox.o
 .bss.ancestor_signal
                0x000000002000057c        0x4 ././lvgl/src/lv_objx/lv_spinbox.o
 .bss           0x0000000020000580        0x0 ././lvgl/src/lv_objx/lv_ta.o
 .bss.ancestor_design
                0x0000000020000580        0x4 ././lvgl/src/lv_objx/lv_ta.o
 .bss.ancestor_signal
                0x0000000020000584        0x4 ././lvgl/src/lv_objx/lv_ta.o
 .bss.scrl_design
                0x0000000020000588        0x4 ././lvgl/src/lv_objx/lv_ta.o
 .bss.scrl_signal
                0x000000002000058c        0x4 ././lvgl/src/lv_objx/lv_ta.o
 .bss.ta_insert_replace
                0x0000000020000590        0x4 ././lvgl/src/lv_objx/lv_ta.o
 .bss           0x0000000020000594        0x0 ././lvgl/src/lv_objx/lv_preload.o
 .bss           0x0000000020000594        0x0 ././lvgl/src/lv_objx/lv_list.o
 .bss.ancestor_btn_signal
                0x0000000020000594        0x4 ././lvgl/src/lv_objx/lv_list.o
 .bss.ancestor_page_signal
                0x0000000020000598        0x4 ././lvgl/src/lv_objx/lv_list.o
 .bss.img_signal
                0x000000002000059c        0x4 ././lvgl/src/lv_objx/lv_list.o
 .bss.label_signal
                0x00000000200005a0        0x4 ././lvgl/src/lv_objx/lv_list.o
 .bss           0x00000000200005a4        0x0 ././lvgl/src/lv_objx/lv_cont.o
 .bss.ancestor_signal
                0x00000000200005a4        0x4 ././lvgl/src/lv_objx/lv_cont.o
 .bss           0x00000000200005a8        0x0 ././lvgl/src/lv_objx/lv_cb.o
 .bss.ancestor_bg_design
                0x00000000200005a8        0x4 ././lvgl/src/lv_objx/lv_cb.o
 .bss.ancestor_bullet_design
                0x00000000200005ac        0x4 ././lvgl/src/lv_objx/lv_cb.o
 .bss.ancestor_signal
                0x00000000200005b0        0x4 ././lvgl/src/lv_objx/lv_cb.o
 .bss           0x00000000200005b4        0x0 ././lvgl/src/lv_objx/lv_slider.o
 .bss.ancestor_design_f
                0x00000000200005b4        0x4 ././lvgl/src/lv_objx/lv_slider.o
 .bss.ancestor_signal
                0x00000000200005b8        0x4 ././lvgl/src/lv_objx/lv_slider.o
 .bss           0x00000000200005bc        0x0 ././lvgl/src/lv_objx/lv_page.o
 .bss.ancestor_design
                0x00000000200005bc        0x4 ././lvgl/src/lv_objx/lv_page.o
 .bss.ancestor_signal
                0x00000000200005c0        0x4 ././lvgl/src/lv_objx/lv_page.o
 .bss           0x00000000200005c4        0x0 ././lvgl/src/lv_objx/lv_imgbtn.o
 .bss.ancestor_design
                0x00000000200005c4        0x4 ././lvgl/src/lv_objx/lv_imgbtn.o
 .bss.ancestor_signal
                0x00000000200005c8        0x4 ././lvgl/src/lv_objx/lv_imgbtn.o
 .bss           0x00000000200005cc        0x0 ././lvgl/src/lv_objx/lv_chart.o
 .bss           0x00000000200005cc        0x0 ././lvgl/src/lv_objx/lv_line.o
 .bss.ancestor_signal
                0x00000000200005cc        0x4 ././lvgl/src/lv_objx/lv_line.o
 .bss           0x00000000200005d0        0x0 ././lvgl/src/lv_objx/lv_bar.o
 .bss.ancestor_design_f
                0x00000000200005d0        0x4 ././lvgl/src/lv_objx/lv_bar.o
 .bss.ancestor_signal
                0x00000000200005d4        0x4 ././lvgl/src/lv_objx/lv_bar.o
 .bss           0x00000000200005d8        0x0 ././lvgl/src/lv_objx/lv_label.o
 .bss.ancestor_signal
                0x00000000200005d8        0x4 ././lvgl/src/lv_objx/lv_label.o
 .bss           0x00000000200005dc        0x0 ././lvgl/src/lv_objx/lv_led.o
 .bss.ancestor_design_f
                0x00000000200005dc        0x4 ././lvgl/src/lv_objx/lv_led.o
 .bss.ancestor_signal
                0x00000000200005e0        0x4 ././lvgl/src/lv_objx/lv_led.o
 .bss           0x00000000200005e4        0x0 ././lvgl/src/lv_objx/lv_kb.o
 .bss           0x00000000200005e4        0x0 ././lvgl/src/lv_objx/lv_sw.o
 .bss.ancestor_signal
                0x00000000200005e4        0x4 ././lvgl/src/lv_objx/lv_sw.o
 .bss           0x00000000200005e8        0x0 ././lvgl/src/lv_objx/lv_btn.o
 .bss.ancestor_design
                0x00000000200005e8        0x4 ././lvgl/src/lv_objx/lv_btn.o
 .bss.ancestor_signal
                0x00000000200005ec        0x4 ././lvgl/src/lv_objx/lv_btn.o
 .bss           0x00000000200005f0        0x0 ././lvgl/src/lv_objx/lv_gauge.o
 .bss.ancestor_design
                0x00000000200005f0        0x4 ././lvgl/src/lv_objx/lv_gauge.o
 .bss.ancestor_signal
                0x00000000200005f4        0x4 ././lvgl/src/lv_objx/lv_gauge.o
 .bss           0x00000000200005f8        0x0 ././lvgl/src/lv_objx/lv_btnm.o
 .bss.ancestor_design_f
                0x00000000200005f8        0x4 ././lvgl/src/lv_objx/lv_btnm.o
 .bss.ancestor_signal
                0x00000000200005fc        0x4 ././lvgl/src/lv_objx/lv_btnm.o
 .bss           0x0000000020000600        0x0 ././lvgl/src/lv_objx/lv_mbox.o
 .bss.ancestor_signal
                0x0000000020000600        0x4 ././lvgl/src/lv_objx/lv_mbox.o
 .bss           0x0000000020000604        0x0 ././lvgl/src/lv_objx/lv_roller.o
 .bss.ancestor_scrl_signal
                0x0000000020000604        0x4 ././lvgl/src/lv_objx/lv_roller.o
 .bss.ancestor_signal
                0x0000000020000608        0x4 ././lvgl/src/lv_objx/lv_roller.o
 .bss           0x000000002000060c        0x0 ././lvgl/src/lv_objx/lv_ddlist.o
 .bss.ancestor_design
                0x000000002000060c        0x4 ././lvgl/src/lv_objx/lv_ddlist.o
 .bss.ancestor_scrl_signal
                0x0000000020000610        0x4 ././lvgl/src/lv_objx/lv_ddlist.o
 .bss.ancestor_signal
                0x0000000020000614        0x4 ././lvgl/src/lv_objx/lv_ddlist.o
 .bss           0x0000000020000618        0x0 ././lvgl/src/lv_objx/lv_canvas.o
 .bss.ancestor_design
                0x0000000020000618        0x4 ././lvgl/src/lv_objx/lv_canvas.o
 .bss.ancestor_signal
                0x000000002000061c        0x4 ././lvgl/src/lv_objx/lv_canvas.o
 .bss           0x0000000020000620        0x0 ././lvgl/src/lv_objx/lv_tileview.o
 .bss.ancestor_design
                0x0000000020000620        0x4 ././lvgl/src/lv_objx/lv_tileview.o
 .bss.ancestor_scrl_signal
                0x0000000020000624        0x4 ././lvgl/src/lv_objx/lv_tileview.o
 .bss.ancestor_signal
                0x0000000020000628        0x4 ././lvgl/src/lv_objx/lv_tileview.o
 .bss           0x000000002000062c        0x0 ././lvgl/src/lv_objx/lv_lmeter.o
 .bss.ancestor_signal
                0x000000002000062c        0x4 ././lvgl/src/lv_objx/lv_lmeter.o
 .bss           0x0000000020000630        0x0 ././lvgl/src/lv_objx/lv_tabview.o
 .bss.ancestor_signal
                0x0000000020000630        0x4 ././lvgl/src/lv_objx/lv_tabview.o
 .bss.page_scrl_signal
                0x0000000020000634        0x4 ././lvgl/src/lv_objx/lv_tabview.o
 .bss.page_signal
                0x0000000020000638        0x4 ././lvgl/src/lv_objx/lv_tabview.o
 .bss           0x000000002000063c        0x0 ././lvgl/src/lv_objx/lv_arc.o
 .bss.ancestor_design
                0x000000002000063c        0x4 ././lvgl/src/lv_objx/lv_arc.o
 .bss.ancestor_signal
                0x0000000020000640        0x4 ././lvgl/src/lv_objx/lv_arc.o
 .bss           0x0000000020000644        0x0 ././lvgl/src/lv_draw/lv_draw_basic.o
 .bss           0x0000000020000644        0x0 ././lvgl/src/lv_draw/lv_draw_triangle.o
 .bss           0x0000000020000644        0x0 ././lvgl/src/lv_draw/lv_draw_img.o
 .bss           0x0000000020000644        0x0 ././lvgl/src/lv_draw/lv_img_cache.o
 .bss.entry_cnt
                0x0000000020000644        0x2 ././lvgl/src/lv_draw/lv_img_cache.o
 .bss           0x0000000020000646        0x0 ././lvgl/src/lv_draw/lv_draw_label.o
 .bss           0x0000000020000646        0x0 ././lvgl/src/lv_draw/lv_draw.o
 *fill*         0x0000000020000646        0x2 
 .bss.draw_buf_size
                0x0000000020000648        0x4 ././lvgl/src/lv_draw/lv_draw.o
 .bss           0x000000002000064c        0x0 ././lvgl/src/lv_draw/lv_img_decoder.o
 .bss           0x000000002000064c        0x0 ././lvgl/src/lv_draw/lv_draw_arc.o
 .bss           0x000000002000064c        0x0 ././lvgl/src/lv_draw/lv_draw_rect.o
 .bss           0x000000002000064c        0x0 ././lvgl/src/lv_draw/lv_draw_line.o
 .bss           0x000000002000064c        0x0 ././lvgl/src/lv_themes/lv_theme_night.o
 .bss           0x000000002000064c        0x0 ././lvgl/src/lv_themes/lv_theme_alien.o
 .bss           0x000000002000064c        0x0 ././lvgl/src/lv_themes/lv_theme_mono.o
 .bss           0x000000002000064c        0x0 ././lvgl/src/lv_themes/lv_theme_nemo.o
 .bss           0x000000002000064c        0x0 ././lvgl/src/lv_themes/lv_theme_material.o
 .bss._font     0x000000002000064c        0x4 ././lvgl/src/lv_themes/lv_theme_material.o
 .bss._hue      0x0000000020000650        0x2 ././lvgl/src/lv_themes/lv_theme_material.o
 *fill*         0x0000000020000652        0x2 
 .bss.arc.7294  0x0000000020000654       0x3c ././lvgl/src/lv_themes/lv_theme_material.o
 .bss.bar_bg.7270
                0x0000000020000690       0x3c ././lvgl/src/lv_themes/lv_theme_material.o
 .bss.bar_indic.7271
                0x00000000200006cc       0x3c ././lvgl/src/lv_themes/lv_theme_material.o
 .bss.bg.7231   0x0000000020000708       0x3c ././lvgl/src/lv_themes/lv_theme_material.o
 .bss.bg.7315   0x0000000020000744       0x3c ././lvgl/src/lv_themes/lv_theme_material.o
 .bss.bg.7351   0x0000000020000780       0x3c ././lvgl/src/lv_themes/lv_theme_material.o
 .bss.btn_bg.7362
                0x00000000200007bc       0x3c ././lvgl/src/lv_themes/lv_theme_material.o
 .bss.cell.7373
                0x00000000200007f8       0x3c ././lvgl/src/lv_themes/lv_theme_material.o
 .bss.def       0x0000000020000834       0x3c ././lvgl/src/lv_themes/lv_theme_material.o
 .bss.gauge.7290
                0x0000000020000870       0x3c ././lvgl/src/lv_themes/lv_theme_material.o
 .bss.header.7377
                0x00000000200008ac       0x3c ././lvgl/src/lv_themes/lv_theme_material.o
 .bss.hint.7254
                0x00000000200008e8       0x3c ././lvgl/src/lv_themes/lv_theme_material.o
 .bss.img_dark.7259
                0x0000000020000924       0x3c ././lvgl/src/lv_themes/lv_theme_material.o
 .bss.img_light.7258
                0x0000000020000960       0x3c ././lvgl/src/lv_themes/lv_theme_material.o
 .bss.ina.7248  0x000000002000099c       0x3c ././lvgl/src/lv_themes/lv_theme_material.o
 .bss.ina.7311  0x00000000200009d8       0x3c ././lvgl/src/lv_themes/lv_theme_material.o
 .bss.ina.7320  0x0000000020000a14       0x3c ././lvgl/src/lv_themes/lv_theme_material.o
 .bss.ina.7347  0x0000000020000a50       0x3c ././lvgl/src/lv_themes/lv_theme_material.o
 .bss.indic.7361
                0x0000000020000a8c       0x3c ././lvgl/src/lv_themes/lv_theme_material.o
 .bss.knob.7275
                0x0000000020000ac8       0x3c ././lvgl/src/lv_themes/lv_theme_material.o
 .bss.led.7266  0x0000000020000b04       0x3c ././lvgl/src/lv_themes/lv_theme_material.o
 .bss.list_bg.7342
                0x0000000020000b40       0x3c ././lvgl/src/lv_themes/lv_theme_material.o
 .bss.lmeter.7286
                0x0000000020000b7c       0x3c ././lvgl/src/lv_themes/lv_theme_material.o
 .bss.oneline.7335
                0x0000000020000bb8       0x3c ././lvgl/src/lv_themes/lv_theme_material.o
 .bss.panel.7232
                0x0000000020000bf4       0x3c ././lvgl/src/lv_themes/lv_theme_material.o
 .bss.pr.7245   0x0000000020000c30       0x3c ././lvgl/src/lv_themes/lv_theme_material.o
 .bss.pr.7308   0x0000000020000c6c       0x3c ././lvgl/src/lv_themes/lv_theme_material.o
 .bss.pr.7317   0x0000000020000ca8       0x3c ././lvgl/src/lv_themes/lv_theme_material.o
 .bss.pr.7327   0x0000000020000ce4       0x3c ././lvgl/src/lv_themes/lv_theme_material.o
 .bss.pr.7344   0x0000000020000d20       0x3c ././lvgl/src/lv_themes/lv_theme_material.o
 .bss.pr.7364   0x0000000020000d5c       0x3c ././lvgl/src/lv_themes/lv_theme_material.o
 .bss.pr.7378   0x0000000020000d98       0x3c ././lvgl/src/lv_themes/lv_theme_material.o
 .bss.prim.7252
                0x0000000020000dd4       0x3c ././lvgl/src/lv_themes/lv_theme_material.o
 .bss.rel.7244  0x0000000020000e10       0x3c ././lvgl/src/lv_themes/lv_theme_material.o
 .bss.rel.7307  0x0000000020000e4c       0x3c ././lvgl/src/lv_themes/lv_theme_material.o
 .bss.rel.7316  0x0000000020000e88       0x3c ././lvgl/src/lv_themes/lv_theme_material.o
 .bss.rel.7328  0x0000000020000ec4       0x3c ././lvgl/src/lv_themes/lv_theme_material.o
 .bss.rel.7343  0x0000000020000f00       0x3c ././lvgl/src/lv_themes/lv_theme_material.o
 .bss.rel.7363  0x0000000020000f3c       0x3c ././lvgl/src/lv_themes/lv_theme_material.o
 .bss.roller_bg.7356
                0x0000000020000f78       0x3c ././lvgl/src/lv_themes/lv_theme_material.o
 .bss.roller_sel.7357
                0x0000000020000fb4       0x3c ././lvgl/src/lv_themes/lv_theme_material.o
 .bss.sb        0x0000000020000ff0       0x3c ././lvgl/src/lv_themes/lv_theme_material.o
 .bss.scr.7233  0x000000002000102c       0x3c ././lvgl/src/lv_themes/lv_theme_material.o
 .bss.sec.7253  0x0000000020001068       0x3c ././lvgl/src/lv_themes/lv_theme_material.o
 .bss.sel.7352  0x00000000200010a4       0x3c ././lvgl/src/lv_themes/lv_theme_material.o
 .bss.sw_bg.7279
                0x00000000200010e0       0x3c ././lvgl/src/lv_themes/lv_theme_material.o
 .bss.sw_indic.7280
                0x000000002000111c       0x3c ././lvgl/src/lv_themes/lv_theme_material.o
 .bss.sw_knob_off.7281
                0x0000000020001158       0x3c ././lvgl/src/lv_themes/lv_theme_material.o
 .bss.sw_knob_on.7282
                0x0000000020001194       0x3c ././lvgl/src/lv_themes/lv_theme_material.o
 .bss.tgl_pr.7247
                0x00000000200011d0       0x3c ././lvgl/src/lv_themes/lv_theme_material.o
 .bss.tgl_pr.7310
                0x000000002000120c       0x3c ././lvgl/src/lv_themes/lv_theme_material.o
 .bss.tgl_pr.7319
                0x0000000020001248       0x3c ././lvgl/src/lv_themes/lv_theme_material.o
 .bss.tgl_pr.7346
                0x0000000020001284       0x3c ././lvgl/src/lv_themes/lv_theme_material.o
 .bss.tgl_pr.7366
                0x00000000200012c0       0x3c ././lvgl/src/lv_themes/lv_theme_material.o
 .bss.tgl_rel.7246
                0x00000000200012fc       0x3c ././lvgl/src/lv_themes/lv_theme_material.o
 .bss.tgl_rel.7309
                0x0000000020001338       0x3c ././lvgl/src/lv_themes/lv_theme_material.o
 .bss.tgl_rel.7318
                0x0000000020001374       0x3c ././lvgl/src/lv_themes/lv_theme_material.o
 .bss.tgl_rel.7345
                0x00000000200013b0       0x3c ././lvgl/src/lv_themes/lv_theme_material.o
 .bss.tgl_rel.7365
                0x00000000200013ec       0x3c ././lvgl/src/lv_themes/lv_theme_material.o
 .bss.theme     0x0000000020001428      0x170 ././lvgl/src/lv_themes/lv_theme_material.o
 .bss           0x0000000020001598        0x0 ././lvgl/src/lv_themes/lv_theme.o
 .bss.current_theme
                0x0000000020001598        0x4 ././lvgl/src/lv_themes/lv_theme.o
 .bss           0x000000002000159c        0x0 ././lvgl/src/lv_themes/lv_theme_default.o
 .bss           0x000000002000159c        0x0 ././lvgl/src/lv_themes/lv_theme_templ.o
 .bss           0x000000002000159c        0x0 ././lvgl/src/lv_themes/lv_theme_zen.o
 .bss           0x000000002000159c        0x0 ././lvgl/src/lv_font/lv_font_roboto_28.o
 .bss           0x000000002000159c        0x0 ././lvgl/src/lv_font/lv_font_roboto_22.o
 .bss           0x000000002000159c        0x0 ././lvgl/src/lv_font/lv_font_roboto_12.o
 .bss           0x000000002000159c        0x0 ././lvgl/src/lv_font/lv_font_unscii_8.o
 .bss           0x000000002000159c        0x0 ././lvgl/src/lv_font/lv_font_fmt_txt.o
 .bss           0x000000002000159c        0x0 ././lvgl/src/lv_font/lv_font_roboto_16.o
 .bss           0x000000002000159c        0x0 ././lvgl/src/lv_font/lv_font.o
 .bss           0x000000002000159c        0x0 ././app/pwd_generator/mew_xor_algo.o
 .bss           0x000000002000159c        0x0 ././app/pwd_generator/mew_passgen.o
 .bss           0x000000002000159c        0x0 ././app/qr_code/qrcodegen.o
 .bss           0x000000002000159c        0x0 ././app/packet_parser/parser.o
 .bss._mew_comm_buffer
                0x000000002000159c      0x80a ././app/packet_parser/parser.o
 *fill*         0x0000000020001da6        0x2 
 .bss._mew_comm_buffer_counter
                0x0000000020001da8        0x4 ././app/packet_parser/parser.o
 .bss._mew_comm_command
                0x0000000020001dac        0x4 ././app/packet_parser/parser.o
 .bss._mew_comm_driver_id
                0x0000000020001db0        0x4 ././app/packet_parser/parser.o
 .bss._mew_comm_last_error
                0x0000000020001db4        0x4 ././app/packet_parser/parser.o
 .bss._mew_comm_last_time
                0x0000000020001db8        0x4 ././app/packet_parser/parser.o
 .bss._mew_comm_payload
                0x0000000020001dbc      0x800 ././app/packet_parser/parser.o
 .bss._mew_comm_payload_crc32
                0x00000000200025bc        0x4 ././app/packet_parser/parser.o
 .bss._mew_comm_payload_length
                0x00000000200025c0        0x4 ././app/packet_parser/parser.o
 .bss._mew_comm_payload_present
                0x00000000200025c4        0x4 ././app/packet_parser/parser.o
 .bss._mew_pubkey_buf
                0x00000000200025c8       0x40 ././app/packet_parser/parser.o
 .bss.current_checksum
                0x0000000020002608        0x4 ././app/packet_parser/parser.o
 .bss           0x000000002000260c        0x0 ././drivers/i2c/i2c.o
 .bss           0x000000002000260c        0x0 ././drivers/bluetooth/bt_usart.o
 .bss._mew_adapter_mac
                0x000000002000260c        0x6 ././drivers/bluetooth/bt_usart.o
                0x000000002000260c                _mew_adapter_mac
 *fill*         0x0000000020002612        0x2 
 .bss._mew_bt_at_buffer
                0x0000000020002614       0x40 ././drivers/bluetooth/bt_usart.o
                0x0000000020002614                _mew_bt_at_buffer
 .bss._mew_bt_at_buffer_counter
                0x0000000020002654        0x4 ././drivers/bluetooth/bt_usart.o
 .bss._mew_bt_cmd_channel_state
                0x0000000020002658        0x4 ././drivers/bluetooth/bt_usart.o
 .bss._mew_bt_cmd_current_cmd
                0x000000002000265c        0x4 ././drivers/bluetooth/bt_usart.o
 .bss._mew_bt_cmd_timer
                0x0000000020002660        0x4 ././drivers/bluetooth/bt_usart.o
 .bss._mew_dma_tx_state
                0x0000000020002664        0x1 ././drivers/bluetooth/bt_usart.o
 .bss           0x0000000020002665        0x0 ././drivers/duart/duart.o
 *fill*         0x0000000020002665        0x3 
 .bss._mew_duart_state
                0x0000000020002668        0x4 ././drivers/duart/duart.o
 .bss           0x000000002000266c        0x0 ././drivers/display/ts_tsc2007.o
 .bss._mew_ts_isr
                0x000000002000266c        0x1 ././drivers/display/ts_tsc2007.o
 .bss           0x000000002000266d        0x0 ././drivers/display/display.o
 *fill*         0x000000002000266d        0x3 
 .bss._mew_current_disp
                0x0000000020002670        0x4 ././drivers/display/display.o
 .bss._mew_disp_buf
                0x0000000020002674       0x1c ././drivers/display/display.o
 .bss._mew_dma_rx_state
                0x0000000020002690        0x1 ././drivers/display/display.o
 *fill*         0x0000000020002691        0x3 
 .bss._mew_gd_buf
                0x0000000020002694     0x4b00 ././drivers/display/display.o
 .bss           0x0000000020007194        0x0 ././drivers/usb/mew_usb_hid.o
 .bss.boot_keys_report
                0x0000000020007194        0x8 ././drivers/usb/mew_usb_hid.o
 .bss.mew_hid_usbd_dev
                0x000000002000719c        0x4 ././drivers/usb/mew_usb_hid.o
                0x000000002000719c                mew_hid_usbd_dev
 .bss.mew_kb_idle
                0x00000000200071a0        0x1 ././drivers/usb/mew_usb_hid.o
 *fill*         0x00000000200071a1        0x3 
 .bss.usbd_control_buffer
                0x00000000200071a4       0x80 ././drivers/usb/mew_usb_hid.o
                0x00000000200071a4                usbd_control_buffer
 .bss           0x0000000020007224        0x0 ././drivers/spi_flash/flash.o
 .bss.mew_flash_mem_addr_receiving
                0x0000000020007224        0x4 ././drivers/spi_flash/flash.o
 .bss.mew_flash_mem_addr_sending
                0x0000000020007228        0x4 ././drivers/spi_flash/flash.o
 .bss.mew_flash_mem_size_receiving
                0x000000002000722c        0x2 ././drivers/spi_flash/flash.o
 .bss.mew_flash_mem_size_sending
                0x000000002000722e        0x2 ././drivers/spi_flash/flash.o
 .bss.mew_flash_rx_handler
                0x0000000020007230        0x4 ././drivers/spi_flash/flash.o
                0x0000000020007230                mew_flash_rx_handler
 .bss.mew_flash_xfer_state
                0x0000000020007234        0x4 ././drivers/spi_flash/flash.o
 .bss           0x0000000020007238        0x0 ././drivers/spi_flash/w25n01gvzeig.o
 .bss._mew_flash_read_buffer
                0x0000000020007238      0x800 ././drivers/spi_flash/w25n01gvzeig.o
 .bss           0x0000000020007a38        0x0 ././drivers/flash/otp_storage.o
 .bss._mew_ss_temp
                0x0000000020007a38      0x240 ././drivers/flash/otp_storage.o
 .bss           0x0000000020007c78        0x0 ././drivers/hw_crypt/aes256.o
 .bss           0x0000000020007c78        0x0 ././drivers/hw_crypt/P256-cortex-ecdh.o
 .bss.private_key
                0x0000000020007c78       0x20 ././drivers/hw_crypt/P256-cortex-ecdh.o
 .bss.public_key
                0x0000000020007c98       0x40 ././drivers/hw_crypt/P256-cortex-ecdh.o
 .bss.shared_key
                0x0000000020007cd8       0x20 ././drivers/hw_crypt/P256-cortex-ecdh.o
 .bss           0x0000000020007cf8        0x0 ././drivers/hw_crypt/secure_eeprom.o
 .bss.data_decrypted_32
                0x0000000020007cf8       0xf0 ././drivers/hw_crypt/secure_eeprom.o
 .bss.data_key_sign
                0x0000000020007de8        0x8 ././drivers/hw_crypt/secure_eeprom.o
 .bss.data_out_32
                0x0000000020007df0      0x100 ././drivers/hw_crypt/secure_eeprom.o
 .bss.data_sign
                0x0000000020007ef0        0x8 ././drivers/hw_crypt/secure_eeprom.o
 .bss.data_temp_01
                0x0000000020007ef8       0x28 ././drivers/hw_crypt/secure_eeprom.o
 .bss.mew_ss    0x0000000020007f20        0x9 ././drivers/hw_crypt/secure_eeprom.o
                0x0000000020007f20                mew_ss
 .bss           0x0000000020007f29        0x0 ././drivers/hw_crypt/sha2_256.o
 .bss           0x0000000020007f29        0x0 ././drivers/system/systick.o
 *fill*         0x0000000020007f29        0x3 
 .bss.systick_millis
                0x0000000020007f2c        0x4 ././drivers/system/systick.o
 .bss           0x0000000020007f30        0x0 ././drivers/system/system.o
 .bss           0x0000000020007f30        0x0 ././drivers/system/random.o
 .bss._mew_last_random_value
                0x0000000020007f30        0x4 ././drivers/system/random.o
 .bss           0x0000000020007f34        0x0 ././drivers/system/clock.o
 .bss           0x0000000020007f34        0x0 ././debug.o
 .bss           0x0000000020007f34        0x0 ././ui/ui_main_win.o
 .bss           0x0000000020007f34        0x0 ././ui/qrcode_ui.o
 .bss._mew_gd   0x0000000020007f34      0xb40 ././ui/qrcode_ui.o
 .bss._mew_qr_buffer
                0x0000000020008a74       0x8a ././ui/qrcode_ui.o
 *fill*         0x0000000020008afe        0x2 
 .bss._mew_qr_data
                0x0000000020008b00       0x8a ././ui/qrcode_ui.o
 .bss           0x0000000020008b8a        0x0 ././ui/ui_win_startup_1.o
 *fill*         0x0000000020008b8a        0x2 
 .bss._mew_btn1
                0x0000000020008b8c        0x4 ././ui/ui_win_startup_1.o
 .bss._mew_btn1_label
                0x0000000020008b90        0x4 ././ui/ui_win_startup_1.o
 .bss._mew_btn2
                0x0000000020008b94        0x4 ././ui/ui_win_startup_1.o
 .bss._mew_btn2_label
                0x0000000020008b98        0x4 ././ui/ui_win_startup_1.o
 .bss._mew_btn_style_1
                0x0000000020008b9c       0x3c ././ui/ui_win_startup_1.o
 .bss._mew_btn_style_2
                0x0000000020008bd8       0x3c ././ui/ui_win_startup_1.o
 .bss._mew_btnm1
                0x0000000020008c14        0x4 ././ui/ui_win_startup_1.o
 .bss._mew_cont2
                0x0000000020008c18        0x4 ././ui/ui_win_startup_1.o
 .bss._mew_cont_style
                0x0000000020008c1c       0x3c ././ui/ui_win_startup_1.o
 .bss._mew_label1
                0x0000000020008c58        0x4 ././ui/ui_win_startup_1.o
 .bss._mew_pinIndex
                0x0000000020008c5c        0x1 ././ui/ui_win_startup_1.o
 .bss._mew_pinLength
                0x0000000020008c5d        0x1 ././ui/ui_win_startup_1.o
 *fill*         0x0000000020008c5e        0x2 
 .bss._mew_pincode
                0x0000000020008c60       0x80 ././ui/ui_win_startup_1.o
 .bss._mew_pincode_box
                0x0000000020008ce0        0x8 ././ui/ui_win_startup_1.o
 .bss._mew_pincode_sha
                0x0000000020008ce8        0x8 ././ui/ui_win_startup_1.o
 .bss._mew_style_txt
                0x0000000020008cf0       0x3c ././ui/ui_win_startup_1.o
 .bss           0x0000000020008d2c        0x0 ././ui/ui_header.o
 .bss._mew_cont
                0x0000000020008d2c        0x4 ././ui/ui_header.o
 .bss._mew_cont_style
                0x0000000020008d30       0x3c ././ui/ui_header.o
 .bss._mew_img1
                0x0000000020008d6c        0x4 ././ui/ui_header.o
 .bss._mew_label1
                0x0000000020008d70        0x4 ././ui/ui_header.o
 .bss._mew_label2
                0x0000000020008d74        0x4 ././ui/ui_header.o
 .bss._mew_label_pincode
                0x0000000020008d78        0x4 ././ui/ui_header.o
 .bss._mew_style_txt
                0x0000000020008d7c       0x3c ././ui/ui_header.o
 .bss._mew_style_txt2
                0x0000000020008db8       0x3c ././ui/ui_header.o
 .bss           0x0000000020008df4        0x0 ././ui/ui_msgbox.o
 .bss._mew_cont3
                0x0000000020008df4        0x4 ././ui/ui_msgbox.o
 .bss._mew_mbox1
                0x0000000020008df8        0x4 ././ui/ui_msgbox.o
 .bss._mew_msgbox_shadow_style_1
                0x0000000020008dfc       0x3c ././ui/ui_msgbox.o
 .bss._mew_style_txt
                0x0000000020008e38       0x3c ././ui/ui_msgbox.o
 .bss.mew_event_cb_t
                0x0000000020008e74        0x4 ././ui/ui_msgbox.o
 .bss           0x0000000020008e78        0x0 ././ui/mew_font_ru_bold_title.o
 .bss           0x0000000020008e78        0x0 ././ui/ui_lhandlers.o
 .bss._mew_lvgl_lhandler_time
                0x0000000020008e78        0x4 ././ui/ui_lhandlers.o
 .bss           0x0000000020008e7c        0x0 ././ui/mew_logo.o
 .bss           0x0000000020008e7c        0x0 ././ui/mew_font_ru_bold.o
 .bss           0x0000000020008e7c        0x0 ././drivers/hw_crypt/P256-cortex-m4-ecdh-speedopt-gcc.o
 .bss           0x0000000020008e7c        0x0 ././drivers/system/byteorder.o
 .bss           0x0000000020008e7c        0x0 /home/user/Devel/stm32/libopencm3/lib/libopencm3_stm32f4.a(rcc.o)
 .bss           0x0000000020008e7c        0x0 /home/user/Devel/stm32/libopencm3/lib/libopencm3_stm32f4.a(crc_common_all.o)
 .bss           0x0000000020008e7c        0x0 /home/user/Devel/stm32/libopencm3/lib/libopencm3_stm32f4.a(dma_common_f24.o)
 .bss           0x0000000020008e7c        0x0 /home/user/Devel/stm32/libopencm3/lib/libopencm3_stm32f4.a(gpio_common_all.o)
 .bss           0x0000000020008e7c        0x0 /home/user/Devel/stm32/libopencm3/lib/libopencm3_stm32f4.a(gpio_common_f0234.o)
 .bss           0x0000000020008e7c        0x0 /home/user/Devel/stm32/libopencm3/lib/libopencm3_stm32f4.a(i2c_common_v1.o)
 .bss           0x0000000020008e7c        0x0 /home/user/Devel/stm32/libopencm3/lib/libopencm3_stm32f4.a(spi_common_all.o)
 .bss           0x0000000020008e7c        0x0 /home/user/Devel/stm32/libopencm3/lib/libopencm3_stm32f4.a(spi_common_l1f124.o)
 .bss           0x0000000020008e7c        0x0 /home/user/Devel/stm32/libopencm3/lib/libopencm3_stm32f4.a(usart_common_all.o)
 .bss           0x0000000020008e7c        0x0 /home/user/Devel/stm32/libopencm3/lib/libopencm3_stm32f4.a(usart_common_f124.o)
 .bss           0x0000000020008e7c        0x0 /home/user/Devel/stm32/libopencm3/lib/libopencm3_stm32f4.a(flash_common_f234.o)
 .bss           0x0000000020008e7c        0x0 /home/user/Devel/stm32/libopencm3/lib/libopencm3_stm32f4.a(flash_common_f24.o)
 .bss           0x0000000020008e7c        0x0 /home/user/Devel/stm32/libopencm3/lib/libopencm3_stm32f4.a(exti_common_all.o)
 .bss           0x0000000020008e7c        0x0 /home/user/Devel/stm32/libopencm3/lib/libopencm3_stm32f4.a(rcc_common_all.o)
 .bss           0x0000000020008e7c        0x0 /home/user/Devel/stm32/libopencm3/lib/libopencm3_stm32f4.a(usb.o)
 .bss           0x0000000020008e7c        0x0 /home/user/Devel/stm32/libopencm3/lib/libopencm3_stm32f4.a(usb_standard.o)
 .bss           0x0000000020008e7c        0x0 /home/user/Devel/stm32/libopencm3/lib/libopencm3_stm32f4.a(usb_control.o)
 .bss           0x0000000020008e7c        0x0 /home/user/Devel/stm32/libopencm3/lib/libopencm3_stm32f4.a(usb_f107.o)
 .bss.usbd_dev  0x0000000020008e7c       0xfc /home/user/Devel/stm32/libopencm3/lib/libopencm3_stm32f4.a(usb_f107.o)
 .bss           0x0000000020008f78        0x0 /home/user/Devel/stm32/libopencm3/lib/libopencm3_stm32f4.a(vector.o)
 .bss           0x0000000020008f78        0x0 /home/user/Devel/stm32/libopencm3/lib/libopencm3_stm32f4.a(systick.o)
 .bss           0x0000000020008f78        0x0 /home/user/Devel/stm32/libopencm3/lib/libopencm3_stm32f4.a(nvic.o)
 .bss           0x0000000020008f78        0x0 /home/user/Devel/stm32/libopencm3/lib/libopencm3_stm32f4.a(pwr.o)
 .bss           0x0000000020008f78        0x0 /home/user/Devel/stm32/libopencm3/lib/libopencm3_stm32f4.a(usb_fx07_common.o)
 .bss           0x0000000020008f78        0x0 /home/user/Devel/stm32/gcc-arm-none-eabi-8-2018-q4-major/bin/../lib/gcc/arm-none-eabi/8.2.1/../../../../arm-none-eabi/lib/thumb/v7e-m+fp/hard/libc_nano.a(lib_a-assert.o)
 .bss           0x0000000020008f78        0x0 /home/user/Devel/stm32/gcc-arm-none-eabi-8-2018-q4-major/bin/../lib/gcc/arm-none-eabi/8.2.1/../../../../arm-none-eabi/lib/thumb/v7e-m+fp/hard/libc_nano.a(lib_a-fprintf.o)
 .bss           0x0000000020008f78        0x0 /home/user/Devel/stm32/gcc-arm-none-eabi-8-2018-q4-major/bin/../lib/gcc/arm-none-eabi/8.2.1/../../../../arm-none-eabi/lib/thumb/v7e-m+fp/hard/libc_nano.a(lib_a-impure.o)
 .bss           0x0000000020008f78        0x0 /home/user/Devel/stm32/gcc-arm-none-eabi-8-2018-q4-major/bin/../lib/gcc/arm-none-eabi/8.2.1/../../../../arm-none-eabi/lib/thumb/v7e-m+fp/hard/libc_nano.a(lib_a-memcmp.o)
 .bss           0x0000000020008f78        0x0 /home/user/Devel/stm32/gcc-arm-none-eabi-8-2018-q4-major/bin/../lib/gcc/arm-none-eabi/8.2.1/../../../../arm-none-eabi/lib/thumb/v7e-m+fp/hard/libc_nano.a(lib_a-memcpy-stub.o)
 .bss           0x0000000020008f78        0x0 /home/user/Devel/stm32/gcc-arm-none-eabi-8-2018-q4-major/bin/../lib/gcc/arm-none-eabi/8.2.1/../../../../arm-none-eabi/lib/thumb/v7e-m+fp/hard/libc_nano.a(lib_a-memmove.o)
 .bss           0x0000000020008f78        0x0 /home/user/Devel/stm32/gcc-arm-none-eabi-8-2018-q4-major/bin/../lib/gcc/arm-none-eabi/8.2.1/../../../../arm-none-eabi/lib/thumb/v7e-m+fp/hard/libc_nano.a(lib_a-memset.o)
 .bss           0x0000000020008f78        0x0 /home/user/Devel/stm32/gcc-arm-none-eabi-8-2018-q4-major/bin/../lib/gcc/arm-none-eabi/8.2.1/../../../../arm-none-eabi/lib/thumb/v7e-m+fp/hard/libc_nano.a(lib_a-nano-vfprintf.o)
 .bss           0x0000000020008f78        0x0 /home/user/Devel/stm32/gcc-arm-none-eabi-8-2018-q4-major/bin/../lib/gcc/arm-none-eabi/8.2.1/../../../../arm-none-eabi/lib/thumb/v7e-m+fp/hard/libc_nano.a(lib_a-nano-vfprintf_i.o)
 .bss           0x0000000020008f78        0x0 /home/user/Devel/stm32/gcc-arm-none-eabi-8-2018-q4-major/bin/../lib/gcc/arm-none-eabi/8.2.1/../../../../arm-none-eabi/lib/thumb/v7e-m+fp/hard/libc_nano.a(lib_a-strchr.o)
 .bss           0x0000000020008f78        0x0 /home/user/Devel/stm32/gcc-arm-none-eabi-8-2018-q4-major/bin/../lib/gcc/arm-none-eabi/8.2.1/../../../../arm-none-eabi/lib/thumb/v7e-m+fp/hard/libc_nano.a(lib_a-strcmp.o)
 .bss           0x0000000020008f78        0x0 /home/user/Devel/stm32/gcc-arm-none-eabi-8-2018-q4-major/bin/../lib/gcc/arm-none-eabi/8.2.1/../../../../arm-none-eabi/lib/thumb/v7e-m+fp/hard/libc_nano.a(lib_a-strcpy.o)
 .bss           0x0000000020008f78        0x0 /home/user/Devel/stm32/gcc-arm-none-eabi-8-2018-q4-major/bin/../lib/gcc/arm-none-eabi/8.2.1/../../../../arm-none-eabi/lib/thumb/v7e-m+fp/hard/libc_nano.a(lib_a-strlen.o)
 .bss           0x0000000020008f78        0x0 /home/user/Devel/stm32/gcc-arm-none-eabi-8-2018-q4-major/bin/../lib/gcc/arm-none-eabi/8.2.1/../../../../arm-none-eabi/lib/thumb/v7e-m+fp/hard/libc_nano.a(lib_a-strstr.o)
 .bss           0x0000000020008f78        0x0 /home/user/Devel/stm32/gcc-arm-none-eabi-8-2018-q4-major/bin/../lib/gcc/arm-none-eabi/8.2.1/../../../../arm-none-eabi/lib/thumb/v7e-m+fp/hard/libc_nano.a(lib_a-wbuf.o)
 .bss           0x0000000020008f78        0x0 /home/user/Devel/stm32/gcc-arm-none-eabi-8-2018-q4-major/bin/../lib/gcc/arm-none-eabi/8.2.1/../../../../arm-none-eabi/lib/thumb/v7e-m+fp/hard/libc_nano.a(lib_a-wsetup.o)
 .bss           0x0000000020008f78        0x0 /home/user/Devel/stm32/gcc-arm-none-eabi-8-2018-q4-major/bin/../lib/gcc/arm-none-eabi/8.2.1/../../../../arm-none-eabi/lib/thumb/v7e-m+fp/hard/libc_nano.a(lib_a-abort.o)
 .bss           0x0000000020008f78        0x0 /home/user/Devel/stm32/gcc-arm-none-eabi-8-2018-q4-major/bin/../lib/gcc/arm-none-eabi/8.2.1/../../../../arm-none-eabi/lib/thumb/v7e-m+fp/hard/libc_nano.a(lib_a-fflush.o)
 .bss           0x0000000020008f78        0x0 /home/user/Devel/stm32/gcc-arm-none-eabi-8-2018-q4-major/bin/../lib/gcc/arm-none-eabi/8.2.1/../../../../arm-none-eabi/lib/thumb/v7e-m+fp/hard/libc_nano.a(lib_a-findfp.o)
 .bss           0x0000000020008f78        0x0 /home/user/Devel/stm32/gcc-arm-none-eabi-8-2018-q4-major/bin/../lib/gcc/arm-none-eabi/8.2.1/../../../../arm-none-eabi/lib/thumb/v7e-m+fp/hard/libc_nano.a(lib_a-fvwrite.o)
 .bss           0x0000000020008f78        0x0 /home/user/Devel/stm32/gcc-arm-none-eabi-8-2018-q4-major/bin/../lib/gcc/arm-none-eabi/8.2.1/../../../../arm-none-eabi/lib/thumb/v7e-m+fp/hard/libc_nano.a(lib_a-fwalk.o)
 .bss           0x0000000020008f78        0x0 /home/user/Devel/stm32/gcc-arm-none-eabi-8-2018-q4-major/bin/../lib/gcc/arm-none-eabi/8.2.1/../../../../arm-none-eabi/lib/thumb/v7e-m+fp/hard/libc_nano.a(lib_a-lock.o)
 .bss           0x0000000020008f78        0x0 /home/user/Devel/stm32/gcc-arm-none-eabi-8-2018-q4-major/bin/../lib/gcc/arm-none-eabi/8.2.1/../../../../arm-none-eabi/lib/thumb/v7e-m+fp/hard/libc_nano.a(lib_a-makebuf.o)
 .bss           0x0000000020008f78        0x0 /home/user/Devel/stm32/gcc-arm-none-eabi-8-2018-q4-major/bin/../lib/gcc/arm-none-eabi/8.2.1/../../../../arm-none-eabi/lib/thumb/v7e-m+fp/hard/libc_nano.a(lib_a-memchr.o)
 .bss           0x0000000020008f78        0x0 /home/user/Devel/stm32/gcc-arm-none-eabi-8-2018-q4-major/bin/../lib/gcc/arm-none-eabi/8.2.1/../../../../arm-none-eabi/lib/thumb/v7e-m+fp/hard/libc_nano.a(lib_a-nano-freer.o)
 .bss           0x0000000020008f78        0x0 /home/user/Devel/stm32/gcc-arm-none-eabi-8-2018-q4-major/bin/../lib/gcc/arm-none-eabi/8.2.1/../../../../arm-none-eabi/lib/thumb/v7e-m+fp/hard/libc_nano.a(lib_a-nano-mallocr.o)
 .bss.__malloc_free_list
                0x0000000020008f78        0x4 /home/user/Devel/stm32/gcc-arm-none-eabi-8-2018-q4-major/bin/../lib/gcc/arm-none-eabi/8.2.1/../../../../arm-none-eabi/lib/thumb/v7e-m+fp/hard/libc_nano.a(lib_a-nano-mallocr.o)
                0x0000000020008f78                __malloc_free_list
 .bss.__malloc_sbrk_start
                0x0000000020008f7c        0x4 /home/user/Devel/stm32/gcc-arm-none-eabi-8-2018-q4-major/bin/../lib/gcc/arm-none-eabi/8.2.1/../../../../arm-none-eabi/lib/thumb/v7e-m+fp/hard/libc_nano.a(lib_a-nano-mallocr.o)
                0x0000000020008f7c                __malloc_sbrk_start
 .bss           0x0000000020008f80        0x0 /home/user/Devel/stm32/gcc-arm-none-eabi-8-2018-q4-major/bin/../lib/gcc/arm-none-eabi/8.2.1/../../../../arm-none-eabi/lib/thumb/v7e-m+fp/hard/libc_nano.a(lib_a-nano-reallocr.o)
 .bss           0x0000000020008f80        0x0 /home/user/Devel/stm32/gcc-arm-none-eabi-8-2018-q4-major/bin/../lib/gcc/arm-none-eabi/8.2.1/../../../../arm-none-eabi/lib/thumb/v7e-m+fp/hard/libc_nano.a(lib_a-sbrkr.o)
 .bss           0x0000000020008f80        0x0 /home/user/Devel/stm32/gcc-arm-none-eabi-8-2018-q4-major/bin/../lib/gcc/arm-none-eabi/8.2.1/../../../../arm-none-eabi/lib/thumb/v7e-m+fp/hard/libc_nano.a(lib_a-signal.o)
 .bss           0x0000000020008f80        0x0 /home/user/Devel/stm32/gcc-arm-none-eabi-8-2018-q4-major/bin/../lib/gcc/arm-none-eabi/8.2.1/../../../../arm-none-eabi/lib/thumb/v7e-m+fp/hard/libc_nano.a(lib_a-signalr.o)
 .bss           0x0000000020008f80        0x0 /home/user/Devel/stm32/gcc-arm-none-eabi-8-2018-q4-major/bin/../lib/gcc/arm-none-eabi/8.2.1/../../../../arm-none-eabi/lib/thumb/v7e-m+fp/hard/libc_nano.a(lib_a-stdio.o)
 .bss           0x0000000020008f80        0x0 /home/user/Devel/stm32/gcc-arm-none-eabi-8-2018-q4-major/bin/../lib/gcc/arm-none-eabi/8.2.1/../../../../arm-none-eabi/lib/thumb/v7e-m+fp/hard/libc_nano.a(lib_a-writer.o)
 .bss           0x0000000020008f80        0x0 /home/user/Devel/stm32/gcc-arm-none-eabi-8-2018-q4-major/bin/../lib/gcc/arm-none-eabi/8.2.1/../../../../arm-none-eabi/lib/thumb/v7e-m+fp/hard/libc_nano.a(lib_a-closer.o)
 .bss           0x0000000020008f80        0x0 /home/user/Devel/stm32/gcc-arm-none-eabi-8-2018-q4-major/bin/../lib/gcc/arm-none-eabi/8.2.1/../../../../arm-none-eabi/lib/thumb/v7e-m+fp/hard/libc_nano.a(lib_a-fstatr.o)
 .bss           0x0000000020008f80        0x0 /home/user/Devel/stm32/gcc-arm-none-eabi-8-2018-q4-major/bin/../lib/gcc/arm-none-eabi/8.2.1/../../../../arm-none-eabi/lib/thumb/v7e-m+fp/hard/libc_nano.a(lib_a-isattyr.o)
 .bss           0x0000000020008f80        0x0 /home/user/Devel/stm32/gcc-arm-none-eabi-8-2018-q4-major/bin/../lib/gcc/arm-none-eabi/8.2.1/../../../../arm-none-eabi/lib/thumb/v7e-m+fp/hard/libc_nano.a(lib_a-lseekr.o)
 .bss           0x0000000020008f80        0x0 /home/user/Devel/stm32/gcc-arm-none-eabi-8-2018-q4-major/bin/../lib/gcc/arm-none-eabi/8.2.1/../../../../arm-none-eabi/lib/thumb/v7e-m+fp/hard/libc_nano.a(lib_a-mlock.o)
 .bss           0x0000000020008f80        0x0 /home/user/Devel/stm32/gcc-arm-none-eabi-8-2018-q4-major/bin/../lib/gcc/arm-none-eabi/8.2.1/../../../../arm-none-eabi/lib/thumb/v7e-m+fp/hard/libc_nano.a(lib_a-nano-msizer.o)
 .bss           0x0000000020008f80        0x0 /home/user/Devel/stm32/gcc-arm-none-eabi-8-2018-q4-major/bin/../lib/gcc/arm-none-eabi/8.2.1/../../../../arm-none-eabi/lib/thumb/v7e-m+fp/hard/libc_nano.a(lib_a-readr.o)
 .bss           0x0000000020008f80        0x0 /home/user/Devel/stm32/gcc-arm-none-eabi-8-2018-q4-major/bin/../lib/gcc/arm-none-eabi/8.2.1/../../../../arm-none-eabi/lib/thumb/v7e-m+fp/hard/libc_nano.a(lib_a-reent.o)
 .bss           0x0000000020008f80        0x0 /home/user/Devel/stm32/gcc-arm-none-eabi-8-2018-q4-major/bin/../lib/gcc/arm-none-eabi/8.2.1/../../../../arm-none-eabi/lib/thumb/v7e-m+fp/hard/libnosys.a(close.o)
 .bss           0x0000000020008f80        0x0 /home/user/Devel/stm32/gcc-arm-none-eabi-8-2018-q4-major/bin/../lib/gcc/arm-none-eabi/8.2.1/../../../../arm-none-eabi/lib/thumb/v7e-m+fp/hard/libnosys.a(fstat.o)
 .bss           0x0000000020008f80        0x0 /home/user/Devel/stm32/gcc-arm-none-eabi-8-2018-q4-major/bin/../lib/gcc/arm-none-eabi/8.2.1/../../../../arm-none-eabi/lib/thumb/v7e-m+fp/hard/libnosys.a(getpid.o)
 .bss           0x0000000020008f80        0x0 /home/user/Devel/stm32/gcc-arm-none-eabi-8-2018-q4-major/bin/../lib/gcc/arm-none-eabi/8.2.1/../../../../arm-none-eabi/lib/thumb/v7e-m+fp/hard/libnosys.a(isatty.o)
 .bss           0x0000000020008f80        0x0 /home/user/Devel/stm32/gcc-arm-none-eabi-8-2018-q4-major/bin/../lib/gcc/arm-none-eabi/8.2.1/../../../../arm-none-eabi/lib/thumb/v7e-m+fp/hard/libnosys.a(kill.o)
 .bss           0x0000000020008f80        0x0 /home/user/Devel/stm32/gcc-arm-none-eabi-8-2018-q4-major/bin/../lib/gcc/arm-none-eabi/8.2.1/../../../../arm-none-eabi/lib/thumb/v7e-m+fp/hard/libnosys.a(lseek.o)
 .bss           0x0000000020008f80        0x0 /home/user/Devel/stm32/gcc-arm-none-eabi-8-2018-q4-major/bin/../lib/gcc/arm-none-eabi/8.2.1/../../../../arm-none-eabi/lib/thumb/v7e-m+fp/hard/libnosys.a(read.o)
 .bss           0x0000000020008f80        0x0 /home/user/Devel/stm32/gcc-arm-none-eabi-8-2018-q4-major/bin/../lib/gcc/arm-none-eabi/8.2.1/../../../../arm-none-eabi/lib/thumb/v7e-m+fp/hard/libnosys.a(sbrk.o)
 .bss.heap_end.5501
                0x0000000020008f80        0x4 /home/user/Devel/stm32/gcc-arm-none-eabi-8-2018-q4-major/bin/../lib/gcc/arm-none-eabi/8.2.1/../../../../arm-none-eabi/lib/thumb/v7e-m+fp/hard/libnosys.a(sbrk.o)
 .bss           0x0000000020008f84        0x0 /home/user/Devel/stm32/gcc-arm-none-eabi-8-2018-q4-major/bin/../lib/gcc/arm-none-eabi/8.2.1/../../../../arm-none-eabi/lib/thumb/v7e-m+fp/hard/libnosys.a(write.o)
 .bss           0x0000000020008f84        0x0 /home/user/Devel/stm32/gcc-arm-none-eabi-8-2018-q4-major/bin/../lib/gcc/arm-none-eabi/8.2.1/../../../../arm-none-eabi/lib/thumb/v7e-m+fp/hard/libnosys.a(_exit.o)
 *(COMMON)
 COMMON         0x0000000020008f84        0x9 /home/user/Devel/stm32/gcc-arm-none-eabi-8-2018-q4-major/bin/../lib/gcc/arm-none-eabi/8.2.1/../../../../arm-none-eabi/lib/thumb/v7e-m+fp/hard/libc_nano.a(lib_a-lock.o)
                0x0000000020008f84                __lock___atexit_recursive_mutex
                0x0000000020008f85                __lock___arc4random_mutex
                0x0000000020008f86                __lock___env_recursive_mutex
                0x0000000020008f87                __lock___sinit_recursive_mutex
                0x0000000020008f88                __lock___malloc_recursive_mutex
                0x0000000020008f89                __lock___at_quick_exit_mutex
                0x0000000020008f8a                __lock___dd_hash_mutex
                0x0000000020008f8b                __lock___tz_mutex
                0x0000000020008f8c                __lock___sfp_recursive_mutex
 *fill*         0x0000000020008f8d        0x3 
 COMMON         0x0000000020008f90        0x4 /home/user/Devel/stm32/gcc-arm-none-eabi-8-2018-q4-major/bin/../lib/gcc/arm-none-eabi/8.2.1/../../../../arm-none-eabi/lib/thumb/v7e-m+fp/hard/libc_nano.a(lib_a-reent.o)
                0x0000000020008f90                errno
                0x0000000020008f94                . = ALIGN (0x4)
                0x0000000020008f94                _ebss = .

.ccm            0x0000000010000000        0x0
                0x0000000010000000                . = ALIGN (0x4)
                0x0000000010000000                _sccm = .
 *(.ccm)
                0x0000000010000000                . = ALIGN (0x4)
                0x0000000010000000                _eccm = .

/DISCARD/
 *(.eh_frame)
                0x0000000010000000                . = ALIGN (0x4)
                0x0000000010000000                end = .
                0x0000000020030000                PROVIDE (_stack = (ORIGIN (ram) + LENGTH (ram)))
OUTPUT(.//mew.elf elf32-littlearm)

.debug_info     0x0000000000000000    0xdf354
 .debug_info    0x0000000000000000     0x12da ././mew.o
 .debug_info    0x00000000000012da       0x25 ././lvgl/porting/lv_port_disp_template.o
 .debug_info    0x00000000000012ff       0x25 ././lvgl/porting/lv_port_indev_template.o
 .debug_info    0x0000000000001324       0x25 ././lvgl/porting/lv_port_fs_template.o
 .debug_info    0x0000000000001349      0x333 ././lvgl/src/lv_misc/lv_async.o
 .debug_info    0x000000000000167c     0x1309 ././lvgl/src/lv_misc/lv_mem.o
 .debug_info    0x0000000000002985     0x1b24 ././lvgl/src/lv_misc/lv_txt.o
 .debug_info    0x00000000000044a9      0x24a ././lvgl/src/lv_misc/lv_utils.o
 .debug_info    0x00000000000046f3      0xdfe ././lvgl/src/lv_misc/lv_area.o
 .debug_info    0x00000000000054f1       0x25 ././lvgl/src/lv_misc/lv_templ.o
 .debug_info    0x0000000000005516       0x64 ././lvgl/src/lv_misc/lv_fs.o
 .debug_info    0x000000000000557a     0x1974 ././lvgl/src/lv_misc/lv_task.o
 .debug_info    0x0000000000006eee       0x64 ././lvgl/src/lv_misc/lv_log.o
 .debug_info    0x0000000000006f52     0x1daa ././lvgl/src/lv_misc/lv_ll.o
 .debug_info    0x0000000000008cfc      0xa11 ././lvgl/src/lv_misc/lv_circ.o
 .debug_info    0x000000000000970d      0x3b8 ././lvgl/src/lv_misc/lv_color.o
 .debug_info    0x0000000000009ac5      0x90d ././lvgl/src/lv_misc/lv_anim.o
 .debug_info    0x000000000000a3d2      0xaed ././lvgl/src/lv_misc/lv_math.o
 .debug_info    0x000000000000aebf     0x122e ././lvgl/src/lv_misc/lv_gc.o
 .debug_info    0x000000000000c0ed     0x2a0d ././lvgl/src/lv_core/lv_refr.o
 .debug_info    0x000000000000eafa     0x349a ././lvgl/src/lv_core/lv_group.o
 .debug_info    0x0000000000011f94     0x3ec9 ././lvgl/src/lv_core/lv_indev.o
 .debug_info    0x0000000000015e5d     0x82b9 ././lvgl/src/lv_core/lv_obj.o
 .debug_info    0x000000000001e116     0x1779 ././lvgl/src/lv_core/lv_disp.o
 .debug_info    0x000000000001f88f     0x1538 ././lvgl/src/lv_core/lv_style.o
 .debug_info    0x0000000000020dc7     0x1dfb ././lvgl/src/lv_hal/lv_hal_indev.o
 .debug_info    0x0000000000022bc2     0x2230 ././lvgl/src/lv_hal/lv_hal_disp.o
 .debug_info    0x0000000000024df2      0x19a ././lvgl/src/lv_hal/lv_hal_tick.o
 .debug_info    0x0000000000024f8c       0x25 ././lvgl/src/lv_objx/lv_objx_templ.o
 .debug_info    0x0000000000024fb1     0x3748 ././lvgl/src/lv_objx/lv_win.o
 .debug_info    0x00000000000286f9       0x64 ././lvgl/src/lv_objx/lv_calendar.o
 .debug_info    0x000000000002875d     0x2247 ././lvgl/src/lv_objx/lv_img.o
 .debug_info    0x000000000002a9a4     0x3a7a ././lvgl/src/lv_objx/lv_table.o
 .debug_info    0x000000000002e41e     0x332b ././lvgl/src/lv_objx/lv_spinbox.o
 .debug_info    0x0000000000031749     0x6f66 ././lvgl/src/lv_objx/lv_ta.o
 .debug_info    0x00000000000386af       0x64 ././lvgl/src/lv_objx/lv_preload.o
 .debug_info    0x0000000000038713     0x4dc6 ././lvgl/src/lv_objx/lv_list.o
 .debug_info    0x000000000003d4d9     0x37ca ././lvgl/src/lv_objx/lv_cont.o
 .debug_info    0x0000000000040ca3     0x2edb ././lvgl/src/lv_objx/lv_cb.o
 .debug_info    0x0000000000043b7e     0x3885 ././lvgl/src/lv_objx/lv_slider.o
 .debug_info    0x0000000000047403     0x5338 ././lvgl/src/lv_objx/lv_page.o
 .debug_info    0x000000000004c73b     0x1ee4 ././lvgl/src/lv_objx/lv_imgbtn.o
 .debug_info    0x000000000004e61f       0x64 ././lvgl/src/lv_objx/lv_chart.o
 .debug_info    0x000000000004e683     0x1f56 ././lvgl/src/lv_objx/lv_line.o
 .debug_info    0x00000000000505d9     0x2cf4 ././lvgl/src/lv_objx/lv_bar.o
 .debug_info    0x00000000000532cd     0x3d70 ././lvgl/src/lv_objx/lv_label.o
 .debug_info    0x000000000005703d     0x2554 ././lvgl/src/lv_objx/lv_led.o
 .debug_info    0x0000000000059591       0x64 ././lvgl/src/lv_objx/lv_kb.o
 .debug_info    0x00000000000595f5     0x32e0 ././lvgl/src/lv_objx/lv_sw.o
 .debug_info    0x000000000005c8d5     0x2bbb ././lvgl/src/lv_objx/lv_btn.o
 .debug_info    0x000000000005f490     0x3295 ././lvgl/src/lv_objx/lv_gauge.o
 .debug_info    0x0000000000062725     0x52f6 ././lvgl/src/lv_objx/lv_btnm.o
 .debug_info    0x0000000000067a1b     0x38e7 ././lvgl/src/lv_objx/lv_mbox.o
 .debug_info    0x000000000006b302     0x48ea ././lvgl/src/lv_objx/lv_roller.o
 .debug_info    0x000000000006fbec     0x5388 ././lvgl/src/lv_objx/lv_ddlist.o
 .debug_info    0x0000000000074f74     0x3b5c ././lvgl/src/lv_objx/lv_canvas.o
 .debug_info    0x0000000000078ad0     0x357e ././lvgl/src/lv_objx/lv_tileview.o
 .debug_info    0x000000000007c04e     0x2acb ././lvgl/src/lv_objx/lv_lmeter.o
 .debug_info    0x000000000007eb19     0x5319 ././lvgl/src/lv_objx/lv_tabview.o
 .debug_info    0x0000000000083e32     0x2618 ././lvgl/src/lv_objx/lv_arc.o
 .debug_info    0x000000000008644a     0x255c ././lvgl/src/lv_draw/lv_draw_basic.o
 .debug_info    0x00000000000889a6     0x1760 ././lvgl/src/lv_draw/lv_draw_triangle.o
 .debug_info    0x000000000008a106     0x2318 ././lvgl/src/lv_draw/lv_draw_img.o
 .debug_info    0x000000000008c41e     0x15d9 ././lvgl/src/lv_draw/lv_img_cache.o
 .debug_info    0x000000000008d9f7     0x19e3 ././lvgl/src/lv_draw/lv_draw_label.o
 .debug_info    0x000000000008f3da     0x17d9 ././lvgl/src/lv_draw/lv_draw.o
 .debug_info    0x0000000000090bb3     0x1d62 ././lvgl/src/lv_draw/lv_img_decoder.o
 .debug_info    0x0000000000092915     0x19b4 ././lvgl/src/lv_draw/lv_draw_arc.o
 .debug_info    0x00000000000942c9     0x4abd ././lvgl/src/lv_draw/lv_draw_rect.o
 .debug_info    0x0000000000098d86     0x1e6b ././lvgl/src/lv_draw/lv_draw_line.o
 .debug_info    0x000000000009abf1      0xe4b ././lvgl/src/lv_themes/lv_theme_night.o
 .debug_info    0x000000000009ba3c      0xe4b ././lvgl/src/lv_themes/lv_theme_alien.o
 .debug_info    0x000000000009c887      0xe4b ././lvgl/src/lv_themes/lv_theme_mono.o
 .debug_info    0x000000000009d6d2      0xe4b ././lvgl/src/lv_themes/lv_theme_nemo.o
 .debug_info    0x000000000009e51d     0x32f3 ././lvgl/src/lv_themes/lv_theme_material.o
 .debug_info    0x00000000000a1810     0x1aa9 ././lvgl/src/lv_themes/lv_theme.o
 .debug_info    0x00000000000a32b9      0xe4b ././lvgl/src/lv_themes/lv_theme_default.o
 .debug_info    0x00000000000a4104      0xe4b ././lvgl/src/lv_themes/lv_theme_templ.o
 .debug_info    0x00000000000a4f4f      0xe4b ././lvgl/src/lv_themes/lv_theme_zen.o
 .debug_info    0x00000000000a5d9a      0xf24 ././lvgl/src/lv_font/lv_font_roboto_28.o
 .debug_info    0x00000000000a6cbe      0xf24 ././lvgl/src/lv_font/lv_font_roboto_22.o
 .debug_info    0x00000000000a7be2     0x12c8 ././lvgl/src/lv_font/lv_font_roboto_12.o
 .debug_info    0x00000000000a8eaa      0xf24 ././lvgl/src/lv_font/lv_font_unscii_8.o
 .debug_info    0x00000000000a9dce      0xcfc ././lvgl/src/lv_font/lv_font_fmt_txt.o
 .debug_info    0x00000000000aaaca      0xf24 ././lvgl/src/lv_font/lv_font_roboto_16.o
 .debug_info    0x00000000000ab9ee      0x3f1 ././lvgl/src/lv_font/lv_font.o
 .debug_info    0x00000000000abddf      0xd86 ././app/pwd_generator/mew_xor_algo.o
 .debug_info    0x00000000000acb65      0xc07 ././app/pwd_generator/mew_passgen.o
 .debug_info    0x00000000000ad76c     0x5065 ././app/qr_code/qrcodegen.o
 .debug_info    0x00000000000b27d1     0x128d ././app/packet_parser/parser.o
 .debug_info    0x00000000000b3a5e     0x1326 ././drivers/i2c/i2c.o
 .debug_info    0x00000000000b4d84     0x182a ././drivers/bluetooth/bt_usart.o
 .debug_info    0x00000000000b65ae      0xecd ././drivers/duart/duart.o
 .debug_info    0x00000000000b747b     0x1b8d ././drivers/display/ts_tsc2007.o
 .debug_info    0x00000000000b9008     0x3267 ././drivers/display/display.o
 .debug_info    0x00000000000bc26f     0x18af ././drivers/usb/mew_usb_hid.o
 .debug_info    0x00000000000bdb1e     0x185e ././drivers/spi_flash/flash.o
 .debug_info    0x00000000000bf37c      0xacf ././drivers/spi_flash/w25n01gvzeig.o
 .debug_info    0x00000000000bfe4b     0x159b ././drivers/flash/otp_storage.o
 .debug_info    0x00000000000c13e6     0x12f6 ././drivers/hw_crypt/aes256.o
 .debug_info    0x00000000000c26dc      0xe1f ././drivers/hw_crypt/P256-cortex-ecdh.o
 .debug_info    0x00000000000c34fb      0xee2 ././drivers/hw_crypt/secure_eeprom.o
 .debug_info    0x00000000000c43dd      0xa87 ././drivers/hw_crypt/sha2_256.o
 .debug_info    0x00000000000c4e64     0x11fb ././drivers/system/systick.o
 .debug_info    0x00000000000c605f      0xb7e ././drivers/system/system.o
 .debug_info    0x00000000000c6bdd      0xbbe ././drivers/system/random.o
 .debug_info    0x00000000000c779b     0x10d2 ././drivers/system/clock.o
 .debug_info    0x00000000000c886d      0xb80 ././debug.o
 .debug_info    0x00000000000c93ed      0xf64 ././ui/ui_main_win.o
 .debug_info    0x00000000000ca351     0x13f6 ././ui/qrcode_ui.o
 .debug_info    0x00000000000cb747     0x24f6 ././ui/ui_win_startup_1.o
 .debug_info    0x00000000000cdc3d     0x1b32 ././ui/ui_header.o
 .debug_info    0x00000000000cf76f     0x18b7 ././ui/ui_msgbox.o
 .debug_info    0x00000000000d1026     0x12cc ././ui/mew_font_ru_bold_title.o
 .debug_info    0x00000000000d22f2     0x11cd ././ui/ui_lhandlers.o
 .debug_info    0x00000000000d34bf     0x1103 ././ui/mew_logo.o
 .debug_info    0x00000000000d45c2     0x131d ././ui/mew_font_ru_bold.o
 .debug_info    0x00000000000d58df      0x959 /home/user/Devel/stm32/libopencm3/lib/libopencm3_stm32f4.a(rcc.o)
 .debug_info    0x00000000000d6238      0x109 /home/user/Devel/stm32/libopencm3/lib/libopencm3_stm32f4.a(crc_common_all.o)
 .debug_info    0x00000000000d6341      0xbb3 /home/user/Devel/stm32/libopencm3/lib/libopencm3_stm32f4.a(dma_common_f24.o)
 .debug_info    0x00000000000d6ef4      0x22c /home/user/Devel/stm32/libopencm3/lib/libopencm3_stm32f4.a(gpio_common_all.o)
 .debug_info    0x00000000000d7120      0x1eb /home/user/Devel/stm32/libopencm3/lib/libopencm3_stm32f4.a(gpio_common_f0234.o)
 .debug_info    0x00000000000d730b      0xab7 /home/user/Devel/stm32/libopencm3/lib/libopencm3_stm32f4.a(i2c_common_v1.o)
 .debug_info    0x00000000000d7dc2      0x9c1 /home/user/Devel/stm32/libopencm3/lib/libopencm3_stm32f4.a(spi_common_all.o)
 .debug_info    0x00000000000d8783      0x148 /home/user/Devel/stm32/libopencm3/lib/libopencm3_stm32f4.a(spi_common_l1f124.o)
 .debug_info    0x00000000000d88cb      0x4b2 /home/user/Devel/stm32/libopencm3/lib/libopencm3_stm32f4.a(usart_common_all.o)
 .debug_info    0x00000000000d8d7d      0x17a /home/user/Devel/stm32/libopencm3/lib/libopencm3_stm32f4.a(usart_common_f124.o)
 .debug_info    0x00000000000d8ef7      0x11f /home/user/Devel/stm32/libopencm3/lib/libopencm3_stm32f4.a(flash_common_f234.o)
 .debug_info    0x00000000000d9016      0x50a /home/user/Devel/stm32/libopencm3/lib/libopencm3_stm32f4.a(flash_common_f24.o)
 .debug_info    0x00000000000d9520      0x204 /home/user/Devel/stm32/libopencm3/lib/libopencm3_stm32f4.a(exti_common_all.o)
 .debug_info    0x00000000000d9724      0x828 /home/user/Devel/stm32/libopencm3/lib/libopencm3_stm32f4.a(rcc_common_all.o)
 .debug_info    0x00000000000d9f4c      0xdb1 /home/user/Devel/stm32/libopencm3/lib/libopencm3_stm32f4.a(usb.o)
 .debug_info    0x00000000000dacfd     0x1449 /home/user/Devel/stm32/libopencm3/lib/libopencm3_stm32f4.a(usb_standard.o)
 .debug_info    0x00000000000dc146      0xed8 /home/user/Devel/stm32/libopencm3/lib/libopencm3_stm32f4.a(usb_control.o)
 .debug_info    0x00000000000dd01e      0xdf7 /home/user/Devel/stm32/libopencm3/lib/libopencm3_stm32f4.a(usb_f107.o)
 .debug_info    0x00000000000dde15      0x2b7 /home/user/Devel/stm32/libopencm3/lib/libopencm3_stm32f4.a(vector.o)
 .debug_info    0x00000000000de0cc      0x255 /home/user/Devel/stm32/libopencm3/lib/libopencm3_stm32f4.a(systick.o)
 .debug_info    0x00000000000de321      0x214 /home/user/Devel/stm32/libopencm3/lib/libopencm3_stm32f4.a(nvic.o)
 .debug_info    0x00000000000de535       0xc2 /home/user/Devel/stm32/libopencm3/lib/libopencm3_stm32f4.a(pwr.o)
 .debug_info    0x00000000000de5f7      0xd5d /home/user/Devel/stm32/libopencm3/lib/libopencm3_stm32f4.a(usb_fx07_common.o)

.debug_abbrev   0x0000000000000000    0x19ca0
 .debug_abbrev  0x0000000000000000      0x2a2 ././mew.o
 .debug_abbrev  0x00000000000002a2       0x1b ././lvgl/porting/lv_port_disp_template.o
 .debug_abbrev  0x00000000000002bd       0x1b ././lvgl/porting/lv_port_indev_template.o
 .debug_abbrev  0x00000000000002d8       0x1b ././lvgl/porting/lv_port_fs_template.o
 .debug_abbrev  0x00000000000002f3      0x164 ././lvgl/src/lv_misc/lv_async.o
 .debug_abbrev  0x0000000000000457      0x49f ././lvgl/src/lv_misc/lv_mem.o
 .debug_abbrev  0x00000000000008f6      0x4c2 ././lvgl/src/lv_misc/lv_txt.o
 .debug_abbrev  0x0000000000000db8      0x10d ././lvgl/src/lv_misc/lv_utils.o
 .debug_abbrev  0x0000000000000ec5      0x2c0 ././lvgl/src/lv_misc/lv_area.o
 .debug_abbrev  0x0000000000001185       0x1b ././lvgl/src/lv_misc/lv_templ.o
 .debug_abbrev  0x00000000000011a0       0x26 ././lvgl/src/lv_misc/lv_fs.o
 .debug_abbrev  0x00000000000011c6      0x411 ././lvgl/src/lv_misc/lv_task.o
 .debug_abbrev  0x00000000000015d7       0x26 ././lvgl/src/lv_misc/lv_log.o
 .debug_abbrev  0x00000000000015fd      0x440 ././lvgl/src/lv_misc/lv_ll.o
 .debug_abbrev  0x0000000000001a3d      0x1ee ././lvgl/src/lv_misc/lv_circ.o
 .debug_abbrev  0x0000000000001c2b      0x18e ././lvgl/src/lv_misc/lv_color.o
 .debug_abbrev  0x0000000000001db9      0x160 ././lvgl/src/lv_misc/lv_anim.o
 .debug_abbrev  0x0000000000001f19      0x232 ././lvgl/src/lv_misc/lv_math.o
 .debug_abbrev  0x000000000000214b      0x1c2 ././lvgl/src/lv_misc/lv_gc.o
 .debug_abbrev  0x000000000000230d      0x576 ././lvgl/src/lv_core/lv_refr.o
 .debug_abbrev  0x0000000000002883      0x573 ././lvgl/src/lv_core/lv_group.o
 .debug_abbrev  0x0000000000002df6      0x5e3 ././lvgl/src/lv_core/lv_indev.o
 .debug_abbrev  0x00000000000033d9      0x697 ././lvgl/src/lv_core/lv_obj.o
 .debug_abbrev  0x0000000000003a70      0x2d1 ././lvgl/src/lv_core/lv_disp.o
 .debug_abbrev  0x0000000000003d41      0x33d ././lvgl/src/lv_core/lv_style.o
 .debug_abbrev  0x000000000000407e      0x2e7 ././lvgl/src/lv_hal/lv_hal_indev.o
 .debug_abbrev  0x0000000000004365      0x4eb ././lvgl/src/lv_hal/lv_hal_disp.o
 .debug_abbrev  0x0000000000004850      0x110 ././lvgl/src/lv_hal/lv_hal_tick.o
 .debug_abbrev  0x0000000000004960       0x1b ././lvgl/src/lv_objx/lv_objx_templ.o
 .debug_abbrev  0x000000000000497b      0x54c ././lvgl/src/lv_objx/lv_win.o
 .debug_abbrev  0x0000000000004ec7       0x26 ././lvgl/src/lv_objx/lv_calendar.o
 .debug_abbrev  0x0000000000004eed      0x493 ././lvgl/src/lv_objx/lv_img.o
 .debug_abbrev  0x0000000000005380      0x5e6 ././lvgl/src/lv_objx/lv_table.o
 .debug_abbrev  0x0000000000005966      0x4bd ././lvgl/src/lv_objx/lv_spinbox.o
 .debug_abbrev  0x0000000000005e23      0x690 ././lvgl/src/lv_objx/lv_ta.o
 .debug_abbrev  0x00000000000064b3       0x26 ././lvgl/src/lv_objx/lv_preload.o
 .debug_abbrev  0x00000000000064d9      0x5c3 ././lvgl/src/lv_objx/lv_list.o
 .debug_abbrev  0x0000000000006a9c      0x525 ././lvgl/src/lv_objx/lv_cont.o
 .debug_abbrev  0x0000000000006fc1      0x545 ././lvgl/src/lv_objx/lv_cb.o
 .debug_abbrev  0x0000000000007506      0x51a ././lvgl/src/lv_objx/lv_slider.o
 .debug_abbrev  0x0000000000007a20      0x601 ././lvgl/src/lv_objx/lv_page.o
 .debug_abbrev  0x0000000000008021      0x495 ././lvgl/src/lv_objx/lv_imgbtn.o
 .debug_abbrev  0x00000000000084b6       0x26 ././lvgl/src/lv_objx/lv_chart.o
 .debug_abbrev  0x00000000000084dc      0x443 ././lvgl/src/lv_objx/lv_line.o
 .debug_abbrev  0x000000000000891f      0x5a8 ././lvgl/src/lv_objx/lv_bar.o
 .debug_abbrev  0x0000000000008ec7      0x62a ././lvgl/src/lv_objx/lv_label.o
 .debug_abbrev  0x00000000000094f1      0x4c2 ././lvgl/src/lv_objx/lv_led.o
 .debug_abbrev  0x00000000000099b3       0x26 ././lvgl/src/lv_objx/lv_kb.o
 .debug_abbrev  0x00000000000099d9      0x4c8 ././lvgl/src/lv_objx/lv_sw.o
 .debug_abbrev  0x0000000000009ea1      0x575 ././lvgl/src/lv_objx/lv_btn.o
 .debug_abbrev  0x000000000000a416      0x4ce ././lvgl/src/lv_objx/lv_gauge.o
 .debug_abbrev  0x000000000000a8e4      0x64e ././lvgl/src/lv_objx/lv_btnm.o
 .debug_abbrev  0x000000000000af32      0x5ac ././lvgl/src/lv_objx/lv_mbox.o
 .debug_abbrev  0x000000000000b4de      0x5f7 ././lvgl/src/lv_objx/lv_roller.o
 .debug_abbrev  0x000000000000bad5      0x61f ././lvgl/src/lv_objx/lv_ddlist.o
 .debug_abbrev  0x000000000000c0f4      0x54f ././lvgl/src/lv_objx/lv_canvas.o
 .debug_abbrev  0x000000000000c643      0x545 ././lvgl/src/lv_objx/lv_tileview.o
 .debug_abbrev  0x000000000000cb88      0x4d8 ././lvgl/src/lv_objx/lv_lmeter.o
 .debug_abbrev  0x000000000000d060      0x5b7 ././lvgl/src/lv_objx/lv_tabview.o
 .debug_abbrev  0x000000000000d617      0x4a9 ././lvgl/src/lv_objx/lv_arc.o
 .debug_abbrev  0x000000000000dac0      0x4b7 ././lvgl/src/lv_draw/lv_draw_basic.o
 .debug_abbrev  0x000000000000df77      0x390 ././lvgl/src/lv_draw/lv_draw_triangle.o
 .debug_abbrev  0x000000000000e307      0x54a ././lvgl/src/lv_draw/lv_draw_img.o
 .debug_abbrev  0x000000000000e851      0x2e6 ././lvgl/src/lv_draw/lv_img_cache.o
 .debug_abbrev  0x000000000000eb37      0x3a2 ././lvgl/src/lv_draw/lv_draw_label.o
 .debug_abbrev  0x000000000000eed9      0x34f ././lvgl/src/lv_draw/lv_draw.o
 .debug_abbrev  0x000000000000f228      0x4d3 ././lvgl/src/lv_draw/lv_img_decoder.o
 .debug_abbrev  0x000000000000f6fb      0x3e6 ././lvgl/src/lv_draw/lv_draw_arc.o
 .debug_abbrev  0x000000000000fae1      0x467 ././lvgl/src/lv_draw/lv_draw_rect.o
 .debug_abbrev  0x000000000000ff48      0x431 ././lvgl/src/lv_draw/lv_draw_line.o
 .debug_abbrev  0x0000000000010379      0x1b0 ././lvgl/src/lv_themes/lv_theme_night.o
 .debug_abbrev  0x0000000000010529      0x1b0 ././lvgl/src/lv_themes/lv_theme_alien.o
 .debug_abbrev  0x00000000000106d9      0x1b0 ././lvgl/src/lv_themes/lv_theme_mono.o
 .debug_abbrev  0x0000000000010889      0x1b0 ././lvgl/src/lv_themes/lv_theme_nemo.o
 .debug_abbrev  0x0000000000010a39      0x426 ././lvgl/src/lv_themes/lv_theme_material.o
 .debug_abbrev  0x0000000000010e5f      0x28b ././lvgl/src/lv_themes/lv_theme.o
 .debug_abbrev  0x00000000000110ea      0x1b0 ././lvgl/src/lv_themes/lv_theme_default.o
 .debug_abbrev  0x000000000001129a      0x1b0 ././lvgl/src/lv_themes/lv_theme_templ.o
 .debug_abbrev  0x000000000001144a      0x1b0 ././lvgl/src/lv_themes/lv_theme_zen.o
 .debug_abbrev  0x00000000000115fa      0x1b0 ././lvgl/src/lv_font/lv_font_roboto_28.o
 .debug_abbrev  0x00000000000117aa      0x1b0 ././lvgl/src/lv_font/lv_font_roboto_22.o
 .debug_abbrev  0x000000000001195a      0x20b ././lvgl/src/lv_font/lv_font_roboto_12.o
 .debug_abbrev  0x0000000000011b65      0x1b0 ././lvgl/src/lv_font/lv_font_unscii_8.o
 .debug_abbrev  0x0000000000011d15      0x2d7 ././lvgl/src/lv_font/lv_font_fmt_txt.o
 .debug_abbrev  0x0000000000011fec      0x1b0 ././lvgl/src/lv_font/lv_font_roboto_16.o
 .debug_abbrev  0x000000000001219c      0x18a ././lvgl/src/lv_font/lv_font.o
 .debug_abbrev  0x0000000000012326      0x304 ././app/pwd_generator/mew_xor_algo.o
 .debug_abbrev  0x000000000001262a      0x2a7 ././app/pwd_generator/mew_passgen.o
 .debug_abbrev  0x00000000000128d1      0x5cb ././app/qr_code/qrcodegen.o
 .debug_abbrev  0x0000000000012e9c      0x398 ././app/packet_parser/parser.o
 .debug_abbrev  0x0000000000013234      0x2c1 ././drivers/i2c/i2c.o
 .debug_abbrev  0x00000000000134f5      0x401 ././drivers/bluetooth/bt_usart.o
 .debug_abbrev  0x00000000000138f6      0x300 ././drivers/duart/duart.o
 .debug_abbrev  0x0000000000013bf6      0x33f ././drivers/display/ts_tsc2007.o
 .debug_abbrev  0x0000000000013f35      0x3f2 ././drivers/display/display.o
 .debug_abbrev  0x0000000000014327      0x3c4 ././drivers/usb/mew_usb_hid.o
 .debug_abbrev  0x00000000000146eb      0x333 ././drivers/spi_flash/flash.o
 .debug_abbrev  0x0000000000014a1e      0x224 ././drivers/spi_flash/w25n01gvzeig.o
 .debug_abbrev  0x0000000000014c42      0x2e5 ././drivers/flash/otp_storage.o
 .debug_abbrev  0x0000000000014f27      0x24f ././drivers/hw_crypt/aes256.o
 .debug_abbrev  0x0000000000015176      0x27d ././drivers/hw_crypt/P256-cortex-ecdh.o
 .debug_abbrev  0x00000000000153f3      0x276 ././drivers/hw_crypt/secure_eeprom.o
 .debug_abbrev  0x0000000000015669      0x208 ././drivers/hw_crypt/sha2_256.o
 .debug_abbrev  0x0000000000015871      0x2c0 ././drivers/system/systick.o
 .debug_abbrev  0x0000000000015b31      0x235 ././drivers/system/system.o
 .debug_abbrev  0x0000000000015d66      0x25a ././drivers/system/random.o
 .debug_abbrev  0x0000000000015fc0      0x211 ././drivers/system/clock.o
 .debug_abbrev  0x00000000000161d1      0x268 ././debug.o
 .debug_abbrev  0x0000000000016439      0x1f1 ././ui/ui_main_win.o
 .debug_abbrev  0x000000000001662a      0x321 ././ui/qrcode_ui.o
 .debug_abbrev  0x000000000001694b      0x3d6 ././ui/ui_win_startup_1.o
 .debug_abbrev  0x0000000000016d21      0x2f3 ././ui/ui_header.o
 .debug_abbrev  0x0000000000017014      0x31b ././ui/ui_msgbox.o
 .debug_abbrev  0x000000000001732f      0x20f ././ui/mew_font_ru_bold_title.o
 .debug_abbrev  0x000000000001753e      0x266 ././ui/ui_lhandlers.o
 .debug_abbrev  0x00000000000177a4      0x1f9 ././ui/mew_logo.o
 .debug_abbrev  0x000000000001799d      0x20f ././ui/mew_font_ru_bold.o
 .debug_abbrev  0x0000000000017bac      0x217 /home/user/Devel/stm32/libopencm3/lib/libopencm3_stm32f4.a(rcc.o)
 .debug_abbrev  0x0000000000017dc3       0xa4 /home/user/Devel/stm32/libopencm3/lib/libopencm3_stm32f4.a(crc_common_all.o)
 .debug_abbrev  0x0000000000017e67      0x189 /home/user/Devel/stm32/libopencm3/lib/libopencm3_stm32f4.a(dma_common_f24.o)
 .debug_abbrev  0x0000000000017ff0      0x10e /home/user/Devel/stm32/libopencm3/lib/libopencm3_stm32f4.a(gpio_common_all.o)
 .debug_abbrev  0x00000000000180fe       0xb7 /home/user/Devel/stm32/libopencm3/lib/libopencm3_stm32f4.a(gpio_common_f0234.o)
 .debug_abbrev  0x00000000000181b5      0x27a /home/user/Devel/stm32/libopencm3/lib/libopencm3_stm32f4.a(i2c_common_v1.o)
 .debug_abbrev  0x000000000001842f      0x1aa /home/user/Devel/stm32/libopencm3/lib/libopencm3_stm32f4.a(spi_common_all.o)
 .debug_abbrev  0x00000000000185d9       0xd3 /home/user/Devel/stm32/libopencm3/lib/libopencm3_stm32f4.a(spi_common_l1f124.o)
 .debug_abbrev  0x00000000000186ac      0x10f /home/user/Devel/stm32/libopencm3/lib/libopencm3_stm32f4.a(usart_common_all.o)
 .debug_abbrev  0x00000000000187bb       0x8e /home/user/Devel/stm32/libopencm3/lib/libopencm3_stm32f4.a(usart_common_f124.o)
 .debug_abbrev  0x0000000000018849       0x8a /home/user/Devel/stm32/libopencm3/lib/libopencm3_stm32f4.a(flash_common_f234.o)
 .debug_abbrev  0x00000000000188d3      0x131 /home/user/Devel/stm32/libopencm3/lib/libopencm3_stm32f4.a(flash_common_f24.o)
 .debug_abbrev  0x0000000000018a04       0xe5 /home/user/Devel/stm32/libopencm3/lib/libopencm3_stm32f4.a(exti_common_all.o)
 .debug_abbrev  0x0000000000018ae9      0x105 /home/user/Devel/stm32/libopencm3/lib/libopencm3_stm32f4.a(rcc_common_all.o)
 .debug_abbrev  0x0000000000018bee      0x1f2 /home/user/Devel/stm32/libopencm3/lib/libopencm3_stm32f4.a(usb.o)
 .debug_abbrev  0x0000000000018de0      0x3da /home/user/Devel/stm32/libopencm3/lib/libopencm3_stm32f4.a(usb_standard.o)
 .debug_abbrev  0x00000000000191ba      0x317 /home/user/Devel/stm32/libopencm3/lib/libopencm3_stm32f4.a(usb_control.o)
 .debug_abbrev  0x00000000000194d1      0x163 /home/user/Devel/stm32/libopencm3/lib/libopencm3_stm32f4.a(usb_f107.o)
 .debug_abbrev  0x0000000000019634      0x155 /home/user/Devel/stm32/libopencm3/lib/libopencm3_stm32f4.a(vector.o)
 .debug_abbrev  0x0000000000019789      0x132 /home/user/Devel/stm32/libopencm3/lib/libopencm3_stm32f4.a(systick.o)
 .debug_abbrev  0x00000000000198bb       0xa6 /home/user/Devel/stm32/libopencm3/lib/libopencm3_stm32f4.a(nvic.o)
 .debug_abbrev  0x0000000000019961       0x7b /home/user/Devel/stm32/libopencm3/lib/libopencm3_stm32f4.a(pwr.o)
 .debug_abbrev  0x00000000000199dc      0x2c4 /home/user/Devel/stm32/libopencm3/lib/libopencm3_stm32f4.a(usb_fx07_common.o)

.debug_loc      0x0000000000000000    0x4ca17
 .debug_loc     0x0000000000000000       0x58 ././mew.o
 .debug_loc     0x0000000000000058      0x123 ././lvgl/src/lv_misc/lv_async.o
 .debug_loc     0x000000000000017b      0xb2c ././lvgl/src/lv_misc/lv_mem.o
 .debug_loc     0x0000000000000ca7     0x1696 ././lvgl/src/lv_misc/lv_txt.o
 .debug_loc     0x000000000000233d      0x2ef ././lvgl/src/lv_misc/lv_utils.o
 .debug_loc     0x000000000000262c      0x3de ././lvgl/src/lv_misc/lv_area.o
 .debug_loc     0x0000000000002a0a      0x495 ././lvgl/src/lv_misc/lv_task.o
 .debug_loc     0x0000000000002e9f     0x1ba5 ././lvgl/src/lv_misc/lv_ll.o
 .debug_loc     0x0000000000004a44       0x25 ././lvgl/src/lv_misc/lv_circ.o
 .debug_loc     0x0000000000004a69      0x7c5 ././lvgl/src/lv_misc/lv_color.o
 .debug_loc     0x000000000000522e      0x48c ././lvgl/src/lv_misc/lv_math.o
 .debug_loc     0x00000000000056ba      0xbde ././lvgl/src/lv_core/lv_refr.o
 .debug_loc     0x0000000000006298     0x10a8 ././lvgl/src/lv_core/lv_group.o
 .debug_loc     0x0000000000007340     0x1266 ././lvgl/src/lv_core/lv_indev.o
 .debug_loc     0x00000000000085a6     0x55cf ././lvgl/src/lv_core/lv_obj.o
 .debug_loc     0x000000000000db75      0x2cc ././lvgl/src/lv_core/lv_disp.o
 .debug_loc     0x000000000000de41      0x75f ././lvgl/src/lv_core/lv_style.o
 .debug_loc     0x000000000000e5a0      0x154 ././lvgl/src/lv_hal/lv_hal_indev.o
 .debug_loc     0x000000000000e6f4      0x427 ././lvgl/src/lv_hal/lv_hal_disp.o
 .debug_loc     0x000000000000eb1b       0xa4 ././lvgl/src/lv_hal/lv_hal_tick.o
 .debug_loc     0x000000000000ebbf     0x117c ././lvgl/src/lv_objx/lv_win.o
 .debug_loc     0x000000000000fd3b      0x76a ././lvgl/src/lv_objx/lv_img.o
 .debug_loc     0x00000000000104a5     0x1f91 ././lvgl/src/lv_objx/lv_table.o
 .debug_loc     0x0000000000012436      0xd8d ././lvgl/src/lv_objx/lv_spinbox.o
 .debug_loc     0x00000000000131c3     0x33f5 ././lvgl/src/lv_objx/lv_ta.o
 .debug_loc     0x00000000000165b8     0x2106 ././lvgl/src/lv_objx/lv_list.o
 .debug_loc     0x00000000000186be     0x13a0 ././lvgl/src/lv_objx/lv_cont.o
 .debug_loc     0x0000000000019a5e      0xc7b ././lvgl/src/lv_objx/lv_cb.o
 .debug_loc     0x000000000001a6d9     0x17ea ././lvgl/src/lv_objx/lv_slider.o
 .debug_loc     0x000000000001bec3     0x2984 ././lvgl/src/lv_objx/lv_page.o
 .debug_loc     0x000000000001e847      0x6f6 ././lvgl/src/lv_objx/lv_imgbtn.o
 .debug_loc     0x000000000001ef3d      0x878 ././lvgl/src/lv_objx/lv_line.o
 .debug_loc     0x000000000001f7b5      0xd4f ././lvgl/src/lv_objx/lv_bar.o
 .debug_loc     0x0000000000020504     0x215d ././lvgl/src/lv_objx/lv_label.o
 .debug_loc     0x0000000000022661      0x6c3 ././lvgl/src/lv_objx/lv_led.o
 .debug_loc     0x0000000000022d24      0xaf4 ././lvgl/src/lv_objx/lv_sw.o
 .debug_loc     0x0000000000023818      0xb7a ././lvgl/src/lv_objx/lv_btn.o
 .debug_loc     0x0000000000024392      0xf83 ././lvgl/src/lv_objx/lv_gauge.o
 .debug_loc     0x0000000000025315     0x2bf6 ././lvgl/src/lv_objx/lv_btnm.o
 .debug_loc     0x0000000000027f0b      0xe92 ././lvgl/src/lv_objx/lv_mbox.o
 .debug_loc     0x0000000000028d9d     0x1c68 ././lvgl/src/lv_objx/lv_roller.o
 .debug_loc     0x000000000002aa05     0x206b ././lvgl/src/lv_objx/lv_ddlist.o
 .debug_loc     0x000000000002ca70     0x1f14 ././lvgl/src/lv_objx/lv_canvas.o
 .debug_loc     0x000000000002e984      0xc4b ././lvgl/src/lv_objx/lv_tileview.o
 .debug_loc     0x000000000002f5cf      0xcb8 ././lvgl/src/lv_objx/lv_lmeter.o
 .debug_loc     0x0000000000030287     0x1e80 ././lvgl/src/lv_objx/lv_tabview.o
 .debug_loc     0x0000000000032107      0x824 ././lvgl/src/lv_objx/lv_arc.o
 .debug_loc     0x000000000003292b     0x1bd7 ././lvgl/src/lv_draw/lv_draw_basic.o
 .debug_loc     0x0000000000034502     0x10de ././lvgl/src/lv_draw/lv_draw_triangle.o
 .debug_loc     0x00000000000355e0     0x1abc ././lvgl/src/lv_draw/lv_draw_img.o
 .debug_loc     0x000000000003709c      0x261 ././lvgl/src/lv_draw/lv_img_cache.o
 .debug_loc     0x00000000000372fd      0xb3a ././lvgl/src/lv_draw/lv_draw_label.o
 .debug_loc     0x0000000000037e37      0x37f ././lvgl/src/lv_draw/lv_draw.o
 .debug_loc     0x00000000000381b6      0x722 ././lvgl/src/lv_draw/lv_img_decoder.o
 .debug_loc     0x00000000000388d8      0xa7e ././lvgl/src/lv_draw/lv_draw_arc.o
 .debug_loc     0x0000000000039356     0x4719 ././lvgl/src/lv_draw/lv_draw_rect.o
 .debug_loc     0x000000000003da6f     0x183d ././lvgl/src/lv_draw/lv_draw_line.o
 .debug_loc     0x000000000003f2ac      0x626 ././lvgl/src/lv_themes/lv_theme_material.o
 .debug_loc     0x000000000003f8d2       0x36 ././lvgl/src/lv_themes/lv_theme.o
 .debug_loc     0x000000000003f908      0xb97 ././lvgl/src/lv_font/lv_font_fmt_txt.o
 .debug_loc     0x000000000004049f      0x21a ././lvgl/src/lv_font/lv_font.o
 .debug_loc     0x00000000000406b9      0x386 ././app/pwd_generator/mew_xor_algo.o
 .debug_loc     0x0000000000040a3f      0x197 ././app/pwd_generator/mew_passgen.o
 .debug_loc     0x0000000000040bd6     0x491e ././app/qr_code/qrcodegen.o
 .debug_loc     0x00000000000454f4      0x3c0 ././app/packet_parser/parser.o
 .debug_loc     0x00000000000458b4      0x3a0 ././drivers/i2c/i2c.o
 .debug_loc     0x0000000000045c54      0x29f ././drivers/bluetooth/bt_usart.o
 .debug_loc     0x0000000000045ef3      0x49e ././drivers/duart/duart.o
 .debug_loc     0x0000000000046391      0x250 ././drivers/display/ts_tsc2007.o
 .debug_loc     0x00000000000465e1      0x3f4 ././drivers/display/display.o
 .debug_loc     0x00000000000469d5      0x751 ././drivers/usb/mew_usb_hid.o
 .debug_loc     0x0000000000047126       0xd3 ././drivers/spi_flash/flash.o
 .debug_loc     0x00000000000471f9       0x6f ././drivers/spi_flash/w25n01gvzeig.o
 .debug_loc     0x0000000000047268       0xfc ././drivers/flash/otp_storage.o
 .debug_loc     0x0000000000047364      0x130 ././drivers/hw_crypt/aes256.o
 .debug_loc     0x0000000000047494      0x1fe ././drivers/hw_crypt/P256-cortex-ecdh.o
 .debug_loc     0x0000000000047692      0x1f3 ././drivers/hw_crypt/sha2_256.o
 .debug_loc     0x0000000000047885       0x3a ././drivers/system/systick.o
 .debug_loc     0x00000000000478bf       0xc9 ././drivers/system/system.o
 .debug_loc     0x0000000000047988       0x59 ././drivers/system/random.o
 .debug_loc     0x00000000000479e1      0x17d ././debug.o
 .debug_loc     0x0000000000047b5e      0x16b ././ui/qrcode_ui.o
 .debug_loc     0x0000000000047cc9      0x327 ././ui/ui_win_startup_1.o
 .debug_loc     0x0000000000047ff0       0xb9 ././ui/ui_header.o
 .debug_loc     0x00000000000480a9      0x12a ././ui/ui_msgbox.o
 .debug_loc     0x00000000000481d3      0x5e8 /home/user/Devel/stm32/libopencm3/lib/libopencm3_stm32f4.a(rcc.o)
 .debug_loc     0x00000000000487bb       0x5f /home/user/Devel/stm32/libopencm3/lib/libopencm3_stm32f4.a(crc_common_all.o)
 .debug_loc     0x000000000004881a      0xc60 /home/user/Devel/stm32/libopencm3/lib/libopencm3_stm32f4.a(dma_common_f24.o)
 .debug_loc     0x000000000004947a       0x97 /home/user/Devel/stm32/libopencm3/lib/libopencm3_stm32f4.a(gpio_common_all.o)
 .debug_loc     0x0000000000049511       0xdd /home/user/Devel/stm32/libopencm3/lib/libopencm3_stm32f4.a(gpio_common_f0234.o)
 .debug_loc     0x00000000000495ee      0x4ad /home/user/Devel/stm32/libopencm3/lib/libopencm3_stm32f4.a(i2c_common_v1.o)
 .debug_loc     0x0000000000049a9b      0x176 /home/user/Devel/stm32/libopencm3/lib/libopencm3_stm32f4.a(spi_common_all.o)
 .debug_loc     0x0000000000049c11       0xa2 /home/user/Devel/stm32/libopencm3/lib/libopencm3_stm32f4.a(spi_common_l1f124.o)
 .debug_loc     0x0000000000049cb3      0x1ca /home/user/Devel/stm32/libopencm3/lib/libopencm3_stm32f4.a(usart_common_all.o)
 .debug_loc     0x0000000000049e7d       0x63 /home/user/Devel/stm32/libopencm3/lib/libopencm3_stm32f4.a(usart_common_f124.o)
 .debug_loc     0x0000000000049ee0       0x3f /home/user/Devel/stm32/libopencm3/lib/libopencm3_stm32f4.a(flash_common_f234.o)
 .debug_loc     0x0000000000049f1f      0x2cd /home/user/Devel/stm32/libopencm3/lib/libopencm3_stm32f4.a(flash_common_f24.o)
 .debug_loc     0x000000000004a1ec      0x1f2 /home/user/Devel/stm32/libopencm3/lib/libopencm3_stm32f4.a(exti_common_all.o)
 .debug_loc     0x000000000004a3de      0x108 /home/user/Devel/stm32/libopencm3/lib/libopencm3_stm32f4.a(rcc_common_all.o)
 .debug_loc     0x000000000004a4e6      0x4b1 /home/user/Devel/stm32/libopencm3/lib/libopencm3_stm32f4.a(usb.o)
 .debug_loc     0x000000000004a997     0x116c /home/user/Devel/stm32/libopencm3/lib/libopencm3_stm32f4.a(usb_standard.o)
 .debug_loc     0x000000000004bb03      0x58d /home/user/Devel/stm32/libopencm3/lib/libopencm3_stm32f4.a(usb_control.o)
 .debug_loc     0x000000000004c090       0xdf /home/user/Devel/stm32/libopencm3/lib/libopencm3_stm32f4.a(vector.o)
 .debug_loc     0x000000000004c16f      0x136 /home/user/Devel/stm32/libopencm3/lib/libopencm3_stm32f4.a(systick.o)
 .debug_loc     0x000000000004c2a5      0x129 /home/user/Devel/stm32/libopencm3/lib/libopencm3_stm32f4.a(nvic.o)
 .debug_loc     0x000000000004c3ce      0x649 /home/user/Devel/stm32/libopencm3/lib/libopencm3_stm32f4.a(usb_fx07_common.o)

.debug_aranges  0x0000000000000000     0x33c0
 .debug_aranges
                0x0000000000000000       0x20 ././mew.o
 .debug_aranges
                0x0000000000000020       0x18 ././lvgl/porting/lv_port_disp_template.o
 .debug_aranges
                0x0000000000000038       0x18 ././lvgl/porting/lv_port_indev_template.o
 .debug_aranges
                0x0000000000000050       0x18 ././lvgl/porting/lv_port_fs_template.o
 .debug_aranges
                0x0000000000000068       0x28 ././lvgl/src/lv_misc/lv_async.o
 .debug_aranges
                0x0000000000000090       0x60 ././lvgl/src/lv_misc/lv_mem.o
 .debug_aranges
                0x00000000000000f0       0x98 ././lvgl/src/lv_misc/lv_txt.o
 .debug_aranges
                0x0000000000000188       0x28 ././lvgl/src/lv_misc/lv_utils.o
 .debug_aranges
                0x00000000000001b0       0x68 ././lvgl/src/lv_misc/lv_area.o
 .debug_aranges
                0x0000000000000218       0x18 ././lvgl/src/lv_misc/lv_templ.o
 .debug_aranges
                0x0000000000000230       0x18 ././lvgl/src/lv_misc/lv_fs.o
 .debug_aranges
                0x0000000000000248       0x88 ././lvgl/src/lv_misc/lv_task.o
 .debug_aranges
                0x00000000000002d0       0x18 ././lvgl/src/lv_misc/lv_log.o
 .debug_aranges
                0x00000000000002e8       0xa0 ././lvgl/src/lv_misc/lv_ll.o
 .debug_aranges
                0x0000000000000388       0x30 ././lvgl/src/lv_misc/lv_circ.o
 .debug_aranges
                0x00000000000003b8       0x28 ././lvgl/src/lv_misc/lv_color.o
 .debug_aranges
                0x00000000000003e0       0x18 ././lvgl/src/lv_misc/lv_anim.o
 .debug_aranges
                0x00000000000003f8       0x28 ././lvgl/src/lv_misc/lv_math.o
 .debug_aranges
                0x0000000000000420       0x18 ././lvgl/src/lv_misc/lv_gc.o
 .debug_aranges
                0x0000000000000438       0x70 ././lvgl/src/lv_core/lv_refr.o
 .debug_aranges
                0x00000000000004a8      0x118 ././lvgl/src/lv_core/lv_group.o
 .debug_aranges
                0x00000000000005c0       0xd0 ././lvgl/src/lv_core/lv_indev.o
 .debug_aranges
                0x0000000000000690      0x2e8 ././lvgl/src/lv_core/lv_obj.o
 .debug_aranges
                0x0000000000000978       0x58 ././lvgl/src/lv_core/lv_disp.o
 .debug_aranges
                0x00000000000009d0       0x30 ././lvgl/src/lv_core/lv_style.o
 .debug_aranges
                0x0000000000000a00       0x40 ././lvgl/src/lv_hal/lv_hal_indev.o
 .debug_aranges
                0x0000000000000a40       0xa0 ././lvgl/src/lv_hal/lv_hal_disp.o
 .debug_aranges
                0x0000000000000ae0       0x30 ././lvgl/src/lv_hal/lv_hal_tick.o
 .debug_aranges
                0x0000000000000b10       0x18 ././lvgl/src/lv_objx/lv_objx_templ.o
 .debug_aranges
                0x0000000000000b28       0xd0 ././lvgl/src/lv_objx/lv_win.o
 .debug_aranges
                0x0000000000000bf8       0x18 ././lvgl/src/lv_objx/lv_calendar.o
 .debug_aranges
                0x0000000000000c10       0x78 ././lvgl/src/lv_objx/lv_img.o
 .debug_aranges
                0x0000000000000c88       0xd8 ././lvgl/src/lv_objx/lv_table.o
 .debug_aranges
                0x0000000000000d60       0x80 ././lvgl/src/lv_objx/lv_spinbox.o
 .debug_aranges
                0x0000000000000de0      0x198 ././lvgl/src/lv_objx/lv_ta.o
 .debug_aranges
                0x0000000000000f78       0x18 ././lvgl/src/lv_objx/lv_preload.o
 .debug_aranges
                0x0000000000000f90       0xd0 ././lvgl/src/lv_objx/lv_list.o
 .debug_aranges
                0x0000000000001060       0x70 ././lvgl/src/lv_objx/lv_cont.o
 .debug_aranges
                0x00000000000010d0       0x60 ././lvgl/src/lv_objx/lv_cb.o
 .debug_aranges
                0x0000000000001130       0x60 ././lvgl/src/lv_objx/lv_slider.o
 .debug_aranges
                0x0000000000001190       0xf0 ././lvgl/src/lv_objx/lv_page.o
 .debug_aranges
                0x0000000000001280       0x58 ././lvgl/src/lv_objx/lv_imgbtn.o
 .debug_aranges
                0x00000000000012d8       0x18 ././lvgl/src/lv_objx/lv_chart.o
 .debug_aranges
                0x00000000000012f0       0x58 ././lvgl/src/lv_objx/lv_line.o
 .debug_aranges
                0x0000000000001348       0x88 ././lvgl/src/lv_objx/lv_bar.o
 .debug_aranges
                0x00000000000013d0       0xf0 ././lvgl/src/lv_objx/lv_label.o
 .debug_aranges
                0x00000000000014c0       0x58 ././lvgl/src/lv_objx/lv_led.o
 .debug_aranges
                0x0000000000001518       0x18 ././lvgl/src/lv_objx/lv_kb.o
 .debug_aranges
                0x0000000000001530       0x60 ././lvgl/src/lv_objx/lv_sw.o
 .debug_aranges
                0x0000000000001590       0x78 ././lvgl/src/lv_objx/lv_btn.o
 .debug_aranges
                0x0000000000001608       0x60 ././lvgl/src/lv_objx/lv_gauge.o
 .debug_aranges
                0x0000000000001668       0xf0 ././lvgl/src/lv_objx/lv_btnm.o
 .debug_aranges
                0x0000000000001758       0xb0 ././lvgl/src/lv_objx/lv_mbox.o
 .debug_aranges
                0x0000000000001808       0x90 ././lvgl/src/lv_objx/lv_roller.o
 .debug_aranges
                0x0000000000001898       0xf0 ././lvgl/src/lv_objx/lv_ddlist.o
 .debug_aranges
                0x0000000000001988       0xa8 ././lvgl/src/lv_objx/lv_canvas.o
 .debug_aranges
                0x0000000000001a30       0x60 ././lvgl/src/lv_objx/lv_tileview.o
 .debug_aranges
                0x0000000000001a90       0x70 ././lvgl/src/lv_objx/lv_lmeter.o
 .debug_aranges
                0x0000000000001b00       0xe0 ././lvgl/src/lv_objx/lv_tabview.o
 .debug_aranges
                0x0000000000001be0       0x58 ././lvgl/src/lv_objx/lv_arc.o
 .debug_aranges
                0x0000000000001c38       0x38 ././lvgl/src/lv_draw/lv_draw_basic.o
 .debug_aranges
                0x0000000000001c70       0x38 ././lvgl/src/lv_draw/lv_draw_triangle.o
 .debug_aranges
                0x0000000000001ca8       0x68 ././lvgl/src/lv_draw/lv_draw_img.o
 .debug_aranges
                0x0000000000001d10       0x30 ././lvgl/src/lv_draw/lv_img_cache.o
 .debug_aranges
                0x0000000000001d40       0x28 ././lvgl/src/lv_draw/lv_draw_label.o
 .debug_aranges
                0x0000000000001d68       0x40 ././lvgl/src/lv_draw/lv_draw.o
 .debug_aranges
                0x0000000000001da8       0x90 ././lvgl/src/lv_draw/lv_img_decoder.o
 .debug_aranges
                0x0000000000001e38       0x38 ././lvgl/src/lv_draw/lv_draw_arc.o
 .debug_aranges
                0x0000000000001e70       0x30 ././lvgl/src/lv_draw/lv_draw_rect.o
 .debug_aranges
                0x0000000000001ea0       0x30 ././lvgl/src/lv_draw/lv_draw_line.o
 .debug_aranges
                0x0000000000001ed0       0x18 ././lvgl/src/lv_themes/lv_theme_night.o
 .debug_aranges
                0x0000000000001ee8       0x18 ././lvgl/src/lv_themes/lv_theme_alien.o
 .debug_aranges
                0x0000000000001f00       0x18 ././lvgl/src/lv_themes/lv_theme_mono.o
 .debug_aranges
                0x0000000000001f18       0x18 ././lvgl/src/lv_themes/lv_theme_nemo.o
 .debug_aranges
                0x0000000000001f30       0x38 ././lvgl/src/lv_themes/lv_theme_material.o
 .debug_aranges
                0x0000000000001f68       0x28 ././lvgl/src/lv_themes/lv_theme.o
 .debug_aranges
                0x0000000000001f90       0x18 ././lvgl/src/lv_themes/lv_theme_default.o
 .debug_aranges
                0x0000000000001fa8       0x18 ././lvgl/src/lv_themes/lv_theme_templ.o
 .debug_aranges
                0x0000000000001fc0       0x18 ././lvgl/src/lv_themes/lv_theme_zen.o
 .debug_aranges
                0x0000000000001fd8       0x18 ././lvgl/src/lv_font/lv_font_roboto_28.o
 .debug_aranges
                0x0000000000001ff0       0x18 ././lvgl/src/lv_font/lv_font_roboto_22.o
 .debug_aranges
                0x0000000000002008       0x18 ././lvgl/src/lv_font/lv_font_roboto_12.o
 .debug_aranges
                0x0000000000002020       0x18 ././lvgl/src/lv_font/lv_font_unscii_8.o
 .debug_aranges
                0x0000000000002038       0x48 ././lvgl/src/lv_font/lv_font_fmt_txt.o
 .debug_aranges
                0x0000000000002080       0x18 ././lvgl/src/lv_font/lv_font_roboto_16.o
 .debug_aranges
                0x0000000000002098       0x30 ././lvgl/src/lv_font/lv_font.o
 .debug_aranges
                0x00000000000020c8       0x30 ././app/pwd_generator/mew_xor_algo.o
 .debug_aranges
                0x00000000000020f8       0x20 ././app/pwd_generator/mew_passgen.o
 .debug_aranges
                0x0000000000002118       0xe8 ././app/qr_code/qrcodegen.o
 .debug_aranges
                0x0000000000002200       0x48 ././app/packet_parser/parser.o
 .debug_aranges
                0x0000000000002248       0x50 ././drivers/i2c/i2c.o
 .debug_aranges
                0x0000000000002298       0x48 ././drivers/bluetooth/bt_usart.o
 .debug_aranges
                0x00000000000022e0       0x50 ././drivers/duart/duart.o
 .debug_aranges
                0x0000000000002330       0x30 ././drivers/display/ts_tsc2007.o
 .debug_aranges
                0x0000000000002360       0x68 ././drivers/display/display.o
 .debug_aranges
                0x00000000000023c8       0x50 ././drivers/usb/mew_usb_hid.o
 .debug_aranges
                0x0000000000002418       0x50 ././drivers/spi_flash/flash.o
 .debug_aranges
                0x0000000000002468       0x30 ././drivers/spi_flash/w25n01gvzeig.o
 .debug_aranges
                0x0000000000002498       0x30 ././drivers/flash/otp_storage.o
 .debug_aranges
                0x00000000000024c8       0x30 ././drivers/hw_crypt/aes256.o
 .debug_aranges
                0x00000000000024f8       0x48 ././drivers/hw_crypt/P256-cortex-ecdh.o
 .debug_aranges
                0x0000000000002540       0x28 ././drivers/hw_crypt/secure_eeprom.o
 .debug_aranges
                0x0000000000002568       0x28 ././drivers/hw_crypt/sha2_256.o
 .debug_aranges
                0x0000000000002590       0x38 ././drivers/system/systick.o
 .debug_aranges
                0x00000000000025c8       0x28 ././drivers/system/system.o
 .debug_aranges
                0x00000000000025f0       0x30 ././drivers/system/random.o
 .debug_aranges
                0x0000000000002620       0x20 ././drivers/system/clock.o
 .debug_aranges
                0x0000000000002640       0x58 ././debug.o
 .debug_aranges
                0x0000000000002698       0x20 ././ui/ui_main_win.o
 .debug_aranges
                0x00000000000026b8       0x30 ././ui/qrcode_ui.o
 .debug_aranges
                0x00000000000026e8       0x58 ././ui/ui_win_startup_1.o
 .debug_aranges
                0x0000000000002740       0x38 ././ui/ui_header.o
 .debug_aranges
                0x0000000000002778       0x28 ././ui/ui_msgbox.o
 .debug_aranges
                0x00000000000027a0       0x18 ././ui/mew_font_ru_bold_title.o
 .debug_aranges
                0x00000000000027b8       0x30 ././ui/ui_lhandlers.o
 .debug_aranges
                0x00000000000027e8       0x18 ././ui/mew_logo.o
 .debug_aranges
                0x0000000000002800       0x18 ././ui/mew_font_ru_bold.o
 .debug_aranges
                0x0000000000002818       0xf0 /home/user/Devel/stm32/libopencm3/lib/libopencm3_stm32f4.a(rcc.o)
 .debug_aranges
                0x0000000000002908       0x30 /home/user/Devel/stm32/libopencm3/lib/libopencm3_stm32f4.a(crc_common_all.o)
 .debug_aranges
                0x0000000000002938      0x168 /home/user/Devel/stm32/libopencm3/lib/libopencm3_stm32f4.a(dma_common_f24.o)
 .debug_aranges
                0x0000000000002aa0       0x50 /home/user/Devel/stm32/libopencm3/lib/libopencm3_stm32f4.a(gpio_common_all.o)
 .debug_aranges
                0x0000000000002af0       0x30 /home/user/Devel/stm32/libopencm3/lib/libopencm3_stm32f4.a(gpio_common_f0234.o)
 .debug_aranges
                0x0000000000002b20      0x110 /home/user/Devel/stm32/libopencm3/lib/libopencm3_stm32f4.a(i2c_common_v1.o)
 .debug_aranges
                0x0000000000002c30      0x178 /home/user/Devel/stm32/libopencm3/lib/libopencm3_stm32f4.a(spi_common_all.o)
 .debug_aranges
                0x0000000000002da8       0x30 /home/user/Devel/stm32/libopencm3/lib/libopencm3_stm32f4.a(spi_common_l1f124.o)
 .debug_aranges
                0x0000000000002dd8       0xb8 /home/user/Devel/stm32/libopencm3/lib/libopencm3_stm32f4.a(usart_common_all.o)
 .debug_aranges
                0x0000000000002e90       0x40 /home/user/Devel/stm32/libopencm3/lib/libopencm3_stm32f4.a(usart_common_f124.o)
 .debug_aranges
                0x0000000000002ed0       0x50 /home/user/Devel/stm32/libopencm3/lib/libopencm3_stm32f4.a(flash_common_f234.o)
 .debug_aranges
                0x0000000000002f20       0xd0 /home/user/Devel/stm32/libopencm3/lib/libopencm3_stm32f4.a(flash_common_f24.o)
 .debug_aranges
                0x0000000000002ff0       0x48 /home/user/Devel/stm32/libopencm3/lib/libopencm3_stm32f4.a(exti_common_all.o)
 .debug_aranges
                0x0000000000003038       0x58 /home/user/Devel/stm32/libopencm3/lib/libopencm3_stm32f4.a(rcc_common_all.o)
 .debug_aranges
                0x0000000000003090       0x88 /home/user/Devel/stm32/libopencm3/lib/libopencm3_stm32f4.a(usb.o)
 .debug_aranges
                0x0000000000003118       0x98 /home/user/Devel/stm32/libopencm3/lib/libopencm3_stm32f4.a(usb_standard.o)
 .debug_aranges
                0x00000000000031b0       0x60 /home/user/Devel/stm32/libopencm3/lib/libopencm3_stm32f4.a(usb_control.o)
 .debug_aranges
                0x0000000000003210       0x20 /home/user/Devel/stm32/libopencm3/lib/libopencm3_stm32f4.a(usb_f107.o)
 .debug_aranges
                0x0000000000003230       0x30 /home/user/Devel/stm32/libopencm3/lib/libopencm3_stm32f4.a(vector.o)
 .debug_aranges
                0x0000000000003260       0x78 /home/user/Devel/stm32/libopencm3/lib/libopencm3_stm32f4.a(systick.o)
 .debug_aranges
                0x00000000000032d8       0x60 /home/user/Devel/stm32/libopencm3/lib/libopencm3_stm32f4.a(nvic.o)
 .debug_aranges
                0x0000000000003338       0x20 /home/user/Devel/stm32/libopencm3/lib/libopencm3_stm32f4.a(pwr.o)
 .debug_aranges
                0x0000000000003358       0x68 /home/user/Devel/stm32/libopencm3/lib/libopencm3_stm32f4.a(usb_fx07_common.o)

.debug_ranges   0x0000000000000000     0xa078
 .debug_ranges  0x0000000000000000       0x10 ././mew.o
 .debug_ranges  0x0000000000000010       0x18 ././lvgl/src/lv_misc/lv_async.o
 .debug_ranges  0x0000000000000028      0x1f8 ././lvgl/src/lv_misc/lv_mem.o
 .debug_ranges  0x0000000000000220      0x1a0 ././lvgl/src/lv_misc/lv_txt.o
 .debug_ranges  0x00000000000003c0       0x30 ././lvgl/src/lv_misc/lv_utils.o
 .debug_ranges  0x00000000000003f0       0xd0 ././lvgl/src/lv_misc/lv_area.o
 .debug_ranges  0x00000000000004c0       0x90 ././lvgl/src/lv_misc/lv_task.o
 .debug_ranges  0x0000000000000550      0x340 ././lvgl/src/lv_misc/lv_ll.o
 .debug_ranges  0x0000000000000890       0x20 ././lvgl/src/lv_misc/lv_circ.o
 .debug_ranges  0x00000000000008b0       0x40 ././lvgl/src/lv_misc/lv_color.o
 .debug_ranges  0x00000000000008f0       0x18 ././lvgl/src/lv_misc/lv_math.o
 .debug_ranges  0x0000000000000908      0x1f8 ././lvgl/src/lv_core/lv_refr.o
 .debug_ranges  0x0000000000000b00      0x608 ././lvgl/src/lv_core/lv_group.o
 .debug_ranges  0x0000000000001108      0x568 ././lvgl/src/lv_core/lv_indev.o
 .debug_ranges  0x0000000000001670     0x1230 ././lvgl/src/lv_core/lv_obj.o
 .debug_ranges  0x00000000000028a0       0x48 ././lvgl/src/lv_core/lv_disp.o
 .debug_ranges  0x00000000000028e8      0x370 ././lvgl/src/lv_core/lv_style.o
 .debug_ranges  0x0000000000002c58       0x30 ././lvgl/src/lv_hal/lv_hal_indev.o
 .debug_ranges  0x0000000000002c88      0x108 ././lvgl/src/lv_hal/lv_hal_disp.o
 .debug_ranges  0x0000000000002d90       0x38 ././lvgl/src/lv_hal/lv_hal_tick.o
 .debug_ranges  0x0000000000002dc8      0x1d0 ././lvgl/src/lv_objx/lv_win.o
 .debug_ranges  0x0000000000002f98       0x98 ././lvgl/src/lv_objx/lv_img.o
 .debug_ranges  0x0000000000003030      0x2b8 ././lvgl/src/lv_objx/lv_table.o
 .debug_ranges  0x00000000000032e8      0x100 ././lvgl/src/lv_objx/lv_spinbox.o
 .debug_ranges  0x00000000000033e8      0x508 ././lvgl/src/lv_objx/lv_ta.o
 .debug_ranges  0x00000000000038f0      0x3b8 ././lvgl/src/lv_objx/lv_list.o
 .debug_ranges  0x0000000000003ca8      0x1f8 ././lvgl/src/lv_objx/lv_cont.o
 .debug_ranges  0x0000000000003ea0      0x150 ././lvgl/src/lv_objx/lv_cb.o
 .debug_ranges  0x0000000000003ff0      0x2e8 ././lvgl/src/lv_objx/lv_slider.o
 .debug_ranges  0x00000000000042d8      0x388 ././lvgl/src/lv_objx/lv_page.o
 .debug_ranges  0x0000000000004660       0x90 ././lvgl/src/lv_objx/lv_imgbtn.o
 .debug_ranges  0x00000000000046f0       0x98 ././lvgl/src/lv_objx/lv_line.o
 .debug_ranges  0x0000000000004788      0x120 ././lvgl/src/lv_objx/lv_bar.o
 .debug_ranges  0x00000000000048a8      0x258 ././lvgl/src/lv_objx/lv_label.o
 .debug_ranges  0x0000000000004b00      0x1c0 ././lvgl/src/lv_objx/lv_led.o
 .debug_ranges  0x0000000000004cc0      0x110 ././lvgl/src/lv_objx/lv_sw.o
 .debug_ranges  0x0000000000004dd0       0xe0 ././lvgl/src/lv_objx/lv_btn.o
 .debug_ranges  0x0000000000004eb0      0x140 ././lvgl/src/lv_objx/lv_gauge.o
 .debug_ranges  0x0000000000004ff0      0x5b8 ././lvgl/src/lv_objx/lv_btnm.o
 .debug_ranges  0x00000000000055a8      0x138 ././lvgl/src/lv_objx/lv_mbox.o
 .debug_ranges  0x00000000000056e0      0x2e8 ././lvgl/src/lv_objx/lv_roller.o
 .debug_ranges  0x00000000000059c8      0x338 ././lvgl/src/lv_objx/lv_ddlist.o
 .debug_ranges  0x0000000000005d00      0x2e0 ././lvgl/src/lv_objx/lv_canvas.o
 .debug_ranges  0x0000000000005fe0       0xe0 ././lvgl/src/lv_objx/lv_tileview.o
 .debug_ranges  0x00000000000060c0      0x160 ././lvgl/src/lv_objx/lv_lmeter.o
 .debug_ranges  0x0000000000006220      0x180 ././lvgl/src/lv_objx/lv_tabview.o
 .debug_ranges  0x00000000000063a0       0x90 ././lvgl/src/lv_objx/lv_arc.o
 .debug_ranges  0x0000000000006430      0x328 ././lvgl/src/lv_draw/lv_draw_basic.o
 .debug_ranges  0x0000000000006758       0x80 ././lvgl/src/lv_draw/lv_draw_triangle.o
 .debug_ranges  0x00000000000067d8      0x218 ././lvgl/src/lv_draw/lv_draw_img.o
 .debug_ranges  0x00000000000069f0       0x50 ././lvgl/src/lv_draw/lv_img_cache.o
 .debug_ranges  0x0000000000006a40      0x1b0 ././lvgl/src/lv_draw/lv_draw_label.o
 .debug_ranges  0x0000000000006bf0       0x30 ././lvgl/src/lv_draw/lv_draw.o
 .debug_ranges  0x0000000000006c20       0xf8 ././lvgl/src/lv_draw/lv_img_decoder.o
 .debug_ranges  0x0000000000006d18       0xa8 ././lvgl/src/lv_draw/lv_draw_arc.o
 .debug_ranges  0x0000000000006dc0      0xa80 ././lvgl/src/lv_draw/lv_draw_rect.o
 .debug_ranges  0x0000000000007840      0x180 ././lvgl/src/lv_draw/lv_draw_line.o
 .debug_ranges  0x00000000000079c0      0x8e8 ././lvgl/src/lv_themes/lv_theme_material.o
 .debug_ranges  0x00000000000082a8       0x18 ././lvgl/src/lv_themes/lv_theme.o
 .debug_ranges  0x00000000000082c0      0x108 ././lvgl/src/lv_font/lv_font_fmt_txt.o
 .debug_ranges  0x00000000000083c8       0x20 ././lvgl/src/lv_font/lv_font.o
 .debug_ranges  0x00000000000083e8       0x38 ././app/pwd_generator/mew_xor_algo.o
 .debug_ranges  0x0000000000008420       0x38 ././app/pwd_generator/mew_passgen.o
 .debug_ranges  0x0000000000008458      0x878 ././app/qr_code/qrcodegen.o
 .debug_ranges  0x0000000000008cd0       0xa0 ././app/packet_parser/parser.o
 .debug_ranges  0x0000000000008d70       0x58 ././drivers/i2c/i2c.o
 .debug_ranges  0x0000000000008dc8       0x98 ././drivers/bluetooth/bt_usart.o
 .debug_ranges  0x0000000000008e60       0x78 ././drivers/duart/duart.o
 .debug_ranges  0x0000000000008ed8       0x40 ././drivers/display/ts_tsc2007.o
 .debug_ranges  0x0000000000008f18      0x170 ././drivers/display/display.o
 .debug_ranges  0x0000000000009088       0x90 ././drivers/usb/mew_usb_hid.o
 .debug_ranges  0x0000000000009118       0x78 ././drivers/spi_flash/flash.o
 .debug_ranges  0x0000000000009190       0x20 ././drivers/spi_flash/w25n01gvzeig.o
 .debug_ranges  0x00000000000091b0       0x20 ././drivers/flash/otp_storage.o
 .debug_ranges  0x00000000000091d0       0x20 ././drivers/hw_crypt/aes256.o
 .debug_ranges  0x00000000000091f0       0x38 ././drivers/hw_crypt/P256-cortex-ecdh.o
 .debug_ranges  0x0000000000009228       0x18 ././drivers/hw_crypt/secure_eeprom.o
 .debug_ranges  0x0000000000009240       0x18 ././drivers/hw_crypt/sha2_256.o
 .debug_ranges  0x0000000000009258       0x28 ././drivers/system/systick.o
 .debug_ranges  0x0000000000009280       0x18 ././drivers/system/system.o
 .debug_ranges  0x0000000000009298       0x58 ././drivers/system/random.o
 .debug_ranges  0x00000000000092f0       0x10 ././drivers/system/clock.o
 .debug_ranges  0x0000000000009300       0x60 ././debug.o
 .debug_ranges  0x0000000000009360       0x10 ././ui/ui_main_win.o
 .debug_ranges  0x0000000000009370       0x20 ././ui/qrcode_ui.o
 .debug_ranges  0x0000000000009390      0x138 ././ui/ui_win_startup_1.o
 .debug_ranges  0x00000000000094c8       0x48 ././ui/ui_header.o
 .debug_ranges  0x0000000000009510       0x68 ././ui/ui_msgbox.o
 .debug_ranges  0x0000000000009578       0x20 ././ui/ui_lhandlers.o
 .debug_ranges  0x0000000000009598       0xe0 /home/user/Devel/stm32/libopencm3/lib/libopencm3_stm32f4.a(rcc.o)
 .debug_ranges  0x0000000000009678       0x20 /home/user/Devel/stm32/libopencm3/lib/libopencm3_stm32f4.a(crc_common_all.o)
 .debug_ranges  0x0000000000009698      0x158 /home/user/Devel/stm32/libopencm3/lib/libopencm3_stm32f4.a(dma_common_f24.o)
 .debug_ranges  0x00000000000097f0       0x40 /home/user/Devel/stm32/libopencm3/lib/libopencm3_stm32f4.a(gpio_common_all.o)
 .debug_ranges  0x0000000000009830       0x20 /home/user/Devel/stm32/libopencm3/lib/libopencm3_stm32f4.a(gpio_common_f0234.o)
 .debug_ranges  0x0000000000009850      0x120 /home/user/Devel/stm32/libopencm3/lib/libopencm3_stm32f4.a(i2c_common_v1.o)
 .debug_ranges  0x0000000000009970      0x168 /home/user/Devel/stm32/libopencm3/lib/libopencm3_stm32f4.a(spi_common_all.o)
 .debug_ranges  0x0000000000009ad8       0x20 /home/user/Devel/stm32/libopencm3/lib/libopencm3_stm32f4.a(spi_common_l1f124.o)
 .debug_ranges  0x0000000000009af8       0xa8 /home/user/Devel/stm32/libopencm3/lib/libopencm3_stm32f4.a(usart_common_all.o)
 .debug_ranges  0x0000000000009ba0       0x30 /home/user/Devel/stm32/libopencm3/lib/libopencm3_stm32f4.a(usart_common_f124.o)
 .debug_ranges  0x0000000000009bd0       0x40 /home/user/Devel/stm32/libopencm3/lib/libopencm3_stm32f4.a(flash_common_f234.o)
 .debug_ranges  0x0000000000009c10       0xc0 /home/user/Devel/stm32/libopencm3/lib/libopencm3_stm32f4.a(flash_common_f24.o)
 .debug_ranges  0x0000000000009cd0       0x50 /home/user/Devel/stm32/libopencm3/lib/libopencm3_stm32f4.a(exti_common_all.o)
 .debug_ranges  0x0000000000009d20       0x48 /home/user/Devel/stm32/libopencm3/lib/libopencm3_stm32f4.a(rcc_common_all.o)
 .debug_ranges  0x0000000000009d68       0x78 /home/user/Devel/stm32/libopencm3/lib/libopencm3_stm32f4.a(usb.o)
 .debug_ranges  0x0000000000009de0       0xe0 /home/user/Devel/stm32/libopencm3/lib/libopencm3_stm32f4.a(usb_standard.o)
 .debug_ranges  0x0000000000009ec0       0x68 /home/user/Devel/stm32/libopencm3/lib/libopencm3_stm32f4.a(usb_control.o)
 .debug_ranges  0x0000000000009f28       0x10 /home/user/Devel/stm32/libopencm3/lib/libopencm3_stm32f4.a(usb_f107.o)
 .debug_ranges  0x0000000000009f38       0x20 /home/user/Devel/stm32/libopencm3/lib/libopencm3_stm32f4.a(vector.o)
 .debug_ranges  0x0000000000009f58       0x68 /home/user/Devel/stm32/libopencm3/lib/libopencm3_stm32f4.a(systick.o)
 .debug_ranges  0x0000000000009fc0       0x50 /home/user/Devel/stm32/libopencm3/lib/libopencm3_stm32f4.a(nvic.o)
 .debug_ranges  0x000000000000a010       0x10 /home/user/Devel/stm32/libopencm3/lib/libopencm3_stm32f4.a(pwr.o)
 .debug_ranges  0x000000000000a020       0x58 /home/user/Devel/stm32/libopencm3/lib/libopencm3_stm32f4.a(usb_fx07_common.o)

.debug_line     0x0000000000000000    0x464b2
 .debug_line    0x0000000000000000      0x438 ././mew.o
 .debug_line    0x0000000000000438       0x1d ././lvgl/porting/lv_port_disp_template.o
 .debug_line    0x0000000000000455       0x1d ././lvgl/porting/lv_port_indev_template.o
 .debug_line    0x0000000000000472       0x1d ././lvgl/porting/lv_port_fs_template.o
 .debug_line    0x000000000000048f      0x1d3 ././lvgl/src/lv_misc/lv_async.o
 .debug_line    0x0000000000000662      0x849 ././lvgl/src/lv_misc/lv_mem.o
 .debug_line    0x0000000000000eab      0xc48 ././lvgl/src/lv_misc/lv_txt.o
 .debug_line    0x0000000000001af3      0x221 ././lvgl/src/lv_misc/lv_utils.o
 .debug_line    0x0000000000001d14      0x47f ././lvgl/src/lv_misc/lv_area.o
 .debug_line    0x0000000000002193       0x1d ././lvgl/src/lv_misc/lv_templ.o
 .debug_line    0x00000000000021b0       0x1d ././lvgl/src/lv_misc/lv_fs.o
 .debug_line    0x00000000000021cd      0x8bb ././lvgl/src/lv_misc/lv_task.o
 .debug_line    0x0000000000002a88       0x1d ././lvgl/src/lv_misc/lv_log.o
 .debug_line    0x0000000000002aa5      0xb1e ././lvgl/src/lv_misc/lv_ll.o
 .debug_line    0x00000000000035c3      0x25b ././lvgl/src/lv_misc/lv_circ.o
 .debug_line    0x000000000000381e      0x325 ././lvgl/src/lv_misc/lv_color.o
 .debug_line    0x0000000000003b43       0xfa ././lvgl/src/lv_misc/lv_anim.o
 .debug_line    0x0000000000003c3d      0x2dd ././lvgl/src/lv_misc/lv_math.o
 .debug_line    0x0000000000003f1a      0x2f6 ././lvgl/src/lv_misc/lv_gc.o
 .debug_line    0x0000000000004210      0xd97 ././lvgl/src/lv_core/lv_refr.o
 .debug_line    0x0000000000004fa7     0x1388 ././lvgl/src/lv_core/lv_group.o
 .debug_line    0x000000000000632f     0x1c9d ././lvgl/src/lv_core/lv_indev.o
 .debug_line    0x0000000000007fcc     0x327e ././lvgl/src/lv_core/lv_obj.o
 .debug_line    0x000000000000b24a      0x561 ././lvgl/src/lv_core/lv_disp.o
 .debug_line    0x000000000000b7ab     0x12ec ././lvgl/src/lv_core/lv_style.o
 .debug_line    0x000000000000ca97      0x578 ././lvgl/src/lv_hal/lv_hal_indev.o
 .debug_line    0x000000000000d00f      0x7d9 ././lvgl/src/lv_hal/lv_hal_disp.o
 .debug_line    0x000000000000d7e8      0x1d8 ././lvgl/src/lv_hal/lv_hal_tick.o
 .debug_line    0x000000000000d9c0       0x1d ././lvgl/src/lv_objx/lv_objx_templ.o
 .debug_line    0x000000000000d9dd      0xc29 ././lvgl/src/lv_objx/lv_win.o
 .debug_line    0x000000000000e606       0x1d ././lvgl/src/lv_objx/lv_calendar.o
 .debug_line    0x000000000000e623      0xa48 ././lvgl/src/lv_objx/lv_img.o
 .debug_line    0x000000000000f06b     0x14f8 ././lvgl/src/lv_objx/lv_table.o
 .debug_line    0x0000000000010563      0xcdb ././lvgl/src/lv_objx/lv_spinbox.o
 .debug_line    0x000000000001123e     0x2585 ././lvgl/src/lv_objx/lv_ta.o
 .debug_line    0x00000000000137c3       0x1d ././lvgl/src/lv_objx/lv_preload.o
 .debug_line    0x00000000000137e0     0x13a0 ././lvgl/src/lv_objx/lv_list.o
 .debug_line    0x0000000000014b80     0x10d2 ././lvgl/src/lv_objx/lv_cont.o
 .debug_line    0x0000000000015c52      0x87f ././lvgl/src/lv_objx/lv_cb.o
 .debug_line    0x00000000000164d1     0x10a1 ././lvgl/src/lv_objx/lv_slider.o
 .debug_line    0x0000000000017572     0x1c40 ././lvgl/src/lv_objx/lv_page.o
 .debug_line    0x00000000000191b2      0x65c ././lvgl/src/lv_objx/lv_imgbtn.o
 .debug_line    0x000000000001980e       0x1d ././lvgl/src/lv_objx/lv_chart.o
 .debug_line    0x000000000001982b      0x853 ././lvgl/src/lv_objx/lv_line.o
 .debug_line    0x000000000001a07e      0xb1e ././lvgl/src/lv_objx/lv_bar.o
 .debug_line    0x000000000001ab9c     0x181b ././lvgl/src/lv_objx/lv_label.o
 .debug_line    0x000000000001c3b7      0x7f6 ././lvgl/src/lv_objx/lv_led.o
 .debug_line    0x000000000001cbad       0x1d ././lvgl/src/lv_objx/lv_kb.o
 .debug_line    0x000000000001cbca      0xacd ././lvgl/src/lv_objx/lv_sw.o
 .debug_line    0x000000000001d697      0xa09 ././lvgl/src/lv_objx/lv_btn.o
 .debug_line    0x000000000001e0a0      0xc74 ././lvgl/src/lv_objx/lv_gauge.o
 .debug_line    0x000000000001ed14     0x1ac0 ././lvgl/src/lv_objx/lv_btnm.o
 .debug_line    0x00000000000207d4      0xb92 ././lvgl/src/lv_objx/lv_mbox.o
 .debug_line    0x0000000000021366     0x12f6 ././lvgl/src/lv_objx/lv_roller.o
 .debug_line    0x000000000002265c     0x1709 ././lvgl/src/lv_objx/lv_ddlist.o
 .debug_line    0x0000000000023d65     0x155b ././lvgl/src/lv_objx/lv_canvas.o
 .debug_line    0x00000000000252c0      0xc09 ././lvgl/src/lv_objx/lv_tileview.o
 .debug_line    0x0000000000025ec9      0xb03 ././lvgl/src/lv_objx/lv_lmeter.o
 .debug_line    0x00000000000269cc     0x175b ././lvgl/src/lv_objx/lv_tabview.o
 .debug_line    0x0000000000028127      0x76f ././lvgl/src/lv_objx/lv_arc.o
 .debug_line    0x0000000000028896     0x1375 ././lvgl/src/lv_draw/lv_draw_basic.o
 .debug_line    0x0000000000029c0b      0xb71 ././lvgl/src/lv_draw/lv_draw_triangle.o
 .debug_line    0x000000000002a77c      0xc84 ././lvgl/src/lv_draw/lv_draw_img.o
 .debug_line    0x000000000002b400      0x5cc ././lvgl/src/lv_draw/lv_img_cache.o
 .debug_line    0x000000000002b9cc      0x971 ././lvgl/src/lv_draw/lv_draw_label.o
 .debug_line    0x000000000002c33d      0x510 ././lvgl/src/lv_draw/lv_draw.o
 .debug_line    0x000000000002c84d      0x8bd ././lvgl/src/lv_draw/lv_img_decoder.o
 .debug_line    0x000000000002d10a      0x7e0 ././lvgl/src/lv_draw/lv_draw_arc.o
 .debug_line    0x000000000002d8ea     0x2b0f ././lvgl/src/lv_draw/lv_draw_rect.o
 .debug_line    0x00000000000303f9     0x107b ././lvgl/src/lv_draw/lv_draw_line.o
 .debug_line    0x0000000000031474      0x234 ././lvgl/src/lv_themes/lv_theme_night.o
 .debug_line    0x00000000000316a8      0x234 ././lvgl/src/lv_themes/lv_theme_alien.o
 .debug_line    0x00000000000318dc      0x234 ././lvgl/src/lv_themes/lv_theme_mono.o
 .debug_line    0x0000000000031b10      0x234 ././lvgl/src/lv_themes/lv_theme_nemo.o
 .debug_line    0x0000000000031d44     0x1c6e ././lvgl/src/lv_themes/lv_theme_material.o
 .debug_line    0x00000000000339b2      0x2ec ././lvgl/src/lv_themes/lv_theme.o
 .debug_line    0x0000000000033c9e      0x234 ././lvgl/src/lv_themes/lv_theme_default.o
 .debug_line    0x0000000000033ed2      0x234 ././lvgl/src/lv_themes/lv_theme_templ.o
 .debug_line    0x0000000000034106      0x234 ././lvgl/src/lv_themes/lv_theme_zen.o
 .debug_line    0x000000000003433a      0x297 ././lvgl/src/lv_font/lv_font_roboto_28.o
 .debug_line    0x00000000000345d1      0x297 ././lvgl/src/lv_font/lv_font_roboto_22.o
 .debug_line    0x0000000000034868      0x326 ././lvgl/src/lv_font/lv_font_roboto_12.o
 .debug_line    0x0000000000034b8e      0x297 ././lvgl/src/lv_font/lv_font_unscii_8.o
 .debug_line    0x0000000000034e25      0x5a5 ././lvgl/src/lv_font/lv_font_fmt_txt.o
 .debug_line    0x00000000000353ca      0x297 ././lvgl/src/lv_font/lv_font_roboto_16.o
 .debug_line    0x0000000000035661      0x196 ././lvgl/src/lv_font/lv_font.o
 .debug_line    0x00000000000357f7      0x457 ././app/pwd_generator/mew_xor_algo.o
 .debug_line    0x0000000000035c4e      0x353 ././app/pwd_generator/mew_passgen.o
 .debug_line    0x0000000000035fa1     0x1de4 ././app/qr_code/qrcodegen.o
 .debug_line    0x0000000000037d85      0x6d5 ././app/packet_parser/parser.o
 .debug_line    0x000000000003845a      0x869 ././drivers/i2c/i2c.o
 .debug_line    0x0000000000038cc3      0x6e1 ././drivers/bluetooth/bt_usart.o
 .debug_line    0x00000000000393a4      0x323 ././drivers/duart/duart.o
 .debug_line    0x00000000000396c7      0x5c8 ././drivers/display/ts_tsc2007.o
 .debug_line    0x0000000000039c8f      0xa12 ././drivers/display/display.o
 .debug_line    0x000000000003a6a1      0x62c ././drivers/usb/mew_usb_hid.o
 .debug_line    0x000000000003accd      0x6b9 ././drivers/spi_flash/flash.o
 .debug_line    0x000000000003b386      0x26d ././drivers/spi_flash/w25n01gvzeig.o
 .debug_line    0x000000000003b5f3      0x590 ././drivers/flash/otp_storage.o
 .debug_line    0x000000000003bb83      0x55d ././drivers/hw_crypt/aes256.o
 .debug_line    0x000000000003c0e0      0x45b ././drivers/hw_crypt/P256-cortex-ecdh.o
 .debug_line    0x000000000003c53b      0x381 ././drivers/hw_crypt/secure_eeprom.o
 .debug_line    0x000000000003c8bc      0x3ca ././drivers/hw_crypt/sha2_256.o
 .debug_line    0x000000000003cc86      0x412 ././drivers/system/systick.o
 .debug_line    0x000000000003d098      0x296 ././drivers/system/system.o
 .debug_line    0x000000000003d32e      0x37f ././drivers/system/random.o
 .debug_line    0x000000000003d6ad      0x2b5 ././drivers/system/clock.o
 .debug_line    0x000000000003d962      0x27f ././debug.o
 .debug_line    0x000000000003dbe1      0x2b6 ././ui/ui_main_win.o
 .debug_line    0x000000000003de97      0x469 ././ui/qrcode_ui.o
 .debug_line    0x000000000003e300      0x9a9 ././ui/ui_win_startup_1.o
 .debug_line    0x000000000003eca9      0x5da ././ui/ui_header.o
 .debug_line    0x000000000003f283      0x48d ././ui/ui_msgbox.o
 .debug_line    0x000000000003f710      0x2ad ././ui/mew_font_ru_bold_title.o
 .debug_line    0x000000000003f9bd      0x415 ././ui/ui_lhandlers.o
 .debug_line    0x000000000003fdd2      0x293 ././ui/mew_logo.o
 .debug_line    0x0000000000040065      0x2a7 ././ui/mew_font_ru_bold.o
 .debug_line    0x000000000004030c      0x5ab /home/user/Devel/stm32/libopencm3/lib/libopencm3_stm32f4.a(rcc.o)
 .debug_line    0x00000000000408b7      0x32c /home/user/Devel/stm32/libopencm3/lib/libopencm3_stm32f4.a(crc_common_all.o)
 .debug_line    0x0000000000040be3      0x601 /home/user/Devel/stm32/libopencm3/lib/libopencm3_stm32f4.a(dma_common_f24.o)
 .debug_line    0x00000000000411e4      0x395 /home/user/Devel/stm32/libopencm3/lib/libopencm3_stm32f4.a(gpio_common_all.o)
 .debug_line    0x0000000000041579      0x387 /home/user/Devel/stm32/libopencm3/lib/libopencm3_stm32f4.a(gpio_common_f0234.o)
 .debug_line    0x0000000000041900      0x573 /home/user/Devel/stm32/libopencm3/lib/libopencm3_stm32f4.a(i2c_common_v1.o)
 .debug_line    0x0000000000041e73      0x661 /home/user/Devel/stm32/libopencm3/lib/libopencm3_stm32f4.a(spi_common_all.o)
 .debug_line    0x00000000000424d4      0x37d /home/user/Devel/stm32/libopencm3/lib/libopencm3_stm32f4.a(spi_common_l1f124.o)
 .debug_line    0x0000000000042851      0x4af /home/user/Devel/stm32/libopencm3/lib/libopencm3_stm32f4.a(usart_common_all.o)
 .debug_line    0x0000000000042d00      0x3a1 /home/user/Devel/stm32/libopencm3/lib/libopencm3_stm32f4.a(usart_common_f124.o)
 .debug_line    0x00000000000430a1      0x388 /home/user/Devel/stm32/libopencm3/lib/libopencm3_stm32f4.a(flash_common_f234.o)
 .debug_line    0x0000000000043429      0x4d9 /home/user/Devel/stm32/libopencm3/lib/libopencm3_stm32f4.a(flash_common_f24.o)
 .debug_line    0x0000000000043902      0x41a /home/user/Devel/stm32/libopencm3/lib/libopencm3_stm32f4.a(exti_common_all.o)
 .debug_line    0x0000000000043d1c      0x36f /home/user/Devel/stm32/libopencm3/lib/libopencm3_stm32f4.a(rcc_common_all.o)
 .debug_line    0x000000000004408b      0x409 /home/user/Devel/stm32/libopencm3/lib/libopencm3_stm32f4.a(usb.o)
 .debug_line    0x0000000000044494      0x57d /home/user/Devel/stm32/libopencm3/lib/libopencm3_stm32f4.a(usb_standard.o)
 .debug_line    0x0000000000044a11      0x43d /home/user/Devel/stm32/libopencm3/lib/libopencm3_stm32f4.a(usb_control.o)
 .debug_line    0x0000000000044e4e      0x42f /home/user/Devel/stm32/libopencm3/lib/libopencm3_stm32f4.a(usb_f107.o)
 .debug_line    0x000000000004527d      0x399 /home/user/Devel/stm32/libopencm3/lib/libopencm3_stm32f4.a(vector.o)
 .debug_line    0x0000000000045616      0x319 /home/user/Devel/stm32/libopencm3/lib/libopencm3_stm32f4.a(systick.o)
 .debug_line    0x000000000004592f      0x33a /home/user/Devel/stm32/libopencm3/lib/libopencm3_stm32f4.a(nvic.o)
 .debug_line    0x0000000000045c69      0x2e3 /home/user/Devel/stm32/libopencm3/lib/libopencm3_stm32f4.a(pwr.o)
 .debug_line    0x0000000000045f4c      0x566 /home/user/Devel/stm32/libopencm3/lib/libopencm3_stm32f4.a(usb_fx07_common.o)

.debug_str      0x0000000000000000    0x28440
 .debug_str     0x0000000000000000      0x9e6 ././mew.o
                                        0xc57 (size before relaxing)
 .debug_str     0x00000000000009e6       0x25 ././lvgl/porting/lv_port_disp_template.o
                                        0x108 (size before relaxing)
 .debug_str     0x0000000000000a0b       0x26 ././lvgl/porting/lv_port_indev_template.o
                                        0x109 (size before relaxing)
 .debug_str     0x0000000000000a31       0x23 ././lvgl/porting/lv_port_fs_template.o
                                        0x106 (size before relaxing)
 .debug_str     0x0000000000000a54      0x162 ././lvgl/src/lv_misc/lv_async.o
                                        0x338 (size before relaxing)
 .debug_str     0x0000000000000bb6      0x169 ././lvgl/src/lv_misc/lv_mem.o
                                        0x783 (size before relaxing)
 .debug_str     0x0000000000000d1f      0x2fe ././lvgl/src/lv_misc/lv_txt.o
                                        0xada (size before relaxing)
 .debug_str     0x000000000000101d       0x63 ././lvgl/src/lv_misc/lv_utils.o
                                        0x216 (size before relaxing)
 .debug_str     0x0000000000001080      0x11d ././lvgl/src/lv_misc/lv_area.o
                                        0x707 (size before relaxing)
 .debug_str     0x000000000000119d       0x1c ././lvgl/src/lv_misc/lv_templ.o
                                         0xff (size before relaxing)
 .debug_str     0x00000000000011b9       0x19 ././lvgl/src/lv_misc/lv_fs.o
                                        0x180 (size before relaxing)
 .debug_str     0x00000000000011d2      0x3e5 ././lvgl/src/lv_misc/lv_task.o
                                        0xde8 (size before relaxing)
 .debug_str     0x00000000000015b7       0x1a ././lvgl/src/lv_misc/lv_log.o
                                        0x181 (size before relaxing)
 .debug_str     0x00000000000015d1       0xfe ././lvgl/src/lv_misc/lv_ll.o
                                        0x78b (size before relaxing)
 .debug_str     0x00000000000016cf       0x42 ././lvgl/src/lv_misc/lv_circ.o
                                        0x608 (size before relaxing)
 .debug_str     0x0000000000001711       0x80 ././lvgl/src/lv_misc/lv_color.o
                                        0x256 (size before relaxing)
 .debug_str     0x0000000000001791       0x1b ././lvgl/src/lv_misc/lv_anim.o
                                        0x5ac (size before relaxing)
 .debug_str     0x00000000000017ac       0x55 ././lvgl/src/lv_misc/lv_math.o
                                        0x62e (size before relaxing)
 .debug_str     0x0000000000001801       0x19 ././lvgl/src/lv_misc/lv_gc.o
                                        0xaf0 (size before relaxing)
 .debug_str     0x000000000000181a      0x5a3 ././lvgl/src/lv_core/lv_refr.o
                                       0x139f (size before relaxing)
 .debug_str     0x0000000000001dbd      0x78e ././lvgl/src/lv_core/lv_group.o
                                       0x1650 (size before relaxing)
 .debug_str     0x000000000000254b      0x7fc ././lvgl/src/lv_core/lv_indev.o
                                       0x19c9 (size before relaxing)
 .debug_str     0x0000000000002d47      0x983 ././lvgl/src/lv_core/lv_obj.o
                                       0x251b (size before relaxing)
 .debug_str     0x00000000000036ca       0x91 ././lvgl/src/lv_core/lv_disp.o
                                        0xd05 (size before relaxing)
 .debug_str     0x000000000000375b       0x4f ././lvgl/src/lv_core/lv_style.o
                                        0xa17 (size before relaxing)
 .debug_str     0x00000000000037aa       0x63 ././lvgl/src/lv_hal/lv_hal_indev.o
                                       0x1254 (size before relaxing)
 .debug_str     0x000000000000380d       0xfb ././lvgl/src/lv_hal/lv_hal_disp.o
                                       0x1304 (size before relaxing)
 .debug_str     0x0000000000003908       0x60 ././lvgl/src/lv_hal/lv_hal_tick.o
                                        0x21a (size before relaxing)
 .debug_str     0x0000000000003968       0x21 ././lvgl/src/lv_objx/lv_objx_templ.o
                                        0x104 (size before relaxing)
 .debug_str     0x0000000000003989      0x55a ././lvgl/src/lv_objx/lv_win.o
                                       0x1a87 (size before relaxing)
 .debug_str     0x0000000000003ee3       0x1f ././lvgl/src/lv_objx/lv_calendar.o
                                        0x186 (size before relaxing)
 .debug_str     0x0000000000003f02      0x4b8 ././lvgl/src/lv_objx/lv_img.o
                                       0x1429 (size before relaxing)
 .debug_str     0x00000000000043ba      0x3ec ././lvgl/src/lv_objx/lv_table.o
                                       0x154c (size before relaxing)
 .debug_str     0x00000000000047a6      0x400 ././lvgl/src/lv_objx/lv_spinbox.o
                                       0x18c5 (size before relaxing)
 .debug_str     0x0000000000004ba6      0x79b ././lvgl/src/lv_objx/lv_ta.o
                                       0x2505 (size before relaxing)
 .debug_str     0x0000000000005341       0x1e ././lvgl/src/lv_objx/lv_preload.o
                                        0x185 (size before relaxing)
 .debug_str     0x000000000000535f      0x50b ././lvgl/src/lv_objx/lv_list.o
                                       0x20f8 (size before relaxing)
 .debug_str     0x000000000000586a      0x223 ././lvgl/src/lv_objx/lv_cont.o
                                       0x16f4 (size before relaxing)
 .debug_str     0x0000000000005a8d      0x20d ././lvgl/src/lv_objx/lv_cb.o
                                       0x1707 (size before relaxing)
 .debug_str     0x0000000000005c9a      0x340 ././lvgl/src/lv_objx/lv_slider.o
                                       0x18aa (size before relaxing)
 .debug_str     0x0000000000005fda      0x327 ././lvgl/src/lv_objx/lv_page.o
                                       0x1f8c (size before relaxing)
 .debug_str     0x0000000000006301      0x102 ././lvgl/src/lv_objx/lv_imgbtn.o
                                       0x135f (size before relaxing)
 .debug_str     0x0000000000006403       0x1c ././lvgl/src/lv_objx/lv_chart.o
                                        0x183 (size before relaxing)
 .debug_str     0x000000000000641f      0x148 ././lvgl/src/lv_objx/lv_line.o
                                        0xfcc (size before relaxing)
 .debug_str     0x0000000000006567       0xc4 ././lvgl/src/lv_objx/lv_bar.o
                                       0x1375 (size before relaxing)
 .debug_str     0x000000000000662b      0x2c2 ././lvgl/src/lv_objx/lv_label.o
                                       0x16ce (size before relaxing)
 .debug_str     0x00000000000068ed       0xf2 ././lvgl/src/lv_objx/lv_led.o
                                       0x10ea (size before relaxing)
 .debug_str     0x00000000000069df       0x19 ././lvgl/src/lv_objx/lv_kb.o
                                        0x180 (size before relaxing)
 .debug_str     0x00000000000069f8      0x166 ././lvgl/src/lv_objx/lv_sw.o
                                       0x1862 (size before relaxing)
 .debug_str     0x0000000000006b5e       0xee ././lvgl/src/lv_objx/lv_btn.o
                                       0x1583 (size before relaxing)
 .debug_str     0x0000000000006c4c      0x334 ././lvgl/src/lv_objx/lv_gauge.o
                                       0x14c4 (size before relaxing)
 .debug_str     0x0000000000006f80      0x54f ././lvgl/src/lv_objx/lv_btnm.o
                                       0x1ee0 (size before relaxing)
 .debug_str     0x00000000000074cf      0x290 ././lvgl/src/lv_objx/lv_mbox.o
                                       0x1fe9 (size before relaxing)
 .debug_str     0x000000000000775f      0x459 ././lvgl/src/lv_objx/lv_roller.o
                                       0x20ce (size before relaxing)
 .debug_str     0x0000000000007bb8      0x233 ././lvgl/src/lv_objx/lv_ddlist.o
                                       0x20e8 (size before relaxing)
 .debug_str     0x0000000000007deb      0x401 ././lvgl/src/lv_objx/lv_canvas.o
                                       0x1952 (size before relaxing)
 .debug_str     0x00000000000081ec      0x202 ././lvgl/src/lv_objx/lv_tileview.o
                                       0x18cb (size before relaxing)
 .debug_str     0x00000000000083ee      0x119 ././lvgl/src/lv_objx/lv_lmeter.o
                                       0x12a0 (size before relaxing)
 .debug_str     0x0000000000008507      0x4ba ././lvgl/src/lv_objx/lv_tabview.o
                                       0x23e3 (size before relaxing)
 .debug_str     0x00000000000089c1      0x104 ././lvgl/src/lv_objx/lv_arc.o
                                       0x115e (size before relaxing)
 .debug_str     0x0000000000008ac5      0x23e ././lvgl/src/lv_draw/lv_draw_basic.o
                                       0x101f (size before relaxing)
 .debug_str     0x0000000000008d03       0xcb ././lvgl/src/lv_draw/lv_draw_triangle.o
                                        0xaf3 (size before relaxing)
 .debug_str     0x0000000000008dce       0xd3 ././lvgl/src/lv_draw/lv_draw_img.o
                                       0x11f4 (size before relaxing)
 .debug_str     0x0000000000008ea1       0x7e ././lvgl/src/lv_draw/lv_img_cache.o
                                        0xd21 (size before relaxing)
 .debug_str     0x0000000000008f1f       0x73 ././lvgl/src/lv_draw/lv_draw_label.o
                                        0xc89 (size before relaxing)
 .debug_str     0x0000000000008f92       0xa8 ././lvgl/src/lv_draw/lv_draw.o
                                        0xd37 (size before relaxing)
 .debug_str     0x000000000000903a      0x1cf ././lvgl/src/lv_draw/lv_img_decoder.o
                                       0x11cf (size before relaxing)
 .debug_str     0x0000000000009209       0xc8 ././lvgl/src/lv_draw/lv_draw_arc.o
                                        0xb0f (size before relaxing)
 .debug_str     0x00000000000092d1      0x405 ././lvgl/src/lv_draw/lv_draw_rect.o
                                       0x100f (size before relaxing)
 .debug_str     0x00000000000096d6      0x162 ././lvgl/src/lv_draw/lv_draw_line.o
                                        0xc0c (size before relaxing)
 .debug_str     0x0000000000009838       0x24 ././lvgl/src/lv_themes/lv_theme_night.o
                                        0x8b2 (size before relaxing)
 .debug_str     0x000000000000985c       0x24 ././lvgl/src/lv_themes/lv_theme_alien.o
                                        0x8b2 (size before relaxing)
 .debug_str     0x0000000000009880       0x23 ././lvgl/src/lv_themes/lv_theme_mono.o
                                        0x8b1 (size before relaxing)
 .debug_str     0x00000000000098a3       0x23 ././lvgl/src/lv_themes/lv_theme_nemo.o
                                        0x8b1 (size before relaxing)
 .debug_str     0x00000000000098c6      0x21d ././lvgl/src/lv_themes/lv_theme_material.o
                                        0xfae (size before relaxing)
 .debug_str     0x0000000000009ae3       0x41 ././lvgl/src/lv_themes/lv_theme.o
                                        0xc8e (size before relaxing)
 .debug_str     0x0000000000009b24       0x26 ././lvgl/src/lv_themes/lv_theme_default.o
                                        0x8b4 (size before relaxing)
 .debug_str     0x0000000000009b4a       0x24 ././lvgl/src/lv_themes/lv_theme_templ.o
                                        0x8b2 (size before relaxing)
 .debug_str     0x0000000000009b6e       0x22 ././lvgl/src/lv_themes/lv_theme_zen.o
                                        0x8b0 (size before relaxing)
 .debug_str     0x0000000000009b90       0x25 ././lvgl/src/lv_font/lv_font_roboto_28.o
                                        0x96c (size before relaxing)
 .debug_str     0x0000000000009bb5       0x25 ././lvgl/src/lv_font/lv_font_roboto_22.o
                                        0x96c (size before relaxing)
 .debug_str     0x0000000000009bda      0x251 ././lvgl/src/lv_font/lv_font_roboto_12.o
                                        0xc2d (size before relaxing)
 .debug_str     0x0000000000009e2b       0x24 ././lvgl/src/lv_font/lv_font_unscii_8.o
                                        0x96b (size before relaxing)
 .debug_str     0x0000000000009e4f      0x203 ././lvgl/src/lv_font/lv_font_fmt_txt.o
                                        0x6a3 (size before relaxing)
 .debug_str     0x000000000000a052       0x25 ././lvgl/src/lv_font/lv_font_roboto_16.o
                                        0x96c (size before relaxing)
 .debug_str     0x000000000000a077       0x1b ././lvgl/src/lv_font/lv_font.o
                                        0x2df (size before relaxing)
 .debug_str     0x000000000000a092       0x92 ././app/pwd_generator/mew_xor_algo.o
                                        0x7ac (size before relaxing)
 .debug_str     0x000000000000a124       0xa4 ././app/pwd_generator/mew_passgen.o
                                        0x6ea (size before relaxing)
 .debug_str     0x000000000000a1c8      0x73c ././app/qr_code/qrcodegen.o
                                        0xdda (size before relaxing)
 .debug_str     0x000000000000a904      0x2b9 ././app/packet_parser/parser.o
                                        0xa80 (size before relaxing)
 .debug_str     0x000000000000abbd      0x1e4 ././drivers/i2c/i2c.o
                                        0x815 (size before relaxing)
 .debug_str     0x000000000000ada1      0x450 ././drivers/bluetooth/bt_usart.o
                                        0xc61 (size before relaxing)
 .debug_str     0x000000000000b1f1       0xb2 ././drivers/duart/duart.o
                                        0x6e1 (size before relaxing)
 .debug_str     0x000000000000b2a3      0x10e ././drivers/display/ts_tsc2007.o
                                        0xfd9 (size before relaxing)
 .debug_str     0x000000000000b3b1      0x396 ././drivers/display/display.o
                                       0x15a7 (size before relaxing)
 .debug_str     0x000000000000b747      0x622 ././drivers/usb/mew_usb_hid.o
                                        0xe8c (size before relaxing)
 .debug_str     0x000000000000bd69      0x29a ././drivers/spi_flash/flash.o
                                        0xce6 (size before relaxing)
 .debug_str     0x000000000000c003       0x9e ././drivers/spi_flash/w25n01gvzeig.o
                                        0x6c2 (size before relaxing)
 .debug_str     0x000000000000c0a1      0x1a1 ././drivers/flash/otp_storage.o
                                        0xd40 (size before relaxing)
 .debug_str     0x000000000000c242       0xe8 ././drivers/hw_crypt/aes256.o
                                        0xa01 (size before relaxing)
 .debug_str     0x000000000000c32a       0xf2 ././drivers/hw_crypt/P256-cortex-ecdh.o
                                        0x8dd (size before relaxing)
 .debug_str     0x000000000000c41c       0xe0 ././drivers/hw_crypt/secure_eeprom.o
                                        0x922 (size before relaxing)
 .debug_str     0x000000000000c4fc       0x3d ././drivers/hw_crypt/sha2_256.o
                                        0x636 (size before relaxing)
 .debug_str     0x000000000000c539       0xb3 ././drivers/system/systick.o
                                        0xc08 (size before relaxing)
 .debug_str     0x000000000000c5ec       0x3b ././drivers/system/system.o
                                        0x755 (size before relaxing)
 .debug_str     0x000000000000c627       0x3c ././drivers/system/random.o
                                        0x7b5 (size before relaxing)
 .debug_str     0x000000000000c663      0x644 ././drivers/system/clock.o
                                        0xd88 (size before relaxing)
 .debug_str     0x000000000000cca7       0x4d ././debug.o
                                        0x6ab (size before relaxing)
 .debug_str     0x000000000000ccf4       0x3f ././ui/ui_main_win.o
                                        0x990 (size before relaxing)
 .debug_str     0x000000000000cd33       0x5a ././ui/qrcode_ui.o
                                        0xd2d (size before relaxing)
 .debug_str     0x000000000000cd8d      0x24e ././ui/ui_win_startup_1.o
                                       0x1503 (size before relaxing)
 .debug_str     0x000000000000cfdb       0x72 ././ui/ui_header.o
                                       0x1064 (size before relaxing)
 .debug_str     0x000000000000d04d       0x60 ././ui/ui_msgbox.o
                                       0x1229 (size before relaxing)
 .debug_str     0x000000000000d0ad       0x2b ././ui/mew_font_ru_bold_title.o
                                        0xc3b (size before relaxing)
 .debug_str     0x000000000000d0d8       0x60 ././ui/ui_lhandlers.o
                                        0xc01 (size before relaxing)
 .debug_str     0x000000000000d138       0x21 ././ui/mew_logo.o
                                        0xd05 (size before relaxing)
 .debug_str     0x000000000000d159       0x35 ././ui/mew_font_ru_bold.o
                                        0xc4e (size before relaxing)
 .debug_str     0x000000000000d18e     0x85b8 /home/user/Devel/stm32/libopencm3/lib/libopencm3_stm32f4.a(rcc.o)
                                       0x88fe (size before relaxing)
 .debug_str     0x0000000000015746       0xd2 /home/user/Devel/stm32/libopencm3/lib/libopencm3_stm32f4.a(crc_common_all.o)
                                       0x49bc (size before relaxing)
 .debug_str     0x0000000000015818     0x251d /home/user/Devel/stm32/libopencm3/lib/libopencm3_stm32f4.a(dma_common_f24.o)
                                       0x709d (size before relaxing)
 .debug_str     0x0000000000017d35     0x140b /home/user/Devel/stm32/libopencm3/lib/libopencm3_stm32f4.a(gpio_common_all.o)
                                       0x5d05 (size before relaxing)
 .debug_str     0x0000000000019140       0x5b /home/user/Devel/stm32/libopencm3/lib/libopencm3_stm32f4.a(gpio_common_f0234.o)
                                       0x5d27 (size before relaxing)
 .debug_str     0x000000000001919b     0x12fe /home/user/Devel/stm32/libopencm3/lib/libopencm3_stm32f4.a(i2c_common_v1.o)
                                       0x8e40 (size before relaxing)
 .debug_str     0x000000000001a499     0x107f /home/user/Devel/stm32/libopencm3/lib/libopencm3_stm32f4.a(spi_common_all.o)
                                       0x8efa (size before relaxing)
 .debug_str     0x000000000001b518       0x41 /home/user/Devel/stm32/libopencm3/lib/libopencm3_stm32f4.a(spi_common_l1f124.o)
                                       0x8862 (size before relaxing)
 .debug_str     0x000000000001b559     0x12b8 /home/user/Devel/stm32/libopencm3/lib/libopencm3_stm32f4.a(usart_common_all.o)
                                       0x8d98 (size before relaxing)
 .debug_str     0x000000000001c811       0x2d /home/user/Devel/stm32/libopencm3/lib/libopencm3_stm32f4.a(usart_common_f124.o)
                                       0x8bac (size before relaxing)
 .debug_str     0x000000000001c83e       0x7e /home/user/Devel/stm32/libopencm3/lib/libopencm3_stm32f4.a(flash_common_f234.o)
                                       0x5060 (size before relaxing)
 .debug_str     0x000000000001c8bc      0x210 /home/user/Devel/stm32/libopencm3/lib/libopencm3_stm32f4.a(flash_common_f24.o)
                                       0x5290 (size before relaxing)
 .debug_str     0x000000000001cacc      0x525 /home/user/Devel/stm32/libopencm3/lib/libopencm3_stm32f4.a(exti_common_all.o)
                                       0x6244 (size before relaxing)
 .debug_str     0x000000000001cff1      0x102 /home/user/Devel/stm32/libopencm3/lib/libopencm3_stm32f4.a(rcc_common_all.o)
                                       0x8361 (size before relaxing)
 .debug_str     0x000000000001d0f3     0x321c /home/user/Devel/stm32/libopencm3/lib/libopencm3_stm32f4.a(usb.o)
                                       0x716a (size before relaxing)
 .debug_str     0x000000000002030f      0x28e /home/user/Devel/stm32/libopencm3/lib/libopencm3_stm32f4.a(usb_standard.o)
                                       0x7301 (size before relaxing)
 .debug_str     0x000000000002059d      0x1d0 /home/user/Devel/stm32/libopencm3/lib/libopencm3_stm32f4.a(usb_control.o)
                                       0x722a (size before relaxing)
 .debug_str     0x000000000002076d     0x3381 /home/user/Devel/stm32/libopencm3/lib/libopencm3_stm32f4.a(usb_f107.o)
                                       0xebd7 (size before relaxing)
 .debug_str     0x0000000000023aee     0x2a40 /home/user/Devel/stm32/libopencm3/lib/libopencm3_stm32f4.a(vector.o)
                                       0x6371 (size before relaxing)
 .debug_str     0x000000000002652e      0x2e5 /home/user/Devel/stm32/libopencm3/lib/libopencm3_stm32f4.a(systick.o)
                                       0x3c87 (size before relaxing)
 .debug_str     0x0000000000026813      0x9cf /home/user/Devel/stm32/libopencm3/lib/libopencm3_stm32f4.a(nvic.o)
                                       0x4d1a (size before relaxing)
 .debug_str     0x00000000000271e2        0x6 /home/user/Devel/stm32/libopencm3/lib/libopencm3_stm32f4.a(pwr.o)
                                       0x4c36 (size before relaxing)
 .debug_str     0x00000000000271e8     0x1258 /home/user/Devel/stm32/libopencm3/lib/libopencm3_stm32f4.a(usb_fx07_common.o)
                                       0xc71a (size before relaxing)

.comment        0x0000000000000000       0xe3
 .comment       0x0000000000000000       0x75 ././mew.o
                                         0x76 (size before relaxing)
 .comment       0x0000000000000075       0x76 ././lvgl/porting/lv_port_disp_template.o
 .comment       0x0000000000000075       0x76 ././lvgl/porting/lv_port_indev_template.o
 .comment       0x0000000000000075       0x76 ././lvgl/porting/lv_port_fs_template.o
 .comment       0x0000000000000075       0x76 ././lvgl/src/lv_misc/lv_async.o
 .comment       0x0000000000000075       0x76 ././lvgl/src/lv_misc/lv_mem.o
 .comment       0x0000000000000075       0x76 ././lvgl/src/lv_misc/lv_txt.o
 .comment       0x0000000000000075       0x76 ././lvgl/src/lv_misc/lv_utils.o
 .comment       0x0000000000000075       0x76 ././lvgl/src/lv_misc/lv_area.o
 .comment       0x0000000000000075       0x76 ././lvgl/src/lv_misc/lv_templ.o
 .comment       0x0000000000000075       0x76 ././lvgl/src/lv_misc/lv_fs.o
 .comment       0x0000000000000075       0x76 ././lvgl/src/lv_misc/lv_task.o
 .comment       0x0000000000000075       0x76 ././lvgl/src/lv_misc/lv_log.o
 .comment       0x0000000000000075       0x76 ././lvgl/src/lv_misc/lv_ll.o
 .comment       0x0000000000000075       0x76 ././lvgl/src/lv_misc/lv_circ.o
 .comment       0x0000000000000075       0x76 ././lvgl/src/lv_misc/lv_color.o
 .comment       0x0000000000000075       0x76 ././lvgl/src/lv_misc/lv_anim.o
 .comment       0x0000000000000075       0x76 ././lvgl/src/lv_misc/lv_math.o
 .comment       0x0000000000000075       0x76 ././lvgl/src/lv_misc/lv_gc.o
 .comment       0x0000000000000075       0x76 ././lvgl/src/lv_core/lv_refr.o
 .comment       0x0000000000000075       0x76 ././lvgl/src/lv_core/lv_group.o
 .comment       0x0000000000000075       0x76 ././lvgl/src/lv_core/lv_indev.o
 .comment       0x0000000000000075       0x76 ././lvgl/src/lv_core/lv_obj.o
 .comment       0x0000000000000075       0x76 ././lvgl/src/lv_core/lv_disp.o
 .comment       0x0000000000000075       0x76 ././lvgl/src/lv_core/lv_style.o
 .comment       0x0000000000000075       0x76 ././lvgl/src/lv_hal/lv_hal_indev.o
 .comment       0x0000000000000075       0x76 ././lvgl/src/lv_hal/lv_hal_disp.o
 .comment       0x0000000000000075       0x76 ././lvgl/src/lv_hal/lv_hal_tick.o
 .comment       0x0000000000000075       0x76 ././lvgl/src/lv_objx/lv_objx_templ.o
 .comment       0x0000000000000075       0x76 ././lvgl/src/lv_objx/lv_win.o
 .comment       0x0000000000000075       0x76 ././lvgl/src/lv_objx/lv_calendar.o
 .comment       0x0000000000000075       0x76 ././lvgl/src/lv_objx/lv_img.o
 .comment       0x0000000000000075       0x76 ././lvgl/src/lv_objx/lv_table.o
 .comment       0x0000000000000075       0x76 ././lvgl/src/lv_objx/lv_spinbox.o
 .comment       0x0000000000000075       0x76 ././lvgl/src/lv_objx/lv_ta.o
 .comment       0x0000000000000075       0x76 ././lvgl/src/lv_objx/lv_preload.o
 .comment       0x0000000000000075       0x76 ././lvgl/src/lv_objx/lv_list.o
 .comment       0x0000000000000075       0x76 ././lvgl/src/lv_objx/lv_cont.o
 .comment       0x0000000000000075       0x76 ././lvgl/src/lv_objx/lv_cb.o
 .comment       0x0000000000000075       0x76 ././lvgl/src/lv_objx/lv_slider.o
 .comment       0x0000000000000075       0x76 ././lvgl/src/lv_objx/lv_page.o
 .comment       0x0000000000000075       0x76 ././lvgl/src/lv_objx/lv_imgbtn.o
 .comment       0x0000000000000075       0x76 ././lvgl/src/lv_objx/lv_chart.o
 .comment       0x0000000000000075       0x76 ././lvgl/src/lv_objx/lv_line.o
 .comment       0x0000000000000075       0x76 ././lvgl/src/lv_objx/lv_bar.o
 .comment       0x0000000000000075       0x76 ././lvgl/src/lv_objx/lv_label.o
 .comment       0x0000000000000075       0x76 ././lvgl/src/lv_objx/lv_led.o
 .comment       0x0000000000000075       0x76 ././lvgl/src/lv_objx/lv_kb.o
 .comment       0x0000000000000075       0x76 ././lvgl/src/lv_objx/lv_sw.o
 .comment       0x0000000000000075       0x76 ././lvgl/src/lv_objx/lv_btn.o
 .comment       0x0000000000000075       0x76 ././lvgl/src/lv_objx/lv_gauge.o
 .comment       0x0000000000000075       0x76 ././lvgl/src/lv_objx/lv_btnm.o
 .comment       0x0000000000000075       0x76 ././lvgl/src/lv_objx/lv_mbox.o
 .comment       0x0000000000000075       0x76 ././lvgl/src/lv_objx/lv_roller.o
 .comment       0x0000000000000075       0x76 ././lvgl/src/lv_objx/lv_ddlist.o
 .comment       0x0000000000000075       0x76 ././lvgl/src/lv_objx/lv_canvas.o
 .comment       0x0000000000000075       0x76 ././lvgl/src/lv_objx/lv_tileview.o
 .comment       0x0000000000000075       0x76 ././lvgl/src/lv_objx/lv_lmeter.o
 .comment       0x0000000000000075       0x76 ././lvgl/src/lv_objx/lv_tabview.o
 .comment       0x0000000000000075       0x76 ././lvgl/src/lv_objx/lv_arc.o
 .comment       0x0000000000000075       0x76 ././lvgl/src/lv_draw/lv_draw_basic.o
 .comment       0x0000000000000075       0x76 ././lvgl/src/lv_draw/lv_draw_triangle.o
 .comment       0x0000000000000075       0x76 ././lvgl/src/lv_draw/lv_draw_img.o
 .comment       0x0000000000000075       0x76 ././lvgl/src/lv_draw/lv_img_cache.o
 .comment       0x0000000000000075       0x76 ././lvgl/src/lv_draw/lv_draw_label.o
 .comment       0x0000000000000075       0x76 ././lvgl/src/lv_draw/lv_draw.o
 .comment       0x0000000000000075       0x76 ././lvgl/src/lv_draw/lv_img_decoder.o
 .comment       0x0000000000000075       0x76 ././lvgl/src/lv_draw/lv_draw_arc.o
 .comment       0x0000000000000075       0x76 ././lvgl/src/lv_draw/lv_draw_rect.o
 .comment       0x0000000000000075       0x76 ././lvgl/src/lv_draw/lv_draw_line.o
 .comment       0x0000000000000075       0x76 ././lvgl/src/lv_themes/lv_theme_night.o
 .comment       0x0000000000000075       0x76 ././lvgl/src/lv_themes/lv_theme_alien.o
 .comment       0x0000000000000075       0x76 ././lvgl/src/lv_themes/lv_theme_mono.o
 .comment       0x0000000000000075       0x76 ././lvgl/src/lv_themes/lv_theme_nemo.o
 .comment       0x0000000000000075       0x76 ././lvgl/src/lv_themes/lv_theme_material.o
 .comment       0x0000000000000075       0x76 ././lvgl/src/lv_themes/lv_theme.o
 .comment       0x0000000000000075       0x76 ././lvgl/src/lv_themes/lv_theme_default.o
 .comment       0x0000000000000075       0x76 ././lvgl/src/lv_themes/lv_theme_templ.o
 .comment       0x0000000000000075       0x76 ././lvgl/src/lv_themes/lv_theme_zen.o
 .comment       0x0000000000000075       0x76 ././lvgl/src/lv_font/lv_font_roboto_28.o
 .comment       0x0000000000000075       0x76 ././lvgl/src/lv_font/lv_font_roboto_22.o
 .comment       0x0000000000000075       0x76 ././lvgl/src/lv_font/lv_font_roboto_12.o
 .comment       0x0000000000000075       0x76 ././lvgl/src/lv_font/lv_font_unscii_8.o
 .comment       0x0000000000000075       0x76 ././lvgl/src/lv_font/lv_font_fmt_txt.o
 .comment       0x0000000000000075       0x76 ././lvgl/src/lv_font/lv_font_roboto_16.o
 .comment       0x0000000000000075       0x76 ././lvgl/src/lv_font/lv_font.o
 .comment       0x0000000000000075       0x76 ././app/pwd_generator/mew_xor_algo.o
 .comment       0x0000000000000075       0x76 ././app/pwd_generator/mew_passgen.o
 .comment       0x0000000000000075       0x76 ././app/qr_code/qrcodegen.o
 .comment       0x0000000000000075       0x76 ././app/packet_parser/parser.o
 .comment       0x0000000000000075       0x76 ././drivers/i2c/i2c.o
 .comment       0x0000000000000075       0x76 ././drivers/bluetooth/bt_usart.o
 .comment       0x0000000000000075       0x76 ././drivers/duart/duart.o
 .comment       0x0000000000000075       0x76 ././drivers/display/ts_tsc2007.o
 .comment       0x0000000000000075       0x76 ././drivers/display/display.o
 .comment       0x0000000000000075       0x76 ././drivers/usb/mew_usb_hid.o
 .comment       0x0000000000000075       0x76 ././drivers/spi_flash/flash.o
 .comment       0x0000000000000075       0x76 ././drivers/spi_flash/w25n01gvzeig.o
 .comment       0x0000000000000075       0x76 ././drivers/flash/otp_storage.o
 .comment       0x0000000000000075       0x76 ././drivers/hw_crypt/aes256.o
 .comment       0x0000000000000075       0x76 ././drivers/hw_crypt/P256-cortex-ecdh.o
 .comment       0x0000000000000075       0x76 ././drivers/hw_crypt/secure_eeprom.o
 .comment       0x0000000000000075       0x76 ././drivers/hw_crypt/sha2_256.o
 .comment       0x0000000000000075       0x76 ././drivers/system/systick.o
 .comment       0x0000000000000075       0x76 ././drivers/system/system.o
 .comment       0x0000000000000075       0x76 ././drivers/system/random.o
 .comment       0x0000000000000075       0x76 ././drivers/system/clock.o
 .comment       0x0000000000000075       0x76 ././debug.o
 .comment       0x0000000000000075       0x76 ././ui/ui_main_win.o
 .comment       0x0000000000000075       0x76 ././ui/qrcode_ui.o
 .comment       0x0000000000000075       0x76 ././ui/ui_win_startup_1.o
 .comment       0x0000000000000075       0x76 ././ui/ui_header.o
 .comment       0x0000000000000075       0x76 ././ui/ui_msgbox.o
 .comment       0x0000000000000075       0x76 ././ui/mew_font_ru_bold_title.o
 .comment       0x0000000000000075       0x76 ././ui/ui_lhandlers.o
 .comment       0x0000000000000075       0x76 ././ui/mew_logo.o
 .comment       0x0000000000000075       0x76 ././ui/mew_font_ru_bold.o
 .comment       0x0000000000000075       0x6e /home/user/Devel/stm32/libopencm3/lib/libopencm3_stm32f4.a(rcc.o)
                                         0x6f (size before relaxing)
 .comment       0x00000000000000e3       0x6f /home/user/Devel/stm32/libopencm3/lib/libopencm3_stm32f4.a(crc_common_all.o)
 .comment       0x00000000000000e3       0x6f /home/user/Devel/stm32/libopencm3/lib/libopencm3_stm32f4.a(dma_common_f24.o)
 .comment       0x00000000000000e3       0x6f /home/user/Devel/stm32/libopencm3/lib/libopencm3_stm32f4.a(gpio_common_all.o)
 .comment       0x00000000000000e3       0x6f /home/user/Devel/stm32/libopencm3/lib/libopencm3_stm32f4.a(gpio_common_f0234.o)
 .comment       0x00000000000000e3       0x6f /home/user/Devel/stm32/libopencm3/lib/libopencm3_stm32f4.a(i2c_common_v1.o)
 .comment       0x00000000000000e3       0x6f /home/user/Devel/stm32/libopencm3/lib/libopencm3_stm32f4.a(spi_common_all.o)
 .comment       0x00000000000000e3       0x6f /home/user/Devel/stm32/libopencm3/lib/libopencm3_stm32f4.a(spi_common_l1f124.o)
 .comment       0x00000000000000e3       0x6f /home/user/Devel/stm32/libopencm3/lib/libopencm3_stm32f4.a(usart_common_all.o)
 .comment       0x00000000000000e3       0x6f /home/user/Devel/stm32/libopencm3/lib/libopencm3_stm32f4.a(usart_common_f124.o)
 .comment       0x00000000000000e3       0x6f /home/user/Devel/stm32/libopencm3/lib/libopencm3_stm32f4.a(flash_common_f234.o)
 .comment       0x00000000000000e3       0x6f /home/user/Devel/stm32/libopencm3/lib/libopencm3_stm32f4.a(flash_common_f24.o)
 .comment       0x00000000000000e3       0x6f /home/user/Devel/stm32/libopencm3/lib/libopencm3_stm32f4.a(exti_common_all.o)
 .comment       0x00000000000000e3       0x6f /home/user/Devel/stm32/libopencm3/lib/libopencm3_stm32f4.a(rcc_common_all.o)
 .comment       0x00000000000000e3       0x6f /home/user/Devel/stm32/libopencm3/lib/libopencm3_stm32f4.a(usb.o)
 .comment       0x00000000000000e3       0x6f /home/user/Devel/stm32/libopencm3/lib/libopencm3_stm32f4.a(usb_standard.o)
 .comment       0x00000000000000e3       0x6f /home/user/Devel/stm32/libopencm3/lib/libopencm3_stm32f4.a(usb_control.o)
 .comment       0x00000000000000e3       0x6f /home/user/Devel/stm32/libopencm3/lib/libopencm3_stm32f4.a(usb_f107.o)
 .comment       0x00000000000000e3       0x6f /home/user/Devel/stm32/libopencm3/lib/libopencm3_stm32f4.a(vector.o)
 .comment       0x00000000000000e3       0x6f /home/user/Devel/stm32/libopencm3/lib/libopencm3_stm32f4.a(systick.o)
 .comment       0x00000000000000e3       0x6f /home/user/Devel/stm32/libopencm3/lib/libopencm3_stm32f4.a(nvic.o)
 .comment       0x00000000000000e3       0x6f /home/user/Devel/stm32/libopencm3/lib/libopencm3_stm32f4.a(pwr.o)
 .comment       0x00000000000000e3       0x6f /home/user/Devel/stm32/libopencm3/lib/libopencm3_stm32f4.a(usb_fx07_common.o)

.ARM.attributes
                0x0000000000000000       0x32
 .ARM.attributes
                0x0000000000000000       0x34 ././mew.o
 .ARM.attributes
                0x0000000000000034       0x39 ././lvgl/porting/lv_port_disp_template.o
 .ARM.attributes
                0x000000000000006d       0x39 ././lvgl/porting/lv_port_indev_template.o
 .ARM.attributes
                0x00000000000000a6       0x39 ././lvgl/porting/lv_port_fs_template.o
 .ARM.attributes
                0x00000000000000df       0x34 ././lvgl/src/lv_misc/lv_async.o
 .ARM.attributes
                0x0000000000000113       0x34 ././lvgl/src/lv_misc/lv_mem.o
 .ARM.attributes
                0x0000000000000147       0x34 ././lvgl/src/lv_misc/lv_txt.o
 .ARM.attributes
                0x000000000000017b       0x34 ././lvgl/src/lv_misc/lv_utils.o
 .ARM.attributes
                0x00000000000001af       0x34 ././lvgl/src/lv_misc/lv_area.o
 .ARM.attributes
                0x00000000000001e3       0x39 ././lvgl/src/lv_misc/lv_templ.o
 .ARM.attributes
                0x000000000000021c       0x39 ././lvgl/src/lv_misc/lv_fs.o
 .ARM.attributes
                0x0000000000000255       0x34 ././lvgl/src/lv_misc/lv_task.o
 .ARM.attributes
                0x0000000000000289       0x39 ././lvgl/src/lv_misc/lv_log.o
 .ARM.attributes
                0x00000000000002c2       0x34 ././lvgl/src/lv_misc/lv_ll.o
 .ARM.attributes
                0x00000000000002f6       0x34 ././lvgl/src/lv_misc/lv_circ.o
 .ARM.attributes
                0x000000000000032a       0x34 ././lvgl/src/lv_misc/lv_color.o
 .ARM.attributes
                0x000000000000035e       0x39 ././lvgl/src/lv_misc/lv_anim.o
 .ARM.attributes
                0x0000000000000397       0x34 ././lvgl/src/lv_misc/lv_math.o
 .ARM.attributes
                0x00000000000003cb       0x39 ././lvgl/src/lv_misc/lv_gc.o
 .ARM.attributes
                0x0000000000000404       0x34 ././lvgl/src/lv_core/lv_refr.o
 .ARM.attributes
                0x0000000000000438       0x34 ././lvgl/src/lv_core/lv_group.o
 .ARM.attributes
                0x000000000000046c       0x34 ././lvgl/src/lv_core/lv_indev.o
 .ARM.attributes
                0x00000000000004a0       0x34 ././lvgl/src/lv_core/lv_obj.o
 .ARM.attributes
                0x00000000000004d4       0x34 ././lvgl/src/lv_core/lv_disp.o
 .ARM.attributes
                0x0000000000000508       0x34 ././lvgl/src/lv_core/lv_style.o
 .ARM.attributes
                0x000000000000053c       0x34 ././lvgl/src/lv_hal/lv_hal_indev.o
 .ARM.attributes
                0x0000000000000570       0x34 ././lvgl/src/lv_hal/lv_hal_disp.o
 .ARM.attributes
                0x00000000000005a4       0x34 ././lvgl/src/lv_hal/lv_hal_tick.o
 .ARM.attributes
                0x00000000000005d8       0x39 ././lvgl/src/lv_objx/lv_objx_templ.o
 .ARM.attributes
                0x0000000000000611       0x34 ././lvgl/src/lv_objx/lv_win.o
 .ARM.attributes
                0x0000000000000645       0x39 ././lvgl/src/lv_objx/lv_calendar.o
 .ARM.attributes
                0x000000000000067e       0x34 ././lvgl/src/lv_objx/lv_img.o
 .ARM.attributes
                0x00000000000006b2       0x34 ././lvgl/src/lv_objx/lv_table.o
 .ARM.attributes
                0x00000000000006e6       0x34 ././lvgl/src/lv_objx/lv_spinbox.o
 .ARM.attributes
                0x000000000000071a       0x34 ././lvgl/src/lv_objx/lv_ta.o
 .ARM.attributes
                0x000000000000074e       0x39 ././lvgl/src/lv_objx/lv_preload.o
 .ARM.attributes
                0x0000000000000787       0x34 ././lvgl/src/lv_objx/lv_list.o
 .ARM.attributes
                0x00000000000007bb       0x34 ././lvgl/src/lv_objx/lv_cont.o
 .ARM.attributes
                0x00000000000007ef       0x34 ././lvgl/src/lv_objx/lv_cb.o
 .ARM.attributes
                0x0000000000000823       0x34 ././lvgl/src/lv_objx/lv_slider.o
 .ARM.attributes
                0x0000000000000857       0x34 ././lvgl/src/lv_objx/lv_page.o
 .ARM.attributes
                0x000000000000088b       0x34 ././lvgl/src/lv_objx/lv_imgbtn.o
 .ARM.attributes
                0x00000000000008bf       0x39 ././lvgl/src/lv_objx/lv_chart.o
 .ARM.attributes
                0x00000000000008f8       0x34 ././lvgl/src/lv_objx/lv_line.o
 .ARM.attributes
                0x000000000000092c       0x34 ././lvgl/src/lv_objx/lv_bar.o
 .ARM.attributes
                0x0000000000000960       0x34 ././lvgl/src/lv_objx/lv_label.o
 .ARM.attributes
                0x0000000000000994       0x34 ././lvgl/src/lv_objx/lv_led.o
 .ARM.attributes
                0x00000000000009c8       0x39 ././lvgl/src/lv_objx/lv_kb.o
 .ARM.attributes
                0x0000000000000a01       0x34 ././lvgl/src/lv_objx/lv_sw.o
 .ARM.attributes
                0x0000000000000a35       0x34 ././lvgl/src/lv_objx/lv_btn.o
 .ARM.attributes
                0x0000000000000a69       0x34 ././lvgl/src/lv_objx/lv_gauge.o
 .ARM.attributes
                0x0000000000000a9d       0x34 ././lvgl/src/lv_objx/lv_btnm.o
 .ARM.attributes
                0x0000000000000ad1       0x34 ././lvgl/src/lv_objx/lv_mbox.o
 .ARM.attributes
                0x0000000000000b05       0x34 ././lvgl/src/lv_objx/lv_roller.o
 .ARM.attributes
                0x0000000000000b39       0x34 ././lvgl/src/lv_objx/lv_ddlist.o
 .ARM.attributes
                0x0000000000000b6d       0x34 ././lvgl/src/lv_objx/lv_canvas.o
 .ARM.attributes
                0x0000000000000ba1       0x34 ././lvgl/src/lv_objx/lv_tileview.o
 .ARM.attributes
                0x0000000000000bd5       0x34 ././lvgl/src/lv_objx/lv_lmeter.o
 .ARM.attributes
                0x0000000000000c09       0x34 ././lvgl/src/lv_objx/lv_tabview.o
 .ARM.attributes
                0x0000000000000c3d       0x34 ././lvgl/src/lv_objx/lv_arc.o
 .ARM.attributes
                0x0000000000000c71       0x34 ././lvgl/src/lv_draw/lv_draw_basic.o
 .ARM.attributes
                0x0000000000000ca5       0x34 ././lvgl/src/lv_draw/lv_draw_triangle.o
 .ARM.attributes
                0x0000000000000cd9       0x34 ././lvgl/src/lv_draw/lv_draw_img.o
 .ARM.attributes
                0x0000000000000d0d       0x34 ././lvgl/src/lv_draw/lv_img_cache.o
 .ARM.attributes
                0x0000000000000d41       0x34 ././lvgl/src/lv_draw/lv_draw_label.o
 .ARM.attributes
                0x0000000000000d75       0x34 ././lvgl/src/lv_draw/lv_draw.o
 .ARM.attributes
                0x0000000000000da9       0x34 ././lvgl/src/lv_draw/lv_img_decoder.o
 .ARM.attributes
                0x0000000000000ddd       0x34 ././lvgl/src/lv_draw/lv_draw_arc.o
 .ARM.attributes
                0x0000000000000e11       0x34 ././lvgl/src/lv_draw/lv_draw_rect.o
 .ARM.attributes
                0x0000000000000e45       0x34 ././lvgl/src/lv_draw/lv_draw_line.o
 .ARM.attributes
                0x0000000000000e79       0x39 ././lvgl/src/lv_themes/lv_theme_night.o
 .ARM.attributes
                0x0000000000000eb2       0x39 ././lvgl/src/lv_themes/lv_theme_alien.o
 .ARM.attributes
                0x0000000000000eeb       0x39 ././lvgl/src/lv_themes/lv_theme_mono.o
 .ARM.attributes
                0x0000000000000f24       0x39 ././lvgl/src/lv_themes/lv_theme_nemo.o
 .ARM.attributes
                0x0000000000000f5d       0x34 ././lvgl/src/lv_themes/lv_theme_material.o
 .ARM.attributes
                0x0000000000000f91       0x34 ././lvgl/src/lv_themes/lv_theme.o
 .ARM.attributes
                0x0000000000000fc5       0x39 ././lvgl/src/lv_themes/lv_theme_default.o
 .ARM.attributes
                0x0000000000000ffe       0x39 ././lvgl/src/lv_themes/lv_theme_templ.o
 .ARM.attributes
                0x0000000000001037       0x39 ././lvgl/src/lv_themes/lv_theme_zen.o
 .ARM.attributes
                0x0000000000001070       0x39 ././lvgl/src/lv_font/lv_font_roboto_28.o
 .ARM.attributes
                0x00000000000010a9       0x39 ././lvgl/src/lv_font/lv_font_roboto_22.o
 .ARM.attributes
                0x00000000000010e2       0x39 ././lvgl/src/lv_font/lv_font_roboto_12.o
 .ARM.attributes
                0x000000000000111b       0x39 ././lvgl/src/lv_font/lv_font_unscii_8.o
 .ARM.attributes
                0x0000000000001154       0x34 ././lvgl/src/lv_font/lv_font_fmt_txt.o
 .ARM.attributes
                0x0000000000001188       0x39 ././lvgl/src/lv_font/lv_font_roboto_16.o
 .ARM.attributes
                0x00000000000011c1       0x34 ././lvgl/src/lv_font/lv_font.o
 .ARM.attributes
                0x00000000000011f5       0x34 ././app/pwd_generator/mew_xor_algo.o
 .ARM.attributes
                0x0000000000001229       0x34 ././app/pwd_generator/mew_passgen.o
 .ARM.attributes
                0x000000000000125d       0x34 ././app/qr_code/qrcodegen.o
 .ARM.attributes
                0x0000000000001291       0x34 ././app/packet_parser/parser.o
 .ARM.attributes
                0x00000000000012c5       0x34 ././drivers/i2c/i2c.o
 .ARM.attributes
                0x00000000000012f9       0x34 ././drivers/bluetooth/bt_usart.o
 .ARM.attributes
                0x000000000000132d       0x34 ././drivers/duart/duart.o
 .ARM.attributes
                0x0000000000001361       0x34 ././drivers/display/ts_tsc2007.o
 .ARM.attributes
                0x0000000000001395       0x34 ././drivers/display/display.o
 .ARM.attributes
                0x00000000000013c9       0x34 ././drivers/usb/mew_usb_hid.o
 .ARM.attributes
                0x00000000000013fd       0x34 ././drivers/spi_flash/flash.o
 .ARM.attributes
                0x0000000000001431       0x34 ././drivers/spi_flash/w25n01gvzeig.o
 .ARM.attributes
                0x0000000000001465       0x34 ././drivers/flash/otp_storage.o
 .ARM.attributes
                0x0000000000001499       0x34 ././drivers/hw_crypt/aes256.o
 .ARM.attributes
                0x00000000000014cd       0x34 ././drivers/hw_crypt/P256-cortex-ecdh.o
 .ARM.attributes
                0x0000000000001501       0x34 ././drivers/hw_crypt/secure_eeprom.o
 .ARM.attributes
                0x0000000000001535       0x34 ././drivers/hw_crypt/sha2_256.o
 .ARM.attributes
                0x0000000000001569       0x34 ././drivers/system/systick.o
 .ARM.attributes
                0x000000000000159d       0x34 ././drivers/system/system.o
 .ARM.attributes
                0x00000000000015d1       0x34 ././drivers/system/random.o
 .ARM.attributes
                0x0000000000001605       0x34 ././drivers/system/clock.o
 .ARM.attributes
                0x0000000000001639       0x34 ././debug.o
 .ARM.attributes
                0x000000000000166d       0x34 ././ui/ui_main_win.o
 .ARM.attributes
                0x00000000000016a1       0x34 ././ui/qrcode_ui.o
 .ARM.attributes
                0x00000000000016d5       0x34 ././ui/ui_win_startup_1.o
 .ARM.attributes
                0x0000000000001709       0x34 ././ui/ui_header.o
 .ARM.attributes
                0x000000000000173d       0x34 ././ui/ui_msgbox.o
 .ARM.attributes
                0x0000000000001771       0x39 ././ui/mew_font_ru_bold_title.o
 .ARM.attributes
                0x00000000000017aa       0x34 ././ui/ui_lhandlers.o
 .ARM.attributes
                0x00000000000017de       0x39 ././ui/mew_logo.o
 .ARM.attributes
                0x0000000000001817       0x39 ././ui/mew_font_ru_bold.o
 .ARM.attributes
                0x0000000000001850       0x25 ././drivers/hw_crypt/P256-cortex-m4-ecdh-speedopt-gcc.o
 .ARM.attributes
                0x0000000000001875       0x25 ././drivers/system/byteorder.o
 .ARM.attributes
                0x000000000000189a       0x39 /home/user/Devel/stm32/libopencm3/lib/libopencm3_stm32f4.a(rcc.o)
 .ARM.attributes
                0x00000000000018d3       0x39 /home/user/Devel/stm32/libopencm3/lib/libopencm3_stm32f4.a(crc_common_all.o)
 .ARM.attributes
                0x000000000000190c       0x39 /home/user/Devel/stm32/libopencm3/lib/libopencm3_stm32f4.a(dma_common_f24.o)
 .ARM.attributes
                0x0000000000001945       0x39 /home/user/Devel/stm32/libopencm3/lib/libopencm3_stm32f4.a(gpio_common_all.o)
 .ARM.attributes
                0x000000000000197e       0x39 /home/user/Devel/stm32/libopencm3/lib/libopencm3_stm32f4.a(gpio_common_f0234.o)
 .ARM.attributes
                0x00000000000019b7       0x39 /home/user/Devel/stm32/libopencm3/lib/libopencm3_stm32f4.a(i2c_common_v1.o)
 .ARM.attributes
                0x00000000000019f0       0x39 /home/user/Devel/stm32/libopencm3/lib/libopencm3_stm32f4.a(spi_common_all.o)
 .ARM.attributes
                0x0000000000001a29       0x39 /home/user/Devel/stm32/libopencm3/lib/libopencm3_stm32f4.a(spi_common_l1f124.o)
 .ARM.attributes
                0x0000000000001a62       0x39 /home/user/Devel/stm32/libopencm3/lib/libopencm3_stm32f4.a(usart_common_all.o)
 .ARM.attributes
                0x0000000000001a9b       0x39 /home/user/Devel/stm32/libopencm3/lib/libopencm3_stm32f4.a(usart_common_f124.o)
 .ARM.attributes
                0x0000000000001ad4       0x39 /home/user/Devel/stm32/libopencm3/lib/libopencm3_stm32f4.a(flash_common_f234.o)
 .ARM.attributes
                0x0000000000001b0d       0x39 /home/user/Devel/stm32/libopencm3/lib/libopencm3_stm32f4.a(flash_common_f24.o)
 .ARM.attributes
                0x0000000000001b46       0x39 /home/user/Devel/stm32/libopencm3/lib/libopencm3_stm32f4.a(exti_common_all.o)
 .ARM.attributes
                0x0000000000001b7f       0x39 /home/user/Devel/stm32/libopencm3/lib/libopencm3_stm32f4.a(rcc_common_all.o)
 .ARM.attributes
                0x0000000000001bb8       0x39 /home/user/Devel/stm32/libopencm3/lib/libopencm3_stm32f4.a(usb.o)
 .ARM.attributes
                0x0000000000001bf1       0x39 /home/user/Devel/stm32/libopencm3/lib/libopencm3_stm32f4.a(usb_standard.o)
 .ARM.attributes
                0x0000000000001c2a       0x39 /home/user/Devel/stm32/libopencm3/lib/libopencm3_stm32f4.a(usb_control.o)
 .ARM.attributes
                0x0000000000001c63       0x39 /home/user/Devel/stm32/libopencm3/lib/libopencm3_stm32f4.a(usb_f107.o)
 .ARM.attributes
                0x0000000000001c9c       0x39 /home/user/Devel/stm32/libopencm3/lib/libopencm3_stm32f4.a(vector.o)
 .ARM.attributes
                0x0000000000001cd5       0x39 /home/user/Devel/stm32/libopencm3/lib/libopencm3_stm32f4.a(systick.o)
 .ARM.attributes
                0x0000000000001d0e       0x39 /home/user/Devel/stm32/libopencm3/lib/libopencm3_stm32f4.a(nvic.o)
 .ARM.attributes
                0x0000000000001d47       0x39 /home/user/Devel/stm32/libopencm3/lib/libopencm3_stm32f4.a(pwr.o)
 .ARM.attributes
                0x0000000000001d80       0x39 /home/user/Devel/stm32/libopencm3/lib/libopencm3_stm32f4.a(usb_fx07_common.o)
 .ARM.attributes
                0x0000000000001db9       0x34 /home/user/Devel/stm32/gcc-arm-none-eabi-8-2018-q4-major/bin/../lib/gcc/arm-none-eabi/8.2.1/../../../../arm-none-eabi/lib/thumb/v7e-m+fp/hard/libc_nano.a(lib_a-assert.o)
 .ARM.attributes
                0x0000000000001ded       0x34 /home/user/Devel/stm32/gcc-arm-none-eabi-8-2018-q4-major/bin/../lib/gcc/arm-none-eabi/8.2.1/../../../../arm-none-eabi/lib/thumb/v7e-m+fp/hard/libc_nano.a(lib_a-fprintf.o)
 .ARM.attributes
                0x0000000000001e21       0x32 /home/user/Devel/stm32/gcc-arm-none-eabi-8-2018-q4-major/bin/../lib/gcc/arm-none-eabi/8.2.1/../../../../arm-none-eabi/lib/thumb/v7e-m+fp/hard/libc_nano.a(lib_a-impure.o)
 .ARM.attributes
                0x0000000000001e53       0x34 /home/user/Devel/stm32/gcc-arm-none-eabi-8-2018-q4-major/bin/../lib/gcc/arm-none-eabi/8.2.1/../../../../arm-none-eabi/lib/thumb/v7e-m+fp/hard/libc_nano.a(lib_a-memcmp.o)
 .ARM.attributes
                0x0000000000001e87       0x34 /home/user/Devel/stm32/gcc-arm-none-eabi-8-2018-q4-major/bin/../lib/gcc/arm-none-eabi/8.2.1/../../../../arm-none-eabi/lib/thumb/v7e-m+fp/hard/libc_nano.a(lib_a-memcpy-stub.o)
 .ARM.attributes
                0x0000000000001ebb       0x34 /home/user/Devel/stm32/gcc-arm-none-eabi-8-2018-q4-major/bin/../lib/gcc/arm-none-eabi/8.2.1/../../../../arm-none-eabi/lib/thumb/v7e-m+fp/hard/libc_nano.a(lib_a-memmove.o)
 .ARM.attributes
                0x0000000000001eef       0x34 /home/user/Devel/stm32/gcc-arm-none-eabi-8-2018-q4-major/bin/../lib/gcc/arm-none-eabi/8.2.1/../../../../arm-none-eabi/lib/thumb/v7e-m+fp/hard/libc_nano.a(lib_a-memset.o)
 .ARM.attributes
                0x0000000000001f23       0x34 /home/user/Devel/stm32/gcc-arm-none-eabi-8-2018-q4-major/bin/../lib/gcc/arm-none-eabi/8.2.1/../../../../arm-none-eabi/lib/thumb/v7e-m+fp/hard/libc_nano.a(lib_a-nano-vfprintf.o)
 .ARM.attributes
                0x0000000000001f57       0x34 /home/user/Devel/stm32/gcc-arm-none-eabi-8-2018-q4-major/bin/../lib/gcc/arm-none-eabi/8.2.1/../../../../arm-none-eabi/lib/thumb/v7e-m+fp/hard/libc_nano.a(lib_a-nano-vfprintf_i.o)
 .ARM.attributes
                0x0000000000001f8b       0x34 /home/user/Devel/stm32/gcc-arm-none-eabi-8-2018-q4-major/bin/../lib/gcc/arm-none-eabi/8.2.1/../../../../arm-none-eabi/lib/thumb/v7e-m+fp/hard/libc_nano.a(lib_a-strchr.o)
 .ARM.attributes
                0x0000000000001fbf       0x1c /home/user/Devel/stm32/gcc-arm-none-eabi-8-2018-q4-major/bin/../lib/gcc/arm-none-eabi/8.2.1/../../../../arm-none-eabi/lib/thumb/v7e-m+fp/hard/libc_nano.a(lib_a-strcmp.o)
 .ARM.attributes
                0x0000000000001fdb       0x34 /home/user/Devel/stm32/gcc-arm-none-eabi-8-2018-q4-major/bin/../lib/gcc/arm-none-eabi/8.2.1/../../../../arm-none-eabi/lib/thumb/v7e-m+fp/hard/libc_nano.a(lib_a-strcpy.o)
 .ARM.attributes
                0x000000000000200f       0x17 /home/user/Devel/stm32/gcc-arm-none-eabi-8-2018-q4-major/bin/../lib/gcc/arm-none-eabi/8.2.1/../../../../arm-none-eabi/lib/thumb/v7e-m+fp/hard/libc_nano.a(lib_a-strlen.o)
 .ARM.attributes
                0x0000000000002026       0x34 /home/user/Devel/stm32/gcc-arm-none-eabi-8-2018-q4-major/bin/../lib/gcc/arm-none-eabi/8.2.1/../../../../arm-none-eabi/lib/thumb/v7e-m+fp/hard/libc_nano.a(lib_a-strstr.o)
 .ARM.attributes
                0x000000000000205a       0x34 /home/user/Devel/stm32/gcc-arm-none-eabi-8-2018-q4-major/bin/../lib/gcc/arm-none-eabi/8.2.1/../../../../arm-none-eabi/lib/thumb/v7e-m+fp/hard/libc_nano.a(lib_a-wbuf.o)
 .ARM.attributes
                0x000000000000208e       0x34 /home/user/Devel/stm32/gcc-arm-none-eabi-8-2018-q4-major/bin/../lib/gcc/arm-none-eabi/8.2.1/../../../../arm-none-eabi/lib/thumb/v7e-m+fp/hard/libc_nano.a(lib_a-wsetup.o)
 .ARM.attributes
                0x00000000000020c2       0x34 /home/user/Devel/stm32/gcc-arm-none-eabi-8-2018-q4-major/bin/../lib/gcc/arm-none-eabi/8.2.1/../../../../arm-none-eabi/lib/thumb/v7e-m+fp/hard/libc_nano.a(lib_a-abort.o)
 .ARM.attributes
                0x00000000000020f6       0x34 /home/user/Devel/stm32/gcc-arm-none-eabi-8-2018-q4-major/bin/../lib/gcc/arm-none-eabi/8.2.1/../../../../arm-none-eabi/lib/thumb/v7e-m+fp/hard/libc_nano.a(lib_a-fflush.o)
 .ARM.attributes
                0x000000000000212a       0x34 /home/user/Devel/stm32/gcc-arm-none-eabi-8-2018-q4-major/bin/../lib/gcc/arm-none-eabi/8.2.1/../../../../arm-none-eabi/lib/thumb/v7e-m+fp/hard/libc_nano.a(lib_a-findfp.o)
 .ARM.attributes
                0x000000000000215e       0x34 /home/user/Devel/stm32/gcc-arm-none-eabi-8-2018-q4-major/bin/../lib/gcc/arm-none-eabi/8.2.1/../../../../arm-none-eabi/lib/thumb/v7e-m+fp/hard/libc_nano.a(lib_a-fvwrite.o)
 .ARM.attributes
                0x0000000000002192       0x34 /home/user/Devel/stm32/gcc-arm-none-eabi-8-2018-q4-major/bin/../lib/gcc/arm-none-eabi/8.2.1/../../../../arm-none-eabi/lib/thumb/v7e-m+fp/hard/libc_nano.a(lib_a-fwalk.o)
 .ARM.attributes
                0x00000000000021c6       0x34 /home/user/Devel/stm32/gcc-arm-none-eabi-8-2018-q4-major/bin/../lib/gcc/arm-none-eabi/8.2.1/../../../../arm-none-eabi/lib/thumb/v7e-m+fp/hard/libc_nano.a(lib_a-lock.o)
 .ARM.attributes
                0x00000000000021fa       0x34 /home/user/Devel/stm32/gcc-arm-none-eabi-8-2018-q4-major/bin/../lib/gcc/arm-none-eabi/8.2.1/../../../../arm-none-eabi/lib/thumb/v7e-m+fp/hard/libc_nano.a(lib_a-makebuf.o)
 .ARM.attributes
                0x000000000000222e       0x1c /home/user/Devel/stm32/gcc-arm-none-eabi-8-2018-q4-major/bin/../lib/gcc/arm-none-eabi/8.2.1/../../../../arm-none-eabi/lib/thumb/v7e-m+fp/hard/libc_nano.a(lib_a-memchr.o)
 .ARM.attributes
                0x000000000000224a       0x34 /home/user/Devel/stm32/gcc-arm-none-eabi-8-2018-q4-major/bin/../lib/gcc/arm-none-eabi/8.2.1/../../../../arm-none-eabi/lib/thumb/v7e-m+fp/hard/libc_nano.a(lib_a-nano-freer.o)
 .ARM.attributes
                0x000000000000227e       0x34 /home/user/Devel/stm32/gcc-arm-none-eabi-8-2018-q4-major/bin/../lib/gcc/arm-none-eabi/8.2.1/../../../../arm-none-eabi/lib/thumb/v7e-m+fp/hard/libc_nano.a(lib_a-nano-mallocr.o)
 .ARM.attributes
                0x00000000000022b2       0x34 /home/user/Devel/stm32/gcc-arm-none-eabi-8-2018-q4-major/bin/../lib/gcc/arm-none-eabi/8.2.1/../../../../arm-none-eabi/lib/thumb/v7e-m+fp/hard/libc_nano.a(lib_a-nano-reallocr.o)
 .ARM.attributes
                0x00000000000022e6       0x34 /home/user/Devel/stm32/gcc-arm-none-eabi-8-2018-q4-major/bin/../lib/gcc/arm-none-eabi/8.2.1/../../../../arm-none-eabi/lib/thumb/v7e-m+fp/hard/libc_nano.a(lib_a-sbrkr.o)
 .ARM.attributes
                0x000000000000231a       0x34 /home/user/Devel/stm32/gcc-arm-none-eabi-8-2018-q4-major/bin/../lib/gcc/arm-none-eabi/8.2.1/../../../../arm-none-eabi/lib/thumb/v7e-m+fp/hard/libc_nano.a(lib_a-signal.o)
 .ARM.attributes
                0x000000000000234e       0x34 /home/user/Devel/stm32/gcc-arm-none-eabi-8-2018-q4-major/bin/../lib/gcc/arm-none-eabi/8.2.1/../../../../arm-none-eabi/lib/thumb/v7e-m+fp/hard/libc_nano.a(lib_a-signalr.o)
 .ARM.attributes
                0x0000000000002382       0x34 /home/user/Devel/stm32/gcc-arm-none-eabi-8-2018-q4-major/bin/../lib/gcc/arm-none-eabi/8.2.1/../../../../arm-none-eabi/lib/thumb/v7e-m+fp/hard/libc_nano.a(lib_a-stdio.o)
 .ARM.attributes
                0x00000000000023b6       0x34 /home/user/Devel/stm32/gcc-arm-none-eabi-8-2018-q4-major/bin/../lib/gcc/arm-none-eabi/8.2.1/../../../../arm-none-eabi/lib/thumb/v7e-m+fp/hard/libc_nano.a(lib_a-writer.o)
 .ARM.attributes
                0x00000000000023ea       0x34 /home/user/Devel/stm32/gcc-arm-none-eabi-8-2018-q4-major/bin/../lib/gcc/arm-none-eabi/8.2.1/../../../../arm-none-eabi/lib/thumb/v7e-m+fp/hard/libc_nano.a(lib_a-closer.o)
 .ARM.attributes
                0x000000000000241e       0x34 /home/user/Devel/stm32/gcc-arm-none-eabi-8-2018-q4-major/bin/../lib/gcc/arm-none-eabi/8.2.1/../../../../arm-none-eabi/lib/thumb/v7e-m+fp/hard/libc_nano.a(lib_a-fstatr.o)
 .ARM.attributes
                0x0000000000002452       0x34 /home/user/Devel/stm32/gcc-arm-none-eabi-8-2018-q4-major/bin/../lib/gcc/arm-none-eabi/8.2.1/../../../../arm-none-eabi/lib/thumb/v7e-m+fp/hard/libc_nano.a(lib_a-isattyr.o)
 .ARM.attributes
                0x0000000000002486       0x34 /home/user/Devel/stm32/gcc-arm-none-eabi-8-2018-q4-major/bin/../lib/gcc/arm-none-eabi/8.2.1/../../../../arm-none-eabi/lib/thumb/v7e-m+fp/hard/libc_nano.a(lib_a-lseekr.o)
 .ARM.attributes
                0x00000000000024ba       0x34 /home/user/Devel/stm32/gcc-arm-none-eabi-8-2018-q4-major/bin/../lib/gcc/arm-none-eabi/8.2.1/../../../../arm-none-eabi/lib/thumb/v7e-m+fp/hard/libc_nano.a(lib_a-mlock.o)
 .ARM.attributes
                0x00000000000024ee       0x34 /home/user/Devel/stm32/gcc-arm-none-eabi-8-2018-q4-major/bin/../lib/gcc/arm-none-eabi/8.2.1/../../../../arm-none-eabi/lib/thumb/v7e-m+fp/hard/libc_nano.a(lib_a-nano-msizer.o)
 .ARM.attributes
                0x0000000000002522       0x34 /home/user/Devel/stm32/gcc-arm-none-eabi-8-2018-q4-major/bin/../lib/gcc/arm-none-eabi/8.2.1/../../../../arm-none-eabi/lib/thumb/v7e-m+fp/hard/libc_nano.a(lib_a-readr.o)
 .ARM.attributes
                0x0000000000002556       0x34 /home/user/Devel/stm32/gcc-arm-none-eabi-8-2018-q4-major/bin/../lib/gcc/arm-none-eabi/8.2.1/../../../../arm-none-eabi/lib/thumb/v7e-m+fp/hard/libc_nano.a(lib_a-reent.o)
 .ARM.attributes
                0x000000000000258a       0x34 /home/user/Devel/stm32/gcc-arm-none-eabi-8-2018-q4-major/bin/../lib/gcc/arm-none-eabi/8.2.1/../../../../arm-none-eabi/lib/thumb/v7e-m+fp/hard/libnosys.a(close.o)
 .ARM.attributes
                0x00000000000025be       0x34 /home/user/Devel/stm32/gcc-arm-none-eabi-8-2018-q4-major/bin/../lib/gcc/arm-none-eabi/8.2.1/../../../../arm-none-eabi/lib/thumb/v7e-m+fp/hard/libnosys.a(fstat.o)
 .ARM.attributes
                0x00000000000025f2       0x34 /home/user/Devel/stm32/gcc-arm-none-eabi-8-2018-q4-major/bin/../lib/gcc/arm-none-eabi/8.2.1/../../../../arm-none-eabi/lib/thumb/v7e-m+fp/hard/libnosys.a(getpid.o)
 .ARM.attributes
                0x0000000000002626       0x34 /home/user/Devel/stm32/gcc-arm-none-eabi-8-2018-q4-major/bin/../lib/gcc/arm-none-eabi/8.2.1/../../../../arm-none-eabi/lib/thumb/v7e-m+fp/hard/libnosys.a(isatty.o)
 .ARM.attributes
                0x000000000000265a       0x34 /home/user/Devel/stm32/gcc-arm-none-eabi-8-2018-q4-major/bin/../lib/gcc/arm-none-eabi/8.2.1/../../../../arm-none-eabi/lib/thumb/v7e-m+fp/hard/libnosys.a(kill.o)
 .ARM.attributes
                0x000000000000268e       0x34 /home/user/Devel/stm32/gcc-arm-none-eabi-8-2018-q4-major/bin/../lib/gcc/arm-none-eabi/8.2.1/../../../../arm-none-eabi/lib/thumb/v7e-m+fp/hard/libnosys.a(lseek.o)
 .ARM.attributes
                0x00000000000026c2       0x34 /home/user/Devel/stm32/gcc-arm-none-eabi-8-2018-q4-major/bin/../lib/gcc/arm-none-eabi/8.2.1/../../../../arm-none-eabi/lib/thumb/v7e-m+fp/hard/libnosys.a(read.o)
 .ARM.attributes
                0x00000000000026f6       0x34 /home/user/Devel/stm32/gcc-arm-none-eabi-8-2018-q4-major/bin/../lib/gcc/arm-none-eabi/8.2.1/../../../../arm-none-eabi/lib/thumb/v7e-m+fp/hard/libnosys.a(sbrk.o)
 .ARM.attributes
                0x000000000000272a       0x34 /home/user/Devel/stm32/gcc-arm-none-eabi-8-2018-q4-major/bin/../lib/gcc/arm-none-eabi/8.2.1/../../../../arm-none-eabi/lib/thumb/v7e-m+fp/hard/libnosys.a(write.o)
 .ARM.attributes
                0x000000000000275e       0x34 /home/user/Devel/stm32/gcc-arm-none-eabi-8-2018-q4-major/bin/../lib/gcc/arm-none-eabi/8.2.1/../../../../arm-none-eabi/lib/thumb/v7e-m+fp/hard/libnosys.a(_exit.o)

.debug_frame    0x0000000000000000     0xa174
 .debug_frame   0x0000000000000000       0x30 ././mew.o
 .debug_frame   0x0000000000000030       0x4c ././lvgl/src/lv_misc/lv_async.o
 .debug_frame   0x000000000000007c      0x100 ././lvgl/src/lv_misc/lv_mem.o
 .debug_frame   0x000000000000017c      0x274 ././lvgl/src/lv_misc/lv_txt.o
 .debug_frame   0x00000000000003f0       0x5c ././lvgl/src/lv_misc/lv_utils.o
 .debug_frame   0x000000000000044c       0xfc ././lvgl/src/lv_misc/lv_area.o
 .debug_frame   0x0000000000000548      0x170 ././lvgl/src/lv_misc/lv_task.o
 .debug_frame   0x00000000000006b8      0x1c8 ././lvgl/src/lv_misc/lv_ll.o
 .debug_frame   0x0000000000000880       0x5c ././lvgl/src/lv_misc/lv_circ.o
 .debug_frame   0x00000000000008dc       0x60 ././lvgl/src/lv_misc/lv_color.o
 .debug_frame   0x000000000000093c       0x44 ././lvgl/src/lv_misc/lv_math.o
 .debug_frame   0x0000000000000980      0x174 ././lvgl/src/lv_core/lv_refr.o
 .debug_frame   0x0000000000000af4      0x348 ././lvgl/src/lv_core/lv_group.o
 .debug_frame   0x0000000000000e3c      0x230 ././lvgl/src/lv_core/lv_indev.o
 .debug_frame   0x000000000000106c      0x87c ././lvgl/src/lv_core/lv_obj.o
 .debug_frame   0x00000000000018e8       0xe8 ././lvgl/src/lv_core/lv_disp.o
 .debug_frame   0x00000000000019d0       0x80 ././lvgl/src/lv_core/lv_style.o
 .debug_frame   0x0000000000001a50       0x78 ././lvgl/src/lv_hal/lv_hal_indev.o
 .debug_frame   0x0000000000001ac8      0x164 ././lvgl/src/lv_hal/lv_hal_disp.o
 .debug_frame   0x0000000000001c2c       0x58 ././lvgl/src/lv_hal/lv_hal_tick.o
 .debug_frame   0x0000000000001c84      0x328 ././lvgl/src/lv_objx/lv_win.o
 .debug_frame   0x0000000000001fac      0x18c ././lvgl/src/lv_objx/lv_img.o
 .debug_frame   0x0000000000002138      0x3a8 ././lvgl/src/lv_objx/lv_table.o
 .debug_frame   0x00000000000024e0      0x1f0 ././lvgl/src/lv_objx/lv_spinbox.o
 .debug_frame   0x00000000000026d0      0x6e4 ././lvgl/src/lv_objx/lv_ta.o
 .debug_frame   0x0000000000002db4      0x39c ././lvgl/src/lv_objx/lv_list.o
 .debug_frame   0x0000000000003150      0x198 ././lvgl/src/lv_objx/lv_cont.o
 .debug_frame   0x00000000000032e8      0x1a8 ././lvgl/src/lv_objx/lv_cb.o
 .debug_frame   0x0000000000003490      0x17c ././lvgl/src/lv_objx/lv_slider.o
 .debug_frame   0x000000000000360c      0x3c8 ././lvgl/src/lv_objx/lv_page.o
 .debug_frame   0x00000000000039d4      0x110 ././lvgl/src/lv_objx/lv_imgbtn.o
 .debug_frame   0x0000000000003ae4      0x144 ././lvgl/src/lv_objx/lv_line.o
 .debug_frame   0x0000000000003c28      0x1c8 ././lvgl/src/lv_objx/lv_bar.o
 .debug_frame   0x0000000000003df0      0x428 ././lvgl/src/lv_objx/lv_label.o
 .debug_frame   0x0000000000004218      0x104 ././lvgl/src/lv_objx/lv_led.o
 .debug_frame   0x000000000000431c      0x148 ././lvgl/src/lv_objx/lv_sw.o
 .debug_frame   0x0000000000004464      0x1c4 ././lvgl/src/lv_objx/lv_btn.o
 .debug_frame   0x0000000000004628      0x174 ././lvgl/src/lv_objx/lv_gauge.o
 .debug_frame   0x000000000000479c      0x408 ././lvgl/src/lv_objx/lv_btnm.o
 .debug_frame   0x0000000000004ba4      0x2d4 ././lvgl/src/lv_objx/lv_mbox.o
 .debug_frame   0x0000000000004e78      0x2a8 ././lvgl/src/lv_objx/lv_roller.o
 .debug_frame   0x0000000000005120      0x424 ././lvgl/src/lv_objx/lv_ddlist.o
 .debug_frame   0x0000000000005544      0x2c8 ././lvgl/src/lv_objx/lv_canvas.o
 .debug_frame   0x000000000000580c      0x148 ././lvgl/src/lv_objx/lv_tileview.o
 .debug_frame   0x0000000000005954      0x1a0 ././lvgl/src/lv_objx/lv_lmeter.o
 .debug_frame   0x0000000000005af4      0x3c8 ././lvgl/src/lv_objx/lv_tabview.o
 .debug_frame   0x0000000000005ebc      0x110 ././lvgl/src/lv_objx/lv_arc.o
 .debug_frame   0x0000000000005fcc       0xf4 ././lvgl/src/lv_draw/lv_draw_basic.o
 .debug_frame   0x00000000000060c0       0xec ././lvgl/src/lv_draw/lv_draw_triangle.o
 .debug_frame   0x00000000000061ac      0x17c ././lvgl/src/lv_draw/lv_draw_img.o
 .debug_frame   0x0000000000006328       0x70 ././lvgl/src/lv_draw/lv_img_cache.o
 .debug_frame   0x0000000000006398       0x54 ././lvgl/src/lv_draw/lv_draw_label.o
 .debug_frame   0x00000000000063ec       0xac ././lvgl/src/lv_draw/lv_draw.o
 .debug_frame   0x0000000000006498      0x194 ././lvgl/src/lv_draw/lv_img_decoder.o
 .debug_frame   0x000000000000662c       0x88 ././lvgl/src/lv_draw/lv_draw_arc.o
 .debug_frame   0x00000000000066b4       0x84 ././lvgl/src/lv_draw/lv_draw_rect.o
 .debug_frame   0x0000000000006738       0x88 ././lvgl/src/lv_draw/lv_draw_line.o
 .debug_frame   0x00000000000067c0       0x88 ././lvgl/src/lv_themes/lv_theme_material.o
 .debug_frame   0x0000000000006848       0x3c ././lvgl/src/lv_themes/lv_theme.o
 .debug_frame   0x0000000000006884       0xd4 ././lvgl/src/lv_font/lv_font_fmt_txt.o
 .debug_frame   0x0000000000006958       0x5c ././lvgl/src/lv_font/lv_font.o
 .debug_frame   0x00000000000069b4       0x88 ././app/pwd_generator/mew_xor_algo.o
 .debug_frame   0x0000000000006a3c       0x38 ././app/pwd_generator/mew_passgen.o
 .debug_frame   0x0000000000006a74      0x3a4 ././app/qr_code/qrcodegen.o
 .debug_frame   0x0000000000006e18       0xd0 ././app/packet_parser/parser.o
 .debug_frame   0x0000000000006ee8       0xf4 ././drivers/i2c/i2c.o
 .debug_frame   0x0000000000006fdc       0xe4 ././drivers/bluetooth/bt_usart.o
 .debug_frame   0x00000000000070c0       0xd4 ././drivers/duart/duart.o
 .debug_frame   0x0000000000007194       0x74 ././drivers/display/ts_tsc2007.o
 .debug_frame   0x0000000000007208      0x138 ././drivers/display/display.o
 .debug_frame   0x0000000000007340       0xf4 ././drivers/usb/mew_usb_hid.o
 .debug_frame   0x0000000000007434       0xe0 ././drivers/spi_flash/flash.o
 .debug_frame   0x0000000000007514       0x5c ././drivers/spi_flash/w25n01gvzeig.o
 .debug_frame   0x0000000000007570       0x58 ././drivers/flash/otp_storage.o
 .debug_frame   0x00000000000075c8       0x68 ././drivers/hw_crypt/aes256.o
 .debug_frame   0x0000000000007630       0xdc ././drivers/hw_crypt/P256-cortex-ecdh.o
 .debug_frame   0x000000000000770c       0x74 ././drivers/hw_crypt/secure_eeprom.o
 .debug_frame   0x0000000000007780       0x54 ././drivers/hw_crypt/sha2_256.o
 .debug_frame   0x00000000000077d4       0x58 ././drivers/system/systick.o
 .debug_frame   0x000000000000782c       0x3c ././drivers/system/system.o
 .debug_frame   0x0000000000007868       0x5c ././drivers/system/random.o
 .debug_frame   0x00000000000078c4       0x28 ././drivers/system/clock.o
 .debug_frame   0x00000000000078ec       0xb0 ././debug.o
 .debug_frame   0x000000000000799c       0x20 ././ui/ui_main_win.o
 .debug_frame   0x00000000000079bc       0x58 ././ui/qrcode_ui.o
 .debug_frame   0x0000000000007a14      0x188 ././ui/ui_win_startup_1.o
 .debug_frame   0x0000000000007b9c       0x9c ././ui/ui_header.o
 .debug_frame   0x0000000000007c38       0x60 ././ui/ui_msgbox.o
 .debug_frame   0x0000000000007c98       0x50 ././ui/ui_lhandlers.o
 .debug_frame   0x0000000000007ce8      0x1fc /home/user/Devel/stm32/libopencm3/lib/libopencm3_stm32f4.a(rcc.o)
 .debug_frame   0x0000000000007ee4       0x48 /home/user/Devel/stm32/libopencm3/lib/libopencm3_stm32f4.a(crc_common_all.o)
 .debug_frame   0x0000000000007f2c      0x314 /home/user/Devel/stm32/libopencm3/lib/libopencm3_stm32f4.a(dma_common_f24.o)
 .debug_frame   0x0000000000008240       0x80 /home/user/Devel/stm32/libopencm3/lib/libopencm3_stm32f4.a(gpio_common_all.o)
 .debug_frame   0x00000000000082c0       0x70 /home/user/Devel/stm32/libopencm3/lib/libopencm3_stm32f4.a(gpio_common_f0234.o)
 .debug_frame   0x0000000000008330      0x21c /home/user/Devel/stm32/libopencm3/lib/libopencm3_stm32f4.a(i2c_common_v1.o)
 .debug_frame   0x000000000000854c      0x2d0 /home/user/Devel/stm32/libopencm3/lib/libopencm3_stm32f4.a(spi_common_all.o)
 .debug_frame   0x000000000000881c       0x4c /home/user/Devel/stm32/libopencm3/lib/libopencm3_stm32f4.a(spi_common_l1f124.o)
 .debug_frame   0x0000000000008868      0x178 /home/user/Devel/stm32/libopencm3/lib/libopencm3_stm32f4.a(usart_common_all.o)
 .debug_frame   0x00000000000089e0       0x60 /home/user/Devel/stm32/libopencm3/lib/libopencm3_stm32f4.a(usart_common_f124.o)
 .debug_frame   0x0000000000008a40       0x80 /home/user/Devel/stm32/libopencm3/lib/libopencm3_stm32f4.a(flash_common_f234.o)
 .debug_frame   0x0000000000008ac0      0x1ec /home/user/Devel/stm32/libopencm3/lib/libopencm3_stm32f4.a(flash_common_f24.o)
 .debug_frame   0x0000000000008cac       0x88 /home/user/Devel/stm32/libopencm3/lib/libopencm3_stm32f4.a(exti_common_all.o)
 .debug_frame   0x0000000000008d34       0xb0 /home/user/Devel/stm32/libopencm3/lib/libopencm3_stm32f4.a(rcc_common_all.o)
 .debug_frame   0x0000000000008de4      0x13c /home/user/Devel/stm32/libopencm3/lib/libopencm3_stm32f4.a(usb.o)
 .debug_frame   0x0000000000008f20      0x1ec /home/user/Devel/stm32/libopencm3/lib/libopencm3_stm32f4.a(usb_standard.o)
 .debug_frame   0x000000000000910c      0x154 /home/user/Devel/stm32/libopencm3/lib/libopencm3_stm32f4.a(usb_control.o)
 .debug_frame   0x0000000000009260       0x28 /home/user/Devel/stm32/libopencm3/lib/libopencm3_stm32f4.a(usb_f107.o)
 .debug_frame   0x0000000000009288       0x40 /home/user/Devel/stm32/libopencm3/lib/libopencm3_stm32f4.a(vector.o)
 .debug_frame   0x00000000000092c8       0xd8 /home/user/Devel/stm32/libopencm3/lib/libopencm3_stm32f4.a(systick.o)
 .debug_frame   0x00000000000093a0       0xa0 /home/user/Devel/stm32/libopencm3/lib/libopencm3_stm32f4.a(nvic.o)
 .debug_frame   0x0000000000009440       0x20 /home/user/Devel/stm32/libopencm3/lib/libopencm3_stm32f4.a(pwr.o)
 .debug_frame   0x0000000000009460      0x110 /home/user/Devel/stm32/libopencm3/lib/libopencm3_stm32f4.a(usb_fx07_common.o)
 .debug_frame   0x0000000000009570       0x40 /home/user/Devel/stm32/gcc-arm-none-eabi-8-2018-q4-major/bin/../lib/gcc/arm-none-eabi/8.2.1/../../../../arm-none-eabi/lib/thumb/v7e-m+fp/hard/libc_nano.a(lib_a-assert.o)
 .debug_frame   0x00000000000095b0       0x64 /home/user/Devel/stm32/gcc-arm-none-eabi-8-2018-q4-major/bin/../lib/gcc/arm-none-eabi/8.2.1/../../../../arm-none-eabi/lib/thumb/v7e-m+fp/hard/libc_nano.a(lib_a-fprintf.o)
 .debug_frame   0x0000000000009614       0x2c /home/user/Devel/stm32/gcc-arm-none-eabi-8-2018-q4-major/bin/../lib/gcc/arm-none-eabi/8.2.1/../../../../arm-none-eabi/lib/thumb/v7e-m+fp/hard/libc_nano.a(lib_a-memcmp.o)
 .debug_frame   0x0000000000009640       0x28 /home/user/Devel/stm32/gcc-arm-none-eabi-8-2018-q4-major/bin/../lib/gcc/arm-none-eabi/8.2.1/../../../../arm-none-eabi/lib/thumb/v7e-m+fp/hard/libc_nano.a(lib_a-memcpy-stub.o)
 .debug_frame   0x0000000000009668       0x28 /home/user/Devel/stm32/gcc-arm-none-eabi-8-2018-q4-major/bin/../lib/gcc/arm-none-eabi/8.2.1/../../../../arm-none-eabi/lib/thumb/v7e-m+fp/hard/libc_nano.a(lib_a-memmove.o)
 .debug_frame   0x0000000000009690       0x20 /home/user/Devel/stm32/gcc-arm-none-eabi-8-2018-q4-major/bin/../lib/gcc/arm-none-eabi/8.2.1/../../../../arm-none-eabi/lib/thumb/v7e-m+fp/hard/libc_nano.a(lib_a-memset.o)
 .debug_frame   0x00000000000096b0       0xac /home/user/Devel/stm32/gcc-arm-none-eabi-8-2018-q4-major/bin/../lib/gcc/arm-none-eabi/8.2.1/../../../../arm-none-eabi/lib/thumb/v7e-m+fp/hard/libc_nano.a(lib_a-nano-vfprintf.o)
 .debug_frame   0x000000000000975c       0x60 /home/user/Devel/stm32/gcc-arm-none-eabi-8-2018-q4-major/bin/../lib/gcc/arm-none-eabi/8.2.1/../../../../arm-none-eabi/lib/thumb/v7e-m+fp/hard/libc_nano.a(lib_a-nano-vfprintf_i.o)
 .debug_frame   0x00000000000097bc       0x20 /home/user/Devel/stm32/gcc-arm-none-eabi-8-2018-q4-major/bin/../lib/gcc/arm-none-eabi/8.2.1/../../../../arm-none-eabi/lib/thumb/v7e-m+fp/hard/libc_nano.a(lib_a-strchr.o)
 .debug_frame   0x00000000000097dc       0x20 /home/user/Devel/stm32/gcc-arm-none-eabi-8-2018-q4-major/bin/../lib/gcc/arm-none-eabi/8.2.1/../../../../arm-none-eabi/lib/thumb/v7e-m+fp/hard/libc_nano.a(lib_a-strcmp.o)
 .debug_frame   0x00000000000097fc       0x20 /home/user/Devel/stm32/gcc-arm-none-eabi-8-2018-q4-major/bin/../lib/gcc/arm-none-eabi/8.2.1/../../../../arm-none-eabi/lib/thumb/v7e-m+fp/hard/libc_nano.a(lib_a-strcpy.o)
 .debug_frame   0x000000000000981c       0x30 /home/user/Devel/stm32/gcc-arm-none-eabi-8-2018-q4-major/bin/../lib/gcc/arm-none-eabi/8.2.1/../../../../arm-none-eabi/lib/thumb/v7e-m+fp/hard/libc_nano.a(lib_a-strstr.o)
 .debug_frame   0x000000000000984c       0x40 /home/user/Devel/stm32/gcc-arm-none-eabi-8-2018-q4-major/bin/../lib/gcc/arm-none-eabi/8.2.1/../../../../arm-none-eabi/lib/thumb/v7e-m+fp/hard/libc_nano.a(lib_a-wbuf.o)
 .debug_frame   0x000000000000988c       0x2c /home/user/Devel/stm32/gcc-arm-none-eabi-8-2018-q4-major/bin/../lib/gcc/arm-none-eabi/8.2.1/../../../../arm-none-eabi/lib/thumb/v7e-m+fp/hard/libc_nano.a(lib_a-wsetup.o)
 .debug_frame   0x00000000000098b8       0x28 /home/user/Devel/stm32/gcc-arm-none-eabi-8-2018-q4-major/bin/../lib/gcc/arm-none-eabi/8.2.1/../../../../arm-none-eabi/lib/thumb/v7e-m+fp/hard/libc_nano.a(lib_a-abort.o)
 .debug_frame   0x00000000000098e0       0x5c /home/user/Devel/stm32/gcc-arm-none-eabi-8-2018-q4-major/bin/../lib/gcc/arm-none-eabi/8.2.1/../../../../arm-none-eabi/lib/thumb/v7e-m+fp/hard/libc_nano.a(lib_a-fflush.o)
 .debug_frame   0x000000000000993c      0x14c /home/user/Devel/stm32/gcc-arm-none-eabi-8-2018-q4-major/bin/../lib/gcc/arm-none-eabi/8.2.1/../../../../arm-none-eabi/lib/thumb/v7e-m+fp/hard/libc_nano.a(lib_a-findfp.o)
 .debug_frame   0x0000000000009a88       0x3c /home/user/Devel/stm32/gcc-arm-none-eabi-8-2018-q4-major/bin/../lib/gcc/arm-none-eabi/8.2.1/../../../../arm-none-eabi/lib/thumb/v7e-m+fp/hard/libc_nano.a(lib_a-fvwrite.o)
 .debug_frame   0x0000000000009ac4       0x54 /home/user/Devel/stm32/gcc-arm-none-eabi-8-2018-q4-major/bin/../lib/gcc/arm-none-eabi/8.2.1/../../../../arm-none-eabi/lib/thumb/v7e-m+fp/hard/libc_nano.a(lib_a-fwalk.o)
 .debug_frame   0x0000000000009b18       0xb0 /home/user/Devel/stm32/gcc-arm-none-eabi-8-2018-q4-major/bin/../lib/gcc/arm-none-eabi/8.2.1/../../../../arm-none-eabi/lib/thumb/v7e-m+fp/hard/libc_nano.a(lib_a-lock.o)
 .debug_frame   0x0000000000009bc8       0x58 /home/user/Devel/stm32/gcc-arm-none-eabi-8-2018-q4-major/bin/../lib/gcc/arm-none-eabi/8.2.1/../../../../arm-none-eabi/lib/thumb/v7e-m+fp/hard/libc_nano.a(lib_a-makebuf.o)
 .debug_frame   0x0000000000009c20       0x38 /home/user/Devel/stm32/gcc-arm-none-eabi-8-2018-q4-major/bin/../lib/gcc/arm-none-eabi/8.2.1/../../../../arm-none-eabi/lib/thumb/v7e-m+fp/hard/libc_nano.a(lib_a-nano-freer.o)
 .debug_frame   0x0000000000009c58       0x30 /home/user/Devel/stm32/gcc-arm-none-eabi-8-2018-q4-major/bin/../lib/gcc/arm-none-eabi/8.2.1/../../../../arm-none-eabi/lib/thumb/v7e-m+fp/hard/libc_nano.a(lib_a-nano-mallocr.o)
 .debug_frame   0x0000000000009c88       0x3c /home/user/Devel/stm32/gcc-arm-none-eabi-8-2018-q4-major/bin/../lib/gcc/arm-none-eabi/8.2.1/../../../../arm-none-eabi/lib/thumb/v7e-m+fp/hard/libc_nano.a(lib_a-nano-reallocr.o)
 .debug_frame   0x0000000000009cc4       0x2c /home/user/Devel/stm32/gcc-arm-none-eabi-8-2018-q4-major/bin/../lib/gcc/arm-none-eabi/8.2.1/../../../../arm-none-eabi/lib/thumb/v7e-m+fp/hard/libc_nano.a(lib_a-sbrkr.o)
 .debug_frame   0x0000000000009cf0       0xcc /home/user/Devel/stm32/gcc-arm-none-eabi-8-2018-q4-major/bin/../lib/gcc/arm-none-eabi/8.2.1/../../../../arm-none-eabi/lib/thumb/v7e-m+fp/hard/libc_nano.a(lib_a-signal.o)
 .debug_frame   0x0000000000009dbc       0x3c /home/user/Devel/stm32/gcc-arm-none-eabi-8-2018-q4-major/bin/../lib/gcc/arm-none-eabi/8.2.1/../../../../arm-none-eabi/lib/thumb/v7e-m+fp/hard/libc_nano.a(lib_a-signalr.o)
 .debug_frame   0x0000000000009df8       0x88 /home/user/Devel/stm32/gcc-arm-none-eabi-8-2018-q4-major/bin/../lib/gcc/arm-none-eabi/8.2.1/../../../../arm-none-eabi/lib/thumb/v7e-m+fp/hard/libc_nano.a(lib_a-stdio.o)
 .debug_frame   0x0000000000009e80       0x2c /home/user/Devel/stm32/gcc-arm-none-eabi-8-2018-q4-major/bin/../lib/gcc/arm-none-eabi/8.2.1/../../../../arm-none-eabi/lib/thumb/v7e-m+fp/hard/libc_nano.a(lib_a-writer.o)
 .debug_frame   0x0000000000009eac       0x2c /home/user/Devel/stm32/gcc-arm-none-eabi-8-2018-q4-major/bin/../lib/gcc/arm-none-eabi/8.2.1/../../../../arm-none-eabi/lib/thumb/v7e-m+fp/hard/libc_nano.a(lib_a-closer.o)
 .debug_frame   0x0000000000009ed8       0x2c /home/user/Devel/stm32/gcc-arm-none-eabi-8-2018-q4-major/bin/../lib/gcc/arm-none-eabi/8.2.1/../../../../arm-none-eabi/lib/thumb/v7e-m+fp/hard/libc_nano.a(lib_a-fstatr.o)
 .debug_frame   0x0000000000009f04       0x2c /home/user/Devel/stm32/gcc-arm-none-eabi-8-2018-q4-major/bin/../lib/gcc/arm-none-eabi/8.2.1/../../../../arm-none-eabi/lib/thumb/v7e-m+fp/hard/libc_nano.a(lib_a-isattyr.o)
 .debug_frame   0x0000000000009f30       0x2c /home/user/Devel/stm32/gcc-arm-none-eabi-8-2018-q4-major/bin/../lib/gcc/arm-none-eabi/8.2.1/../../../../arm-none-eabi/lib/thumb/v7e-m+fp/hard/libc_nano.a(lib_a-lseekr.o)
 .debug_frame   0x0000000000009f5c       0x30 /home/user/Devel/stm32/gcc-arm-none-eabi-8-2018-q4-major/bin/../lib/gcc/arm-none-eabi/8.2.1/../../../../arm-none-eabi/lib/thumb/v7e-m+fp/hard/libc_nano.a(lib_a-mlock.o)
 .debug_frame   0x0000000000009f8c       0x20 /home/user/Devel/stm32/gcc-arm-none-eabi-8-2018-q4-major/bin/../lib/gcc/arm-none-eabi/8.2.1/../../../../arm-none-eabi/lib/thumb/v7e-m+fp/hard/libc_nano.a(lib_a-nano-msizer.o)
 .debug_frame   0x0000000000009fac       0x2c /home/user/Devel/stm32/gcc-arm-none-eabi-8-2018-q4-major/bin/../lib/gcc/arm-none-eabi/8.2.1/../../../../arm-none-eabi/lib/thumb/v7e-m+fp/hard/libc_nano.a(lib_a-readr.o)
 .debug_frame   0x0000000000009fd8       0x5c /home/user/Devel/stm32/gcc-arm-none-eabi-8-2018-q4-major/bin/../lib/gcc/arm-none-eabi/8.2.1/../../../../arm-none-eabi/lib/thumb/v7e-m+fp/hard/libc_nano.a(lib_a-reent.o)
 .debug_frame   0x000000000000a034       0x20 /home/user/Devel/stm32/gcc-arm-none-eabi-8-2018-q4-major/bin/../lib/gcc/arm-none-eabi/8.2.1/../../../../arm-none-eabi/lib/thumb/v7e-m+fp/hard/libnosys.a(close.o)
 .debug_frame   0x000000000000a054       0x20 /home/user/Devel/stm32/gcc-arm-none-eabi-8-2018-q4-major/bin/../lib/gcc/arm-none-eabi/8.2.1/../../../../arm-none-eabi/lib/thumb/v7e-m+fp/hard/libnosys.a(fstat.o)
 .debug_frame   0x000000000000a074       0x20 /home/user/Devel/stm32/gcc-arm-none-eabi-8-2018-q4-major/bin/../lib/gcc/arm-none-eabi/8.2.1/../../../../arm-none-eabi/lib/thumb/v7e-m+fp/hard/libnosys.a(getpid.o)
 .debug_frame   0x000000000000a094       0x20 /home/user/Devel/stm32/gcc-arm-none-eabi-8-2018-q4-major/bin/../lib/gcc/arm-none-eabi/8.2.1/../../../../arm-none-eabi/lib/thumb/v7e-m+fp/hard/libnosys.a(isatty.o)
 .debug_frame   0x000000000000a0b4       0x20 /home/user/Devel/stm32/gcc-arm-none-eabi-8-2018-q4-major/bin/../lib/gcc/arm-none-eabi/8.2.1/../../../../arm-none-eabi/lib/thumb/v7e-m+fp/hard/libnosys.a(kill.o)
 .debug_frame   0x000000000000a0d4       0x20 /home/user/Devel/stm32/gcc-arm-none-eabi-8-2018-q4-major/bin/../lib/gcc/arm-none-eabi/8.2.1/../../../../arm-none-eabi/lib/thumb/v7e-m+fp/hard/libnosys.a(lseek.o)
 .debug_frame   0x000000000000a0f4       0x20 /home/user/Devel/stm32/gcc-arm-none-eabi-8-2018-q4-major/bin/../lib/gcc/arm-none-eabi/8.2.1/../../../../arm-none-eabi/lib/thumb/v7e-m+fp/hard/libnosys.a(read.o)
 .debug_frame   0x000000000000a114       0x20 /home/user/Devel/stm32/gcc-arm-none-eabi-8-2018-q4-major/bin/../lib/gcc/arm-none-eabi/8.2.1/../../../../arm-none-eabi/lib/thumb/v7e-m+fp/hard/libnosys.a(sbrk.o)
 .debug_frame   0x000000000000a134       0x20 /home/user/Devel/stm32/gcc-arm-none-eabi-8-2018-q4-major/bin/../lib/gcc/arm-none-eabi/8.2.1/../../../../arm-none-eabi/lib/thumb/v7e-m+fp/hard/libnosys.a(write.o)
 .debug_frame   0x000000000000a154       0x20 /home/user/Devel/stm32/gcc-arm-none-eabi-8-2018-q4-major/bin/../lib/gcc/arm-none-eabi/8.2.1/../../../../arm-none-eabi/lib/thumb/v7e-m+fp/hard/libnosys.a(_exit.o)

.debug_macro    0x0000000000000000     0x7039
 .debug_macro   0x0000000000000000      0x106 /home/user/Devel/stm32/libopencm3/lib/libopencm3_stm32f4.a(rcc.o)
 .debug_macro   0x0000000000000106      0x88c /home/user/Devel/stm32/libopencm3/lib/libopencm3_stm32f4.a(rcc.o)
 .debug_macro   0x0000000000000992       0x22 /home/user/Devel/stm32/libopencm3/lib/libopencm3_stm32f4.a(rcc.o)
 .debug_macro   0x00000000000009b4       0x87 /home/user/Devel/stm32/libopencm3/lib/libopencm3_stm32f4.a(rcc.o)
 .debug_macro   0x0000000000000a3b       0x44 /home/user/Devel/stm32/libopencm3/lib/libopencm3_stm32f4.a(rcc.o)
 .debug_macro   0x0000000000000a7f       0xfd /home/user/Devel/stm32/libopencm3/lib/libopencm3_stm32f4.a(rcc.o)
 .debug_macro   0x0000000000000b7c       0x5e /home/user/Devel/stm32/libopencm3/lib/libopencm3_stm32f4.a(rcc.o)
 .debug_macro   0x0000000000000bda      0x1df /home/user/Devel/stm32/libopencm3/lib/libopencm3_stm32f4.a(rcc.o)
 .debug_macro   0x0000000000000db9       0x22 /home/user/Devel/stm32/libopencm3/lib/libopencm3_stm32f4.a(rcc.o)
 .debug_macro   0x0000000000000ddb       0xfa /home/user/Devel/stm32/libopencm3/lib/libopencm3_stm32f4.a(rcc.o)
 .debug_macro   0x0000000000000ed5       0x16 /home/user/Devel/stm32/libopencm3/lib/libopencm3_stm32f4.a(rcc.o)
 .debug_macro   0x0000000000000eeb       0x58 /home/user/Devel/stm32/libopencm3/lib/libopencm3_stm32f4.a(rcc.o)
 .debug_macro   0x0000000000000f43      0x26d /home/user/Devel/stm32/libopencm3/lib/libopencm3_stm32f4.a(rcc.o)
 .debug_macro   0x00000000000011b0      0xb3f /home/user/Devel/stm32/libopencm3/lib/libopencm3_stm32f4.a(rcc.o)
 .debug_macro   0x0000000000001cef       0x8e /home/user/Devel/stm32/libopencm3/lib/libopencm3_stm32f4.a(rcc.o)
 .debug_macro   0x0000000000001d7d       0x22 /home/user/Devel/stm32/libopencm3/lib/libopencm3_stm32f4.a(rcc.o)
 .debug_macro   0x0000000000001d9f       0x6a /home/user/Devel/stm32/libopencm3/lib/libopencm3_stm32f4.a(rcc.o)
 .debug_macro   0x0000000000001e09       0xf4 /home/user/Devel/stm32/libopencm3/lib/libopencm3_stm32f4.a(rcc.o)
 .debug_macro   0x0000000000001efd       0xb4 /home/user/Devel/stm32/libopencm3/lib/libopencm3_stm32f4.a(crc_common_all.o)
 .debug_macro   0x0000000000001fb1       0x22 /home/user/Devel/stm32/libopencm3/lib/libopencm3_stm32f4.a(crc_common_all.o)
 .debug_macro   0x0000000000001fd3       0xb4 /home/user/Devel/stm32/libopencm3/lib/libopencm3_stm32f4.a(dma_common_f24.o)
 .debug_macro   0x0000000000002087      0x86d /home/user/Devel/stm32/libopencm3/lib/libopencm3_stm32f4.a(dma_common_f24.o)
 .debug_macro   0x00000000000028f4       0xd2 /home/user/Devel/stm32/libopencm3/lib/libopencm3_stm32f4.a(gpio_common_all.o)
 .debug_macro   0x00000000000029c6       0x76 /home/user/Devel/stm32/libopencm3/lib/libopencm3_stm32f4.a(gpio_common_all.o)
 .debug_macro   0x0000000000002a3c      0x2e6 /home/user/Devel/stm32/libopencm3/lib/libopencm3_stm32f4.a(gpio_common_all.o)
 .debug_macro   0x0000000000002d22      0x14e /home/user/Devel/stm32/libopencm3/lib/libopencm3_stm32f4.a(gpio_common_all.o)
 .debug_macro   0x0000000000002e70       0xd2 /home/user/Devel/stm32/libopencm3/lib/libopencm3_stm32f4.a(gpio_common_f0234.o)
 .debug_macro   0x0000000000002f42       0xe1 /home/user/Devel/stm32/libopencm3/lib/libopencm3_stm32f4.a(i2c_common_v1.o)
 .debug_macro   0x0000000000003023      0x174 /home/user/Devel/stm32/libopencm3/lib/libopencm3_stm32f4.a(i2c_common_v1.o)
 .debug_macro   0x0000000000003197      0x327 /home/user/Devel/stm32/libopencm3/lib/libopencm3_stm32f4.a(i2c_common_v1.o)
 .debug_macro   0x00000000000034be       0xea /home/user/Devel/stm32/libopencm3/lib/libopencm3_stm32f4.a(spi_common_all.o)
 .debug_macro   0x00000000000035a8      0x2eb /home/user/Devel/stm32/libopencm3/lib/libopencm3_stm32f4.a(spi_common_all.o)
 .debug_macro   0x0000000000003893       0x16 /home/user/Devel/stm32/libopencm3/lib/libopencm3_stm32f4.a(spi_common_all.o)
 .debug_macro   0x00000000000038a9       0x1c /home/user/Devel/stm32/libopencm3/lib/libopencm3_stm32f4.a(spi_common_all.o)
 .debug_macro   0x00000000000038c5       0xea /home/user/Devel/stm32/libopencm3/lib/libopencm3_stm32f4.a(spi_common_l1f124.o)
 .debug_macro   0x00000000000039af       0xea /home/user/Devel/stm32/libopencm3/lib/libopencm3_stm32f4.a(usart_common_all.o)
 .debug_macro   0x0000000000003a99       0x8e /home/user/Devel/stm32/libopencm3/lib/libopencm3_stm32f4.a(usart_common_all.o)
 .debug_macro   0x0000000000003b27      0x273 /home/user/Devel/stm32/libopencm3/lib/libopencm3_stm32f4.a(usart_common_all.o)
 .debug_macro   0x0000000000003d9a       0xa0 /home/user/Devel/stm32/libopencm3/lib/libopencm3_stm32f4.a(usart_common_all.o)
 .debug_macro   0x0000000000003e3a       0xea /home/user/Devel/stm32/libopencm3/lib/libopencm3_stm32f4.a(usart_common_f124.o)
 .debug_macro   0x0000000000003f24       0xc3 /home/user/Devel/stm32/libopencm3/lib/libopencm3_stm32f4.a(flash_common_f234.o)
 .debug_macro   0x0000000000003fe7       0xc3 /home/user/Devel/stm32/libopencm3/lib/libopencm3_stm32f4.a(flash_common_f24.o)
 .debug_macro   0x00000000000040aa      0x100 /home/user/Devel/stm32/libopencm3/lib/libopencm3_stm32f4.a(exti_common_all.o)
 .debug_macro   0x00000000000041aa      0x112 /home/user/Devel/stm32/libopencm3/lib/libopencm3_stm32f4.a(exti_common_all.o)
 .debug_macro   0x00000000000042bc       0x3a /home/user/Devel/stm32/libopencm3/lib/libopencm3_stm32f4.a(exti_common_all.o)
 .debug_macro   0x00000000000042f6       0xcf /home/user/Devel/stm32/libopencm3/lib/libopencm3_stm32f4.a(rcc_common_all.o)
 .debug_macro   0x00000000000043c5      0x154 /home/user/Devel/stm32/libopencm3/lib/libopencm3_stm32f4.a(usb.o)
 .debug_macro   0x0000000000004519       0x4c /home/user/Devel/stm32/libopencm3/lib/libopencm3_stm32f4.a(usb.o)
 .debug_macro   0x0000000000004565       0x8d /home/user/Devel/stm32/libopencm3/lib/libopencm3_stm32f4.a(usb.o)
 .debug_macro   0x00000000000045f2       0x35 /home/user/Devel/stm32/libopencm3/lib/libopencm3_stm32f4.a(usb.o)
 .debug_macro   0x0000000000004627       0x9c /home/user/Devel/stm32/libopencm3/lib/libopencm3_stm32f4.a(usb.o)
 .debug_macro   0x00000000000046c3       0x4a /home/user/Devel/stm32/libopencm3/lib/libopencm3_stm32f4.a(usb.o)
 .debug_macro   0x000000000000470d       0x52 /home/user/Devel/stm32/libopencm3/lib/libopencm3_stm32f4.a(usb.o)
 .debug_macro   0x000000000000475f       0x1f /home/user/Devel/stm32/libopencm3/lib/libopencm3_stm32f4.a(usb.o)
 .debug_macro   0x000000000000477e       0x43 /home/user/Devel/stm32/libopencm3/lib/libopencm3_stm32f4.a(usb.o)
 .debug_macro   0x00000000000047c1       0x20 /home/user/Devel/stm32/libopencm3/lib/libopencm3_stm32f4.a(usb.o)
 .debug_macro   0x00000000000047e1      0x187 /home/user/Devel/stm32/libopencm3/lib/libopencm3_stm32f4.a(usb.o)
 .debug_macro   0x0000000000004968      0x30d /home/user/Devel/stm32/libopencm3/lib/libopencm3_stm32f4.a(usb.o)
 .debug_macro   0x0000000000004c75       0x10 /home/user/Devel/stm32/libopencm3/lib/libopencm3_stm32f4.a(usb.o)
 .debug_macro   0x0000000000004c85       0x35 /home/user/Devel/stm32/libopencm3/lib/libopencm3_stm32f4.a(usb.o)
 .debug_macro   0x0000000000004cba      0x196 /home/user/Devel/stm32/libopencm3/lib/libopencm3_stm32f4.a(usb.o)
 .debug_macro   0x0000000000004e50       0x10 /home/user/Devel/stm32/libopencm3/lib/libopencm3_stm32f4.a(usb.o)
 .debug_macro   0x0000000000004e60       0x1c /home/user/Devel/stm32/libopencm3/lib/libopencm3_stm32f4.a(usb.o)
 .debug_macro   0x0000000000004e7c      0x154 /home/user/Devel/stm32/libopencm3/lib/libopencm3_stm32f4.a(usb_standard.o)
 .debug_macro   0x0000000000004fd0      0x161 /home/user/Devel/stm32/libopencm3/lib/libopencm3_stm32f4.a(usb_control.o)
 .debug_macro   0x0000000000005131       0x16 /home/user/Devel/stm32/libopencm3/lib/libopencm3_stm32f4.a(usb_control.o)
 .debug_macro   0x0000000000005147      0x10e /home/user/Devel/stm32/libopencm3/lib/libopencm3_stm32f4.a(usb_control.o)
 .debug_macro   0x0000000000005255       0x8d /home/user/Devel/stm32/libopencm3/lib/libopencm3_stm32f4.a(usb_control.o)
 .debug_macro   0x00000000000052e2       0x16 /home/user/Devel/stm32/libopencm3/lib/libopencm3_stm32f4.a(usb_control.o)
 .debug_macro   0x00000000000052f8       0x29 /home/user/Devel/stm32/libopencm3/lib/libopencm3_stm32f4.a(usb_control.o)
 .debug_macro   0x0000000000005321      0x1b9 /home/user/Devel/stm32/libopencm3/lib/libopencm3_stm32f4.a(usb_f107.o)
 .debug_macro   0x00000000000054da       0x3a /home/user/Devel/stm32/libopencm3/lib/libopencm3_stm32f4.a(usb_f107.o)
 .debug_macro   0x0000000000005514      0x8d7 /home/user/Devel/stm32/libopencm3/lib/libopencm3_stm32f4.a(usb_f107.o)
 .debug_macro   0x0000000000005deb      0x130 /home/user/Devel/stm32/libopencm3/lib/libopencm3_stm32f4.a(usb_f107.o)
 .debug_macro   0x0000000000005f1b      0x19c /home/user/Devel/stm32/libopencm3/lib/libopencm3_stm32f4.a(usb_f107.o)
 .debug_macro   0x00000000000060b7       0xd4 /home/user/Devel/stm32/libopencm3/lib/libopencm3_stm32f4.a(vector.o)
 .debug_macro   0x000000000000618b      0x3a1 /home/user/Devel/stm32/libopencm3/lib/libopencm3_stm32f4.a(vector.o)
 .debug_macro   0x000000000000652c       0x6a /home/user/Devel/stm32/libopencm3/lib/libopencm3_stm32f4.a(vector.o)
 .debug_macro   0x0000000000006596      0x22c /home/user/Devel/stm32/libopencm3/lib/libopencm3_stm32f4.a(vector.o)
 .debug_macro   0x00000000000067c2       0x93 /home/user/Devel/stm32/libopencm3/lib/libopencm3_stm32f4.a(systick.o)
 .debug_macro   0x0000000000006855       0x64 /home/user/Devel/stm32/libopencm3/lib/libopencm3_stm32f4.a(systick.o)
 .debug_macro   0x00000000000068b9       0xb4 /home/user/Devel/stm32/libopencm3/lib/libopencm3_stm32f4.a(nvic.o)
 .debug_macro   0x000000000000696d       0x64 /home/user/Devel/stm32/libopencm3/lib/libopencm3_stm32f4.a(nvic.o)
 .debug_macro   0x00000000000069d1      0x1b0 /home/user/Devel/stm32/libopencm3/lib/libopencm3_stm32f4.a(nvic.o)
 .debug_macro   0x0000000000006b81       0xb9 /home/user/Devel/stm32/libopencm3/lib/libopencm3_stm32f4.a(pwr.o)
 .debug_macro   0x0000000000006c3a      0x1b0 /home/user/Devel/stm32/libopencm3/lib/libopencm3_stm32f4.a(usb_fx07_common.o)
 .debug_macro   0x0000000000006dea      0x24f /home/user/Devel/stm32/libopencm3/lib/libopencm3_stm32f4.a(usb_fx07_common.o)

.stab           0x0000000000000000       0xcc
 .stab          0x0000000000000000       0x24 /home/user/Devel/stm32/gcc-arm-none-eabi-8-2018-q4-major/bin/../lib/gcc/arm-none-eabi/8.2.1/../../../../arm-none-eabi/lib/thumb/v7e-m+fp/hard/libnosys.a(close.o)
 .stab          0x0000000000000024       0x18 /home/user/Devel/stm32/gcc-arm-none-eabi-8-2018-q4-major/bin/../lib/gcc/arm-none-eabi/8.2.1/../../../../arm-none-eabi/lib/thumb/v7e-m+fp/hard/libnosys.a(fstat.o)
                                         0x24 (size before relaxing)
 .stab          0x000000000000003c       0x18 /home/user/Devel/stm32/gcc-arm-none-eabi-8-2018-q4-major/bin/../lib/gcc/arm-none-eabi/8.2.1/../../../../arm-none-eabi/lib/thumb/v7e-m+fp/hard/libnosys.a(getpid.o)
                                         0x24 (size before relaxing)
 .stab          0x0000000000000054       0x18 /home/user/Devel/stm32/gcc-arm-none-eabi-8-2018-q4-major/bin/../lib/gcc/arm-none-eabi/8.2.1/../../../../arm-none-eabi/lib/thumb/v7e-m+fp/hard/libnosys.a(isatty.o)
                                         0x24 (size before relaxing)
 .stab          0x000000000000006c       0x18 /home/user/Devel/stm32/gcc-arm-none-eabi-8-2018-q4-major/bin/../lib/gcc/arm-none-eabi/8.2.1/../../../../arm-none-eabi/lib/thumb/v7e-m+fp/hard/libnosys.a(kill.o)
                                         0x24 (size before relaxing)
 .stab          0x0000000000000084       0x18 /home/user/Devel/stm32/gcc-arm-none-eabi-8-2018-q4-major/bin/../lib/gcc/arm-none-eabi/8.2.1/../../../../arm-none-eabi/lib/thumb/v7e-m+fp/hard/libnosys.a(lseek.o)
                                         0x24 (size before relaxing)
 .stab          0x000000000000009c       0x18 /home/user/Devel/stm32/gcc-arm-none-eabi-8-2018-q4-major/bin/../lib/gcc/arm-none-eabi/8.2.1/../../../../arm-none-eabi/lib/thumb/v7e-m+fp/hard/libnosys.a(read.o)
                                         0x24 (size before relaxing)
 .stab          0x00000000000000b4       0x18 /home/user/Devel/stm32/gcc-arm-none-eabi-8-2018-q4-major/bin/../lib/gcc/arm-none-eabi/8.2.1/../../../../arm-none-eabi/lib/thumb/v7e-m+fp/hard/libnosys.a(write.o)
                                         0x24 (size before relaxing)

.stabstr        0x0000000000000000      0x1b9
 .stabstr       0x0000000000000000      0x1b9 /home/user/Devel/stm32/gcc-arm-none-eabi-8-2018-q4-major/bin/../lib/gcc/arm-none-eabi/8.2.1/../../../../arm-none-eabi/lib/thumb/v7e-m+fp/hard/libnosys.a(close.o)
