Archive member included to satisfy reference by file (symbol)

/home/user/Devel/stm32/libopencm3/lib/libopencm3_stm32f4.a(rcc.o)
                              ././drivers/system/clock.o (rcc_clock_setup_hse_3v3)
/home/user/Devel/stm32/libopencm3/lib/libopencm3_stm32f4.a(crc_common_all.o)
                              ././drivers/flash/otp_storage.o (crc_reset)
/home/user/Devel/stm32/libopencm3/lib/libopencm3_stm32f4.a(dma_common_f24.o)
                              ././drivers/bluetooth/bt_usart.o (dma_stream_reset)
/home/user/Devel/stm32/libopencm3/lib/libopencm3_stm32f4.a(gpio_common_all.o)
                              ././drivers/bluetooth/bt_usart.o (gpio_set)
/home/user/Devel/stm32/libopencm3/lib/libopencm3_stm32f4.a(gpio_common_f0234.o)
                              ././drivers/bluetooth/bt_usart.o (gpio_mode_setup)
/home/user/Devel/stm32/libopencm3/lib/libopencm3_stm32f4.a(i2c_common_v1.o)
                              ././drivers/i2c/i2c.o (i2c_reset)
/home/user/Devel/stm32/libopencm3/lib/libopencm3_stm32f4.a(spi_common_all.o)
                              ././drivers/display/display.o (spi_reset)
/home/user/Devel/stm32/libopencm3/lib/libopencm3_stm32f4.a(spi_common_l1f124.o)
                              ././drivers/display/display.o (spi_set_dff_8bit)
/home/user/Devel/stm32/libopencm3/lib/libopencm3_stm32f4.a(usart_common_all.o)
                              ././drivers/bluetooth/bt_usart.o (usart_set_baudrate)
/home/user/Devel/stm32/libopencm3/lib/libopencm3_stm32f4.a(usart_common_f124.o)
                              /home/user/Devel/stm32/libopencm3/lib/libopencm3_stm32f4.a(usart_common_all.o) (usart_send)
/home/user/Devel/stm32/libopencm3/lib/libopencm3_stm32f4.a(flash_common_f234.o)
                              /home/user/Devel/stm32/libopencm3/lib/libopencm3_stm32f4.a(rcc.o) (flash_set_ws)
/home/user/Devel/stm32/libopencm3/lib/libopencm3_stm32f4.a(flash_common_f24.o)
                              ././drivers/flash/otp_storage.o (flash_program)
/home/user/Devel/stm32/libopencm3/lib/libopencm3_stm32f4.a(exti_common_all.o)
                              ././drivers/display/ts_tsc2007.o (exti_set_trigger)
/home/user/Devel/stm32/libopencm3/lib/libopencm3_stm32f4.a(rcc_common_all.o)
                              ././drivers/system/clock.o (rcc_periph_clock_enable)
/home/user/Devel/stm32/libopencm3/lib/libopencm3_stm32f4.a(usb.o)
                              ././drivers/usb/mew_usb_hid.o (usbd_init)
/home/user/Devel/stm32/libopencm3/lib/libopencm3_stm32f4.a(usb_standard.o)
                              ././drivers/usb/mew_usb_hid.o (usbd_register_set_config_callback)
/home/user/Devel/stm32/libopencm3/lib/libopencm3_stm32f4.a(usb_control.o)
                              ././drivers/usb/mew_usb_hid.o (usbd_register_control_callback)
/home/user/Devel/stm32/libopencm3/lib/libopencm3_stm32f4.a(usb_f107.o)
                              ././drivers/usb/mew_usb_hid.o (stm32f107_usb_driver)
/home/user/Devel/stm32/libopencm3/lib/libopencm3_stm32f4.a(vector.o)
                              (reset_handler)
/home/user/Devel/stm32/libopencm3/lib/libopencm3_stm32f4.a(systick.o)
                              ././drivers/system/systick.o (systick_set_reload)
/home/user/Devel/stm32/libopencm3/lib/libopencm3_stm32f4.a(nvic.o)
                              ././drivers/bluetooth/bt_usart.o (nvic_enable_irq)
/home/user/Devel/stm32/libopencm3/lib/libopencm3_stm32f4.a(pwr.o)
                              /home/user/Devel/stm32/libopencm3/lib/libopencm3_stm32f4.a(rcc.o) (pwr_set_vos_scale)
/home/user/Devel/stm32/libopencm3/lib/libopencm3_stm32f4.a(usb_fx07_common.o)
                              /home/user/Devel/stm32/libopencm3/lib/libopencm3_stm32f4.a(usb_f107.o) (stm32fx07_set_address)
/home/user/Devel/stm32/gcc-arm-none-eabi-8-2018-q4-major/bin/../lib/gcc/arm-none-eabi/8.2.1/../../../../arm-none-eabi/lib/thumb/v7e-m+fp/hard/libc_nano.a(lib_a-assert.o)
                              ././app/qr_code/qrcodegen.o (__assert_func)
/home/user/Devel/stm32/gcc-arm-none-eabi-8-2018-q4-major/bin/../lib/gcc/arm-none-eabi/8.2.1/../../../../arm-none-eabi/lib/thumb/v7e-m+fp/hard/libc_nano.a(lib_a-fprintf.o)
                              /home/user/Devel/stm32/gcc-arm-none-eabi-8-2018-q4-major/bin/../lib/gcc/arm-none-eabi/8.2.1/../../../../arm-none-eabi/lib/thumb/v7e-m+fp/hard/libc_nano.a(lib_a-assert.o) (fiprintf)
/home/user/Devel/stm32/gcc-arm-none-eabi-8-2018-q4-major/bin/../lib/gcc/arm-none-eabi/8.2.1/../../../../arm-none-eabi/lib/thumb/v7e-m+fp/hard/libc_nano.a(lib_a-impure.o)
                              /home/user/Devel/stm32/gcc-arm-none-eabi-8-2018-q4-major/bin/../lib/gcc/arm-none-eabi/8.2.1/../../../../arm-none-eabi/lib/thumb/v7e-m+fp/hard/libc_nano.a(lib_a-assert.o) (_impure_ptr)
/home/user/Devel/stm32/gcc-arm-none-eabi-8-2018-q4-major/bin/../lib/gcc/arm-none-eabi/8.2.1/../../../../arm-none-eabi/lib/thumb/v7e-m+fp/hard/libc_nano.a(lib_a-memcmp.o)
                              ././drivers/i2c/i2c.o (memcmp)
/home/user/Devel/stm32/gcc-arm-none-eabi-8-2018-q4-major/bin/../lib/gcc/arm-none-eabi/8.2.1/../../../../arm-none-eabi/lib/thumb/v7e-m+fp/hard/libc_nano.a(lib_a-memcpy-stub.o)
                              ././drivers/hw_crypt/sha2_256.o (memcpy)
/home/user/Devel/stm32/gcc-arm-none-eabi-8-2018-q4-major/bin/../lib/gcc/arm-none-eabi/8.2.1/../../../../arm-none-eabi/lib/thumb/v7e-m+fp/hard/libc_nano.a(lib_a-memmove.o)
                              ././app/qr_code/qrcodegen.o (memmove)
/home/user/Devel/stm32/gcc-arm-none-eabi-8-2018-q4-major/bin/../lib/gcc/arm-none-eabi/8.2.1/../../../../arm-none-eabi/lib/thumb/v7e-m+fp/hard/libc_nano.a(lib_a-memset.o)
                              ././drivers/bluetooth/bt_usart.o (memset)
/home/user/Devel/stm32/gcc-arm-none-eabi-8-2018-q4-major/bin/../lib/gcc/arm-none-eabi/8.2.1/../../../../arm-none-eabi/lib/thumb/v7e-m+fp/hard/libc_nano.a(lib_a-nano-vfprintf.o)
                              /home/user/Devel/stm32/gcc-arm-none-eabi-8-2018-q4-major/bin/../lib/gcc/arm-none-eabi/8.2.1/../../../../arm-none-eabi/lib/thumb/v7e-m+fp/hard/libc_nano.a(lib_a-fprintf.o) (_vfprintf_r)
/home/user/Devel/stm32/gcc-arm-none-eabi-8-2018-q4-major/bin/../lib/gcc/arm-none-eabi/8.2.1/../../../../arm-none-eabi/lib/thumb/v7e-m+fp/hard/libc_nano.a(lib_a-nano-vfprintf_i.o)
                              /home/user/Devel/stm32/gcc-arm-none-eabi-8-2018-q4-major/bin/../lib/gcc/arm-none-eabi/8.2.1/../../../../arm-none-eabi/lib/thumb/v7e-m+fp/hard/libc_nano.a(lib_a-nano-vfprintf.o) (_printf_i)
/home/user/Devel/stm32/gcc-arm-none-eabi-8-2018-q4-major/bin/../lib/gcc/arm-none-eabi/8.2.1/../../../../arm-none-eabi/lib/thumb/v7e-m+fp/hard/libc_nano.a(lib_a-strchr.o)
                              ././app/qr_code/qrcodegen.o (strchr)
/home/user/Devel/stm32/gcc-arm-none-eabi-8-2018-q4-major/bin/../lib/gcc/arm-none-eabi/8.2.1/../../../../arm-none-eabi/lib/thumb/v7e-m+fp/hard/libc_nano.a(lib_a-strcmp.o)
                              ././lvgl/src/lv_core/lv_debug.o (strcmp)
/home/user/Devel/stm32/gcc-arm-none-eabi-8-2018-q4-major/bin/../lib/gcc/arm-none-eabi/8.2.1/../../../../arm-none-eabi/lib/thumb/v7e-m+fp/hard/libc_nano.a(lib_a-strcpy.o)
                              ././lvgl/src/lv_objx/lv_roller.o (strcpy)
/home/user/Devel/stm32/gcc-arm-none-eabi-8-2018-q4-major/bin/../lib/gcc/arm-none-eabi/8.2.1/../../../../arm-none-eabi/lib/thumb/v7e-m+fp/hard/libc_nano.a(lib_a-strlen.o)
                              ././drivers/bluetooth/bt_usart.o (strlen)
/home/user/Devel/stm32/gcc-arm-none-eabi-8-2018-q4-major/bin/../lib/gcc/arm-none-eabi/8.2.1/../../../../arm-none-eabi/lib/thumb/v7e-m+fp/hard/libc_nano.a(lib_a-strstr.o)
                              ././drivers/bluetooth/bt_usart.o (strstr)
/home/user/Devel/stm32/gcc-arm-none-eabi-8-2018-q4-major/bin/../lib/gcc/arm-none-eabi/8.2.1/../../../../arm-none-eabi/lib/thumb/v7e-m+fp/hard/libc_nano.a(lib_a-wbuf.o)
                              /home/user/Devel/stm32/gcc-arm-none-eabi-8-2018-q4-major/bin/../lib/gcc/arm-none-eabi/8.2.1/../../../../arm-none-eabi/lib/thumb/v7e-m+fp/hard/libc_nano.a(lib_a-nano-vfprintf.o) (__swbuf_r)
/home/user/Devel/stm32/gcc-arm-none-eabi-8-2018-q4-major/bin/../lib/gcc/arm-none-eabi/8.2.1/../../../../arm-none-eabi/lib/thumb/v7e-m+fp/hard/libc_nano.a(lib_a-wsetup.o)
                              /home/user/Devel/stm32/gcc-arm-none-eabi-8-2018-q4-major/bin/../lib/gcc/arm-none-eabi/8.2.1/../../../../arm-none-eabi/lib/thumb/v7e-m+fp/hard/libc_nano.a(lib_a-nano-vfprintf.o) (__swsetup_r)
/home/user/Devel/stm32/gcc-arm-none-eabi-8-2018-q4-major/bin/../lib/gcc/arm-none-eabi/8.2.1/../../../../arm-none-eabi/lib/thumb/v7e-m+fp/hard/libc_nano.a(lib_a-abort.o)
                              /home/user/Devel/stm32/gcc-arm-none-eabi-8-2018-q4-major/bin/../lib/gcc/arm-none-eabi/8.2.1/../../../../arm-none-eabi/lib/thumb/v7e-m+fp/hard/libc_nano.a(lib_a-assert.o) (abort)
/home/user/Devel/stm32/gcc-arm-none-eabi-8-2018-q4-major/bin/../lib/gcc/arm-none-eabi/8.2.1/../../../../arm-none-eabi/lib/thumb/v7e-m+fp/hard/libc_nano.a(lib_a-fflush.o)
                              /home/user/Devel/stm32/gcc-arm-none-eabi-8-2018-q4-major/bin/../lib/gcc/arm-none-eabi/8.2.1/../../../../arm-none-eabi/lib/thumb/v7e-m+fp/hard/libc_nano.a(lib_a-wbuf.o) (_fflush_r)
/home/user/Devel/stm32/gcc-arm-none-eabi-8-2018-q4-major/bin/../lib/gcc/arm-none-eabi/8.2.1/../../../../arm-none-eabi/lib/thumb/v7e-m+fp/hard/libc_nano.a(lib_a-findfp.o)
                              /home/user/Devel/stm32/gcc-arm-none-eabi-8-2018-q4-major/bin/../lib/gcc/arm-none-eabi/8.2.1/../../../../arm-none-eabi/lib/thumb/v7e-m+fp/hard/libc_nano.a(lib_a-nano-vfprintf.o) (__sinit)
/home/user/Devel/stm32/gcc-arm-none-eabi-8-2018-q4-major/bin/../lib/gcc/arm-none-eabi/8.2.1/../../../../arm-none-eabi/lib/thumb/v7e-m+fp/hard/libc_nano.a(lib_a-fvwrite.o)
                              /home/user/Devel/stm32/gcc-arm-none-eabi-8-2018-q4-major/bin/../lib/gcc/arm-none-eabi/8.2.1/../../../../arm-none-eabi/lib/thumb/v7e-m+fp/hard/libc_nano.a(lib_a-nano-vfprintf.o) (__sfvwrite_r)
/home/user/Devel/stm32/gcc-arm-none-eabi-8-2018-q4-major/bin/../lib/gcc/arm-none-eabi/8.2.1/../../../../arm-none-eabi/lib/thumb/v7e-m+fp/hard/libc_nano.a(lib_a-fwalk.o)
                              /home/user/Devel/stm32/gcc-arm-none-eabi-8-2018-q4-major/bin/../lib/gcc/arm-none-eabi/8.2.1/../../../../arm-none-eabi/lib/thumb/v7e-m+fp/hard/libc_nano.a(lib_a-findfp.o) (_fwalk)
/home/user/Devel/stm32/gcc-arm-none-eabi-8-2018-q4-major/bin/../lib/gcc/arm-none-eabi/8.2.1/../../../../arm-none-eabi/lib/thumb/v7e-m+fp/hard/libc_nano.a(lib_a-lock.o)
                              /home/user/Devel/stm32/gcc-arm-none-eabi-8-2018-q4-major/bin/../lib/gcc/arm-none-eabi/8.2.1/../../../../arm-none-eabi/lib/thumb/v7e-m+fp/hard/libc_nano.a(lib_a-findfp.o) (__retarget_lock_init_recursive)
/home/user/Devel/stm32/gcc-arm-none-eabi-8-2018-q4-major/bin/../lib/gcc/arm-none-eabi/8.2.1/../../../../arm-none-eabi/lib/thumb/v7e-m+fp/hard/libc_nano.a(lib_a-makebuf.o)
                              /home/user/Devel/stm32/gcc-arm-none-eabi-8-2018-q4-major/bin/../lib/gcc/arm-none-eabi/8.2.1/../../../../arm-none-eabi/lib/thumb/v7e-m+fp/hard/libc_nano.a(lib_a-wsetup.o) (__smakebuf_r)
/home/user/Devel/stm32/gcc-arm-none-eabi-8-2018-q4-major/bin/../lib/gcc/arm-none-eabi/8.2.1/../../../../arm-none-eabi/lib/thumb/v7e-m+fp/hard/libc_nano.a(lib_a-memchr.o)
                              /home/user/Devel/stm32/gcc-arm-none-eabi-8-2018-q4-major/bin/../lib/gcc/arm-none-eabi/8.2.1/../../../../arm-none-eabi/lib/thumb/v7e-m+fp/hard/libc_nano.a(lib_a-nano-vfprintf.o) (memchr)
/home/user/Devel/stm32/gcc-arm-none-eabi-8-2018-q4-major/bin/../lib/gcc/arm-none-eabi/8.2.1/../../../../arm-none-eabi/lib/thumb/v7e-m+fp/hard/libc_nano.a(lib_a-nano-freer.o)
                              /home/user/Devel/stm32/gcc-arm-none-eabi-8-2018-q4-major/bin/../lib/gcc/arm-none-eabi/8.2.1/../../../../arm-none-eabi/lib/thumb/v7e-m+fp/hard/libc_nano.a(lib_a-wsetup.o) (_free_r)
/home/user/Devel/stm32/gcc-arm-none-eabi-8-2018-q4-major/bin/../lib/gcc/arm-none-eabi/8.2.1/../../../../arm-none-eabi/lib/thumb/v7e-m+fp/hard/libc_nano.a(lib_a-nano-mallocr.o)
                              /home/user/Devel/stm32/gcc-arm-none-eabi-8-2018-q4-major/bin/../lib/gcc/arm-none-eabi/8.2.1/../../../../arm-none-eabi/lib/thumb/v7e-m+fp/hard/libc_nano.a(lib_a-findfp.o) (_malloc_r)
/home/user/Devel/stm32/gcc-arm-none-eabi-8-2018-q4-major/bin/../lib/gcc/arm-none-eabi/8.2.1/../../../../arm-none-eabi/lib/thumb/v7e-m+fp/hard/libc_nano.a(lib_a-nano-reallocr.o)
                              /home/user/Devel/stm32/gcc-arm-none-eabi-8-2018-q4-major/bin/../lib/gcc/arm-none-eabi/8.2.1/../../../../arm-none-eabi/lib/thumb/v7e-m+fp/hard/libc_nano.a(lib_a-fvwrite.o) (_realloc_r)
/home/user/Devel/stm32/gcc-arm-none-eabi-8-2018-q4-major/bin/../lib/gcc/arm-none-eabi/8.2.1/../../../../arm-none-eabi/lib/thumb/v7e-m+fp/hard/libc_nano.a(lib_a-sbrkr.o)
                              /home/user/Devel/stm32/gcc-arm-none-eabi-8-2018-q4-major/bin/../lib/gcc/arm-none-eabi/8.2.1/../../../../arm-none-eabi/lib/thumb/v7e-m+fp/hard/libc_nano.a(lib_a-nano-mallocr.o) (_sbrk_r)
/home/user/Devel/stm32/gcc-arm-none-eabi-8-2018-q4-major/bin/../lib/gcc/arm-none-eabi/8.2.1/../../../../arm-none-eabi/lib/thumb/v7e-m+fp/hard/libc_nano.a(lib_a-signal.o)
                              /home/user/Devel/stm32/gcc-arm-none-eabi-8-2018-q4-major/bin/../lib/gcc/arm-none-eabi/8.2.1/../../../../arm-none-eabi/lib/thumb/v7e-m+fp/hard/libc_nano.a(lib_a-abort.o) (raise)
/home/user/Devel/stm32/gcc-arm-none-eabi-8-2018-q4-major/bin/../lib/gcc/arm-none-eabi/8.2.1/../../../../arm-none-eabi/lib/thumb/v7e-m+fp/hard/libc_nano.a(lib_a-signalr.o)
                              /home/user/Devel/stm32/gcc-arm-none-eabi-8-2018-q4-major/bin/../lib/gcc/arm-none-eabi/8.2.1/../../../../arm-none-eabi/lib/thumb/v7e-m+fp/hard/libc_nano.a(lib_a-signal.o) (_kill_r)
/home/user/Devel/stm32/gcc-arm-none-eabi-8-2018-q4-major/bin/../lib/gcc/arm-none-eabi/8.2.1/../../../../arm-none-eabi/lib/thumb/v7e-m+fp/hard/libc_nano.a(lib_a-stdio.o)
                              /home/user/Devel/stm32/gcc-arm-none-eabi-8-2018-q4-major/bin/../lib/gcc/arm-none-eabi/8.2.1/../../../../arm-none-eabi/lib/thumb/v7e-m+fp/hard/libc_nano.a(lib_a-findfp.o) (__sread)
/home/user/Devel/stm32/gcc-arm-none-eabi-8-2018-q4-major/bin/../lib/gcc/arm-none-eabi/8.2.1/../../../../arm-none-eabi/lib/thumb/v7e-m+fp/hard/libc_nano.a(lib_a-writer.o)
                              /home/user/Devel/stm32/gcc-arm-none-eabi-8-2018-q4-major/bin/../lib/gcc/arm-none-eabi/8.2.1/../../../../arm-none-eabi/lib/thumb/v7e-m+fp/hard/libc_nano.a(lib_a-stdio.o) (_write_r)
/home/user/Devel/stm32/gcc-arm-none-eabi-8-2018-q4-major/bin/../lib/gcc/arm-none-eabi/8.2.1/../../../../arm-none-eabi/lib/thumb/v7e-m+fp/hard/libc_nano.a(lib_a-closer.o)
                              /home/user/Devel/stm32/gcc-arm-none-eabi-8-2018-q4-major/bin/../lib/gcc/arm-none-eabi/8.2.1/../../../../arm-none-eabi/lib/thumb/v7e-m+fp/hard/libc_nano.a(lib_a-stdio.o) (_close_r)
/home/user/Devel/stm32/gcc-arm-none-eabi-8-2018-q4-major/bin/../lib/gcc/arm-none-eabi/8.2.1/../../../../arm-none-eabi/lib/thumb/v7e-m+fp/hard/libc_nano.a(lib_a-fstatr.o)
                              /home/user/Devel/stm32/gcc-arm-none-eabi-8-2018-q4-major/bin/../lib/gcc/arm-none-eabi/8.2.1/../../../../arm-none-eabi/lib/thumb/v7e-m+fp/hard/libc_nano.a(lib_a-makebuf.o) (_fstat_r)
/home/user/Devel/stm32/gcc-arm-none-eabi-8-2018-q4-major/bin/../lib/gcc/arm-none-eabi/8.2.1/../../../../arm-none-eabi/lib/thumb/v7e-m+fp/hard/libc_nano.a(lib_a-isattyr.o)
                              /home/user/Devel/stm32/gcc-arm-none-eabi-8-2018-q4-major/bin/../lib/gcc/arm-none-eabi/8.2.1/../../../../arm-none-eabi/lib/thumb/v7e-m+fp/hard/libc_nano.a(lib_a-makebuf.o) (_isatty_r)
/home/user/Devel/stm32/gcc-arm-none-eabi-8-2018-q4-major/bin/../lib/gcc/arm-none-eabi/8.2.1/../../../../arm-none-eabi/lib/thumb/v7e-m+fp/hard/libc_nano.a(lib_a-lseekr.o)
                              /home/user/Devel/stm32/gcc-arm-none-eabi-8-2018-q4-major/bin/../lib/gcc/arm-none-eabi/8.2.1/../../../../arm-none-eabi/lib/thumb/v7e-m+fp/hard/libc_nano.a(lib_a-stdio.o) (_lseek_r)
/home/user/Devel/stm32/gcc-arm-none-eabi-8-2018-q4-major/bin/../lib/gcc/arm-none-eabi/8.2.1/../../../../arm-none-eabi/lib/thumb/v7e-m+fp/hard/libc_nano.a(lib_a-mlock.o)
                              /home/user/Devel/stm32/gcc-arm-none-eabi-8-2018-q4-major/bin/../lib/gcc/arm-none-eabi/8.2.1/../../../../arm-none-eabi/lib/thumb/v7e-m+fp/hard/libc_nano.a(lib_a-nano-freer.o) (__malloc_lock)
/home/user/Devel/stm32/gcc-arm-none-eabi-8-2018-q4-major/bin/../lib/gcc/arm-none-eabi/8.2.1/../../../../arm-none-eabi/lib/thumb/v7e-m+fp/hard/libc_nano.a(lib_a-nano-msizer.o)
                              /home/user/Devel/stm32/gcc-arm-none-eabi-8-2018-q4-major/bin/../lib/gcc/arm-none-eabi/8.2.1/../../../../arm-none-eabi/lib/thumb/v7e-m+fp/hard/libc_nano.a(lib_a-nano-reallocr.o) (_malloc_usable_size_r)
/home/user/Devel/stm32/gcc-arm-none-eabi-8-2018-q4-major/bin/../lib/gcc/arm-none-eabi/8.2.1/../../../../arm-none-eabi/lib/thumb/v7e-m+fp/hard/libc_nano.a(lib_a-readr.o)
                              /home/user/Devel/stm32/gcc-arm-none-eabi-8-2018-q4-major/bin/../lib/gcc/arm-none-eabi/8.2.1/../../../../arm-none-eabi/lib/thumb/v7e-m+fp/hard/libc_nano.a(lib_a-stdio.o) (_read_r)
/home/user/Devel/stm32/gcc-arm-none-eabi-8-2018-q4-major/bin/../lib/gcc/arm-none-eabi/8.2.1/../../../../arm-none-eabi/lib/thumb/v7e-m+fp/hard/libc_nano.a(lib_a-reent.o)
                              /home/user/Devel/stm32/gcc-arm-none-eabi-8-2018-q4-major/bin/../lib/gcc/arm-none-eabi/8.2.1/../../../../arm-none-eabi/lib/thumb/v7e-m+fp/hard/libc_nano.a(lib_a-sbrkr.o) (errno)
/home/user/Devel/stm32/gcc-arm-none-eabi-8-2018-q4-major/bin/../lib/gcc/arm-none-eabi/8.2.1/thumb/v7e-m+fp/hard/libgcc.a(_arm_addsubdf3.o)
                              ././lvgl/src/lv_misc/lv_printf.o (__aeabi_dsub)
/home/user/Devel/stm32/gcc-arm-none-eabi-8-2018-q4-major/bin/../lib/gcc/arm-none-eabi/8.2.1/thumb/v7e-m+fp/hard/libgcc.a(_arm_muldivdf3.o)
                              ././lvgl/src/lv_misc/lv_printf.o (__aeabi_dmul)
/home/user/Devel/stm32/gcc-arm-none-eabi-8-2018-q4-major/bin/../lib/gcc/arm-none-eabi/8.2.1/thumb/v7e-m+fp/hard/libgcc.a(_arm_cmpdf2.o)
                              ././lvgl/src/lv_misc/lv_printf.o (__aeabi_dcmpeq)
/home/user/Devel/stm32/gcc-arm-none-eabi-8-2018-q4-major/bin/../lib/gcc/arm-none-eabi/8.2.1/thumb/v7e-m+fp/hard/libgcc.a(_arm_fixdfsi.o)
                              ././lvgl/src/lv_misc/lv_printf.o (__aeabi_d2iz)
/home/user/Devel/stm32/gcc-arm-none-eabi-8-2018-q4-major/bin/../lib/gcc/arm-none-eabi/8.2.1/thumb/v7e-m+fp/hard/libgcc.a(_arm_fixunsdfsi.o)
                              ././lvgl/src/lv_misc/lv_printf.o (__aeabi_d2uiz)
/home/user/Devel/stm32/gcc-arm-none-eabi-8-2018-q4-major/bin/../lib/gcc/arm-none-eabi/8.2.1/thumb/v7e-m+fp/hard/libgcc.a(_aeabi_uldivmod.o)
                              ././lvgl/src/lv_misc/lv_printf.o (__aeabi_uldivmod)
/home/user/Devel/stm32/gcc-arm-none-eabi-8-2018-q4-major/bin/../lib/gcc/arm-none-eabi/8.2.1/thumb/v7e-m+fp/hard/libgcc.a(_udivmoddi4.o)
                              /home/user/Devel/stm32/gcc-arm-none-eabi-8-2018-q4-major/bin/../lib/gcc/arm-none-eabi/8.2.1/thumb/v7e-m+fp/hard/libgcc.a(_aeabi_uldivmod.o) (__udivmoddi4)
/home/user/Devel/stm32/gcc-arm-none-eabi-8-2018-q4-major/bin/../lib/gcc/arm-none-eabi/8.2.1/thumb/v7e-m+fp/hard/libgcc.a(_dvmd_tls.o)
                              /home/user/Devel/stm32/gcc-arm-none-eabi-8-2018-q4-major/bin/../lib/gcc/arm-none-eabi/8.2.1/thumb/v7e-m+fp/hard/libgcc.a(_aeabi_uldivmod.o) (__aeabi_ldiv0)
/home/user/Devel/stm32/gcc-arm-none-eabi-8-2018-q4-major/bin/../lib/gcc/arm-none-eabi/8.2.1/../../../../arm-none-eabi/lib/thumb/v7e-m+fp/hard/libnosys.a(close.o)
                              /home/user/Devel/stm32/gcc-arm-none-eabi-8-2018-q4-major/bin/../lib/gcc/arm-none-eabi/8.2.1/../../../../arm-none-eabi/lib/thumb/v7e-m+fp/hard/libc_nano.a(lib_a-closer.o) (_close)
/home/user/Devel/stm32/gcc-arm-none-eabi-8-2018-q4-major/bin/../lib/gcc/arm-none-eabi/8.2.1/../../../../arm-none-eabi/lib/thumb/v7e-m+fp/hard/libnosys.a(fstat.o)
                              /home/user/Devel/stm32/gcc-arm-none-eabi-8-2018-q4-major/bin/../lib/gcc/arm-none-eabi/8.2.1/../../../../arm-none-eabi/lib/thumb/v7e-m+fp/hard/libc_nano.a(lib_a-fstatr.o) (_fstat)
/home/user/Devel/stm32/gcc-arm-none-eabi-8-2018-q4-major/bin/../lib/gcc/arm-none-eabi/8.2.1/../../../../arm-none-eabi/lib/thumb/v7e-m+fp/hard/libnosys.a(getpid.o)
                              /home/user/Devel/stm32/gcc-arm-none-eabi-8-2018-q4-major/bin/../lib/gcc/arm-none-eabi/8.2.1/../../../../arm-none-eabi/lib/thumb/v7e-m+fp/hard/libc_nano.a(lib_a-signalr.o) (_getpid)
/home/user/Devel/stm32/gcc-arm-none-eabi-8-2018-q4-major/bin/../lib/gcc/arm-none-eabi/8.2.1/../../../../arm-none-eabi/lib/thumb/v7e-m+fp/hard/libnosys.a(isatty.o)
                              /home/user/Devel/stm32/gcc-arm-none-eabi-8-2018-q4-major/bin/../lib/gcc/arm-none-eabi/8.2.1/../../../../arm-none-eabi/lib/thumb/v7e-m+fp/hard/libc_nano.a(lib_a-isattyr.o) (_isatty)
/home/user/Devel/stm32/gcc-arm-none-eabi-8-2018-q4-major/bin/../lib/gcc/arm-none-eabi/8.2.1/../../../../arm-none-eabi/lib/thumb/v7e-m+fp/hard/libnosys.a(kill.o)
                              /home/user/Devel/stm32/gcc-arm-none-eabi-8-2018-q4-major/bin/../lib/gcc/arm-none-eabi/8.2.1/../../../../arm-none-eabi/lib/thumb/v7e-m+fp/hard/libc_nano.a(lib_a-signalr.o) (_kill)
/home/user/Devel/stm32/gcc-arm-none-eabi-8-2018-q4-major/bin/../lib/gcc/arm-none-eabi/8.2.1/../../../../arm-none-eabi/lib/thumb/v7e-m+fp/hard/libnosys.a(lseek.o)
                              /home/user/Devel/stm32/gcc-arm-none-eabi-8-2018-q4-major/bin/../lib/gcc/arm-none-eabi/8.2.1/../../../../arm-none-eabi/lib/thumb/v7e-m+fp/hard/libc_nano.a(lib_a-lseekr.o) (_lseek)
/home/user/Devel/stm32/gcc-arm-none-eabi-8-2018-q4-major/bin/../lib/gcc/arm-none-eabi/8.2.1/../../../../arm-none-eabi/lib/thumb/v7e-m+fp/hard/libnosys.a(read.o)
                              /home/user/Devel/stm32/gcc-arm-none-eabi-8-2018-q4-major/bin/../lib/gcc/arm-none-eabi/8.2.1/../../../../arm-none-eabi/lib/thumb/v7e-m+fp/hard/libc_nano.a(lib_a-readr.o) (_read)
/home/user/Devel/stm32/gcc-arm-none-eabi-8-2018-q4-major/bin/../lib/gcc/arm-none-eabi/8.2.1/../../../../arm-none-eabi/lib/thumb/v7e-m+fp/hard/libnosys.a(sbrk.o)
                              /home/user/Devel/stm32/gcc-arm-none-eabi-8-2018-q4-major/bin/../lib/gcc/arm-none-eabi/8.2.1/../../../../arm-none-eabi/lib/thumb/v7e-m+fp/hard/libc_nano.a(lib_a-sbrkr.o) (_sbrk)
/home/user/Devel/stm32/gcc-arm-none-eabi-8-2018-q4-major/bin/../lib/gcc/arm-none-eabi/8.2.1/../../../../arm-none-eabi/lib/thumb/v7e-m+fp/hard/libnosys.a(write.o)
                              /home/user/Devel/stm32/gcc-arm-none-eabi-8-2018-q4-major/bin/../lib/gcc/arm-none-eabi/8.2.1/../../../../arm-none-eabi/lib/thumb/v7e-m+fp/hard/libc_nano.a(lib_a-writer.o) (_write)
/home/user/Devel/stm32/gcc-arm-none-eabi-8-2018-q4-major/bin/../lib/gcc/arm-none-eabi/8.2.1/../../../../arm-none-eabi/lib/thumb/v7e-m+fp/hard/libnosys.a(_exit.o)
                              /home/user/Devel/stm32/gcc-arm-none-eabi-8-2018-q4-major/bin/../lib/gcc/arm-none-eabi/8.2.1/../../../../arm-none-eabi/lib/thumb/v7e-m+fp/hard/libc_nano.a(lib_a-abort.o) (_exit)

Allocating common symbols
Common symbol       size              file

__lock___atexit_recursive_mutex
                    0x1               /home/user/Devel/stm32/gcc-arm-none-eabi-8-2018-q4-major/bin/../lib/gcc/arm-none-eabi/8.2.1/../../../../arm-none-eabi/lib/thumb/v7e-m+fp/hard/libc_nano.a(lib_a-lock.o)
__lock___arc4random_mutex
                    0x1               /home/user/Devel/stm32/gcc-arm-none-eabi-8-2018-q4-major/bin/../lib/gcc/arm-none-eabi/8.2.1/../../../../arm-none-eabi/lib/thumb/v7e-m+fp/hard/libc_nano.a(lib_a-lock.o)
errno               0x4               /home/user/Devel/stm32/gcc-arm-none-eabi-8-2018-q4-major/bin/../lib/gcc/arm-none-eabi/8.2.1/../../../../arm-none-eabi/lib/thumb/v7e-m+fp/hard/libc_nano.a(lib_a-reent.o)
__lock___env_recursive_mutex
                    0x1               /home/user/Devel/stm32/gcc-arm-none-eabi-8-2018-q4-major/bin/../lib/gcc/arm-none-eabi/8.2.1/../../../../arm-none-eabi/lib/thumb/v7e-m+fp/hard/libc_nano.a(lib_a-lock.o)
__lock___sinit_recursive_mutex
                    0x1               /home/user/Devel/stm32/gcc-arm-none-eabi-8-2018-q4-major/bin/../lib/gcc/arm-none-eabi/8.2.1/../../../../arm-none-eabi/lib/thumb/v7e-m+fp/hard/libc_nano.a(lib_a-lock.o)
__lock___malloc_recursive_mutex
                    0x1               /home/user/Devel/stm32/gcc-arm-none-eabi-8-2018-q4-major/bin/../lib/gcc/arm-none-eabi/8.2.1/../../../../arm-none-eabi/lib/thumb/v7e-m+fp/hard/libc_nano.a(lib_a-lock.o)
__lock___at_quick_exit_mutex
                    0x1               /home/user/Devel/stm32/gcc-arm-none-eabi-8-2018-q4-major/bin/../lib/gcc/arm-none-eabi/8.2.1/../../../../arm-none-eabi/lib/thumb/v7e-m+fp/hard/libc_nano.a(lib_a-lock.o)
__lock___dd_hash_mutex
                    0x1               /home/user/Devel/stm32/gcc-arm-none-eabi-8-2018-q4-major/bin/../lib/gcc/arm-none-eabi/8.2.1/../../../../arm-none-eabi/lib/thumb/v7e-m+fp/hard/libc_nano.a(lib_a-lock.o)
__lock___tz_mutex   0x1               /home/user/Devel/stm32/gcc-arm-none-eabi-8-2018-q4-major/bin/../lib/gcc/arm-none-eabi/8.2.1/../../../../arm-none-eabi/lib/thumb/v7e-m+fp/hard/libc_nano.a(lib_a-lock.o)
__lock___sfp_recursive_mutex
                    0x1               /home/user/Devel/stm32/gcc-arm-none-eabi-8-2018-q4-major/bin/../lib/gcc/arm-none-eabi/8.2.1/../../../../arm-none-eabi/lib/thumb/v7e-m+fp/hard/libc_nano.a(lib_a-lock.o)

Discarded input sections

 .group         0x0000000000000000        0x8 /home/user/Devel/stm32/libopencm3/lib/libopencm3_stm32f4.a(rcc.o)
 .group         0x0000000000000000        0x8 /home/user/Devel/stm32/libopencm3/lib/libopencm3_stm32f4.a(rcc.o)
 .group         0x0000000000000000        0x8 /home/user/Devel/stm32/libopencm3/lib/libopencm3_stm32f4.a(rcc.o)
 .group         0x0000000000000000        0x8 /home/user/Devel/stm32/libopencm3/lib/libopencm3_stm32f4.a(rcc.o)
 .group         0x0000000000000000        0x8 /home/user/Devel/stm32/libopencm3/lib/libopencm3_stm32f4.a(rcc.o)
 .group         0x0000000000000000        0x8 /home/user/Devel/stm32/libopencm3/lib/libopencm3_stm32f4.a(rcc.o)
 .group         0x0000000000000000        0x8 /home/user/Devel/stm32/libopencm3/lib/libopencm3_stm32f4.a(rcc.o)
 .group         0x0000000000000000        0x8 /home/user/Devel/stm32/libopencm3/lib/libopencm3_stm32f4.a(rcc.o)
 .group         0x0000000000000000        0x8 /home/user/Devel/stm32/libopencm3/lib/libopencm3_stm32f4.a(rcc.o)
 .group         0x0000000000000000        0x8 /home/user/Devel/stm32/libopencm3/lib/libopencm3_stm32f4.a(rcc.o)
 .group         0x0000000000000000        0x8 /home/user/Devel/stm32/libopencm3/lib/libopencm3_stm32f4.a(rcc.o)
 .group         0x0000000000000000        0x8 /home/user/Devel/stm32/libopencm3/lib/libopencm3_stm32f4.a(rcc.o)
 .group         0x0000000000000000        0x8 /home/user/Devel/stm32/libopencm3/lib/libopencm3_stm32f4.a(rcc.o)
 .group         0x0000000000000000        0x8 /home/user/Devel/stm32/libopencm3/lib/libopencm3_stm32f4.a(rcc.o)
 .group         0x0000000000000000        0x8 /home/user/Devel/stm32/libopencm3/lib/libopencm3_stm32f4.a(rcc.o)
 .group         0x0000000000000000        0x8 /home/user/Devel/stm32/libopencm3/lib/libopencm3_stm32f4.a(rcc.o)
 .group         0x0000000000000000        0x8 /home/user/Devel/stm32/libopencm3/lib/libopencm3_stm32f4.a(rcc.o)
 .group         0x0000000000000000        0x8 /home/user/Devel/stm32/libopencm3/lib/libopencm3_stm32f4.a(crc_common_all.o)
 .group         0x0000000000000000        0x8 /home/user/Devel/stm32/libopencm3/lib/libopencm3_stm32f4.a(crc_common_all.o)
 .group         0x0000000000000000        0x8 /home/user/Devel/stm32/libopencm3/lib/libopencm3_stm32f4.a(crc_common_all.o)
 .group         0x0000000000000000        0x8 /home/user/Devel/stm32/libopencm3/lib/libopencm3_stm32f4.a(crc_common_all.o)
 .group         0x0000000000000000        0x8 /home/user/Devel/stm32/libopencm3/lib/libopencm3_stm32f4.a(crc_common_all.o)
 .group         0x0000000000000000        0x8 /home/user/Devel/stm32/libopencm3/lib/libopencm3_stm32f4.a(crc_common_all.o)
 .group         0x0000000000000000        0x8 /home/user/Devel/stm32/libopencm3/lib/libopencm3_stm32f4.a(crc_common_all.o)
 .group         0x0000000000000000        0x8 /home/user/Devel/stm32/libopencm3/lib/libopencm3_stm32f4.a(crc_common_all.o)
 .group         0x0000000000000000        0x8 /home/user/Devel/stm32/libopencm3/lib/libopencm3_stm32f4.a(crc_common_all.o)
 .group         0x0000000000000000        0x8 /home/user/Devel/stm32/libopencm3/lib/libopencm3_stm32f4.a(crc_common_all.o)
 .group         0x0000000000000000        0x8 /home/user/Devel/stm32/libopencm3/lib/libopencm3_stm32f4.a(crc_common_all.o)
 .group         0x0000000000000000        0x8 /home/user/Devel/stm32/libopencm3/lib/libopencm3_stm32f4.a(crc_common_all.o)
 .debug_macro   0x0000000000000000      0x88c /home/user/Devel/stm32/libopencm3/lib/libopencm3_stm32f4.a(crc_common_all.o)
 .debug_macro   0x0000000000000000       0x22 /home/user/Devel/stm32/libopencm3/lib/libopencm3_stm32f4.a(crc_common_all.o)
 .debug_macro   0x0000000000000000       0x87 /home/user/Devel/stm32/libopencm3/lib/libopencm3_stm32f4.a(crc_common_all.o)
 .debug_macro   0x0000000000000000       0x44 /home/user/Devel/stm32/libopencm3/lib/libopencm3_stm32f4.a(crc_common_all.o)
 .debug_macro   0x0000000000000000       0xfd /home/user/Devel/stm32/libopencm3/lib/libopencm3_stm32f4.a(crc_common_all.o)
 .debug_macro   0x0000000000000000       0x5e /home/user/Devel/stm32/libopencm3/lib/libopencm3_stm32f4.a(crc_common_all.o)
 .debug_macro   0x0000000000000000      0x1df /home/user/Devel/stm32/libopencm3/lib/libopencm3_stm32f4.a(crc_common_all.o)
 .debug_macro   0x0000000000000000       0x22 /home/user/Devel/stm32/libopencm3/lib/libopencm3_stm32f4.a(crc_common_all.o)
 .debug_macro   0x0000000000000000       0xfa /home/user/Devel/stm32/libopencm3/lib/libopencm3_stm32f4.a(crc_common_all.o)
 .debug_macro   0x0000000000000000       0x58 /home/user/Devel/stm32/libopencm3/lib/libopencm3_stm32f4.a(crc_common_all.o)
 .debug_macro   0x0000000000000000      0x26d /home/user/Devel/stm32/libopencm3/lib/libopencm3_stm32f4.a(crc_common_all.o)
 .group         0x0000000000000000        0x8 /home/user/Devel/stm32/libopencm3/lib/libopencm3_stm32f4.a(dma_common_f24.o)
 .group         0x0000000000000000        0x8 /home/user/Devel/stm32/libopencm3/lib/libopencm3_stm32f4.a(dma_common_f24.o)
 .group         0x0000000000000000        0x8 /home/user/Devel/stm32/libopencm3/lib/libopencm3_stm32f4.a(dma_common_f24.o)
 .group         0x0000000000000000        0x8 /home/user/Devel/stm32/libopencm3/lib/libopencm3_stm32f4.a(dma_common_f24.o)
 .group         0x0000000000000000        0x8 /home/user/Devel/stm32/libopencm3/lib/libopencm3_stm32f4.a(dma_common_f24.o)
 .group         0x0000000000000000        0x8 /home/user/Devel/stm32/libopencm3/lib/libopencm3_stm32f4.a(dma_common_f24.o)
 .group         0x0000000000000000        0x8 /home/user/Devel/stm32/libopencm3/lib/libopencm3_stm32f4.a(dma_common_f24.o)
 .group         0x0000000000000000        0x8 /home/user/Devel/stm32/libopencm3/lib/libopencm3_stm32f4.a(dma_common_f24.o)
 .group         0x0000000000000000        0x8 /home/user/Devel/stm32/libopencm3/lib/libopencm3_stm32f4.a(dma_common_f24.o)
 .group         0x0000000000000000        0x8 /home/user/Devel/stm32/libopencm3/lib/libopencm3_stm32f4.a(dma_common_f24.o)
 .group         0x0000000000000000        0x8 /home/user/Devel/stm32/libopencm3/lib/libopencm3_stm32f4.a(dma_common_f24.o)
 .group         0x0000000000000000        0x8 /home/user/Devel/stm32/libopencm3/lib/libopencm3_stm32f4.a(dma_common_f24.o)
 .debug_macro   0x0000000000000000      0x88c /home/user/Devel/stm32/libopencm3/lib/libopencm3_stm32f4.a(dma_common_f24.o)
 .debug_macro   0x0000000000000000       0x22 /home/user/Devel/stm32/libopencm3/lib/libopencm3_stm32f4.a(dma_common_f24.o)
 .debug_macro   0x0000000000000000       0x87 /home/user/Devel/stm32/libopencm3/lib/libopencm3_stm32f4.a(dma_common_f24.o)
 .debug_macro   0x0000000000000000       0x44 /home/user/Devel/stm32/libopencm3/lib/libopencm3_stm32f4.a(dma_common_f24.o)
 .debug_macro   0x0000000000000000       0xfd /home/user/Devel/stm32/libopencm3/lib/libopencm3_stm32f4.a(dma_common_f24.o)
 .debug_macro   0x0000000000000000       0x5e /home/user/Devel/stm32/libopencm3/lib/libopencm3_stm32f4.a(dma_common_f24.o)
 .debug_macro   0x0000000000000000      0x1df /home/user/Devel/stm32/libopencm3/lib/libopencm3_stm32f4.a(dma_common_f24.o)
 .debug_macro   0x0000000000000000       0x22 /home/user/Devel/stm32/libopencm3/lib/libopencm3_stm32f4.a(dma_common_f24.o)
 .debug_macro   0x0000000000000000       0xfa /home/user/Devel/stm32/libopencm3/lib/libopencm3_stm32f4.a(dma_common_f24.o)
 .debug_macro   0x0000000000000000       0x58 /home/user/Devel/stm32/libopencm3/lib/libopencm3_stm32f4.a(dma_common_f24.o)
 .debug_macro   0x0000000000000000      0x26d /home/user/Devel/stm32/libopencm3/lib/libopencm3_stm32f4.a(dma_common_f24.o)
 .group         0x0000000000000000        0x8 /home/user/Devel/stm32/libopencm3/lib/libopencm3_stm32f4.a(gpio_common_all.o)
 .group         0x0000000000000000        0x8 /home/user/Devel/stm32/libopencm3/lib/libopencm3_stm32f4.a(gpio_common_all.o)
 .group         0x0000000000000000        0x8 /home/user/Devel/stm32/libopencm3/lib/libopencm3_stm32f4.a(gpio_common_all.o)
 .group         0x0000000000000000        0x8 /home/user/Devel/stm32/libopencm3/lib/libopencm3_stm32f4.a(gpio_common_all.o)
 .group         0x0000000000000000        0x8 /home/user/Devel/stm32/libopencm3/lib/libopencm3_stm32f4.a(gpio_common_all.o)
 .group         0x0000000000000000        0x8 /home/user/Devel/stm32/libopencm3/lib/libopencm3_stm32f4.a(gpio_common_all.o)
 .group         0x0000000000000000        0x8 /home/user/Devel/stm32/libopencm3/lib/libopencm3_stm32f4.a(gpio_common_all.o)
 .group         0x0000000000000000        0x8 /home/user/Devel/stm32/libopencm3/lib/libopencm3_stm32f4.a(gpio_common_all.o)
 .group         0x0000000000000000        0x8 /home/user/Devel/stm32/libopencm3/lib/libopencm3_stm32f4.a(gpio_common_all.o)
 .group         0x0000000000000000        0x8 /home/user/Devel/stm32/libopencm3/lib/libopencm3_stm32f4.a(gpio_common_all.o)
 .group         0x0000000000000000        0x8 /home/user/Devel/stm32/libopencm3/lib/libopencm3_stm32f4.a(gpio_common_all.o)
 .group         0x0000000000000000        0x8 /home/user/Devel/stm32/libopencm3/lib/libopencm3_stm32f4.a(gpio_common_all.o)
 .group         0x0000000000000000        0x8 /home/user/Devel/stm32/libopencm3/lib/libopencm3_stm32f4.a(gpio_common_all.o)
 .group         0x0000000000000000        0x8 /home/user/Devel/stm32/libopencm3/lib/libopencm3_stm32f4.a(gpio_common_all.o)
 .debug_macro   0x0000000000000000      0x88c /home/user/Devel/stm32/libopencm3/lib/libopencm3_stm32f4.a(gpio_common_all.o)
 .debug_macro   0x0000000000000000       0x22 /home/user/Devel/stm32/libopencm3/lib/libopencm3_stm32f4.a(gpio_common_all.o)
 .debug_macro   0x0000000000000000       0x87 /home/user/Devel/stm32/libopencm3/lib/libopencm3_stm32f4.a(gpio_common_all.o)
 .debug_macro   0x0000000000000000       0x44 /home/user/Devel/stm32/libopencm3/lib/libopencm3_stm32f4.a(gpio_common_all.o)
 .debug_macro   0x0000000000000000       0xfd /home/user/Devel/stm32/libopencm3/lib/libopencm3_stm32f4.a(gpio_common_all.o)
 .debug_macro   0x0000000000000000       0x5e /home/user/Devel/stm32/libopencm3/lib/libopencm3_stm32f4.a(gpio_common_all.o)
 .debug_macro   0x0000000000000000      0x1df /home/user/Devel/stm32/libopencm3/lib/libopencm3_stm32f4.a(gpio_common_all.o)
 .debug_macro   0x0000000000000000       0x22 /home/user/Devel/stm32/libopencm3/lib/libopencm3_stm32f4.a(gpio_common_all.o)
 .debug_macro   0x0000000000000000       0xfa /home/user/Devel/stm32/libopencm3/lib/libopencm3_stm32f4.a(gpio_common_all.o)
 .debug_macro   0x0000000000000000       0x58 /home/user/Devel/stm32/libopencm3/lib/libopencm3_stm32f4.a(gpio_common_all.o)
 .debug_macro   0x0000000000000000      0x26d /home/user/Devel/stm32/libopencm3/lib/libopencm3_stm32f4.a(gpio_common_all.o)
 .group         0x0000000000000000        0x8 /home/user/Devel/stm32/libopencm3/lib/libopencm3_stm32f4.a(gpio_common_f0234.o)
 .group         0x0000000000000000        0x8 /home/user/Devel/stm32/libopencm3/lib/libopencm3_stm32f4.a(gpio_common_f0234.o)
 .group         0x0000000000000000        0x8 /home/user/Devel/stm32/libopencm3/lib/libopencm3_stm32f4.a(gpio_common_f0234.o)
 .group         0x0000000000000000        0x8 /home/user/Devel/stm32/libopencm3/lib/libopencm3_stm32f4.a(gpio_common_f0234.o)
 .group         0x0000000000000000        0x8 /home/user/Devel/stm32/libopencm3/lib/libopencm3_stm32f4.a(gpio_common_f0234.o)
 .group         0x0000000000000000        0x8 /home/user/Devel/stm32/libopencm3/lib/libopencm3_stm32f4.a(gpio_common_f0234.o)
 .group         0x0000000000000000        0x8 /home/user/Devel/stm32/libopencm3/lib/libopencm3_stm32f4.a(gpio_common_f0234.o)
 .group         0x0000000000000000        0x8 /home/user/Devel/stm32/libopencm3/lib/libopencm3_stm32f4.a(gpio_common_f0234.o)
 .group         0x0000000000000000        0x8 /home/user/Devel/stm32/libopencm3/lib/libopencm3_stm32f4.a(gpio_common_f0234.o)
 .group         0x0000000000000000        0x8 /home/user/Devel/stm32/libopencm3/lib/libopencm3_stm32f4.a(gpio_common_f0234.o)
 .group         0x0000000000000000        0x8 /home/user/Devel/stm32/libopencm3/lib/libopencm3_stm32f4.a(gpio_common_f0234.o)
 .group         0x0000000000000000        0x8 /home/user/Devel/stm32/libopencm3/lib/libopencm3_stm32f4.a(gpio_common_f0234.o)
 .group         0x0000000000000000        0x8 /home/user/Devel/stm32/libopencm3/lib/libopencm3_stm32f4.a(gpio_common_f0234.o)
 .group         0x0000000000000000        0x8 /home/user/Devel/stm32/libopencm3/lib/libopencm3_stm32f4.a(gpio_common_f0234.o)
 .debug_macro   0x0000000000000000      0x88c /home/user/Devel/stm32/libopencm3/lib/libopencm3_stm32f4.a(gpio_common_f0234.o)
 .debug_macro   0x0000000000000000       0x22 /home/user/Devel/stm32/libopencm3/lib/libopencm3_stm32f4.a(gpio_common_f0234.o)
 .debug_macro   0x0000000000000000       0x87 /home/user/Devel/stm32/libopencm3/lib/libopencm3_stm32f4.a(gpio_common_f0234.o)
 .debug_macro   0x0000000000000000       0x44 /home/user/Devel/stm32/libopencm3/lib/libopencm3_stm32f4.a(gpio_common_f0234.o)
 .debug_macro   0x0000000000000000       0xfd /home/user/Devel/stm32/libopencm3/lib/libopencm3_stm32f4.a(gpio_common_f0234.o)
 .debug_macro   0x0000000000000000       0x5e /home/user/Devel/stm32/libopencm3/lib/libopencm3_stm32f4.a(gpio_common_f0234.o)
 .debug_macro   0x0000000000000000      0x1df /home/user/Devel/stm32/libopencm3/lib/libopencm3_stm32f4.a(gpio_common_f0234.o)
 .debug_macro   0x0000000000000000       0x22 /home/user/Devel/stm32/libopencm3/lib/libopencm3_stm32f4.a(gpio_common_f0234.o)
 .debug_macro   0x0000000000000000       0xfa /home/user/Devel/stm32/libopencm3/lib/libopencm3_stm32f4.a(gpio_common_f0234.o)
 .debug_macro   0x0000000000000000       0x58 /home/user/Devel/stm32/libopencm3/lib/libopencm3_stm32f4.a(gpio_common_f0234.o)
 .debug_macro   0x0000000000000000      0x26d /home/user/Devel/stm32/libopencm3/lib/libopencm3_stm32f4.a(gpio_common_f0234.o)
 .debug_macro   0x0000000000000000       0x76 /home/user/Devel/stm32/libopencm3/lib/libopencm3_stm32f4.a(gpio_common_f0234.o)
 .debug_macro   0x0000000000000000      0x2e6 /home/user/Devel/stm32/libopencm3/lib/libopencm3_stm32f4.a(gpio_common_f0234.o)
 .debug_macro   0x0000000000000000      0x14e /home/user/Devel/stm32/libopencm3/lib/libopencm3_stm32f4.a(gpio_common_f0234.o)
 .group         0x0000000000000000        0x8 /home/user/Devel/stm32/libopencm3/lib/libopencm3_stm32f4.a(i2c_common_v1.o)
 .group         0x0000000000000000        0x8 /home/user/Devel/stm32/libopencm3/lib/libopencm3_stm32f4.a(i2c_common_v1.o)
 .group         0x0000000000000000        0x8 /home/user/Devel/stm32/libopencm3/lib/libopencm3_stm32f4.a(i2c_common_v1.o)
 .group         0x0000000000000000        0x8 /home/user/Devel/stm32/libopencm3/lib/libopencm3_stm32f4.a(i2c_common_v1.o)
 .group         0x0000000000000000        0x8 /home/user/Devel/stm32/libopencm3/lib/libopencm3_stm32f4.a(i2c_common_v1.o)
 .group         0x0000000000000000        0x8 /home/user/Devel/stm32/libopencm3/lib/libopencm3_stm32f4.a(i2c_common_v1.o)
 .group         0x0000000000000000        0x8 /home/user/Devel/stm32/libopencm3/lib/libopencm3_stm32f4.a(i2c_common_v1.o)
 .group         0x0000000000000000        0x8 /home/user/Devel/stm32/libopencm3/lib/libopencm3_stm32f4.a(i2c_common_v1.o)
 .group         0x0000000000000000        0x8 /home/user/Devel/stm32/libopencm3/lib/libopencm3_stm32f4.a(i2c_common_v1.o)
 .group         0x0000000000000000        0x8 /home/user/Devel/stm32/libopencm3/lib/libopencm3_stm32f4.a(i2c_common_v1.o)
 .group         0x0000000000000000        0x8 /home/user/Devel/stm32/libopencm3/lib/libopencm3_stm32f4.a(i2c_common_v1.o)
 .group         0x0000000000000000        0x8 /home/user/Devel/stm32/libopencm3/lib/libopencm3_stm32f4.a(i2c_common_v1.o)
 .group         0x0000000000000000        0x8 /home/user/Devel/stm32/libopencm3/lib/libopencm3_stm32f4.a(i2c_common_v1.o)
 .group         0x0000000000000000        0x8 /home/user/Devel/stm32/libopencm3/lib/libopencm3_stm32f4.a(i2c_common_v1.o)
 .debug_macro   0x0000000000000000      0x88c /home/user/Devel/stm32/libopencm3/lib/libopencm3_stm32f4.a(i2c_common_v1.o)
 .debug_macro   0x0000000000000000       0x22 /home/user/Devel/stm32/libopencm3/lib/libopencm3_stm32f4.a(i2c_common_v1.o)
 .debug_macro   0x0000000000000000       0x87 /home/user/Devel/stm32/libopencm3/lib/libopencm3_stm32f4.a(i2c_common_v1.o)
 .debug_macro   0x0000000000000000       0x44 /home/user/Devel/stm32/libopencm3/lib/libopencm3_stm32f4.a(i2c_common_v1.o)
 .debug_macro   0x0000000000000000       0xfd /home/user/Devel/stm32/libopencm3/lib/libopencm3_stm32f4.a(i2c_common_v1.o)
 .debug_macro   0x0000000000000000       0x5e /home/user/Devel/stm32/libopencm3/lib/libopencm3_stm32f4.a(i2c_common_v1.o)
 .debug_macro   0x0000000000000000      0x1df /home/user/Devel/stm32/libopencm3/lib/libopencm3_stm32f4.a(i2c_common_v1.o)
 .debug_macro   0x0000000000000000       0x22 /home/user/Devel/stm32/libopencm3/lib/libopencm3_stm32f4.a(i2c_common_v1.o)
 .debug_macro   0x0000000000000000       0xfa /home/user/Devel/stm32/libopencm3/lib/libopencm3_stm32f4.a(i2c_common_v1.o)
 .debug_macro   0x0000000000000000       0x58 /home/user/Devel/stm32/libopencm3/lib/libopencm3_stm32f4.a(i2c_common_v1.o)
 .debug_macro   0x0000000000000000      0x26d /home/user/Devel/stm32/libopencm3/lib/libopencm3_stm32f4.a(i2c_common_v1.o)
 .debug_macro   0x0000000000000000      0xb3f /home/user/Devel/stm32/libopencm3/lib/libopencm3_stm32f4.a(i2c_common_v1.o)
 .group         0x0000000000000000        0x8 /home/user/Devel/stm32/libopencm3/lib/libopencm3_stm32f4.a(spi_common_all.o)
 .group         0x0000000000000000        0x8 /home/user/Devel/stm32/libopencm3/lib/libopencm3_stm32f4.a(spi_common_all.o)
 .group         0x0000000000000000        0x8 /home/user/Devel/stm32/libopencm3/lib/libopencm3_stm32f4.a(spi_common_all.o)
 .group         0x0000000000000000        0x8 /home/user/Devel/stm32/libopencm3/lib/libopencm3_stm32f4.a(spi_common_all.o)
 .group         0x0000000000000000        0x8 /home/user/Devel/stm32/libopencm3/lib/libopencm3_stm32f4.a(spi_common_all.o)
 .group         0x0000000000000000        0x8 /home/user/Devel/stm32/libopencm3/lib/libopencm3_stm32f4.a(spi_common_all.o)
 .group         0x0000000000000000        0x8 /home/user/Devel/stm32/libopencm3/lib/libopencm3_stm32f4.a(spi_common_all.o)
 .group         0x0000000000000000        0x8 /home/user/Devel/stm32/libopencm3/lib/libopencm3_stm32f4.a(spi_common_all.o)
 .group         0x0000000000000000        0x8 /home/user/Devel/stm32/libopencm3/lib/libopencm3_stm32f4.a(spi_common_all.o)
 .group         0x0000000000000000        0x8 /home/user/Devel/stm32/libopencm3/lib/libopencm3_stm32f4.a(spi_common_all.o)
 .group         0x0000000000000000        0x8 /home/user/Devel/stm32/libopencm3/lib/libopencm3_stm32f4.a(spi_common_all.o)
 .group         0x0000000000000000        0x8 /home/user/Devel/stm32/libopencm3/lib/libopencm3_stm32f4.a(spi_common_all.o)
 .group         0x0000000000000000        0x8 /home/user/Devel/stm32/libopencm3/lib/libopencm3_stm32f4.a(spi_common_all.o)
 .group         0x0000000000000000        0x8 /home/user/Devel/stm32/libopencm3/lib/libopencm3_stm32f4.a(spi_common_all.o)
 .group         0x0000000000000000        0x8 /home/user/Devel/stm32/libopencm3/lib/libopencm3_stm32f4.a(spi_common_all.o)
 .debug_macro   0x0000000000000000      0x88c /home/user/Devel/stm32/libopencm3/lib/libopencm3_stm32f4.a(spi_common_all.o)
 .debug_macro   0x0000000000000000       0x22 /home/user/Devel/stm32/libopencm3/lib/libopencm3_stm32f4.a(spi_common_all.o)
 .debug_macro   0x0000000000000000       0x87 /home/user/Devel/stm32/libopencm3/lib/libopencm3_stm32f4.a(spi_common_all.o)
 .debug_macro   0x0000000000000000       0x44 /home/user/Devel/stm32/libopencm3/lib/libopencm3_stm32f4.a(spi_common_all.o)
 .debug_macro   0x0000000000000000       0xfd /home/user/Devel/stm32/libopencm3/lib/libopencm3_stm32f4.a(spi_common_all.o)
 .debug_macro   0x0000000000000000       0x5e /home/user/Devel/stm32/libopencm3/lib/libopencm3_stm32f4.a(spi_common_all.o)
 .debug_macro   0x0000000000000000      0x1df /home/user/Devel/stm32/libopencm3/lib/libopencm3_stm32f4.a(spi_common_all.o)
 .debug_macro   0x0000000000000000       0x22 /home/user/Devel/stm32/libopencm3/lib/libopencm3_stm32f4.a(spi_common_all.o)
 .debug_macro   0x0000000000000000       0xfa /home/user/Devel/stm32/libopencm3/lib/libopencm3_stm32f4.a(spi_common_all.o)
 .debug_macro   0x0000000000000000       0x58 /home/user/Devel/stm32/libopencm3/lib/libopencm3_stm32f4.a(spi_common_all.o)
 .debug_macro   0x0000000000000000      0x26d /home/user/Devel/stm32/libopencm3/lib/libopencm3_stm32f4.a(spi_common_all.o)
 .debug_macro   0x0000000000000000      0xb3f /home/user/Devel/stm32/libopencm3/lib/libopencm3_stm32f4.a(spi_common_all.o)
 .group         0x0000000000000000        0x8 /home/user/Devel/stm32/libopencm3/lib/libopencm3_stm32f4.a(spi_common_l1f124.o)
 .group         0x0000000000000000        0x8 /home/user/Devel/stm32/libopencm3/lib/libopencm3_stm32f4.a(spi_common_l1f124.o)
 .group         0x0000000000000000        0x8 /home/user/Devel/stm32/libopencm3/lib/libopencm3_stm32f4.a(spi_common_l1f124.o)
 .group         0x0000000000000000        0x8 /home/user/Devel/stm32/libopencm3/lib/libopencm3_stm32f4.a(spi_common_l1f124.o)
 .group         0x0000000000000000        0x8 /home/user/Devel/stm32/libopencm3/lib/libopencm3_stm32f4.a(spi_common_l1f124.o)
 .group         0x0000000000000000        0x8 /home/user/Devel/stm32/libopencm3/lib/libopencm3_stm32f4.a(spi_common_l1f124.o)
 .group         0x0000000000000000        0x8 /home/user/Devel/stm32/libopencm3/lib/libopencm3_stm32f4.a(spi_common_l1f124.o)
 .group         0x0000000000000000        0x8 /home/user/Devel/stm32/libopencm3/lib/libopencm3_stm32f4.a(spi_common_l1f124.o)
 .group         0x0000000000000000        0x8 /home/user/Devel/stm32/libopencm3/lib/libopencm3_stm32f4.a(spi_common_l1f124.o)
 .group         0x0000000000000000        0x8 /home/user/Devel/stm32/libopencm3/lib/libopencm3_stm32f4.a(spi_common_l1f124.o)
 .group         0x0000000000000000        0x8 /home/user/Devel/stm32/libopencm3/lib/libopencm3_stm32f4.a(spi_common_l1f124.o)
 .group         0x0000000000000000        0x8 /home/user/Devel/stm32/libopencm3/lib/libopencm3_stm32f4.a(spi_common_l1f124.o)
 .group         0x0000000000000000        0x8 /home/user/Devel/stm32/libopencm3/lib/libopencm3_stm32f4.a(spi_common_l1f124.o)
 .group         0x0000000000000000        0x8 /home/user/Devel/stm32/libopencm3/lib/libopencm3_stm32f4.a(spi_common_l1f124.o)
 .group         0x0000000000000000        0x8 /home/user/Devel/stm32/libopencm3/lib/libopencm3_stm32f4.a(spi_common_l1f124.o)
 .debug_macro   0x0000000000000000      0x88c /home/user/Devel/stm32/libopencm3/lib/libopencm3_stm32f4.a(spi_common_l1f124.o)
 .debug_macro   0x0000000000000000       0x22 /home/user/Devel/stm32/libopencm3/lib/libopencm3_stm32f4.a(spi_common_l1f124.o)
 .debug_macro   0x0000000000000000       0x87 /home/user/Devel/stm32/libopencm3/lib/libopencm3_stm32f4.a(spi_common_l1f124.o)
 .debug_macro   0x0000000000000000       0x44 /home/user/Devel/stm32/libopencm3/lib/libopencm3_stm32f4.a(spi_common_l1f124.o)
 .debug_macro   0x0000000000000000       0xfd /home/user/Devel/stm32/libopencm3/lib/libopencm3_stm32f4.a(spi_common_l1f124.o)
 .debug_macro   0x0000000000000000       0x5e /home/user/Devel/stm32/libopencm3/lib/libopencm3_stm32f4.a(spi_common_l1f124.o)
 .debug_macro   0x0000000000000000      0x1df /home/user/Devel/stm32/libopencm3/lib/libopencm3_stm32f4.a(spi_common_l1f124.o)
 .debug_macro   0x0000000000000000       0x22 /home/user/Devel/stm32/libopencm3/lib/libopencm3_stm32f4.a(spi_common_l1f124.o)
 .debug_macro   0x0000000000000000       0xfa /home/user/Devel/stm32/libopencm3/lib/libopencm3_stm32f4.a(spi_common_l1f124.o)
 .debug_macro   0x0000000000000000       0x58 /home/user/Devel/stm32/libopencm3/lib/libopencm3_stm32f4.a(spi_common_l1f124.o)
 .debug_macro   0x0000000000000000      0x26d /home/user/Devel/stm32/libopencm3/lib/libopencm3_stm32f4.a(spi_common_l1f124.o)
 .debug_macro   0x0000000000000000      0x2eb /home/user/Devel/stm32/libopencm3/lib/libopencm3_stm32f4.a(spi_common_l1f124.o)
 .debug_macro   0x0000000000000000       0x16 /home/user/Devel/stm32/libopencm3/lib/libopencm3_stm32f4.a(spi_common_l1f124.o)
 .debug_macro   0x0000000000000000       0x1c /home/user/Devel/stm32/libopencm3/lib/libopencm3_stm32f4.a(spi_common_l1f124.o)
 .debug_macro   0x0000000000000000      0xb3f /home/user/Devel/stm32/libopencm3/lib/libopencm3_stm32f4.a(spi_common_l1f124.o)
 .group         0x0000000000000000        0x8 /home/user/Devel/stm32/libopencm3/lib/libopencm3_stm32f4.a(usart_common_all.o)
 .group         0x0000000000000000        0x8 /home/user/Devel/stm32/libopencm3/lib/libopencm3_stm32f4.a(usart_common_all.o)
 .group         0x0000000000000000        0x8 /home/user/Devel/stm32/libopencm3/lib/libopencm3_stm32f4.a(usart_common_all.o)
 .group         0x0000000000000000        0x8 /home/user/Devel/stm32/libopencm3/lib/libopencm3_stm32f4.a(usart_common_all.o)
 .group         0x0000000000000000        0x8 /home/user/Devel/stm32/libopencm3/lib/libopencm3_stm32f4.a(usart_common_all.o)
 .group         0x0000000000000000        0x8 /home/user/Devel/stm32/libopencm3/lib/libopencm3_stm32f4.a(usart_common_all.o)
 .group         0x0000000000000000        0x8 /home/user/Devel/stm32/libopencm3/lib/libopencm3_stm32f4.a(usart_common_all.o)
 .group         0x0000000000000000        0x8 /home/user/Devel/stm32/libopencm3/lib/libopencm3_stm32f4.a(usart_common_all.o)
 .group         0x0000000000000000        0x8 /home/user/Devel/stm32/libopencm3/lib/libopencm3_stm32f4.a(usart_common_all.o)
 .group         0x0000000000000000        0x8 /home/user/Devel/stm32/libopencm3/lib/libopencm3_stm32f4.a(usart_common_all.o)
 .group         0x0000000000000000        0x8 /home/user/Devel/stm32/libopencm3/lib/libopencm3_stm32f4.a(usart_common_all.o)
 .group         0x0000000000000000        0x8 /home/user/Devel/stm32/libopencm3/lib/libopencm3_stm32f4.a(usart_common_all.o)
 .group         0x0000000000000000        0x8 /home/user/Devel/stm32/libopencm3/lib/libopencm3_stm32f4.a(usart_common_all.o)
 .group         0x0000000000000000        0x8 /home/user/Devel/stm32/libopencm3/lib/libopencm3_stm32f4.a(usart_common_all.o)
 .group         0x0000000000000000        0x8 /home/user/Devel/stm32/libopencm3/lib/libopencm3_stm32f4.a(usart_common_all.o)
 .debug_macro   0x0000000000000000      0x88c /home/user/Devel/stm32/libopencm3/lib/libopencm3_stm32f4.a(usart_common_all.o)
 .debug_macro   0x0000000000000000       0x22 /home/user/Devel/stm32/libopencm3/lib/libopencm3_stm32f4.a(usart_common_all.o)
 .debug_macro   0x0000000000000000       0x87 /home/user/Devel/stm32/libopencm3/lib/libopencm3_stm32f4.a(usart_common_all.o)
 .debug_macro   0x0000000000000000       0x44 /home/user/Devel/stm32/libopencm3/lib/libopencm3_stm32f4.a(usart_common_all.o)
 .debug_macro   0x0000000000000000       0xfd /home/user/Devel/stm32/libopencm3/lib/libopencm3_stm32f4.a(usart_common_all.o)
 .debug_macro   0x0000000000000000       0x5e /home/user/Devel/stm32/libopencm3/lib/libopencm3_stm32f4.a(usart_common_all.o)
 .debug_macro   0x0000000000000000      0x1df /home/user/Devel/stm32/libopencm3/lib/libopencm3_stm32f4.a(usart_common_all.o)
 .debug_macro   0x0000000000000000       0x22 /home/user/Devel/stm32/libopencm3/lib/libopencm3_stm32f4.a(usart_common_all.o)
 .debug_macro   0x0000000000000000       0xfa /home/user/Devel/stm32/libopencm3/lib/libopencm3_stm32f4.a(usart_common_all.o)
 .debug_macro   0x0000000000000000       0x58 /home/user/Devel/stm32/libopencm3/lib/libopencm3_stm32f4.a(usart_common_all.o)
 .debug_macro   0x0000000000000000      0x26d /home/user/Devel/stm32/libopencm3/lib/libopencm3_stm32f4.a(usart_common_all.o)
 .debug_macro   0x0000000000000000      0xb3f /home/user/Devel/stm32/libopencm3/lib/libopencm3_stm32f4.a(usart_common_all.o)
 .group         0x0000000000000000        0x8 /home/user/Devel/stm32/libopencm3/lib/libopencm3_stm32f4.a(usart_common_f124.o)
 .group         0x0000000000000000        0x8 /home/user/Devel/stm32/libopencm3/lib/libopencm3_stm32f4.a(usart_common_f124.o)
 .group         0x0000000000000000        0x8 /home/user/Devel/stm32/libopencm3/lib/libopencm3_stm32f4.a(usart_common_f124.o)
 .group         0x0000000000000000        0x8 /home/user/Devel/stm32/libopencm3/lib/libopencm3_stm32f4.a(usart_common_f124.o)
 .group         0x0000000000000000        0x8 /home/user/Devel/stm32/libopencm3/lib/libopencm3_stm32f4.a(usart_common_f124.o)
 .group         0x0000000000000000        0x8 /home/user/Devel/stm32/libopencm3/lib/libopencm3_stm32f4.a(usart_common_f124.o)
 .group         0x0000000000000000        0x8 /home/user/Devel/stm32/libopencm3/lib/libopencm3_stm32f4.a(usart_common_f124.o)
 .group         0x0000000000000000        0x8 /home/user/Devel/stm32/libopencm3/lib/libopencm3_stm32f4.a(usart_common_f124.o)
 .group         0x0000000000000000        0x8 /home/user/Devel/stm32/libopencm3/lib/libopencm3_stm32f4.a(usart_common_f124.o)
 .group         0x0000000000000000        0x8 /home/user/Devel/stm32/libopencm3/lib/libopencm3_stm32f4.a(usart_common_f124.o)
 .group         0x0000000000000000        0x8 /home/user/Devel/stm32/libopencm3/lib/libopencm3_stm32f4.a(usart_common_f124.o)
 .group         0x0000000000000000        0x8 /home/user/Devel/stm32/libopencm3/lib/libopencm3_stm32f4.a(usart_common_f124.o)
 .group         0x0000000000000000        0x8 /home/user/Devel/stm32/libopencm3/lib/libopencm3_stm32f4.a(usart_common_f124.o)
 .group         0x0000000000000000        0x8 /home/user/Devel/stm32/libopencm3/lib/libopencm3_stm32f4.a(usart_common_f124.o)
 .group         0x0000000000000000        0x8 /home/user/Devel/stm32/libopencm3/lib/libopencm3_stm32f4.a(usart_common_f124.o)
 .debug_macro   0x0000000000000000      0x88c /home/user/Devel/stm32/libopencm3/lib/libopencm3_stm32f4.a(usart_common_f124.o)
 .debug_macro   0x0000000000000000       0x22 /home/user/Devel/stm32/libopencm3/lib/libopencm3_stm32f4.a(usart_common_f124.o)
 .debug_macro   0x0000000000000000       0x87 /home/user/Devel/stm32/libopencm3/lib/libopencm3_stm32f4.a(usart_common_f124.o)
 .debug_macro   0x0000000000000000       0x44 /home/user/Devel/stm32/libopencm3/lib/libopencm3_stm32f4.a(usart_common_f124.o)
 .debug_macro   0x0000000000000000       0xfd /home/user/Devel/stm32/libopencm3/lib/libopencm3_stm32f4.a(usart_common_f124.o)
 .debug_macro   0x0000000000000000       0x5e /home/user/Devel/stm32/libopencm3/lib/libopencm3_stm32f4.a(usart_common_f124.o)
 .debug_macro   0x0000000000000000      0x1df /home/user/Devel/stm32/libopencm3/lib/libopencm3_stm32f4.a(usart_common_f124.o)
 .debug_macro   0x0000000000000000       0x22 /home/user/Devel/stm32/libopencm3/lib/libopencm3_stm32f4.a(usart_common_f124.o)
 .debug_macro   0x0000000000000000       0xfa /home/user/Devel/stm32/libopencm3/lib/libopencm3_stm32f4.a(usart_common_f124.o)
 .debug_macro   0x0000000000000000       0x58 /home/user/Devel/stm32/libopencm3/lib/libopencm3_stm32f4.a(usart_common_f124.o)
 .debug_macro   0x0000000000000000      0x26d /home/user/Devel/stm32/libopencm3/lib/libopencm3_stm32f4.a(usart_common_f124.o)
 .debug_macro   0x0000000000000000       0x8e /home/user/Devel/stm32/libopencm3/lib/libopencm3_stm32f4.a(usart_common_f124.o)
 .debug_macro   0x0000000000000000      0x273 /home/user/Devel/stm32/libopencm3/lib/libopencm3_stm32f4.a(usart_common_f124.o)
 .debug_macro   0x0000000000000000       0xa0 /home/user/Devel/stm32/libopencm3/lib/libopencm3_stm32f4.a(usart_common_f124.o)
 .debug_macro   0x0000000000000000      0xb3f /home/user/Devel/stm32/libopencm3/lib/libopencm3_stm32f4.a(usart_common_f124.o)
 .group         0x0000000000000000        0x8 /home/user/Devel/stm32/libopencm3/lib/libopencm3_stm32f4.a(flash_common_f234.o)
 .group         0x0000000000000000        0x8 /home/user/Devel/stm32/libopencm3/lib/libopencm3_stm32f4.a(flash_common_f234.o)
 .group         0x0000000000000000        0x8 /home/user/Devel/stm32/libopencm3/lib/libopencm3_stm32f4.a(flash_common_f234.o)
 .group         0x0000000000000000        0x8 /home/user/Devel/stm32/libopencm3/lib/libopencm3_stm32f4.a(flash_common_f234.o)
 .group         0x0000000000000000        0x8 /home/user/Devel/stm32/libopencm3/lib/libopencm3_stm32f4.a(flash_common_f234.o)
 .group         0x0000000000000000        0x8 /home/user/Devel/stm32/libopencm3/lib/libopencm3_stm32f4.a(flash_common_f234.o)
 .group         0x0000000000000000        0x8 /home/user/Devel/stm32/libopencm3/lib/libopencm3_stm32f4.a(flash_common_f234.o)
 .group         0x0000000000000000        0x8 /home/user/Devel/stm32/libopencm3/lib/libopencm3_stm32f4.a(flash_common_f234.o)
 .group         0x0000000000000000        0x8 /home/user/Devel/stm32/libopencm3/lib/libopencm3_stm32f4.a(flash_common_f234.o)
 .group         0x0000000000000000        0x8 /home/user/Devel/stm32/libopencm3/lib/libopencm3_stm32f4.a(flash_common_f234.o)
 .group         0x0000000000000000        0x8 /home/user/Devel/stm32/libopencm3/lib/libopencm3_stm32f4.a(flash_common_f234.o)
 .group         0x0000000000000000        0x8 /home/user/Devel/stm32/libopencm3/lib/libopencm3_stm32f4.a(flash_common_f234.o)
 .group         0x0000000000000000        0x8 /home/user/Devel/stm32/libopencm3/lib/libopencm3_stm32f4.a(flash_common_f234.o)
 .debug_macro   0x0000000000000000      0x88c /home/user/Devel/stm32/libopencm3/lib/libopencm3_stm32f4.a(flash_common_f234.o)
 .debug_macro   0x0000000000000000       0x22 /home/user/Devel/stm32/libopencm3/lib/libopencm3_stm32f4.a(flash_common_f234.o)
 .debug_macro   0x0000000000000000       0x87 /home/user/Devel/stm32/libopencm3/lib/libopencm3_stm32f4.a(flash_common_f234.o)
 .debug_macro   0x0000000000000000       0x44 /home/user/Devel/stm32/libopencm3/lib/libopencm3_stm32f4.a(flash_common_f234.o)
 .debug_macro   0x0000000000000000       0xfd /home/user/Devel/stm32/libopencm3/lib/libopencm3_stm32f4.a(flash_common_f234.o)
 .debug_macro   0x0000000000000000       0x5e /home/user/Devel/stm32/libopencm3/lib/libopencm3_stm32f4.a(flash_common_f234.o)
 .debug_macro   0x0000000000000000      0x1df /home/user/Devel/stm32/libopencm3/lib/libopencm3_stm32f4.a(flash_common_f234.o)
 .debug_macro   0x0000000000000000       0x22 /home/user/Devel/stm32/libopencm3/lib/libopencm3_stm32f4.a(flash_common_f234.o)
 .debug_macro   0x0000000000000000       0xfa /home/user/Devel/stm32/libopencm3/lib/libopencm3_stm32f4.a(flash_common_f234.o)
 .debug_macro   0x0000000000000000       0x58 /home/user/Devel/stm32/libopencm3/lib/libopencm3_stm32f4.a(flash_common_f234.o)
 .debug_macro   0x0000000000000000      0x26d /home/user/Devel/stm32/libopencm3/lib/libopencm3_stm32f4.a(flash_common_f234.o)
 .debug_macro   0x0000000000000000       0x6a /home/user/Devel/stm32/libopencm3/lib/libopencm3_stm32f4.a(flash_common_f234.o)
 .debug_macro   0x0000000000000000       0xf4 /home/user/Devel/stm32/libopencm3/lib/libopencm3_stm32f4.a(flash_common_f234.o)
 .group         0x0000000000000000        0x8 /home/user/Devel/stm32/libopencm3/lib/libopencm3_stm32f4.a(flash_common_f24.o)
 .group         0x0000000000000000        0x8 /home/user/Devel/stm32/libopencm3/lib/libopencm3_stm32f4.a(flash_common_f24.o)
 .group         0x0000000000000000        0x8 /home/user/Devel/stm32/libopencm3/lib/libopencm3_stm32f4.a(flash_common_f24.o)
 .group         0x0000000000000000        0x8 /home/user/Devel/stm32/libopencm3/lib/libopencm3_stm32f4.a(flash_common_f24.o)
 .group         0x0000000000000000        0x8 /home/user/Devel/stm32/libopencm3/lib/libopencm3_stm32f4.a(flash_common_f24.o)
 .group         0x0000000000000000        0x8 /home/user/Devel/stm32/libopencm3/lib/libopencm3_stm32f4.a(flash_common_f24.o)
 .group         0x0000000000000000        0x8 /home/user/Devel/stm32/libopencm3/lib/libopencm3_stm32f4.a(flash_common_f24.o)
 .group         0x0000000000000000        0x8 /home/user/Devel/stm32/libopencm3/lib/libopencm3_stm32f4.a(flash_common_f24.o)
 .group         0x0000000000000000        0x8 /home/user/Devel/stm32/libopencm3/lib/libopencm3_stm32f4.a(flash_common_f24.o)
 .group         0x0000000000000000        0x8 /home/user/Devel/stm32/libopencm3/lib/libopencm3_stm32f4.a(flash_common_f24.o)
 .group         0x0000000000000000        0x8 /home/user/Devel/stm32/libopencm3/lib/libopencm3_stm32f4.a(flash_common_f24.o)
 .group         0x0000000000000000        0x8 /home/user/Devel/stm32/libopencm3/lib/libopencm3_stm32f4.a(flash_common_f24.o)
 .group         0x0000000000000000        0x8 /home/user/Devel/stm32/libopencm3/lib/libopencm3_stm32f4.a(flash_common_f24.o)
 .debug_macro   0x0000000000000000      0x88c /home/user/Devel/stm32/libopencm3/lib/libopencm3_stm32f4.a(flash_common_f24.o)
 .debug_macro   0x0000000000000000       0x22 /home/user/Devel/stm32/libopencm3/lib/libopencm3_stm32f4.a(flash_common_f24.o)
 .debug_macro   0x0000000000000000       0x87 /home/user/Devel/stm32/libopencm3/lib/libopencm3_stm32f4.a(flash_common_f24.o)
 .debug_macro   0x0000000000000000       0x44 /home/user/Devel/stm32/libopencm3/lib/libopencm3_stm32f4.a(flash_common_f24.o)
 .debug_macro   0x0000000000000000       0xfd /home/user/Devel/stm32/libopencm3/lib/libopencm3_stm32f4.a(flash_common_f24.o)
 .debug_macro   0x0000000000000000       0x5e /home/user/Devel/stm32/libopencm3/lib/libopencm3_stm32f4.a(flash_common_f24.o)
 .debug_macro   0x0000000000000000      0x1df /home/user/Devel/stm32/libopencm3/lib/libopencm3_stm32f4.a(flash_common_f24.o)
 .debug_macro   0x0000000000000000       0x22 /home/user/Devel/stm32/libopencm3/lib/libopencm3_stm32f4.a(flash_common_f24.o)
 .debug_macro   0x0000000000000000       0xfa /home/user/Devel/stm32/libopencm3/lib/libopencm3_stm32f4.a(flash_common_f24.o)
 .debug_macro   0x0000000000000000       0x58 /home/user/Devel/stm32/libopencm3/lib/libopencm3_stm32f4.a(flash_common_f24.o)
 .debug_macro   0x0000000000000000      0x26d /home/user/Devel/stm32/libopencm3/lib/libopencm3_stm32f4.a(flash_common_f24.o)
 .debug_macro   0x0000000000000000       0x6a /home/user/Devel/stm32/libopencm3/lib/libopencm3_stm32f4.a(flash_common_f24.o)
 .debug_macro   0x0000000000000000       0xf4 /home/user/Devel/stm32/libopencm3/lib/libopencm3_stm32f4.a(flash_common_f24.o)
 .group         0x0000000000000000        0x8 /home/user/Devel/stm32/libopencm3/lib/libopencm3_stm32f4.a(exti_common_all.o)
 .group         0x0000000000000000        0x8 /home/user/Devel/stm32/libopencm3/lib/libopencm3_stm32f4.a(exti_common_all.o)
 .group         0x0000000000000000        0x8 /home/user/Devel/stm32/libopencm3/lib/libopencm3_stm32f4.a(exti_common_all.o)
 .group         0x0000000000000000        0x8 /home/user/Devel/stm32/libopencm3/lib/libopencm3_stm32f4.a(exti_common_all.o)
 .group         0x0000000000000000        0x8 /home/user/Devel/stm32/libopencm3/lib/libopencm3_stm32f4.a(exti_common_all.o)
 .group         0x0000000000000000        0x8 /home/user/Devel/stm32/libopencm3/lib/libopencm3_stm32f4.a(exti_common_all.o)
 .group         0x0000000000000000        0x8 /home/user/Devel/stm32/libopencm3/lib/libopencm3_stm32f4.a(exti_common_all.o)
 .group         0x0000000000000000        0x8 /home/user/Devel/stm32/libopencm3/lib/libopencm3_stm32f4.a(exti_common_all.o)
 .group         0x0000000000000000        0x8 /home/user/Devel/stm32/libopencm3/lib/libopencm3_stm32f4.a(exti_common_all.o)
 .group         0x0000000000000000        0x8 /home/user/Devel/stm32/libopencm3/lib/libopencm3_stm32f4.a(exti_common_all.o)
 .group         0x0000000000000000        0x8 /home/user/Devel/stm32/libopencm3/lib/libopencm3_stm32f4.a(exti_common_all.o)
 .group         0x0000000000000000        0x8 /home/user/Devel/stm32/libopencm3/lib/libopencm3_stm32f4.a(exti_common_all.o)
 .group         0x0000000000000000        0x8 /home/user/Devel/stm32/libopencm3/lib/libopencm3_stm32f4.a(exti_common_all.o)
 .group         0x0000000000000000        0x8 /home/user/Devel/stm32/libopencm3/lib/libopencm3_stm32f4.a(exti_common_all.o)
 .group         0x0000000000000000        0x8 /home/user/Devel/stm32/libopencm3/lib/libopencm3_stm32f4.a(exti_common_all.o)
 .group         0x0000000000000000        0x8 /home/user/Devel/stm32/libopencm3/lib/libopencm3_stm32f4.a(exti_common_all.o)
 .debug_macro   0x0000000000000000      0x88c /home/user/Devel/stm32/libopencm3/lib/libopencm3_stm32f4.a(exti_common_all.o)
 .debug_macro   0x0000000000000000       0x22 /home/user/Devel/stm32/libopencm3/lib/libopencm3_stm32f4.a(exti_common_all.o)
 .debug_macro   0x0000000000000000       0x87 /home/user/Devel/stm32/libopencm3/lib/libopencm3_stm32f4.a(exti_common_all.o)
 .debug_macro   0x0000000000000000       0x44 /home/user/Devel/stm32/libopencm3/lib/libopencm3_stm32f4.a(exti_common_all.o)
 .debug_macro   0x0000000000000000       0xfd /home/user/Devel/stm32/libopencm3/lib/libopencm3_stm32f4.a(exti_common_all.o)
 .debug_macro   0x0000000000000000       0x5e /home/user/Devel/stm32/libopencm3/lib/libopencm3_stm32f4.a(exti_common_all.o)
 .debug_macro   0x0000000000000000      0x1df /home/user/Devel/stm32/libopencm3/lib/libopencm3_stm32f4.a(exti_common_all.o)
 .debug_macro   0x0000000000000000       0x22 /home/user/Devel/stm32/libopencm3/lib/libopencm3_stm32f4.a(exti_common_all.o)
 .debug_macro   0x0000000000000000       0xfa /home/user/Devel/stm32/libopencm3/lib/libopencm3_stm32f4.a(exti_common_all.o)
 .debug_macro   0x0000000000000000       0x58 /home/user/Devel/stm32/libopencm3/lib/libopencm3_stm32f4.a(exti_common_all.o)
 .debug_macro   0x0000000000000000      0x26d /home/user/Devel/stm32/libopencm3/lib/libopencm3_stm32f4.a(exti_common_all.o)
 .debug_macro   0x0000000000000000       0x76 /home/user/Devel/stm32/libopencm3/lib/libopencm3_stm32f4.a(exti_common_all.o)
 .debug_macro   0x0000000000000000      0x2e6 /home/user/Devel/stm32/libopencm3/lib/libopencm3_stm32f4.a(exti_common_all.o)
 .debug_macro   0x0000000000000000      0x14e /home/user/Devel/stm32/libopencm3/lib/libopencm3_stm32f4.a(exti_common_all.o)
 .group         0x0000000000000000        0x8 /home/user/Devel/stm32/libopencm3/lib/libopencm3_stm32f4.a(rcc_common_all.o)
 .group         0x0000000000000000        0x8 /home/user/Devel/stm32/libopencm3/lib/libopencm3_stm32f4.a(rcc_common_all.o)
 .group         0x0000000000000000        0x8 /home/user/Devel/stm32/libopencm3/lib/libopencm3_stm32f4.a(rcc_common_all.o)
 .group         0x0000000000000000        0x8 /home/user/Devel/stm32/libopencm3/lib/libopencm3_stm32f4.a(rcc_common_all.o)
 .group         0x0000000000000000        0x8 /home/user/Devel/stm32/libopencm3/lib/libopencm3_stm32f4.a(rcc_common_all.o)
 .group         0x0000000000000000        0x8 /home/user/Devel/stm32/libopencm3/lib/libopencm3_stm32f4.a(rcc_common_all.o)
 .group         0x0000000000000000        0x8 /home/user/Devel/stm32/libopencm3/lib/libopencm3_stm32f4.a(rcc_common_all.o)
 .group         0x0000000000000000        0x8 /home/user/Devel/stm32/libopencm3/lib/libopencm3_stm32f4.a(rcc_common_all.o)
 .group         0x0000000000000000        0x8 /home/user/Devel/stm32/libopencm3/lib/libopencm3_stm32f4.a(rcc_common_all.o)
 .group         0x0000000000000000        0x8 /home/user/Devel/stm32/libopencm3/lib/libopencm3_stm32f4.a(rcc_common_all.o)
 .group         0x0000000000000000        0x8 /home/user/Devel/stm32/libopencm3/lib/libopencm3_stm32f4.a(rcc_common_all.o)
 .group         0x0000000000000000        0x8 /home/user/Devel/stm32/libopencm3/lib/libopencm3_stm32f4.a(rcc_common_all.o)
 .debug_macro   0x0000000000000000      0x88c /home/user/Devel/stm32/libopencm3/lib/libopencm3_stm32f4.a(rcc_common_all.o)
 .debug_macro   0x0000000000000000       0x22 /home/user/Devel/stm32/libopencm3/lib/libopencm3_stm32f4.a(rcc_common_all.o)
 .debug_macro   0x0000000000000000       0x87 /home/user/Devel/stm32/libopencm3/lib/libopencm3_stm32f4.a(rcc_common_all.o)
 .debug_macro   0x0000000000000000       0x44 /home/user/Devel/stm32/libopencm3/lib/libopencm3_stm32f4.a(rcc_common_all.o)
 .debug_macro   0x0000000000000000       0xfd /home/user/Devel/stm32/libopencm3/lib/libopencm3_stm32f4.a(rcc_common_all.o)
 .debug_macro   0x0000000000000000       0x5e /home/user/Devel/stm32/libopencm3/lib/libopencm3_stm32f4.a(rcc_common_all.o)
 .debug_macro   0x0000000000000000      0x1df /home/user/Devel/stm32/libopencm3/lib/libopencm3_stm32f4.a(rcc_common_all.o)
 .debug_macro   0x0000000000000000       0x22 /home/user/Devel/stm32/libopencm3/lib/libopencm3_stm32f4.a(rcc_common_all.o)
 .debug_macro   0x0000000000000000       0xfa /home/user/Devel/stm32/libopencm3/lib/libopencm3_stm32f4.a(rcc_common_all.o)
 .debug_macro   0x0000000000000000       0x58 /home/user/Devel/stm32/libopencm3/lib/libopencm3_stm32f4.a(rcc_common_all.o)
 .debug_macro   0x0000000000000000      0x26d /home/user/Devel/stm32/libopencm3/lib/libopencm3_stm32f4.a(rcc_common_all.o)
 .debug_macro   0x0000000000000000      0xb3f /home/user/Devel/stm32/libopencm3/lib/libopencm3_stm32f4.a(rcc_common_all.o)
 .group         0x0000000000000000        0x8 /home/user/Devel/stm32/libopencm3/lib/libopencm3_stm32f4.a(usb.o)
 .group         0x0000000000000000        0x8 /home/user/Devel/stm32/libopencm3/lib/libopencm3_stm32f4.a(usb.o)
 .group         0x0000000000000000        0x8 /home/user/Devel/stm32/libopencm3/lib/libopencm3_stm32f4.a(usb.o)
 .group         0x0000000000000000        0x8 /home/user/Devel/stm32/libopencm3/lib/libopencm3_stm32f4.a(usb.o)
 .group         0x0000000000000000        0x8 /home/user/Devel/stm32/libopencm3/lib/libopencm3_stm32f4.a(usb.o)
 .group         0x0000000000000000        0x8 /home/user/Devel/stm32/libopencm3/lib/libopencm3_stm32f4.a(usb.o)
 .group         0x0000000000000000        0x8 /home/user/Devel/stm32/libopencm3/lib/libopencm3_stm32f4.a(usb.o)
 .group         0x0000000000000000        0x8 /home/user/Devel/stm32/libopencm3/lib/libopencm3_stm32f4.a(usb.o)
 .group         0x0000000000000000        0x8 /home/user/Devel/stm32/libopencm3/lib/libopencm3_stm32f4.a(usb.o)
 .group         0x0000000000000000        0x8 /home/user/Devel/stm32/libopencm3/lib/libopencm3_stm32f4.a(usb.o)
 .group         0x0000000000000000        0x8 /home/user/Devel/stm32/libopencm3/lib/libopencm3_stm32f4.a(usb.o)
 .group         0x0000000000000000        0x8 /home/user/Devel/stm32/libopencm3/lib/libopencm3_stm32f4.a(usb.o)
 .group         0x0000000000000000        0x8 /home/user/Devel/stm32/libopencm3/lib/libopencm3_stm32f4.a(usb.o)
 .group         0x0000000000000000        0x8 /home/user/Devel/stm32/libopencm3/lib/libopencm3_stm32f4.a(usb.o)
 .group         0x0000000000000000        0x8 /home/user/Devel/stm32/libopencm3/lib/libopencm3_stm32f4.a(usb.o)
 .group         0x0000000000000000        0x8 /home/user/Devel/stm32/libopencm3/lib/libopencm3_stm32f4.a(usb.o)
 .group         0x0000000000000000        0x8 /home/user/Devel/stm32/libopencm3/lib/libopencm3_stm32f4.a(usb.o)
 .group         0x0000000000000000        0x8 /home/user/Devel/stm32/libopencm3/lib/libopencm3_stm32f4.a(usb.o)
 .group         0x0000000000000000        0x8 /home/user/Devel/stm32/libopencm3/lib/libopencm3_stm32f4.a(usb.o)
 .group         0x0000000000000000        0x8 /home/user/Devel/stm32/libopencm3/lib/libopencm3_stm32f4.a(usb.o)
 .group         0x0000000000000000        0x8 /home/user/Devel/stm32/libopencm3/lib/libopencm3_stm32f4.a(usb.o)
 .group         0x0000000000000000        0x8 /home/user/Devel/stm32/libopencm3/lib/libopencm3_stm32f4.a(usb.o)
 .group         0x0000000000000000        0x8 /home/user/Devel/stm32/libopencm3/lib/libopencm3_stm32f4.a(usb.o)
 .group         0x0000000000000000        0x8 /home/user/Devel/stm32/libopencm3/lib/libopencm3_stm32f4.a(usb.o)
 .debug_macro   0x0000000000000000      0x88c /home/user/Devel/stm32/libopencm3/lib/libopencm3_stm32f4.a(usb.o)
 .debug_macro   0x0000000000000000       0x22 /home/user/Devel/stm32/libopencm3/lib/libopencm3_stm32f4.a(usb.o)
 .debug_macro   0x0000000000000000      0x174 /home/user/Devel/stm32/libopencm3/lib/libopencm3_stm32f4.a(usb.o)
 .debug_macro   0x0000000000000000       0xfd /home/user/Devel/stm32/libopencm3/lib/libopencm3_stm32f4.a(usb.o)
 .debug_macro   0x0000000000000000       0x5e /home/user/Devel/stm32/libopencm3/lib/libopencm3_stm32f4.a(usb.o)
 .debug_macro   0x0000000000000000      0x1df /home/user/Devel/stm32/libopencm3/lib/libopencm3_stm32f4.a(usb.o)
 .debug_macro   0x0000000000000000       0x22 /home/user/Devel/stm32/libopencm3/lib/libopencm3_stm32f4.a(usb.o)
 .debug_macro   0x0000000000000000       0xfa /home/user/Devel/stm32/libopencm3/lib/libopencm3_stm32f4.a(usb.o)
 .group         0x0000000000000000        0x8 /home/user/Devel/stm32/libopencm3/lib/libopencm3_stm32f4.a(usb_standard.o)
 .group         0x0000000000000000        0x8 /home/user/Devel/stm32/libopencm3/lib/libopencm3_stm32f4.a(usb_standard.o)
 .group         0x0000000000000000        0x8 /home/user/Devel/stm32/libopencm3/lib/libopencm3_stm32f4.a(usb_standard.o)
 .group         0x0000000000000000        0x8 /home/user/Devel/stm32/libopencm3/lib/libopencm3_stm32f4.a(usb_standard.o)
 .group         0x0000000000000000        0x8 /home/user/Devel/stm32/libopencm3/lib/libopencm3_stm32f4.a(usb_standard.o)
 .group         0x0000000000000000        0x8 /home/user/Devel/stm32/libopencm3/lib/libopencm3_stm32f4.a(usb_standard.o)
 .group         0x0000000000000000        0x8 /home/user/Devel/stm32/libopencm3/lib/libopencm3_stm32f4.a(usb_standard.o)
 .group         0x0000000000000000        0x8 /home/user/Devel/stm32/libopencm3/lib/libopencm3_stm32f4.a(usb_standard.o)
 .group         0x0000000000000000        0x8 /home/user/Devel/stm32/libopencm3/lib/libopencm3_stm32f4.a(usb_standard.o)
 .group         0x0000000000000000        0x8 /home/user/Devel/stm32/libopencm3/lib/libopencm3_stm32f4.a(usb_standard.o)
 .group         0x0000000000000000        0x8 /home/user/Devel/stm32/libopencm3/lib/libopencm3_stm32f4.a(usb_standard.o)
 .group         0x0000000000000000        0x8 /home/user/Devel/stm32/libopencm3/lib/libopencm3_stm32f4.a(usb_standard.o)
 .group         0x0000000000000000        0x8 /home/user/Devel/stm32/libopencm3/lib/libopencm3_stm32f4.a(usb_standard.o)
 .group         0x0000000000000000        0x8 /home/user/Devel/stm32/libopencm3/lib/libopencm3_stm32f4.a(usb_standard.o)
 .group         0x0000000000000000        0x8 /home/user/Devel/stm32/libopencm3/lib/libopencm3_stm32f4.a(usb_standard.o)
 .group         0x0000000000000000        0x8 /home/user/Devel/stm32/libopencm3/lib/libopencm3_stm32f4.a(usb_standard.o)
 .group         0x0000000000000000        0x8 /home/user/Devel/stm32/libopencm3/lib/libopencm3_stm32f4.a(usb_standard.o)
 .group         0x0000000000000000        0x8 /home/user/Devel/stm32/libopencm3/lib/libopencm3_stm32f4.a(usb_standard.o)
 .group         0x0000000000000000        0x8 /home/user/Devel/stm32/libopencm3/lib/libopencm3_stm32f4.a(usb_standard.o)
 .group         0x0000000000000000        0x8 /home/user/Devel/stm32/libopencm3/lib/libopencm3_stm32f4.a(usb_standard.o)
 .group         0x0000000000000000        0x8 /home/user/Devel/stm32/libopencm3/lib/libopencm3_stm32f4.a(usb_standard.o)
 .group         0x0000000000000000        0x8 /home/user/Devel/stm32/libopencm3/lib/libopencm3_stm32f4.a(usb_standard.o)
 .group         0x0000000000000000        0x8 /home/user/Devel/stm32/libopencm3/lib/libopencm3_stm32f4.a(usb_standard.o)
 .group         0x0000000000000000        0x8 /home/user/Devel/stm32/libopencm3/lib/libopencm3_stm32f4.a(usb_standard.o)
 .debug_macro   0x0000000000000000      0x88c /home/user/Devel/stm32/libopencm3/lib/libopencm3_stm32f4.a(usb_standard.o)
 .debug_macro   0x0000000000000000       0x22 /home/user/Devel/stm32/libopencm3/lib/libopencm3_stm32f4.a(usb_standard.o)
 .debug_macro   0x0000000000000000       0x4c /home/user/Devel/stm32/libopencm3/lib/libopencm3_stm32f4.a(usb_standard.o)
 .debug_macro   0x0000000000000000       0x8d /home/user/Devel/stm32/libopencm3/lib/libopencm3_stm32f4.a(usb_standard.o)
 .debug_macro   0x0000000000000000       0x35 /home/user/Devel/stm32/libopencm3/lib/libopencm3_stm32f4.a(usb_standard.o)
 .debug_macro   0x0000000000000000       0x9c /home/user/Devel/stm32/libopencm3/lib/libopencm3_stm32f4.a(usb_standard.o)
 .debug_macro   0x0000000000000000      0x174 /home/user/Devel/stm32/libopencm3/lib/libopencm3_stm32f4.a(usb_standard.o)
 .debug_macro   0x0000000000000000       0x4a /home/user/Devel/stm32/libopencm3/lib/libopencm3_stm32f4.a(usb_standard.o)
 .debug_macro   0x0000000000000000       0x52 /home/user/Devel/stm32/libopencm3/lib/libopencm3_stm32f4.a(usb_standard.o)
 .debug_macro   0x0000000000000000       0x1f /home/user/Devel/stm32/libopencm3/lib/libopencm3_stm32f4.a(usb_standard.o)
 .debug_macro   0x0000000000000000       0x43 /home/user/Devel/stm32/libopencm3/lib/libopencm3_stm32f4.a(usb_standard.o)
 .debug_macro   0x0000000000000000       0x20 /home/user/Devel/stm32/libopencm3/lib/libopencm3_stm32f4.a(usb_standard.o)
 .debug_macro   0x0000000000000000      0x187 /home/user/Devel/stm32/libopencm3/lib/libopencm3_stm32f4.a(usb_standard.o)
 .debug_macro   0x0000000000000000      0x30d /home/user/Devel/stm32/libopencm3/lib/libopencm3_stm32f4.a(usb_standard.o)
 .debug_macro   0x0000000000000000       0x10 /home/user/Devel/stm32/libopencm3/lib/libopencm3_stm32f4.a(usb_standard.o)
 .debug_macro   0x0000000000000000       0x35 /home/user/Devel/stm32/libopencm3/lib/libopencm3_stm32f4.a(usb_standard.o)
 .debug_macro   0x0000000000000000       0xfd /home/user/Devel/stm32/libopencm3/lib/libopencm3_stm32f4.a(usb_standard.o)
 .debug_macro   0x0000000000000000       0x5e /home/user/Devel/stm32/libopencm3/lib/libopencm3_stm32f4.a(usb_standard.o)
 .debug_macro   0x0000000000000000      0x1df /home/user/Devel/stm32/libopencm3/lib/libopencm3_stm32f4.a(usb_standard.o)
 .debug_macro   0x0000000000000000       0x22 /home/user/Devel/stm32/libopencm3/lib/libopencm3_stm32f4.a(usb_standard.o)
 .debug_macro   0x0000000000000000       0xfa /home/user/Devel/stm32/libopencm3/lib/libopencm3_stm32f4.a(usb_standard.o)
 .debug_macro   0x0000000000000000      0x196 /home/user/Devel/stm32/libopencm3/lib/libopencm3_stm32f4.a(usb_standard.o)
 .debug_macro   0x0000000000000000       0x10 /home/user/Devel/stm32/libopencm3/lib/libopencm3_stm32f4.a(usb_standard.o)
 .debug_macro   0x0000000000000000       0x1c /home/user/Devel/stm32/libopencm3/lib/libopencm3_stm32f4.a(usb_standard.o)
 .group         0x0000000000000000        0x8 /home/user/Devel/stm32/libopencm3/lib/libopencm3_stm32f4.a(usb_control.o)
 .group         0x0000000000000000        0x8 /home/user/Devel/stm32/libopencm3/lib/libopencm3_stm32f4.a(usb_control.o)
 .group         0x0000000000000000        0x8 /home/user/Devel/stm32/libopencm3/lib/libopencm3_stm32f4.a(usb_control.o)
 .group         0x0000000000000000        0x8 /home/user/Devel/stm32/libopencm3/lib/libopencm3_stm32f4.a(usb_control.o)
 .group         0x0000000000000000        0x8 /home/user/Devel/stm32/libopencm3/lib/libopencm3_stm32f4.a(usb_control.o)
 .group         0x0000000000000000        0x8 /home/user/Devel/stm32/libopencm3/lib/libopencm3_stm32f4.a(usb_control.o)
 .group         0x0000000000000000        0x8 /home/user/Devel/stm32/libopencm3/lib/libopencm3_stm32f4.a(usb_control.o)
 .group         0x0000000000000000        0x8 /home/user/Devel/stm32/libopencm3/lib/libopencm3_stm32f4.a(usb_control.o)
 .group         0x0000000000000000        0x8 /home/user/Devel/stm32/libopencm3/lib/libopencm3_stm32f4.a(usb_control.o)
 .group         0x0000000000000000        0x8 /home/user/Devel/stm32/libopencm3/lib/libopencm3_stm32f4.a(usb_control.o)
 .group         0x0000000000000000        0x8 /home/user/Devel/stm32/libopencm3/lib/libopencm3_stm32f4.a(usb_control.o)
 .group         0x0000000000000000        0x8 /home/user/Devel/stm32/libopencm3/lib/libopencm3_stm32f4.a(usb_control.o)
 .group         0x0000000000000000        0x8 /home/user/Devel/stm32/libopencm3/lib/libopencm3_stm32f4.a(usb_control.o)
 .group         0x0000000000000000        0x8 /home/user/Devel/stm32/libopencm3/lib/libopencm3_stm32f4.a(usb_control.o)
 .group         0x0000000000000000        0x8 /home/user/Devel/stm32/libopencm3/lib/libopencm3_stm32f4.a(usb_control.o)
 .group         0x0000000000000000        0x8 /home/user/Devel/stm32/libopencm3/lib/libopencm3_stm32f4.a(usb_control.o)
 .group         0x0000000000000000        0x8 /home/user/Devel/stm32/libopencm3/lib/libopencm3_stm32f4.a(usb_control.o)
 .group         0x0000000000000000        0x8 /home/user/Devel/stm32/libopencm3/lib/libopencm3_stm32f4.a(usb_control.o)
 .group         0x0000000000000000        0x8 /home/user/Devel/stm32/libopencm3/lib/libopencm3_stm32f4.a(usb_control.o)
 .group         0x0000000000000000        0x8 /home/user/Devel/stm32/libopencm3/lib/libopencm3_stm32f4.a(usb_control.o)
 .group         0x0000000000000000        0x8 /home/user/Devel/stm32/libopencm3/lib/libopencm3_stm32f4.a(usb_control.o)
 .group         0x0000000000000000        0x8 /home/user/Devel/stm32/libopencm3/lib/libopencm3_stm32f4.a(usb_control.o)
 .group         0x0000000000000000        0x8 /home/user/Devel/stm32/libopencm3/lib/libopencm3_stm32f4.a(usb_control.o)
 .group         0x0000000000000000        0x8 /home/user/Devel/stm32/libopencm3/lib/libopencm3_stm32f4.a(usb_control.o)
 .group         0x0000000000000000        0x8 /home/user/Devel/stm32/libopencm3/lib/libopencm3_stm32f4.a(usb_control.o)
 .group         0x0000000000000000        0x8 /home/user/Devel/stm32/libopencm3/lib/libopencm3_stm32f4.a(usb_control.o)
 .debug_macro   0x0000000000000000      0x88c /home/user/Devel/stm32/libopencm3/lib/libopencm3_stm32f4.a(usb_control.o)
 .debug_macro   0x0000000000000000       0x22 /home/user/Devel/stm32/libopencm3/lib/libopencm3_stm32f4.a(usb_control.o)
 .debug_macro   0x0000000000000000       0x4c /home/user/Devel/stm32/libopencm3/lib/libopencm3_stm32f4.a(usb_control.o)
 .debug_macro   0x0000000000000000       0x8d /home/user/Devel/stm32/libopencm3/lib/libopencm3_stm32f4.a(usb_control.o)
 .debug_macro   0x0000000000000000       0x35 /home/user/Devel/stm32/libopencm3/lib/libopencm3_stm32f4.a(usb_control.o)
 .debug_macro   0x0000000000000000       0x9c /home/user/Devel/stm32/libopencm3/lib/libopencm3_stm32f4.a(usb_control.o)
 .debug_macro   0x0000000000000000       0x4a /home/user/Devel/stm32/libopencm3/lib/libopencm3_stm32f4.a(usb_control.o)
 .debug_macro   0x0000000000000000       0x52 /home/user/Devel/stm32/libopencm3/lib/libopencm3_stm32f4.a(usb_control.o)
 .debug_macro   0x0000000000000000       0x1f /home/user/Devel/stm32/libopencm3/lib/libopencm3_stm32f4.a(usb_control.o)
 .debug_macro   0x0000000000000000       0x43 /home/user/Devel/stm32/libopencm3/lib/libopencm3_stm32f4.a(usb_control.o)
 .debug_macro   0x0000000000000000       0x20 /home/user/Devel/stm32/libopencm3/lib/libopencm3_stm32f4.a(usb_control.o)
 .debug_macro   0x0000000000000000      0x187 /home/user/Devel/stm32/libopencm3/lib/libopencm3_stm32f4.a(usb_control.o)
 .debug_macro   0x0000000000000000      0x30d /home/user/Devel/stm32/libopencm3/lib/libopencm3_stm32f4.a(usb_control.o)
 .debug_macro   0x0000000000000000       0xfd /home/user/Devel/stm32/libopencm3/lib/libopencm3_stm32f4.a(usb_control.o)
 .debug_macro   0x0000000000000000       0x5e /home/user/Devel/stm32/libopencm3/lib/libopencm3_stm32f4.a(usb_control.o)
 .debug_macro   0x0000000000000000      0x1df /home/user/Devel/stm32/libopencm3/lib/libopencm3_stm32f4.a(usb_control.o)
 .debug_macro   0x0000000000000000       0x22 /home/user/Devel/stm32/libopencm3/lib/libopencm3_stm32f4.a(usb_control.o)
 .debug_macro   0x0000000000000000       0xfa /home/user/Devel/stm32/libopencm3/lib/libopencm3_stm32f4.a(usb_control.o)
 .debug_macro   0x0000000000000000      0x196 /home/user/Devel/stm32/libopencm3/lib/libopencm3_stm32f4.a(usb_control.o)
 .debug_macro   0x0000000000000000       0x10 /home/user/Devel/stm32/libopencm3/lib/libopencm3_stm32f4.a(usb_control.o)
 .debug_macro   0x0000000000000000       0x1c /home/user/Devel/stm32/libopencm3/lib/libopencm3_stm32f4.a(usb_control.o)
 .group         0x0000000000000000        0x8 /home/user/Devel/stm32/libopencm3/lib/libopencm3_stm32f4.a(usb_f107.o)
 .group         0x0000000000000000        0x8 /home/user/Devel/stm32/libopencm3/lib/libopencm3_stm32f4.a(usb_f107.o)
 .group         0x0000000000000000        0x8 /home/user/Devel/stm32/libopencm3/lib/libopencm3_stm32f4.a(usb_f107.o)
 .group         0x0000000000000000        0x8 /home/user/Devel/stm32/libopencm3/lib/libopencm3_stm32f4.a(usb_f107.o)
 .group         0x0000000000000000        0x8 /home/user/Devel/stm32/libopencm3/lib/libopencm3_stm32f4.a(usb_f107.o)
 .group         0x0000000000000000        0x8 /home/user/Devel/stm32/libopencm3/lib/libopencm3_stm32f4.a(usb_f107.o)
 .group         0x0000000000000000        0x8 /home/user/Devel/stm32/libopencm3/lib/libopencm3_stm32f4.a(usb_f107.o)
 .group         0x0000000000000000        0x8 /home/user/Devel/stm32/libopencm3/lib/libopencm3_stm32f4.a(usb_f107.o)
 .group         0x0000000000000000        0x8 /home/user/Devel/stm32/libopencm3/lib/libopencm3_stm32f4.a(usb_f107.o)
 .group         0x0000000000000000        0x8 /home/user/Devel/stm32/libopencm3/lib/libopencm3_stm32f4.a(usb_f107.o)
 .group         0x0000000000000000        0x8 /home/user/Devel/stm32/libopencm3/lib/libopencm3_stm32f4.a(usb_f107.o)
 .group         0x0000000000000000        0x8 /home/user/Devel/stm32/libopencm3/lib/libopencm3_stm32f4.a(usb_f107.o)
 .group         0x0000000000000000        0x8 /home/user/Devel/stm32/libopencm3/lib/libopencm3_stm32f4.a(usb_f107.o)
 .group         0x0000000000000000        0x8 /home/user/Devel/stm32/libopencm3/lib/libopencm3_stm32f4.a(usb_f107.o)
 .group         0x0000000000000000        0x8 /home/user/Devel/stm32/libopencm3/lib/libopencm3_stm32f4.a(usb_f107.o)
 .group         0x0000000000000000        0x8 /home/user/Devel/stm32/libopencm3/lib/libopencm3_stm32f4.a(usb_f107.o)
 .group         0x0000000000000000        0x8 /home/user/Devel/stm32/libopencm3/lib/libopencm3_stm32f4.a(usb_f107.o)
 .group         0x0000000000000000        0x8 /home/user/Devel/stm32/libopencm3/lib/libopencm3_stm32f4.a(usb_f107.o)
 .group         0x0000000000000000        0x8 /home/user/Devel/stm32/libopencm3/lib/libopencm3_stm32f4.a(usb_f107.o)
 .group         0x0000000000000000        0x8 /home/user/Devel/stm32/libopencm3/lib/libopencm3_stm32f4.a(usb_f107.o)
 .group         0x0000000000000000        0x8 /home/user/Devel/stm32/libopencm3/lib/libopencm3_stm32f4.a(usb_f107.o)
 .group         0x0000000000000000        0x8 /home/user/Devel/stm32/libopencm3/lib/libopencm3_stm32f4.a(usb_f107.o)
 .group         0x0000000000000000        0x8 /home/user/Devel/stm32/libopencm3/lib/libopencm3_stm32f4.a(usb_f107.o)
 .group         0x0000000000000000        0x8 /home/user/Devel/stm32/libopencm3/lib/libopencm3_stm32f4.a(usb_f107.o)
 .group         0x0000000000000000        0x8 /home/user/Devel/stm32/libopencm3/lib/libopencm3_stm32f4.a(usb_f107.o)
 .group         0x0000000000000000        0x8 /home/user/Devel/stm32/libopencm3/lib/libopencm3_stm32f4.a(usb_f107.o)
 .group         0x0000000000000000        0x8 /home/user/Devel/stm32/libopencm3/lib/libopencm3_stm32f4.a(usb_f107.o)
 .group         0x0000000000000000        0x8 /home/user/Devel/stm32/libopencm3/lib/libopencm3_stm32f4.a(usb_f107.o)
 .group         0x0000000000000000        0x8 /home/user/Devel/stm32/libopencm3/lib/libopencm3_stm32f4.a(usb_f107.o)
 .group         0x0000000000000000        0x8 /home/user/Devel/stm32/libopencm3/lib/libopencm3_stm32f4.a(usb_f107.o)
 .debug_macro   0x0000000000000000      0x88c /home/user/Devel/stm32/libopencm3/lib/libopencm3_stm32f4.a(usb_f107.o)
 .debug_macro   0x0000000000000000       0x22 /home/user/Devel/stm32/libopencm3/lib/libopencm3_stm32f4.a(usb_f107.o)
 .debug_macro   0x0000000000000000       0x4c /home/user/Devel/stm32/libopencm3/lib/libopencm3_stm32f4.a(usb_f107.o)
 .debug_macro   0x0000000000000000       0x8d /home/user/Devel/stm32/libopencm3/lib/libopencm3_stm32f4.a(usb_f107.o)
 .debug_macro   0x0000000000000000       0x35 /home/user/Devel/stm32/libopencm3/lib/libopencm3_stm32f4.a(usb_f107.o)
 .debug_macro   0x0000000000000000       0x9c /home/user/Devel/stm32/libopencm3/lib/libopencm3_stm32f4.a(usb_f107.o)
 .debug_macro   0x0000000000000000      0x174 /home/user/Devel/stm32/libopencm3/lib/libopencm3_stm32f4.a(usb_f107.o)
 .debug_macro   0x0000000000000000       0x4a /home/user/Devel/stm32/libopencm3/lib/libopencm3_stm32f4.a(usb_f107.o)
 .debug_macro   0x0000000000000000       0x52 /home/user/Devel/stm32/libopencm3/lib/libopencm3_stm32f4.a(usb_f107.o)
 .debug_macro   0x0000000000000000       0x1f /home/user/Devel/stm32/libopencm3/lib/libopencm3_stm32f4.a(usb_f107.o)
 .debug_macro   0x0000000000000000       0x43 /home/user/Devel/stm32/libopencm3/lib/libopencm3_stm32f4.a(usb_f107.o)
 .debug_macro   0x0000000000000000       0x20 /home/user/Devel/stm32/libopencm3/lib/libopencm3_stm32f4.a(usb_f107.o)
 .debug_macro   0x0000000000000000      0x187 /home/user/Devel/stm32/libopencm3/lib/libopencm3_stm32f4.a(usb_f107.o)
 .debug_macro   0x0000000000000000      0x30d /home/user/Devel/stm32/libopencm3/lib/libopencm3_stm32f4.a(usb_f107.o)
 .debug_macro   0x0000000000000000       0x10 /home/user/Devel/stm32/libopencm3/lib/libopencm3_stm32f4.a(usb_f107.o)
 .debug_macro   0x0000000000000000       0x35 /home/user/Devel/stm32/libopencm3/lib/libopencm3_stm32f4.a(usb_f107.o)
 .debug_macro   0x0000000000000000       0xfd /home/user/Devel/stm32/libopencm3/lib/libopencm3_stm32f4.a(usb_f107.o)
 .debug_macro   0x0000000000000000       0x5e /home/user/Devel/stm32/libopencm3/lib/libopencm3_stm32f4.a(usb_f107.o)
 .debug_macro   0x0000000000000000      0x1df /home/user/Devel/stm32/libopencm3/lib/libopencm3_stm32f4.a(usb_f107.o)
 .debug_macro   0x0000000000000000       0x22 /home/user/Devel/stm32/libopencm3/lib/libopencm3_stm32f4.a(usb_f107.o)
 .debug_macro   0x0000000000000000       0xfa /home/user/Devel/stm32/libopencm3/lib/libopencm3_stm32f4.a(usb_f107.o)
 .debug_macro   0x0000000000000000       0x58 /home/user/Devel/stm32/libopencm3/lib/libopencm3_stm32f4.a(usb_f107.o)
 .debug_macro   0x0000000000000000      0x26d /home/user/Devel/stm32/libopencm3/lib/libopencm3_stm32f4.a(usb_f107.o)
 .debug_macro   0x0000000000000000      0xb3f /home/user/Devel/stm32/libopencm3/lib/libopencm3_stm32f4.a(usb_f107.o)
 .debug_macro   0x0000000000000000       0x10 /home/user/Devel/stm32/libopencm3/lib/libopencm3_stm32f4.a(usb_f107.o)
 .debug_macro   0x0000000000000000       0x1c /home/user/Devel/stm32/libopencm3/lib/libopencm3_stm32f4.a(usb_f107.o)
 .group         0x0000000000000000        0x8 /home/user/Devel/stm32/libopencm3/lib/libopencm3_stm32f4.a(vector.o)
 .group         0x0000000000000000        0x8 /home/user/Devel/stm32/libopencm3/lib/libopencm3_stm32f4.a(vector.o)
 .group         0x0000000000000000        0x8 /home/user/Devel/stm32/libopencm3/lib/libopencm3_stm32f4.a(vector.o)
 .group         0x0000000000000000        0x8 /home/user/Devel/stm32/libopencm3/lib/libopencm3_stm32f4.a(vector.o)
 .group         0x0000000000000000        0x8 /home/user/Devel/stm32/libopencm3/lib/libopencm3_stm32f4.a(vector.o)
 .group         0x0000000000000000        0x8 /home/user/Devel/stm32/libopencm3/lib/libopencm3_stm32f4.a(vector.o)
 .group         0x0000000000000000        0x8 /home/user/Devel/stm32/libopencm3/lib/libopencm3_stm32f4.a(vector.o)
 .group         0x0000000000000000        0x8 /home/user/Devel/stm32/libopencm3/lib/libopencm3_stm32f4.a(vector.o)
 .group         0x0000000000000000        0x8 /home/user/Devel/stm32/libopencm3/lib/libopencm3_stm32f4.a(vector.o)
 .group         0x0000000000000000        0x8 /home/user/Devel/stm32/libopencm3/lib/libopencm3_stm32f4.a(vector.o)
 .group         0x0000000000000000        0x8 /home/user/Devel/stm32/libopencm3/lib/libopencm3_stm32f4.a(vector.o)
 .group         0x0000000000000000        0x8 /home/user/Devel/stm32/libopencm3/lib/libopencm3_stm32f4.a(vector.o)
 .group         0x0000000000000000        0x8 /home/user/Devel/stm32/libopencm3/lib/libopencm3_stm32f4.a(vector.o)
 .debug_macro   0x0000000000000000      0x88c /home/user/Devel/stm32/libopencm3/lib/libopencm3_stm32f4.a(vector.o)
 .debug_macro   0x0000000000000000       0x58 /home/user/Devel/stm32/libopencm3/lib/libopencm3_stm32f4.a(vector.o)
 .debug_macro   0x0000000000000000       0x22 /home/user/Devel/stm32/libopencm3/lib/libopencm3_stm32f4.a(vector.o)
 .debug_macro   0x0000000000000000       0x87 /home/user/Devel/stm32/libopencm3/lib/libopencm3_stm32f4.a(vector.o)
 .debug_macro   0x0000000000000000       0x44 /home/user/Devel/stm32/libopencm3/lib/libopencm3_stm32f4.a(vector.o)
 .debug_macro   0x0000000000000000       0xfd /home/user/Devel/stm32/libopencm3/lib/libopencm3_stm32f4.a(vector.o)
 .debug_macro   0x0000000000000000       0x5e /home/user/Devel/stm32/libopencm3/lib/libopencm3_stm32f4.a(vector.o)
 .debug_macro   0x0000000000000000      0x1df /home/user/Devel/stm32/libopencm3/lib/libopencm3_stm32f4.a(vector.o)
 .debug_macro   0x0000000000000000       0x22 /home/user/Devel/stm32/libopencm3/lib/libopencm3_stm32f4.a(vector.o)
 .debug_macro   0x0000000000000000       0xfa /home/user/Devel/stm32/libopencm3/lib/libopencm3_stm32f4.a(vector.o)
 .group         0x0000000000000000        0x8 /home/user/Devel/stm32/libopencm3/lib/libopencm3_stm32f4.a(systick.o)
 .group         0x0000000000000000        0x8 /home/user/Devel/stm32/libopencm3/lib/libopencm3_stm32f4.a(systick.o)
 .group         0x0000000000000000        0x8 /home/user/Devel/stm32/libopencm3/lib/libopencm3_stm32f4.a(systick.o)
 .group         0x0000000000000000        0x8 /home/user/Devel/stm32/libopencm3/lib/libopencm3_stm32f4.a(systick.o)
 .group         0x0000000000000000        0x8 /home/user/Devel/stm32/libopencm3/lib/libopencm3_stm32f4.a(systick.o)
 .group         0x0000000000000000        0x8 /home/user/Devel/stm32/libopencm3/lib/libopencm3_stm32f4.a(systick.o)
 .group         0x0000000000000000        0x8 /home/user/Devel/stm32/libopencm3/lib/libopencm3_stm32f4.a(systick.o)
 .group         0x0000000000000000        0x8 /home/user/Devel/stm32/libopencm3/lib/libopencm3_stm32f4.a(systick.o)
 .group         0x0000000000000000        0x8 /home/user/Devel/stm32/libopencm3/lib/libopencm3_stm32f4.a(systick.o)
 .group         0x0000000000000000        0x8 /home/user/Devel/stm32/libopencm3/lib/libopencm3_stm32f4.a(systick.o)
 .group         0x0000000000000000        0x8 /home/user/Devel/stm32/libopencm3/lib/libopencm3_stm32f4.a(systick.o)
 .debug_macro   0x0000000000000000      0x88c /home/user/Devel/stm32/libopencm3/lib/libopencm3_stm32f4.a(systick.o)
 .debug_macro   0x0000000000000000       0x58 /home/user/Devel/stm32/libopencm3/lib/libopencm3_stm32f4.a(systick.o)
 .debug_macro   0x0000000000000000       0x22 /home/user/Devel/stm32/libopencm3/lib/libopencm3_stm32f4.a(systick.o)
 .debug_macro   0x0000000000000000       0x87 /home/user/Devel/stm32/libopencm3/lib/libopencm3_stm32f4.a(systick.o)
 .debug_macro   0x0000000000000000       0x44 /home/user/Devel/stm32/libopencm3/lib/libopencm3_stm32f4.a(systick.o)
 .debug_macro   0x0000000000000000       0xfd /home/user/Devel/stm32/libopencm3/lib/libopencm3_stm32f4.a(systick.o)
 .debug_macro   0x0000000000000000       0x5e /home/user/Devel/stm32/libopencm3/lib/libopencm3_stm32f4.a(systick.o)
 .debug_macro   0x0000000000000000      0x1df /home/user/Devel/stm32/libopencm3/lib/libopencm3_stm32f4.a(systick.o)
 .debug_macro   0x0000000000000000       0x22 /home/user/Devel/stm32/libopencm3/lib/libopencm3_stm32f4.a(systick.o)
 .debug_macro   0x0000000000000000       0xfa /home/user/Devel/stm32/libopencm3/lib/libopencm3_stm32f4.a(systick.o)
 .group         0x0000000000000000        0x8 /home/user/Devel/stm32/libopencm3/lib/libopencm3_stm32f4.a(nvic.o)
 .group         0x0000000000000000        0x8 /home/user/Devel/stm32/libopencm3/lib/libopencm3_stm32f4.a(nvic.o)
 .group         0x0000000000000000        0x8 /home/user/Devel/stm32/libopencm3/lib/libopencm3_stm32f4.a(nvic.o)
 .group         0x0000000000000000        0x8 /home/user/Devel/stm32/libopencm3/lib/libopencm3_stm32f4.a(nvic.o)
 .group         0x0000000000000000        0x8 /home/user/Devel/stm32/libopencm3/lib/libopencm3_stm32f4.a(nvic.o)
 .group         0x0000000000000000        0x8 /home/user/Devel/stm32/libopencm3/lib/libopencm3_stm32f4.a(nvic.o)
 .group         0x0000000000000000        0x8 /home/user/Devel/stm32/libopencm3/lib/libopencm3_stm32f4.a(nvic.o)
 .group         0x0000000000000000        0x8 /home/user/Devel/stm32/libopencm3/lib/libopencm3_stm32f4.a(nvic.o)
 .group         0x0000000000000000        0x8 /home/user/Devel/stm32/libopencm3/lib/libopencm3_stm32f4.a(nvic.o)
 .group         0x0000000000000000        0x8 /home/user/Devel/stm32/libopencm3/lib/libopencm3_stm32f4.a(nvic.o)
 .group         0x0000000000000000        0x8 /home/user/Devel/stm32/libopencm3/lib/libopencm3_stm32f4.a(nvic.o)
 .group         0x0000000000000000        0x8 /home/user/Devel/stm32/libopencm3/lib/libopencm3_stm32f4.a(nvic.o)
 .group         0x0000000000000000        0x8 /home/user/Devel/stm32/libopencm3/lib/libopencm3_stm32f4.a(nvic.o)
 .debug_macro   0x0000000000000000      0x88c /home/user/Devel/stm32/libopencm3/lib/libopencm3_stm32f4.a(nvic.o)
 .debug_macro   0x0000000000000000       0x22 /home/user/Devel/stm32/libopencm3/lib/libopencm3_stm32f4.a(nvic.o)
 .debug_macro   0x0000000000000000       0x87 /home/user/Devel/stm32/libopencm3/lib/libopencm3_stm32f4.a(nvic.o)
 .debug_macro   0x0000000000000000       0x44 /home/user/Devel/stm32/libopencm3/lib/libopencm3_stm32f4.a(nvic.o)
 .debug_macro   0x0000000000000000       0xfd /home/user/Devel/stm32/libopencm3/lib/libopencm3_stm32f4.a(nvic.o)
 .debug_macro   0x0000000000000000       0x5e /home/user/Devel/stm32/libopencm3/lib/libopencm3_stm32f4.a(nvic.o)
 .debug_macro   0x0000000000000000      0x1df /home/user/Devel/stm32/libopencm3/lib/libopencm3_stm32f4.a(nvic.o)
 .debug_macro   0x0000000000000000       0x22 /home/user/Devel/stm32/libopencm3/lib/libopencm3_stm32f4.a(nvic.o)
 .debug_macro   0x0000000000000000       0xfa /home/user/Devel/stm32/libopencm3/lib/libopencm3_stm32f4.a(nvic.o)
 .debug_macro   0x0000000000000000       0x58 /home/user/Devel/stm32/libopencm3/lib/libopencm3_stm32f4.a(nvic.o)
 .debug_macro   0x0000000000000000      0x22c /home/user/Devel/stm32/libopencm3/lib/libopencm3_stm32f4.a(nvic.o)
 .group         0x0000000000000000        0x8 /home/user/Devel/stm32/libopencm3/lib/libopencm3_stm32f4.a(pwr.o)
 .group         0x0000000000000000        0x8 /home/user/Devel/stm32/libopencm3/lib/libopencm3_stm32f4.a(pwr.o)
 .group         0x0000000000000000        0x8 /home/user/Devel/stm32/libopencm3/lib/libopencm3_stm32f4.a(pwr.o)
 .group         0x0000000000000000        0x8 /home/user/Devel/stm32/libopencm3/lib/libopencm3_stm32f4.a(pwr.o)
 .group         0x0000000000000000        0x8 /home/user/Devel/stm32/libopencm3/lib/libopencm3_stm32f4.a(pwr.o)
 .group         0x0000000000000000        0x8 /home/user/Devel/stm32/libopencm3/lib/libopencm3_stm32f4.a(pwr.o)
 .group         0x0000000000000000        0x8 /home/user/Devel/stm32/libopencm3/lib/libopencm3_stm32f4.a(pwr.o)
 .group         0x0000000000000000        0x8 /home/user/Devel/stm32/libopencm3/lib/libopencm3_stm32f4.a(pwr.o)
 .group         0x0000000000000000        0x8 /home/user/Devel/stm32/libopencm3/lib/libopencm3_stm32f4.a(pwr.o)
 .group         0x0000000000000000        0x8 /home/user/Devel/stm32/libopencm3/lib/libopencm3_stm32f4.a(pwr.o)
 .group         0x0000000000000000        0x8 /home/user/Devel/stm32/libopencm3/lib/libopencm3_stm32f4.a(pwr.o)
 .group         0x0000000000000000        0x8 /home/user/Devel/stm32/libopencm3/lib/libopencm3_stm32f4.a(pwr.o)
 .group         0x0000000000000000        0x8 /home/user/Devel/stm32/libopencm3/lib/libopencm3_stm32f4.a(pwr.o)
 .debug_macro   0x0000000000000000      0x88c /home/user/Devel/stm32/libopencm3/lib/libopencm3_stm32f4.a(pwr.o)
 .debug_macro   0x0000000000000000       0x22 /home/user/Devel/stm32/libopencm3/lib/libopencm3_stm32f4.a(pwr.o)
 .debug_macro   0x0000000000000000       0x87 /home/user/Devel/stm32/libopencm3/lib/libopencm3_stm32f4.a(pwr.o)
 .debug_macro   0x0000000000000000       0x44 /home/user/Devel/stm32/libopencm3/lib/libopencm3_stm32f4.a(pwr.o)
 .debug_macro   0x0000000000000000       0xfd /home/user/Devel/stm32/libopencm3/lib/libopencm3_stm32f4.a(pwr.o)
 .debug_macro   0x0000000000000000       0x5e /home/user/Devel/stm32/libopencm3/lib/libopencm3_stm32f4.a(pwr.o)
 .debug_macro   0x0000000000000000      0x1df /home/user/Devel/stm32/libopencm3/lib/libopencm3_stm32f4.a(pwr.o)
 .debug_macro   0x0000000000000000       0x22 /home/user/Devel/stm32/libopencm3/lib/libopencm3_stm32f4.a(pwr.o)
 .debug_macro   0x0000000000000000       0xfa /home/user/Devel/stm32/libopencm3/lib/libopencm3_stm32f4.a(pwr.o)
 .debug_macro   0x0000000000000000       0x58 /home/user/Devel/stm32/libopencm3/lib/libopencm3_stm32f4.a(pwr.o)
 .debug_macro   0x0000000000000000      0x26d /home/user/Devel/stm32/libopencm3/lib/libopencm3_stm32f4.a(pwr.o)
 .debug_macro   0x0000000000000000       0x8e /home/user/Devel/stm32/libopencm3/lib/libopencm3_stm32f4.a(pwr.o)
 .debug_macro   0x0000000000000000       0x22 /home/user/Devel/stm32/libopencm3/lib/libopencm3_stm32f4.a(pwr.o)
 .group         0x0000000000000000        0x8 /home/user/Devel/stm32/libopencm3/lib/libopencm3_stm32f4.a(usb_fx07_common.o)
 .group         0x0000000000000000        0x8 /home/user/Devel/stm32/libopencm3/lib/libopencm3_stm32f4.a(usb_fx07_common.o)
 .group         0x0000000000000000        0x8 /home/user/Devel/stm32/libopencm3/lib/libopencm3_stm32f4.a(usb_fx07_common.o)
 .group         0x0000000000000000        0x8 /home/user/Devel/stm32/libopencm3/lib/libopencm3_stm32f4.a(usb_fx07_common.o)
 .group         0x0000000000000000        0x8 /home/user/Devel/stm32/libopencm3/lib/libopencm3_stm32f4.a(usb_fx07_common.o)
 .group         0x0000000000000000        0x8 /home/user/Devel/stm32/libopencm3/lib/libopencm3_stm32f4.a(usb_fx07_common.o)
 .group         0x0000000000000000        0x8 /home/user/Devel/stm32/libopencm3/lib/libopencm3_stm32f4.a(usb_fx07_common.o)
 .group         0x0000000000000000        0x8 /home/user/Devel/stm32/libopencm3/lib/libopencm3_stm32f4.a(usb_fx07_common.o)
 .group         0x0000000000000000        0x8 /home/user/Devel/stm32/libopencm3/lib/libopencm3_stm32f4.a(usb_fx07_common.o)
 .group         0x0000000000000000        0x8 /home/user/Devel/stm32/libopencm3/lib/libopencm3_stm32f4.a(usb_fx07_common.o)
 .group         0x0000000000000000        0x8 /home/user/Devel/stm32/libopencm3/lib/libopencm3_stm32f4.a(usb_fx07_common.o)
 .group         0x0000000000000000        0x8 /home/user/Devel/stm32/libopencm3/lib/libopencm3_stm32f4.a(usb_fx07_common.o)
 .group         0x0000000000000000        0x8 /home/user/Devel/stm32/libopencm3/lib/libopencm3_stm32f4.a(usb_fx07_common.o)
 .group         0x0000000000000000        0x8 /home/user/Devel/stm32/libopencm3/lib/libopencm3_stm32f4.a(usb_fx07_common.o)
 .group         0x0000000000000000        0x8 /home/user/Devel/stm32/libopencm3/lib/libopencm3_stm32f4.a(usb_fx07_common.o)
 .group         0x0000000000000000        0x8 /home/user/Devel/stm32/libopencm3/lib/libopencm3_stm32f4.a(usb_fx07_common.o)
 .group         0x0000000000000000        0x8 /home/user/Devel/stm32/libopencm3/lib/libopencm3_stm32f4.a(usb_fx07_common.o)
 .group         0x0000000000000000        0x8 /home/user/Devel/stm32/libopencm3/lib/libopencm3_stm32f4.a(usb_fx07_common.o)
 .group         0x0000000000000000        0x8 /home/user/Devel/stm32/libopencm3/lib/libopencm3_stm32f4.a(usb_fx07_common.o)
 .group         0x0000000000000000        0x8 /home/user/Devel/stm32/libopencm3/lib/libopencm3_stm32f4.a(usb_fx07_common.o)
 .group         0x0000000000000000        0x8 /home/user/Devel/stm32/libopencm3/lib/libopencm3_stm32f4.a(usb_fx07_common.o)
 .group         0x0000000000000000        0x8 /home/user/Devel/stm32/libopencm3/lib/libopencm3_stm32f4.a(usb_fx07_common.o)
 .group         0x0000000000000000        0x8 /home/user/Devel/stm32/libopencm3/lib/libopencm3_stm32f4.a(usb_fx07_common.o)
 .group         0x0000000000000000        0x8 /home/user/Devel/stm32/libopencm3/lib/libopencm3_stm32f4.a(usb_fx07_common.o)
 .group         0x0000000000000000        0x8 /home/user/Devel/stm32/libopencm3/lib/libopencm3_stm32f4.a(usb_fx07_common.o)
 .group         0x0000000000000000        0x8 /home/user/Devel/stm32/libopencm3/lib/libopencm3_stm32f4.a(usb_fx07_common.o)
 .group         0x0000000000000000        0x8 /home/user/Devel/stm32/libopencm3/lib/libopencm3_stm32f4.a(usb_fx07_common.o)
 .group         0x0000000000000000        0x8 /home/user/Devel/stm32/libopencm3/lib/libopencm3_stm32f4.a(usb_fx07_common.o)
 .group         0x0000000000000000        0x8 /home/user/Devel/stm32/libopencm3/lib/libopencm3_stm32f4.a(usb_fx07_common.o)
 .group         0x0000000000000000        0x8 /home/user/Devel/stm32/libopencm3/lib/libopencm3_stm32f4.a(usb_fx07_common.o)
 .debug_macro   0x0000000000000000      0x88c /home/user/Devel/stm32/libopencm3/lib/libopencm3_stm32f4.a(usb_fx07_common.o)
 .debug_macro   0x0000000000000000       0x22 /home/user/Devel/stm32/libopencm3/lib/libopencm3_stm32f4.a(usb_fx07_common.o)
 .debug_macro   0x0000000000000000       0x4c /home/user/Devel/stm32/libopencm3/lib/libopencm3_stm32f4.a(usb_fx07_common.o)
 .debug_macro   0x0000000000000000       0x8d /home/user/Devel/stm32/libopencm3/lib/libopencm3_stm32f4.a(usb_fx07_common.o)
 .debug_macro   0x0000000000000000       0x35 /home/user/Devel/stm32/libopencm3/lib/libopencm3_stm32f4.a(usb_fx07_common.o)
 .debug_macro   0x0000000000000000       0x9c /home/user/Devel/stm32/libopencm3/lib/libopencm3_stm32f4.a(usb_fx07_common.o)
 .debug_macro   0x0000000000000000      0x174 /home/user/Devel/stm32/libopencm3/lib/libopencm3_stm32f4.a(usb_fx07_common.o)
 .debug_macro   0x0000000000000000       0x4a /home/user/Devel/stm32/libopencm3/lib/libopencm3_stm32f4.a(usb_fx07_common.o)
 .debug_macro   0x0000000000000000       0x52 /home/user/Devel/stm32/libopencm3/lib/libopencm3_stm32f4.a(usb_fx07_common.o)
 .debug_macro   0x0000000000000000       0x1f /home/user/Devel/stm32/libopencm3/lib/libopencm3_stm32f4.a(usb_fx07_common.o)
 .debug_macro   0x0000000000000000       0x43 /home/user/Devel/stm32/libopencm3/lib/libopencm3_stm32f4.a(usb_fx07_common.o)
 .debug_macro   0x0000000000000000       0x20 /home/user/Devel/stm32/libopencm3/lib/libopencm3_stm32f4.a(usb_fx07_common.o)
 .debug_macro   0x0000000000000000      0x187 /home/user/Devel/stm32/libopencm3/lib/libopencm3_stm32f4.a(usb_fx07_common.o)
 .debug_macro   0x0000000000000000      0x30d /home/user/Devel/stm32/libopencm3/lib/libopencm3_stm32f4.a(usb_fx07_common.o)
 .debug_macro   0x0000000000000000       0x10 /home/user/Devel/stm32/libopencm3/lib/libopencm3_stm32f4.a(usb_fx07_common.o)
 .debug_macro   0x0000000000000000       0x35 /home/user/Devel/stm32/libopencm3/lib/libopencm3_stm32f4.a(usb_fx07_common.o)
 .debug_macro   0x0000000000000000       0xfd /home/user/Devel/stm32/libopencm3/lib/libopencm3_stm32f4.a(usb_fx07_common.o)
 .debug_macro   0x0000000000000000       0x5e /home/user/Devel/stm32/libopencm3/lib/libopencm3_stm32f4.a(usb_fx07_common.o)
 .debug_macro   0x0000000000000000      0x1df /home/user/Devel/stm32/libopencm3/lib/libopencm3_stm32f4.a(usb_fx07_common.o)
 .debug_macro   0x0000000000000000       0x22 /home/user/Devel/stm32/libopencm3/lib/libopencm3_stm32f4.a(usb_fx07_common.o)
 .debug_macro   0x0000000000000000       0xfa /home/user/Devel/stm32/libopencm3/lib/libopencm3_stm32f4.a(usb_fx07_common.o)
 .debug_macro   0x0000000000000000       0x3a /home/user/Devel/stm32/libopencm3/lib/libopencm3_stm32f4.a(usb_fx07_common.o)
 .debug_macro   0x0000000000000000       0x58 /home/user/Devel/stm32/libopencm3/lib/libopencm3_stm32f4.a(usb_fx07_common.o)
 .debug_macro   0x0000000000000000      0x26d /home/user/Devel/stm32/libopencm3/lib/libopencm3_stm32f4.a(usb_fx07_common.o)
 .debug_macro   0x0000000000000000      0x8d7 /home/user/Devel/stm32/libopencm3/lib/libopencm3_stm32f4.a(usb_fx07_common.o)
 .debug_macro   0x0000000000000000      0x130 /home/user/Devel/stm32/libopencm3/lib/libopencm3_stm32f4.a(usb_fx07_common.o)
 .debug_macro   0x0000000000000000      0x19c /home/user/Devel/stm32/libopencm3/lib/libopencm3_stm32f4.a(usb_fx07_common.o)
 .debug_macro   0x0000000000000000       0x10 /home/user/Devel/stm32/libopencm3/lib/libopencm3_stm32f4.a(usb_fx07_common.o)
 .debug_macro   0x0000000000000000       0x1c /home/user/Devel/stm32/libopencm3/lib/libopencm3_stm32f4.a(usb_fx07_common.o)

Memory Configuration

Name             Origin             Length             Attributes
rom              0x0000000008020000 0x00000000000e0000 xr
ccm              0x0000000010000000 0x0000000000010000 xrw
ram              0x0000000020000000 0x0000000000030000 xrw
*default*        0x0000000000000000 0xffffffffffffffff

Linker script and memory map

START GROUP
LOAD /home/user/Devel/stm32/gcc-arm-none-eabi-8-2018-q4-major/bin/../lib/gcc/arm-none-eabi/8.2.1/../../../../arm-none-eabi/lib/thumb/v7e-m+fp/hard/libc_nano.a
LOAD /home/user/Devel/stm32/gcc-arm-none-eabi-8-2018-q4-major/bin/../lib/gcc/arm-none-eabi/8.2.1/thumb/v7e-m+fp/hard/libgcc.a
LOAD /home/user/Devel/stm32/gcc-arm-none-eabi-8-2018-q4-major/bin/../lib/gcc/arm-none-eabi/8.2.1/../../../../arm-none-eabi/lib/thumb/v7e-m+fp/hard/libnosys.a
END GROUP
LOAD ././drivers/bluetooth/bt_usart.o
LOAD ././drivers/usb/mew_usb_hid.o
LOAD ././drivers/display/display.o
LOAD ././drivers/display/ts_tsc2007.o
LOAD ././drivers/flash/otp_storage.o
LOAD ././drivers/i2c/i2c.o
LOAD ././drivers/spi_flash/w25n01gvzeig.o
LOAD ././drivers/spi_flash/flash.o
LOAD ././drivers/system/clock.o
LOAD ././drivers/system/systick.o
LOAD ././drivers/system/system.o
LOAD ././drivers/system/random.o
LOAD ././drivers/duart/duart.o
LOAD ././drivers/hw_crypt/aes256.o
LOAD ././drivers/hw_crypt/secure_eeprom.o
LOAD ././drivers/hw_crypt/P256-cortex-ecdh.o
LOAD ././drivers/hw_crypt/sha2_256.o
LOAD ././app/pwd_generator/mew_xor_algo.o
LOAD ././app/pwd_generator/mew_passgen.o
LOAD ././app/packet_parser/parser.o
LOAD ././app/qr_code/qrcodegen.o
LOAD ././debug.o
LOAD ././mew.o
LOAD ././lvgl/src/lv_hal/lv_hal_disp.o
LOAD ././lvgl/src/lv_hal/lv_hal_tick.o
LOAD ././lvgl/src/lv_hal/lv_hal_indev.o
LOAD ././lvgl/src/lv_font/lv_font_roboto_12.o
LOAD ././lvgl/src/lv_font/lv_font_fmt_txt.o
LOAD ././lvgl/src/lv_font/lv_font.o
LOAD ././lvgl/src/lv_font/lv_font_roboto_28_compressed.o
LOAD ././lvgl/src/lv_font/lv_font_roboto_12_subpx.o
LOAD ././lvgl/src/lv_font/lv_font_roboto_22.o
LOAD ././lvgl/src/lv_font/lv_font_roboto_16.o
LOAD ././lvgl/src/lv_font/lv_font_roboto_28.o
LOAD ././lvgl/src/lv_font/lv_font_unscii_8.o
LOAD ././lvgl/src/lv_misc/lv_gc.o
LOAD ././lvgl/src/lv_misc/lv_printf.o
LOAD ././lvgl/src/lv_misc/lv_mem.o
LOAD ././lvgl/src/lv_misc/lv_txt.o
LOAD ././lvgl/src/lv_misc/lv_area.o
LOAD ././lvgl/src/lv_misc/lv_templ.o
LOAD ././lvgl/src/lv_misc/lv_anim.o
LOAD ././lvgl/src/lv_misc/lv_utils.o
LOAD ././lvgl/src/lv_misc/lv_bidi.o
LOAD ././lvgl/src/lv_misc/lv_ll.o
LOAD ././lvgl/src/lv_misc/lv_color.o
LOAD ././lvgl/src/lv_misc/lv_circ.o
LOAD ././lvgl/src/lv_misc/lv_task.o
LOAD ././lvgl/src/lv_misc/lv_log.o
LOAD ././lvgl/src/lv_misc/lv_async.o
LOAD ././lvgl/src/lv_misc/lv_fs.o
LOAD ././lvgl/src/lv_misc/lv_math.o
LOAD ././lvgl/src/lv_themes/lv_theme.o
LOAD ././lvgl/src/lv_themes/lv_theme_mono.o
LOAD ././lvgl/src/lv_themes/lv_theme_material.o
LOAD ././lvgl/src/lv_themes/lv_theme_default.o
LOAD ././lvgl/src/lv_themes/lv_theme_alien.o
LOAD ././lvgl/src/lv_themes/lv_theme_night.o
LOAD ././lvgl/src/lv_themes/lv_theme_zen.o
LOAD ././lvgl/src/lv_themes/lv_theme_templ.o
LOAD ././lvgl/src/lv_themes/lv_theme_nemo.o
LOAD ././lvgl/src/lv_core/lv_disp.o
LOAD ././lvgl/src/lv_core/lv_debug.o
LOAD ././lvgl/src/lv_core/lv_indev.o
LOAD ././lvgl/src/lv_core/lv_refr.o
LOAD ././lvgl/src/lv_core/lv_obj.o
LOAD ././lvgl/src/lv_core/lv_style.o
LOAD ././lvgl/src/lv_core/lv_group.o
LOAD ././lvgl/src/lv_objx/lv_spinbox.o
LOAD ././lvgl/src/lv_objx/lv_roller.o
LOAD ././lvgl/src/lv_objx/lv_led.o
LOAD ././lvgl/src/lv_objx/lv_img.o
LOAD ././lvgl/src/lv_objx/lv_imgbtn.o
LOAD ././lvgl/src/lv_objx/lv_lmeter.o
LOAD ././lvgl/src/lv_objx/lv_kb.o
LOAD ././lvgl/src/lv_objx/lv_arc.o
LOAD ././lvgl/src/lv_objx/lv_bar.o
LOAD ././lvgl/src/lv_objx/lv_tabview.o
LOAD ././lvgl/src/lv_objx/lv_chart.o
LOAD ././lvgl/src/lv_objx/lv_mbox.o
LOAD ././lvgl/src/lv_objx/lv_calendar.o
LOAD ././lvgl/src/lv_objx/lv_slider.o
LOAD ././lvgl/src/lv_objx/lv_gauge.o
LOAD ././lvgl/src/lv_objx/lv_win.o
LOAD ././lvgl/src/lv_objx/lv_cpicker.o
LOAD ././lvgl/src/lv_objx/lv_line.o
LOAD ././lvgl/src/lv_objx/lv_cont.o
LOAD ././lvgl/src/lv_objx/lv_tileview.o
LOAD ././lvgl/src/lv_objx/lv_canvas.o
LOAD ././lvgl/src/lv_objx/lv_objx_templ.o
LOAD ././lvgl/src/lv_objx/lv_label.o
LOAD ././lvgl/src/lv_objx/lv_ddlist.o
LOAD ././lvgl/src/lv_objx/lv_list.o
LOAD ././lvgl/src/lv_objx/lv_preload.o
LOAD ././lvgl/src/lv_objx/lv_btn.o
LOAD ././lvgl/src/lv_objx/lv_btnm.o
LOAD ././lvgl/src/lv_objx/lv_ta.o
LOAD ././lvgl/src/lv_objx/lv_page.o
LOAD ././lvgl/src/lv_objx/lv_table.o
LOAD ././lvgl/src/lv_objx/lv_cb.o
LOAD ././lvgl/src/lv_objx/lv_sw.o
LOAD ././lvgl/src/lv_draw/lv_draw_img.o
LOAD ././lvgl/src/lv_draw/lv_draw_arc.o
LOAD ././lvgl/src/lv_draw/lv_draw.o
LOAD ././lvgl/src/lv_draw/lv_draw_triangle.o
LOAD ././lvgl/src/lv_draw/lv_img_cache.o
LOAD ././lvgl/src/lv_draw/lv_img_decoder.o
LOAD ././lvgl/src/lv_draw/lv_draw_basic.o
LOAD ././lvgl/src/lv_draw/lv_draw_line.o
LOAD ././lvgl/src/lv_draw/lv_draw_label.o
LOAD ././lvgl/src/lv_draw/lv_draw_rect.o
LOAD ././lvgl/porting/lv_port_disp_template.o
LOAD ././lvgl/porting/lv_port_indev_template.o
LOAD ././lvgl/porting/lv_port_fs_template.o
LOAD ././ui/ui_msgbox.o
LOAD ././ui/ui_lhandlers.o
LOAD ././ui/qrcode_ui.o
LOAD ././ui/ui_header.o
LOAD ././ui/ui_win_startup_1.o
LOAD ././ui/mew_font_ru_bold.o
LOAD ././ui/ui_main_win.o
LOAD ././ui/mew_font_ru_bold_title.o
LOAD ././ui/mew_logo.o
LOAD ././drivers/system/byteorder.o
LOAD ././drivers/hw_crypt/P256-cortex-m4-ecdh-speedopt-gcc.o
LOAD /home/user/Devel/stm32/libopencm3/lib/libopencm3_stm32f4.a
START GROUP
LOAD /home/user/Devel/stm32/gcc-arm-none-eabi-8-2018-q4-major/bin/../lib/gcc/arm-none-eabi/8.2.1/../../../../arm-none-eabi/lib/thumb/v7e-m+fp/hard/libc_nano.a
LOAD /home/user/Devel/stm32/gcc-arm-none-eabi-8-2018-q4-major/bin/../lib/gcc/arm-none-eabi/8.2.1/thumb/v7e-m+fp/hard/libgcc.a
END GROUP
START GROUP
LOAD /home/user/Devel/stm32/gcc-arm-none-eabi-8-2018-q4-major/bin/../lib/gcc/arm-none-eabi/8.2.1/thumb/v7e-m+fp/hard/libgcc.a
LOAD /home/user/Devel/stm32/gcc-arm-none-eabi-8-2018-q4-major/bin/../lib/gcc/arm-none-eabi/8.2.1/../../../../arm-none-eabi/lib/thumb/v7e-m+fp/hard/libc_nano.a
END GROUP
START GROUP
LOAD /home/user/Devel/stm32/gcc-arm-none-eabi-8-2018-q4-major/bin/../lib/gcc/arm-none-eabi/8.2.1/thumb/v7e-m+fp/hard/libgcc.a
LOAD /home/user/Devel/stm32/gcc-arm-none-eabi-8-2018-q4-major/bin/../lib/gcc/arm-none-eabi/8.2.1/../../../../arm-none-eabi/lib/thumb/v7e-m+fp/hard/libc_nano.a
LOAD /home/user/Devel/stm32/gcc-arm-none-eabi-8-2018-q4-major/bin/../lib/gcc/arm-none-eabi/8.2.1/../../../../arm-none-eabi/lib/thumb/v7e-m+fp/hard/libnosys.a
END GROUP
START GROUP
LOAD /home/user/Devel/stm32/gcc-arm-none-eabi-8-2018-q4-major/bin/../lib/gcc/arm-none-eabi/8.2.1/thumb/v7e-m+fp/hard/libgcc.a
LOAD /home/user/Devel/stm32/gcc-arm-none-eabi-8-2018-q4-major/bin/../lib/gcc/arm-none-eabi/8.2.1/../../../../arm-none-eabi/lib/thumb/v7e-m+fp/hard/libc_nano.a
LOAD /home/user/Devel/stm32/gcc-arm-none-eabi-8-2018-q4-major/bin/../lib/gcc/arm-none-eabi/8.2.1/../../../../arm-none-eabi/lib/thumb/v7e-m+fp/hard/libnosys.a
END GROUP

.text           0x0000000008020000    0x4cfe4
 *(.vectors)
 .vectors       0x0000000008020000      0x1ac /home/user/Devel/stm32/libopencm3/lib/libopencm3_stm32f4.a(vector.o)
                0x0000000008020000                vector_table
 *(.text*)
 .text          0x00000000080201ac        0x0 ././drivers/bluetooth/bt_usart.o
 .text.__mew_bluetooth_transmit
                0x00000000080201ac       0xe0 ././drivers/bluetooth/bt_usart.o
 .text.__mew_bluetooth_send_at.part.0
                0x000000000802028c       0x24 ././drivers/bluetooth/bt_usart.o
 .text.usart1_isr
                0x00000000080202b0       0xa0 ././drivers/bluetooth/bt_usart.o
                0x00000000080202b0                usart1_isr
 .text.mew_bluetooth_init
                0x0000000008020350      0x258 ././drivers/bluetooth/bt_usart.o
                0x0000000008020350                mew_bluetooth_init
 .text.mew_bluetooth_transmit
                0x00000000080205a8        0x4 ././drivers/bluetooth/bt_usart.o
                0x00000000080205a8                mew_bluetooth_transmit
 .text.dma2_stream7_isr
                0x00000000080205ac       0x24 ././drivers/bluetooth/bt_usart.o
                0x00000000080205ac                dma2_stream7_isr
 .text          0x00000000080205d0        0x0 ././drivers/usb/mew_usb_hid.o
 .text.hid_control_request
                0x00000000080205d0       0x28 ././drivers/usb/mew_usb_hid.o
 .text.hid_set_config
                0x00000000080205f8       0x38 ././drivers/usb/mew_usb_hid.o
 .text.mew_hid_usb_disable
                0x0000000008020630       0x40 ././drivers/usb/mew_usb_hid.o
                0x0000000008020630                mew_hid_usb_disable
 .text.mew_hid_usb_init
                0x0000000008020670       0x78 ././drivers/usb/mew_usb_hid.o
                0x0000000008020670                mew_hid_usb_init
 .text.mew_hid_send
                0x00000000080206e8       0x2c ././drivers/usb/mew_usb_hid.o
                0x00000000080206e8                mew_hid_send
 .text.mew_hid_send_char
                0x0000000008020714       0x5c ././drivers/usb/mew_usb_hid.o
                0x0000000008020714                mew_hid_send_char
 .text.otg_fs_isr
                0x0000000008020770        0xc ././drivers/usb/mew_usb_hid.o
                0x0000000008020770                otg_fs_isr
 .text          0x000000000802077c        0x0 ././drivers/display/display.o
 .text.__mew_spi_init_non_dma
                0x000000000802077c       0x7c ././drivers/display/display.o
 .text.__mew_cmd
                0x00000000080207f8       0x28 ././drivers/display/display.o
 .text.__mew_data
                0x0000000008020820       0x28 ././drivers/display/display.o
 .text.__mew_display_write_cmd_with_data
                0x0000000008020848       0x4c ././drivers/display/display.o
 .text.__mew_display_write_cmd
                0x0000000008020894       0x24 ././drivers/display/display.o
 .text.mew_display_flush
                0x00000000080208b8      0x1b4 ././drivers/display/display.o
                0x00000000080208b8                mew_display_flush
 .text.mew_display_init
                0x0000000008020a6c      0x300 ././drivers/display/display.o
                0x0000000008020a6c                mew_display_init
 .text.mew_display_flush_sync
                0x0000000008020d6c       0x1c ././drivers/display/display.o
                0x0000000008020d6c                mew_display_flush_sync
 .text.mew_display_flush_sync_ext
                0x0000000008020d88       0x3c ././drivers/display/display.o
                0x0000000008020d88                mew_display_flush_sync_ext
 .text.dma1_stream4_isr
                0x0000000008020dc4       0x58 ././drivers/display/display.o
                0x0000000008020dc4                dma1_stream4_isr
 .text          0x0000000008020e1c        0x0 ././drivers/display/ts_tsc2007.o
 .text.__mew_input_read
                0x0000000008020e1c      0x108 ././drivers/display/ts_tsc2007.o
 .text.mew_touchscreen_init
                0x0000000008020f24       0x78 ././drivers/display/ts_tsc2007.o
                0x0000000008020f24                mew_touchscreen_init
 .text.exti2_isr
                0x0000000008020f9c       0x14 ././drivers/display/ts_tsc2007.o
                0x0000000008020f9c                exti2_isr
 .text          0x0000000008020fb0        0x0 ././drivers/flash/otp_storage.o
 .text.mew_is_first_start
                0x0000000008020fb0       0x18 ././drivers/flash/otp_storage.o
                0x0000000008020fb0                mew_is_first_start
 .text.mew_otp_write_temporary_data
                0x0000000008020fc8       0x6c ././drivers/flash/otp_storage.o
                0x0000000008020fc8                mew_otp_write_temporary_data
 .text.mew_otp_storage_init
                0x0000000008021034      0x11c ././drivers/flash/otp_storage.o
                0x0000000008021034                mew_otp_storage_init
 .text          0x0000000008021150        0x0 ././drivers/i2c/i2c.o
 .text.mew_i2c_init
                0x0000000008021150       0x88 ././drivers/i2c/i2c.o
                0x0000000008021150                mew_i2c_init
 .text.mew_i2c_read_block_ts2007
                0x00000000080211d8      0x120 ././drivers/i2c/i2c.o
                0x00000000080211d8                mew_i2c_read_block_ts2007
 .text.mew_i2c_read
                0x00000000080212f8       0xb0 ././drivers/i2c/i2c.o
                0x00000000080212f8                mew_i2c_read
 .text.mew_i2c_write
                0x00000000080213a8       0x90 ././drivers/i2c/i2c.o
                0x00000000080213a8                mew_i2c_write
 .text.mew_i2c_eeprom_write
                0x0000000008021438       0x7c ././drivers/i2c/i2c.o
                0x0000000008021438                mew_i2c_eeprom_write
 .text.mew_i2c_eeprom_test
                0x00000000080214b4       0x98 ././drivers/i2c/i2c.o
                0x00000000080214b4                mew_i2c_eeprom_test
 .text.mew_i2c_eeprom_read
                0x000000000802154c       0x28 ././drivers/i2c/i2c.o
                0x000000000802154c                mew_i2c_eeprom_read
 .text          0x0000000008021574        0x0 ././drivers/spi_flash/w25n01gvzeig.o
 .text.__mew_flash_read_sector_async_handler
                0x0000000008021574        0x4 ././drivers/spi_flash/w25n01gvzeig.o
 .text.mew_flash_get_id
                0x0000000008021578       0x1c ././drivers/spi_flash/w25n01gvzeig.o
                0x0000000008021578                mew_flash_get_id
 .text.mew_flash_read_sector_async
                0x0000000008021594       0x38 ././drivers/spi_flash/w25n01gvzeig.o
                0x0000000008021594                mew_flash_read_sector_async
 .text          0x00000000080215cc        0x0 ././drivers/spi_flash/flash.o
 .text.mew_spi_flash_init
                0x00000000080215cc      0x12c ././drivers/spi_flash/flash.o
                0x00000000080215cc                mew_spi_flash_init
 .text.dma2_stream0_isr
                0x00000000080216f8       0x34 ././drivers/spi_flash/flash.o
                0x00000000080216f8                dma2_stream0_isr
 .text.dma2_stream3_isr
                0x000000000802172c      0x180 ././drivers/spi_flash/flash.o
                0x000000000802172c                dma2_stream3_isr
 .text.mew_spi_flash_xfer
                0x00000000080218ac      0x114 ././drivers/spi_flash/flash.o
                0x00000000080218ac                mew_spi_flash_xfer
 .text.mew_spi_flash_set_on_receive_handler
                0x00000000080219c0       0x18 ././drivers/spi_flash/flash.o
                0x00000000080219c0                mew_spi_flash_set_on_receive_handler
 .text.mew_spi_flash_handler
                0x00000000080219d8       0x20 ././drivers/spi_flash/flash.o
                0x00000000080219d8                mew_spi_flash_handler
 .text.mew_spi_flash_get_async_state
                0x00000000080219f8       0x10 ././drivers/spi_flash/flash.o
                0x00000000080219f8                mew_spi_flash_get_async_state
 .text          0x0000000008021a08        0x0 ././drivers/system/clock.o
 .text.mew_clock_init
                0x0000000008021a08       0xa0 ././drivers/system/clock.o
                0x0000000008021a08                mew_clock_init
 .text          0x0000000008021aa8        0x0 ././drivers/system/systick.o
 .text.mew_systick_init
                0x0000000008021aa8       0x20 ././drivers/system/systick.o
                0x0000000008021aa8                mew_systick_init
 .text.mew_get_millis
                0x0000000008021ac8        0xc ././drivers/system/systick.o
                0x0000000008021ac8                mew_get_millis
 .text.mew_delay_ms
                0x0000000008021ad4       0x1c ././drivers/system/systick.o
                0x0000000008021ad4                mew_delay_ms
 .text.sys_tick_handler
                0x0000000008021af0       0x14 ././drivers/system/systick.o
                0x0000000008021af0                sys_tick_handler
 .text          0x0000000008021b04        0x0 ././drivers/system/system.o
 .text.mew_check_dma_memory
                0x0000000008021b04        0x4 ././drivers/system/system.o
                0x0000000008021b04                mew_check_dma_memory
 .text.mew_wait_for_state
                0x0000000008021b08       0x28 ././drivers/system/system.o
                0x0000000008021b08                mew_wait_for_state
 .text          0x0000000008021b30        0x0 ././drivers/system/random.o
 .text.mew_rng_init
                0x0000000008021b30       0x1c ././drivers/system/random.o
                0x0000000008021b30                mew_rng_init
 .text.mew_random32
                0x0000000008021b4c       0x3c ././drivers/system/random.o
                0x0000000008021b4c                mew_random32
 .text.mew_random64
                0x0000000008021b88       0x5c ././drivers/system/random.o
                0x0000000008021b88                mew_random64
 .text          0x0000000008021be4        0x0 ././drivers/duart/duart.o
 .text.mew_duart_print_hex.part.1
                0x0000000008021be4       0x90 ././drivers/duart/duart.o
 .text.mew_init_duart
                0x0000000008021c74       0x6c ././drivers/duart/duart.o
                0x0000000008021c74                mew_init_duart
 .text.mew_duart_print_ex
                0x0000000008021ce0       0x44 ././drivers/duart/duart.o
                0x0000000008021ce0                mew_duart_print_ex
 .text.mew_duart_print
                0x0000000008021d24        0x8 ././drivers/duart/duart.o
                0x0000000008021d24                mew_duart_print
 .text.mew_duart_print_hex_ex
                0x0000000008021d2c       0x24 ././drivers/duart/duart.o
                0x0000000008021d2c                mew_duart_print_hex_ex
 .text.mew_duart_print_hex
                0x0000000008021d50       0x10 ././drivers/duart/duart.o
                0x0000000008021d50                mew_duart_print_hex
 .text.__mew_to_hex
                0x0000000008021d60       0x18 ././drivers/duart/duart.o
                0x0000000008021d60                __mew_to_hex
 .text          0x0000000008021d78        0x0 ././drivers/hw_crypt/aes256.o
 .text.mewcrypt_aes256
                0x0000000008021d78      0x2c8 ././drivers/hw_crypt/aes256.o
                0x0000000008021d78                mewcrypt_aes256
 .text.dma2_stream5_isr
                0x0000000008022040       0x24 ././drivers/hw_crypt/aes256.o
                0x0000000008022040                dma2_stream5_isr
 .text.dma2_stream6_isr
                0x0000000008022064       0x24 ././drivers/hw_crypt/aes256.o
                0x0000000008022064                dma2_stream6_isr
 .text          0x0000000008022088        0x0 ././drivers/hw_crypt/secure_eeprom.o
 .text.mew_load_secure_settings
                0x0000000008022088       0xf0 ././drivers/hw_crypt/secure_eeprom.o
                0x0000000008022088                mew_load_secure_settings
 .text.mew_save_secure_settings
                0x0000000008022178       0xe4 ././drivers/hw_crypt/secure_eeprom.o
                0x0000000008022178                mew_save_secure_settings
 .text          0x000000000802225c        0x0 ././drivers/hw_crypt/P256-cortex-ecdh.o
 .text.mew_p256_ecdh_set_session_sharedkey
                0x000000000802225c       0x24 ././drivers/hw_crypt/P256-cortex-ecdh.o
                0x000000000802225c                mew_p256_ecdh_set_session_sharedkey
 .text.mew_p256_ecdh_get_session_sharedkey
                0x0000000008022280       0x24 ././drivers/hw_crypt/P256-cortex-ecdh.o
                0x0000000008022280                mew_p256_ecdh_get_session_sharedkey
 .text.mew_p256_ecdh_get_session_privkey
                0x00000000080222a4       0x24 ././drivers/hw_crypt/P256-cortex-ecdh.o
                0x00000000080222a4                mew_p256_ecdh_get_session_privkey
 .text.mew_p256_ecdh_get_session_pubkey
                0x00000000080222c8       0x2c ././drivers/hw_crypt/P256-cortex-ecdh.o
                0x00000000080222c8                mew_p256_ecdh_get_session_pubkey
 .text.mew_p256_ecdh_handler
                0x00000000080222f4       0x34 ././drivers/hw_crypt/P256-cortex-ecdh.o
                0x00000000080222f4                mew_p256_ecdh_handler
 .text.mew_p256_ecdh_test
                0x0000000008022328       0xb4 ././drivers/hw_crypt/P256-cortex-ecdh.o
                0x0000000008022328                mew_p256_ecdh_test
 .text          0x00000000080223dc        0x0 ././drivers/hw_crypt/sha2_256.o
 .text.mew_hash32
                0x00000000080223dc       0x78 ././drivers/hw_crypt/sha2_256.o
                0x00000000080223dc                mew_hash32
 .text.mew_hash8
                0x0000000008022454       0xac ././drivers/hw_crypt/sha2_256.o
                0x0000000008022454                mew_hash8
 .text          0x0000000008022500        0x0 ././app/pwd_generator/mew_xor_algo.o
 .text.mew_xor  0x0000000008022500       0xac ././app/pwd_generator/mew_xor_algo.o
                0x0000000008022500                mew_xor
 .text.mew_xor_keygen
                0x00000000080225ac       0x24 ././app/pwd_generator/mew_xor_algo.o
                0x00000000080225ac                mew_xor_keygen
 .text.mew_xor_byte
                0x00000000080225d0       0x80 ././app/pwd_generator/mew_xor_algo.o
                0x00000000080225d0                mew_xor_byte
 .text          0x0000000008022650        0x0 ././app/pwd_generator/mew_passgen.o
 .text.mew_create_password
                0x0000000008022650      0x114 ././app/pwd_generator/mew_passgen.o
                0x0000000008022650                mew_create_password
 .text          0x0000000008022764        0x0 ././app/packet_parser/parser.o
 .text.__mew_pp_reset
                0x0000000008022764       0x58 ././app/packet_parser/parser.o
 .text.mew_comm_is_payload_present
                0x00000000080227bc        0xc ././app/packet_parser/parser.o
                0x00000000080227bc                mew_comm_is_payload_present
 .text.mew_comm_get_payload
                0x00000000080227c8       0x28 ././app/packet_parser/parser.o
                0x00000000080227c8                mew_comm_get_payload
 .text.mew_comm_add_byte
                0x00000000080227f0      0x1a0 ././app/packet_parser/parser.o
                0x00000000080227f0                mew_comm_add_byte
 .text.send_ok_packet
                0x0000000008022990       0xa8 ././app/packet_parser/parser.o
                0x0000000008022990                send_ok_packet
 .text.mew_comm_handler
                0x0000000008022a38      0x148 ././app/packet_parser/parser.o
                0x0000000008022a38                mew_comm_handler
 .text          0x0000000008022b80        0x0 ././app/qr_code/qrcodegen.o
 .text.getAlignmentPatternPositions
                0x0000000008022b80       0x6c ././app/qr_code/qrcodegen.o
 .text.finderPenaltyCountPatterns
                0x0000000008022bec       0x6c ././app/qr_code/qrcodegen.o
 .text.calcSegmentBitLength
                0x0000000008022c58       0x80 ././app/qr_code/qrcodegen.o
 .text.numCharCountBits
                0x0000000008022cd8       0x88 ././app/qr_code/qrcodegen.o
 .text.appendBitsToBuffer
                0x0000000008022d60       0x54 ././app/qr_code/qrcodegen.o
 .text.getNumRawDataModules
                0x0000000008022db4       0x80 ././app/qr_code/qrcodegen.o
 .text.getNumDataCodewords
                0x0000000008022e34       0x54 ././app/qr_code/qrcodegen.o
 .text.getModule
                0x0000000008022e88       0x44 ././app/qr_code/qrcodegen.o
 .text.setModule
                0x0000000008022ecc       0x54 ././app/qr_code/qrcodegen.o
 .text.initializeFunctionModules
                0x0000000008022f20      0x1bc ././app/qr_code/qrcodegen.o
 .text.setModuleBounded.constprop.11
                0x00000000080230dc       0x20 ././app/qr_code/qrcodegen.o
 .text.qrcodegen_getSize
                0x00000000080230fc       0x3c ././app/qr_code/qrcodegen.o
                0x00000000080230fc                qrcodegen_getSize
 .text.applyMask
                0x0000000008023138      0x16c ././app/qr_code/qrcodegen.o
 .text.drawFormatBits
                0x00000000080232a4      0x120 ././app/qr_code/qrcodegen.o
 .text.qrcodegen_encodeSegmentsAdvanced
                0x00000000080233c4      0xae4 ././app/qr_code/qrcodegen.o
                0x00000000080233c4                qrcodegen_encodeSegmentsAdvanced
 .text.qrcodegen_encodeBinary
                0x0000000008023ea8       0x50 ././app/qr_code/qrcodegen.o
                0x0000000008023ea8                qrcodegen_encodeBinary
 .text.qrcodegen_encodeSegments
                0x0000000008023ef8       0x20 ././app/qr_code/qrcodegen.o
                0x0000000008023ef8                qrcodegen_encodeSegments
 .text.qrcodegen_getModule
                0x0000000008023f18       0x34 ././app/qr_code/qrcodegen.o
                0x0000000008023f18                qrcodegen_getModule
 .text.qrcodegen_isAlphanumeric
                0x0000000008023f4c       0x44 ././app/qr_code/qrcodegen.o
                0x0000000008023f4c                qrcodegen_isAlphanumeric
 .text.qrcodegen_isNumeric
                0x0000000008023f90       0x38 ././app/qr_code/qrcodegen.o
                0x0000000008023f90                qrcodegen_isNumeric
 .text.qrcodegen_calcSegmentBufferSize
                0x0000000008023fc8       0x30 ././app/qr_code/qrcodegen.o
                0x0000000008023fc8                qrcodegen_calcSegmentBufferSize
 .text.qrcodegen_makeBytes
                0x0000000008023ff8       0x74 ././app/qr_code/qrcodegen.o
                0x0000000008023ff8                qrcodegen_makeBytes
 .text.qrcodegen_makeNumeric
                0x000000000802406c      0x10c ././app/qr_code/qrcodegen.o
                0x000000000802406c                qrcodegen_makeNumeric
 .text.qrcodegen_makeAlphanumeric
                0x0000000008024178      0x120 ././app/qr_code/qrcodegen.o
                0x0000000008024178                qrcodegen_makeAlphanumeric
 .text.qrcodegen_encodeText
                0x0000000008024298      0x120 ././app/qr_code/qrcodegen.o
                0x0000000008024298                qrcodegen_encodeText
 .text.qrcodegen_makeEci
                0x00000000080243b8       0xb8 ././app/qr_code/qrcodegen.o
                0x00000000080243b8                qrcodegen_makeEci
 .text          0x0000000008024470        0x0 ././debug.o
 .text.mew_debug_die
                0x0000000008024470       0x10 ././debug.o
                0x0000000008024470                mew_debug_die
 .text.mew_debug_die_with_message
                0x0000000008024480        0xc ././debug.o
                0x0000000008024480                mew_debug_die_with_message
 .text.mew_debug_print
                0x000000000802448c        0x4 ././debug.o
                0x000000000802448c                mew_debug_print
 .text.mew_debug_print_hex
                0x0000000008024490        0x4 ././debug.o
                0x0000000008024490                mew_debug_print_hex
 .text.mew_debug_print_hex_ex
                0x0000000008024494        0x4 ././debug.o
                0x0000000008024494                mew_debug_print_hex_ex
 .text.hard_fault_handler
                0x0000000008024498        0xc ././debug.o
                0x0000000008024498                hard_fault_handler
 .text.usage_fault_handler
                0x00000000080244a4        0xc ././debug.o
                0x00000000080244a4                usage_fault_handler
 .text.bus_fault_handler
                0x00000000080244b0        0xc ././debug.o
                0x00000000080244b0                bus_fault_handler
 .text          0x00000000080244bc        0x0 ././mew.o
 .text.startup.main
                0x00000000080244bc       0x90 ././mew.o
                0x00000000080244bc                main
 .text          0x000000000802454c        0x0 ././lvgl/src/lv_hal/lv_hal_disp.o
 .text.lv_disp_drv_init
                0x000000000802454c       0x34 ././lvgl/src/lv_hal/lv_hal_disp.o
                0x000000000802454c                lv_disp_drv_init
 .text.lv_disp_buf_init
                0x0000000008024580       0x18 ././lvgl/src/lv_hal/lv_hal_disp.o
                0x0000000008024580                lv_disp_buf_init
 .text.lv_disp_drv_register
                0x0000000008024598      0x100 ././lvgl/src/lv_hal/lv_hal_disp.o
                0x0000000008024598                lv_disp_drv_register
 .text.lv_disp_drv_update
                0x0000000008024698       0x78 ././lvgl/src/lv_hal/lv_hal_disp.o
                0x0000000008024698                lv_disp_drv_update
 .text.lv_disp_remove
                0x0000000008024710       0x50 ././lvgl/src/lv_hal/lv_hal_disp.o
                0x0000000008024710                lv_disp_remove
 .text.lv_disp_set_default
                0x0000000008024760        0xc ././lvgl/src/lv_hal/lv_hal_disp.o
                0x0000000008024760                lv_disp_set_default
 .text.lv_disp_get_default
                0x000000000802476c        0xc ././lvgl/src/lv_hal/lv_hal_disp.o
                0x000000000802476c                lv_disp_get_default
 .text.lv_disp_get_hor_res
                0x0000000008024778       0x24 ././lvgl/src/lv_hal/lv_hal_disp.o
                0x0000000008024778                lv_disp_get_hor_res
 .text.lv_disp_get_ver_res
                0x000000000802479c       0x24 ././lvgl/src/lv_hal/lv_hal_disp.o
                0x000000000802479c                lv_disp_get_ver_res
 .text.lv_disp_get_antialiasing
                0x00000000080247c0       0x18 ././lvgl/src/lv_hal/lv_hal_disp.o
                0x00000000080247c0                lv_disp_get_antialiasing
 .text.lv_disp_flush_ready
                0x00000000080247d8        0xc ././lvgl/src/lv_hal/lv_hal_disp.o
                0x00000000080247d8                lv_disp_flush_ready
 .text.lv_disp_get_next
                0x00000000080247e4       0x14 ././lvgl/src/lv_hal/lv_hal_disp.o
                0x00000000080247e4                lv_disp_get_next
 .text.lv_disp_get_buf
                0x00000000080247f8        0x4 ././lvgl/src/lv_hal/lv_hal_disp.o
                0x00000000080247f8                lv_disp_get_buf
 .text.lv_disp_get_inv_buf_size
                0x00000000080247fc        0xc ././lvgl/src/lv_hal/lv_hal_disp.o
                0x00000000080247fc                lv_disp_get_inv_buf_size
 .text.lv_disp_pop_from_inv_buf
                0x0000000008024808       0x24 ././lvgl/src/lv_hal/lv_hal_disp.o
                0x0000000008024808                lv_disp_pop_from_inv_buf
 .text.lv_disp_is_double_buf
                0x000000000802482c       0x10 ././lvgl/src/lv_hal/lv_hal_disp.o
                0x000000000802482c                lv_disp_is_double_buf
 .text.lv_disp_is_true_double_buf
                0x000000000802483c       0x24 ././lvgl/src/lv_hal/lv_hal_disp.o
                0x000000000802483c                lv_disp_is_true_double_buf
 .text          0x0000000008024860        0x0 ././lvgl/src/lv_hal/lv_hal_tick.o
 .text.lv_tick_inc
                0x0000000008024860       0x20 ././lvgl/src/lv_hal/lv_hal_tick.o
                0x0000000008024860                lv_tick_inc
 .text.lv_tick_get
                0x0000000008024880       0x1c ././lvgl/src/lv_hal/lv_hal_tick.o
                0x0000000008024880                lv_tick_get
 .text.lv_tick_elaps
                0x000000000802489c       0x24 ././lvgl/src/lv_hal/lv_hal_tick.o
                0x000000000802489c                lv_tick_elaps
 .text          0x00000000080248c0        0x0 ././lvgl/src/lv_hal/lv_hal_indev.o
 .text.lv_indev_drv_init
                0x00000000080248c0       0x20 ././lvgl/src/lv_hal/lv_hal_indev.o
                0x00000000080248c0                lv_indev_drv_init
 .text.lv_indev_drv_register
                0x00000000080248e0       0x8c ././lvgl/src/lv_hal/lv_hal_indev.o
                0x00000000080248e0                lv_indev_drv_register
 .text.lv_indev_drv_update
                0x000000000802496c       0x24 ././lvgl/src/lv_hal/lv_hal_indev.o
                0x000000000802496c                lv_indev_drv_update
 .text.lv_indev_get_next
                0x0000000008024990       0x14 ././lvgl/src/lv_hal/lv_hal_indev.o
                0x0000000008024990                lv_indev_get_next
 .text.lv_indev_read
                0x00000000080249a4       0x30 ././lvgl/src/lv_hal/lv_hal_indev.o
                0x00000000080249a4                lv_indev_read
 .text          0x00000000080249d4        0x0 ././lvgl/src/lv_font/lv_font_roboto_12.o
 .text          0x00000000080249d4        0x0 ././lvgl/src/lv_font/lv_font_fmt_txt.o
 .text.kern_pair_8_compare
                0x00000000080249d4       0x14 ././lvgl/src/lv_font/lv_font_fmt_txt.o
 .text.kern_pair_16_compare
                0x00000000080249e8       0x14 ././lvgl/src/lv_font/lv_font_fmt_txt.o
 .text.bits_write
                0x00000000080249fc       0x48 ././lvgl/src/lv_font/lv_font_fmt_txt.o
 .text.rle_next
                0x0000000008024a44      0x1c0 ././lvgl/src/lv_font/lv_font_fmt_txt.o
 .text.unicode_list_compare
                0x0000000008024c04        0x8 ././lvgl/src/lv_font/lv_font_fmt_txt.o
 .text.get_glyph_dsc_id.isra.0.part.1
                0x0000000008024c0c       0xe0 ././lvgl/src/lv_font/lv_font_fmt_txt.o
 .text.lv_font_get_bitmap_fmt_txt
                0x0000000008024cec      0x1dc ././lvgl/src/lv_font/lv_font_fmt_txt.o
                0x0000000008024cec                lv_font_get_bitmap_fmt_txt
 .text.lv_font_get_glyph_dsc_fmt_txt
                0x0000000008024ec8      0x120 ././lvgl/src/lv_font/lv_font_fmt_txt.o
                0x0000000008024ec8                lv_font_get_glyph_dsc_fmt_txt
 .text          0x0000000008024fe8        0x0 ././lvgl/src/lv_font/lv_font.o
 .text.lv_font_get_glyph_bitmap
                0x0000000008024fe8        0x4 ././lvgl/src/lv_font/lv_font.o
                0x0000000008024fe8                lv_font_get_glyph_bitmap
 .text.lv_font_get_glyph_dsc
                0x0000000008024fec        0xc ././lvgl/src/lv_font/lv_font.o
                0x0000000008024fec                lv_font_get_glyph_dsc
 .text.lv_font_get_glyph_width
                0x0000000008024ff8       0x18 ././lvgl/src/lv_font/lv_font.o
                0x0000000008024ff8                lv_font_get_glyph_width
 .text          0x0000000008025010        0x0 ././lvgl/src/lv_font/lv_font_roboto_28_compressed.o
 .text          0x0000000008025010        0x0 ././lvgl/src/lv_font/lv_font_roboto_12_subpx.o
 .text          0x0000000008025010        0x0 ././lvgl/src/lv_font/lv_font_roboto_22.o
 .text          0x0000000008025010        0x0 ././lvgl/src/lv_font/lv_font_roboto_16.o
 .text          0x0000000008025010        0x0 ././lvgl/src/lv_font/lv_font_roboto_28.o
 .text          0x0000000008025010        0x0 ././lvgl/src/lv_font/lv_font_unscii_8.o
 .text          0x0000000008025010        0x0 ././lvgl/src/lv_misc/lv_gc.o
 .text.lv_gc_clear_roots
                0x0000000008025010       0x80 ././lvgl/src/lv_misc/lv_gc.o
                0x0000000008025010                lv_gc_clear_roots
 .text          0x0000000008025090        0x0 ././lvgl/src/lv_misc/lv_printf.o
 .text._out_buffer
                0x0000000008025090        0x8 ././lvgl/src/lv_misc/lv_printf.o
 .text._out_null
                0x0000000008025098        0x4 ././lvgl/src/lv_misc/lv_printf.o
 .text._out_rev
                0x000000000802509c       0x88 ././lvgl/src/lv_misc/lv_printf.o
 .text._ntoa_format
                0x0000000008025124      0x1e8 ././lvgl/src/lv_misc/lv_printf.o
 .text._ntoa_long
                0x000000000802530c       0x94 ././lvgl/src/lv_misc/lv_printf.o
 .text._ntoa_long_long
                0x00000000080253a0       0xb0 ././lvgl/src/lv_misc/lv_printf.o
 .text._ftoa    0x0000000008025450      0x488 ././lvgl/src/lv_misc/lv_printf.o
 .text._etoa    0x00000000080258d8      0x3e4 ././lvgl/src/lv_misc/lv_printf.o
 .text._vsnprintf.constprop.2
                0x0000000008025cbc      0x680 ././lvgl/src/lv_misc/lv_printf.o
 .text.lv_snprintf
                0x000000000802633c       0x1c ././lvgl/src/lv_misc/lv_printf.o
                0x000000000802633c                lv_snprintf
 .text.lv_vsnprintf
                0x0000000008026358        0x4 ././lvgl/src/lv_misc/lv_printf.o
                0x0000000008026358                lv_vsnprintf
 .text          0x000000000802635c        0x0 ././lvgl/src/lv_misc/lv_mem.o
 .text.lv_mem_alloc.part.0
                0x000000000802635c       0x88 ././lvgl/src/lv_misc/lv_mem.o
 .text.lv_mem_free.part.1
                0x00000000080263e4       0x94 ././lvgl/src/lv_misc/lv_mem.o
 .text.lv_mem_init
                0x0000000008026478       0x18 ././lvgl/src/lv_misc/lv_mem.o
                0x0000000008026478                lv_mem_init
 .text.lv_mem_deinit
                0x0000000008026490       0x20 ././lvgl/src/lv_misc/lv_mem.o
                0x0000000008026490                lv_mem_deinit
 .text.lv_mem_alloc
                0x00000000080264b0       0x10 ././lvgl/src/lv_misc/lv_mem.o
                0x00000000080264b0                lv_mem_alloc
 .text.lv_mem_free
                0x00000000080264c0       0x14 ././lvgl/src/lv_misc/lv_mem.o
                0x00000000080264c0                lv_mem_free
 .text.lv_mem_realloc
                0x00000000080264d4       0xc8 ././lvgl/src/lv_misc/lv_mem.o
                0x00000000080264d4                lv_mem_realloc
 .text.lv_mem_defrag
                0x000000000802659c       0xa4 ././lvgl/src/lv_misc/lv_mem.o
                0x000000000802659c                lv_mem_defrag
 .text.lv_mem_monitor
                0x0000000008026640       0x80 ././lvgl/src/lv_misc/lv_mem.o
                0x0000000008026640                lv_mem_monitor
 .text.lv_mem_get_size
                0x00000000080266c0       0x1c ././lvgl/src/lv_misc/lv_mem.o
                0x00000000080266c0                lv_mem_get_size
 .text          0x00000000080266dc        0x0 ././lvgl/src/lv_misc/lv_txt.o
 .text.lv_txt_utf8_size
                0x00000000080266dc       0x30 ././lvgl/src/lv_misc/lv_txt.o
 .text.lv_txt_utf8_next
                0x000000000802670c       0xe4 ././lvgl/src/lv_misc/lv_txt.o
 .text.lv_txt_utf8_get_byte_id
                0x00000000080267f0       0x3c ././lvgl/src/lv_misc/lv_txt.o
 .text.lv_txt_utf8_get_char_id
                0x000000000802682c       0x34 ././lvgl/src/lv_misc/lv_txt.o
 .text.lv_txt_utf8_get_length
                0x0000000008026860       0x34 ././lvgl/src/lv_misc/lv_txt.o
 .text.lv_txt_unicode_to_utf8
                0x0000000008026894       0x9c ././lvgl/src/lv_misc/lv_txt.o
 .text.lv_txt_utf8_conv_wc
                0x0000000008026930       0x30 ././lvgl/src/lv_misc/lv_txt.o
 .text.lv_txt_utf8_prev
                0x0000000008026960       0x4c ././lvgl/src/lv_misc/lv_txt.o
 .text.lv_txt_get_width.part.5
                0x00000000080269ac       0xb0 ././lvgl/src/lv_misc/lv_txt.o
 .text.lv_txt_get_next_line.part.4
                0x0000000008026a5c      0x278 ././lvgl/src/lv_misc/lv_txt.o
 .text.lv_txt_get_size
                0x0000000008026cd4       0xe8 ././lvgl/src/lv_misc/lv_txt.o
                0x0000000008026cd4                lv_txt_get_size
 .text.lv_txt_get_next_line
                0x0000000008026dbc       0x18 ././lvgl/src/lv_misc/lv_txt.o
                0x0000000008026dbc                lv_txt_get_next_line
 .text.lv_txt_get_width
                0x0000000008026dd4       0x18 ././lvgl/src/lv_misc/lv_txt.o
                0x0000000008026dd4                lv_txt_get_width
 .text.lv_txt_is_cmd
                0x0000000008026dec       0x40 ././lvgl/src/lv_misc/lv_txt.o
                0x0000000008026dec                lv_txt_is_cmd
 .text.lv_txt_ins
                0x0000000008026e2c       0x58 ././lvgl/src/lv_misc/lv_txt.o
                0x0000000008026e2c                lv_txt_ins
 .text.lv_txt_cut
                0x0000000008026e84       0x4c ././lvgl/src/lv_misc/lv_txt.o
                0x0000000008026e84                lv_txt_cut
 .text          0x0000000008026ed0        0x0 ././lvgl/src/lv_misc/lv_area.o
 .text.lv_area_set
                0x0000000008026ed0       0x14 ././lvgl/src/lv_misc/lv_area.o
                0x0000000008026ed0                lv_area_set
 .text.lv_area_set_width
                0x0000000008026ee4        0xc ././lvgl/src/lv_misc/lv_area.o
                0x0000000008026ee4                lv_area_set_width
 .text.lv_area_set_height
                0x0000000008026ef0        0xc ././lvgl/src/lv_misc/lv_area.o
                0x0000000008026ef0                lv_area_set_height
 .text.lv_area_set_pos
                0x0000000008026efc       0x20 ././lvgl/src/lv_misc/lv_area.o
                0x0000000008026efc                lv_area_set_pos
 .text.lv_area_get_size
                0x0000000008026f1c       0x24 ././lvgl/src/lv_misc/lv_area.o
                0x0000000008026f1c                lv_area_get_size
 .text.lv_area_intersect
                0x0000000008026f40       0x58 ././lvgl/src/lv_misc/lv_area.o
                0x0000000008026f40                lv_area_intersect
 .text.lv_area_join
                0x0000000008026f98       0x48 ././lvgl/src/lv_misc/lv_area.o
                0x0000000008026f98                lv_area_join
 .text.lv_area_is_point_on
                0x0000000008026fe0       0x34 ././lvgl/src/lv_misc/lv_area.o
                0x0000000008026fe0                lv_area_is_point_on
 .text.lv_area_is_on
                0x0000000008027014       0x3c ././lvgl/src/lv_misc/lv_area.o
                0x0000000008027014                lv_area_is_on
 .text.lv_area_is_in
                0x0000000008027050       0x3c ././lvgl/src/lv_misc/lv_area.o
                0x0000000008027050                lv_area_is_in
 .text.lv_area_increment
                0x000000000802708c       0x20 ././lvgl/src/lv_misc/lv_area.o
                0x000000000802708c                lv_area_increment
 .text          0x00000000080270ac        0x0 ././lvgl/src/lv_misc/lv_templ.o
 .text          0x00000000080270ac        0x0 ././lvgl/src/lv_misc/lv_anim.o
 .text          0x00000000080270ac        0x0 ././lvgl/src/lv_misc/lv_utils.o
 .text.lv_utils_num_to_str
                0x00000000080270ac       0x68 ././lvgl/src/lv_misc/lv_utils.o
                0x00000000080270ac                lv_utils_num_to_str
 .text.lv_utils_bsearch
                0x0000000008027114       0x48 ././lvgl/src/lv_misc/lv_utils.o
                0x0000000008027114                lv_utils_bsearch
 .text          0x000000000802715c        0x0 ././lvgl/src/lv_misc/lv_bidi.o
 .text          0x000000000802715c        0x0 ././lvgl/src/lv_misc/lv_ll.o
 .text.node_set_next.isra.0.part.1
                0x000000000802715c        0xc ././lvgl/src/lv_misc/lv_ll.o
 .text.node_set_prev.isra.2.part.3
                0x0000000008027168        0x8 ././lvgl/src/lv_misc/lv_ll.o
 .text.lv_ll_init
                0x0000000008027170       0x14 ././lvgl/src/lv_misc/lv_ll.o
                0x0000000008027170                lv_ll_init
 .text.lv_ll_ins_head
                0x0000000008027184       0x40 ././lvgl/src/lv_misc/lv_ll.o
                0x0000000008027184                lv_ll_ins_head
 .text.lv_ll_ins_prev
                0x00000000080271c4       0x50 ././lvgl/src/lv_misc/lv_ll.o
                0x00000000080271c4                lv_ll_ins_prev
 .text.lv_ll_ins_tail
                0x0000000008027214       0x40 ././lvgl/src/lv_misc/lv_ll.o
                0x0000000008027214                lv_ll_ins_tail
 .text.lv_ll_rem
                0x0000000008027254       0x58 ././lvgl/src/lv_misc/lv_ll.o
                0x0000000008027254                lv_ll_rem
 .text.lv_ll_clear
                0x00000000080272ac       0x28 ././lvgl/src/lv_misc/lv_ll.o
                0x00000000080272ac                lv_ll_clear
 .text.lv_ll_chg_list
                0x00000000080272d4       0x8c ././lvgl/src/lv_misc/lv_ll.o
                0x00000000080272d4                lv_ll_chg_list
 .text.lv_ll_get_head
                0x0000000008027360        0x8 ././lvgl/src/lv_misc/lv_ll.o
                0x0000000008027360                lv_ll_get_head
 .text.lv_ll_get_tail
                0x0000000008027368        0x8 ././lvgl/src/lv_misc/lv_ll.o
                0x0000000008027368                lv_ll_get_tail
 .text.lv_ll_get_next
                0x0000000008027370        0xc ././lvgl/src/lv_misc/lv_ll.o
                0x0000000008027370                lv_ll_get_next
 .text.lv_ll_get_prev
                0x000000000802737c        0x8 ././lvgl/src/lv_misc/lv_ll.o
                0x000000000802737c                lv_ll_get_prev
 .text.lv_ll_get_len
                0x0000000008027384       0x1c ././lvgl/src/lv_misc/lv_ll.o
                0x0000000008027384                lv_ll_get_len
 .text.lv_ll_move_before
                0x00000000080273a0       0xa4 ././lvgl/src/lv_misc/lv_ll.o
                0x00000000080273a0                lv_ll_move_before
 .text.lv_ll_is_empty
                0x0000000008027444       0x18 ././lvgl/src/lv_misc/lv_ll.o
                0x0000000008027444                lv_ll_is_empty
 .text          0x000000000802745c        0x0 ././lvgl/src/lv_misc/lv_color.o
 .text.lv_color_hsv_to_rgb
                0x000000000802745c       0xf8 ././lvgl/src/lv_misc/lv_color.o
                0x000000000802745c                lv_color_hsv_to_rgb
 .text.lv_color_rgb_to_hsv
                0x0000000008027554      0x100 ././lvgl/src/lv_misc/lv_color.o
                0x0000000008027554                lv_color_rgb_to_hsv
 .text.lv_color_to_hsv
                0x0000000008027654       0x5c ././lvgl/src/lv_misc/lv_color.o
                0x0000000008027654                lv_color_to_hsv
 .text          0x00000000080276b0        0x0 ././lvgl/src/lv_misc/lv_circ.o
 .text.lv_circ_init
                0x00000000080276b0       0x14 ././lvgl/src/lv_misc/lv_circ.o
                0x00000000080276b0                lv_circ_init
 .text.lv_circ_cont
                0x00000000080276c4       0x14 ././lvgl/src/lv_misc/lv_circ.o
                0x00000000080276c4                lv_circ_cont
 .text.lv_circ_next
                0x00000000080276d8       0x3c ././lvgl/src/lv_misc/lv_circ.o
                0x00000000080276d8                lv_circ_next
 .text          0x0000000008027714        0x0 ././lvgl/src/lv_misc/lv_task.o
 .text.lv_task_core_init
                0x0000000008027714       0x1c ././lvgl/src/lv_misc/lv_task.o
                0x0000000008027714                lv_task_core_init
 .text.lv_task_create_basic
                0x0000000008027730       0xb8 ././lvgl/src/lv_misc/lv_task.o
                0x0000000008027730                lv_task_create_basic
 .text.lv_task_set_cb
                0x00000000080277e8        0x4 ././lvgl/src/lv_misc/lv_task.o
                0x00000000080277e8                lv_task_set_cb
 .text.lv_task_del
                0x00000000080277ec       0x30 ././lvgl/src/lv_misc/lv_task.o
                0x00000000080277ec                lv_task_del
 .text.lv_task_exec
                0x000000000802781c       0x4c ././lvgl/src/lv_misc/lv_task.o
 .text.lv_task_handler
                0x0000000008027868      0x128 ././lvgl/src/lv_misc/lv_task.o
                0x0000000008027868                lv_task_handler
 .text.lv_task_set_prio
                0x0000000008027990       0x70 ././lvgl/src/lv_misc/lv_task.o
                0x0000000008027990                lv_task_set_prio
 .text.lv_task_create
                0x0000000008027a00       0x40 ././lvgl/src/lv_misc/lv_task.o
                0x0000000008027a00                lv_task_create
 .text.lv_task_set_period
                0x0000000008027a40        0x4 ././lvgl/src/lv_misc/lv_task.o
                0x0000000008027a40                lv_task_set_period
 .text.lv_task_ready
                0x0000000008027a44       0x14 ././lvgl/src/lv_misc/lv_task.o
                0x0000000008027a44                lv_task_ready
 .text.lv_task_once
                0x0000000008027a58        0xc ././lvgl/src/lv_misc/lv_task.o
                0x0000000008027a58                lv_task_once
 .text.lv_task_reset
                0x0000000008027a64        0xc ././lvgl/src/lv_misc/lv_task.o
                0x0000000008027a64                lv_task_reset
 .text.lv_task_enable
                0x0000000008027a70        0xc ././lvgl/src/lv_misc/lv_task.o
                0x0000000008027a70                lv_task_enable
 .text.lv_task_get_idle
                0x0000000008027a7c        0xc ././lvgl/src/lv_misc/lv_task.o
                0x0000000008027a7c                lv_task_get_idle
 .text          0x0000000008027a88        0x0 ././lvgl/src/lv_misc/lv_log.o
 .text          0x0000000008027a88        0x0 ././lvgl/src/lv_misc/lv_async.o
 .text.lv_async_task_cb
                0x0000000008027a88       0x14 ././lvgl/src/lv_misc/lv_async.o
 .text.lv_async_call
                0x0000000008027a9c       0x3c ././lvgl/src/lv_misc/lv_async.o
                0x0000000008027a9c                lv_async_call
 .text          0x0000000008027ad8        0x0 ././lvgl/src/lv_misc/lv_fs.o
 .text          0x0000000008027ad8        0x0 ././lvgl/src/lv_misc/lv_math.o
 .text.lv_trigo_sin
                0x0000000008027ad8       0x6c ././lvgl/src/lv_misc/lv_math.o
                0x0000000008027ad8                lv_trigo_sin
 .text.lv_bezier3
                0x0000000008027b44       0x54 ././lvgl/src/lv_misc/lv_math.o
                0x0000000008027b44                lv_bezier3
 .text.lv_atan2
                0x0000000008027b98       0xb4 ././lvgl/src/lv_misc/lv_math.o
                0x0000000008027b98                lv_atan2
 .text.lv_sqrt  0x0000000008027c4c       0x34 ././lvgl/src/lv_misc/lv_math.o
                0x0000000008027c4c                lv_sqrt
 .text          0x0000000008027c80        0x0 ././lvgl/src/lv_themes/lv_theme.o
 .text.lv_theme_set_current
                0x0000000008027c80       0x1c ././lvgl/src/lv_themes/lv_theme.o
                0x0000000008027c80                lv_theme_set_current
 .text.lv_theme_get_current
                0x0000000008027c9c        0xc ././lvgl/src/lv_themes/lv_theme.o
                0x0000000008027c9c                lv_theme_get_current
 .text          0x0000000008027ca8        0x0 ././lvgl/src/lv_themes/lv_theme_mono.o
 .text          0x0000000008027ca8        0x0 ././lvgl/src/lv_themes/lv_theme_material.o
 .text.style_mod_edit
                0x0000000008027ca8      0x2bc ././lvgl/src/lv_themes/lv_theme_material.o
 .text.style_mod
                0x0000000008027f64      0x2c0 ././lvgl/src/lv_themes/lv_theme_material.o
 .text.lv_theme_material_init
                0x0000000008028224      0xc9c ././lvgl/src/lv_themes/lv_theme_material.o
                0x0000000008028224                lv_theme_material_init
 .text.lv_theme_get_material
                0x0000000008028ec0        0x8 ././lvgl/src/lv_themes/lv_theme_material.o
                0x0000000008028ec0                lv_theme_get_material
 .text          0x0000000008028ec8        0x0 ././lvgl/src/lv_themes/lv_theme_default.o
 .text          0x0000000008028ec8        0x0 ././lvgl/src/lv_themes/lv_theme_alien.o
 .text          0x0000000008028ec8        0x0 ././lvgl/src/lv_themes/lv_theme_night.o
 .text          0x0000000008028ec8        0x0 ././lvgl/src/lv_themes/lv_theme_zen.o
 .text          0x0000000008028ec8        0x0 ././lvgl/src/lv_themes/lv_theme_templ.o
 .text          0x0000000008028ec8        0x0 ././lvgl/src/lv_themes/lv_theme_nemo.o
 .text          0x0000000008028ec8        0x0 ././lvgl/src/lv_core/lv_disp.o
 .text.lv_disp_get_scr_act
                0x0000000008028ec8       0x14 ././lvgl/src/lv_core/lv_disp.o
                0x0000000008028ec8                lv_disp_get_scr_act
 .text.lv_disp_load_scr
                0x0000000008028edc       0x14 ././lvgl/src/lv_core/lv_disp.o
                0x0000000008028edc                lv_disp_load_scr
 .text.lv_disp_get_layer_top
                0x0000000008028ef0       0x14 ././lvgl/src/lv_core/lv_disp.o
                0x0000000008028ef0                lv_disp_get_layer_top
 .text.lv_disp_get_layer_sys
                0x0000000008028f04       0x14 ././lvgl/src/lv_core/lv_disp.o
                0x0000000008028f04                lv_disp_get_layer_sys
 .text.lv_disp_assign_screen
                0x0000000008028f18       0x2c ././lvgl/src/lv_core/lv_disp.o
                0x0000000008028f18                lv_disp_assign_screen
 .text.lv_disp_get_refr_task
                0x0000000008028f44       0x14 ././lvgl/src/lv_core/lv_disp.o
                0x0000000008028f44                lv_disp_get_refr_task
 .text.lv_disp_get_inactive_time
                0x0000000008028f58       0x20 ././lvgl/src/lv_core/lv_disp.o
                0x0000000008028f58                lv_disp_get_inactive_time
 .text.lv_disp_trig_activity
                0x0000000008028f78       0x1c ././lvgl/src/lv_core/lv_disp.o
                0x0000000008028f78                lv_disp_trig_activity
 .text          0x0000000008028f94        0x0 ././lvgl/src/lv_core/lv_debug.o
 .text.obj_valid_child
                0x0000000008028f94       0x38 ././lvgl/src/lv_core/lv_debug.o
 .text.lv_debug_check_null
                0x0000000008028fcc        0x8 ././lvgl/src/lv_core/lv_debug.o
                0x0000000008028fcc                lv_debug_check_null
 .text.lv_debug_check_obj_type
                0x0000000008028fd4       0x38 ././lvgl/src/lv_core/lv_debug.o
                0x0000000008028fd4                lv_debug_check_obj_type
 .text.lv_debug_check_obj_valid
                0x000000000802900c       0x54 ././lvgl/src/lv_core/lv_debug.o
                0x000000000802900c                lv_debug_check_obj_valid
 .text.lv_debug_check_style
                0x0000000008029060       0x18 ././lvgl/src/lv_core/lv_debug.o
                0x0000000008029060                lv_debug_check_style
 .text.lv_debug_check_str
                0x0000000008029078       0x48 ././lvgl/src/lv_core/lv_debug.o
                0x0000000008029078                lv_debug_check_str
 .text.lv_debug_log_error
                0x00000000080290c0        0x4 ././lvgl/src/lv_core/lv_debug.o
                0x00000000080290c0                lv_debug_log_error
 .text          0x00000000080290c4        0x0 ././lvgl/src/lv_core/lv_indev.o
 .text.indev_proc_reset_query_handler.part.0
                0x00000000080290c4       0x38 ././lvgl/src/lv_core/lv_indev.o
 .text.indev_search_obj
                0x00000000080290fc       0x60 ././lvgl/src/lv_core/lv_indev.o
 .text.indev_drag_throw.part.2
                0x000000000802915c      0x1bc ././lvgl/src/lv_core/lv_indev.o
 .text.indev_proc_press
                0x0000000008029318      0x520 ././lvgl/src/lv_core/lv_indev.o
 .text.indev_proc_release
                0x0000000008029838      0x298 ././lvgl/src/lv_core/lv_indev.o
 .text.lv_indev_reset.part.5
                0x0000000008029ad0       0x20 ././lvgl/src/lv_core/lv_indev.o
 .text.lv_indev_init
                0x0000000008029af0        0x4 ././lvgl/src/lv_core/lv_indev.o
                0x0000000008029af0                lv_indev_init
 .text.lv_indev_read_task
                0x0000000008029af4      0x760 ././lvgl/src/lv_core/lv_indev.o
                0x0000000008029af4                lv_indev_read_task
 .text.lv_indev_get_act
                0x000000000802a254        0xc ././lvgl/src/lv_core/lv_indev.o
                0x000000000802a254                lv_indev_get_act
 .text.lv_indev_get_type
                0x000000000802a260        0x8 ././lvgl/src/lv_core/lv_indev.o
                0x000000000802a260                lv_indev_get_type
 .text.lv_indev_reset
                0x000000000802a268       0x14 ././lvgl/src/lv_core/lv_indev.o
                0x000000000802a268                lv_indev_reset
 .text.lv_indev_reset_long_press
                0x000000000802a27c       0x20 ././lvgl/src/lv_core/lv_indev.o
                0x000000000802a27c                lv_indev_reset_long_press
 .text.lv_indev_enable
                0x000000000802a29c       0x14 ././lvgl/src/lv_core/lv_indev.o
                0x000000000802a29c                lv_indev_enable
 .text.lv_indev_set_cursor
                0x000000000802a2b0       0x30 ././lvgl/src/lv_core/lv_indev.o
                0x000000000802a2b0                lv_indev_set_cursor
 .text.lv_indev_set_group
                0x000000000802a2e0       0x10 ././lvgl/src/lv_core/lv_indev.o
                0x000000000802a2e0                lv_indev_set_group
 .text.lv_indev_set_button_points
                0x000000000802a2f0        0xc ././lvgl/src/lv_core/lv_indev.o
                0x000000000802a2f0                lv_indev_set_button_points
 .text.lv_indev_get_point
                0x000000000802a2fc       0x24 ././lvgl/src/lv_core/lv_indev.o
                0x000000000802a2fc                lv_indev_get_point
 .text.lv_indev_get_key
                0x000000000802a320        0xc ././lvgl/src/lv_core/lv_indev.o
                0x000000000802a320                lv_indev_get_key
 .text.lv_indev_is_dragging
                0x000000000802a32c       0x1c ././lvgl/src/lv_core/lv_indev.o
                0x000000000802a32c                lv_indev_is_dragging
 .text.lv_indev_get_vect
                0x000000000802a348       0x24 ././lvgl/src/lv_core/lv_indev.o
                0x000000000802a348                lv_indev_get_vect
 .text.lv_indev_wait_release
                0x000000000802a36c       0x10 ././lvgl/src/lv_core/lv_indev.o
                0x000000000802a36c                lv_indev_wait_release
 .text.lv_indev_get_read_task
                0x000000000802a37c        0x8 ././lvgl/src/lv_core/lv_indev.o
                0x000000000802a37c                lv_indev_get_read_task
 .text.lv_indev_get_obj_act
                0x000000000802a384        0xc ././lvgl/src/lv_core/lv_indev.o
                0x000000000802a384                lv_indev_get_obj_act
 .text          0x000000000802a390        0x0 ././lvgl/src/lv_core/lv_refr.o
 .text.lv_refr_vdb_flush
                0x000000000802a390       0x50 ././lvgl/src/lv_core/lv_refr.o
 .text.lv_refr_get_top_obj
                0x000000000802a3e0       0x64 ././lvgl/src/lv_core/lv_refr.o
 .text.lv_refr_obj.part.2
                0x000000000802a444       0xe4 ././lvgl/src/lv_core/lv_refr.o
 .text.lv_refr_obj_and_children
                0x000000000802a528       0x78 ././lvgl/src/lv_core/lv_refr.o
 .text.lv_refr_area_part
                0x000000000802a5a0       0x78 ././lvgl/src/lv_core/lv_refr.o
 .text.lv_refr_init
                0x000000000802a618        0x4 ././lvgl/src/lv_core/lv_refr.o
                0x000000000802a618                lv_refr_init
 .text.lv_inv_area
                0x000000000802a61c       0xd4 ././lvgl/src/lv_core/lv_refr.o
                0x000000000802a61c                lv_inv_area
 .text.lv_refr_get_disp_refreshing
                0x000000000802a6f0        0xc ././lvgl/src/lv_core/lv_refr.o
                0x000000000802a6f0                lv_refr_get_disp_refreshing
 .text.lv_refr_set_disp_refreshing
                0x000000000802a6fc        0xc ././lvgl/src/lv_core/lv_refr.o
                0x000000000802a6fc                lv_refr_set_disp_refreshing
 .text.lv_disp_refr_task
                0x000000000802a708      0x3c0 ././lvgl/src/lv_core/lv_refr.o
                0x000000000802a708                lv_disp_refr_task
 .text.lv_refr_now
                0x000000000802aac8       0x28 ././lvgl/src/lv_core/lv_refr.o
                0x000000000802aac8                lv_refr_now
 .text          0x000000000802aaf0        0x0 ././lvgl/src/lv_core/lv_obj.o
 .text.refresh_children_position
                0x000000000802aaf0       0x50 ././lvgl/src/lv_core/lv_obj.o
 .text.lv_obj_set_click.part.2
                0x000000000802ab40       0x14 ././lvgl/src/lv_core/lv_obj.o
 .text.lv_init  0x000000000802ab54       0x50 ././lvgl/src/lv_core/lv_obj.o
                0x000000000802ab54                lv_init
 .text.lv_deinit
                0x000000000802aba4       0x1c ././lvgl/src/lv_core/lv_obj.o
                0x000000000802aba4                lv_deinit
 .text.lv_obj_del_async
                0x000000000802abc0       0x2c ././lvgl/src/lv_core/lv_obj.o
                0x000000000802abc0                lv_obj_del_async
 .text.lv_obj_set_auto_realign
                0x000000000802abec       0x2c ././lvgl/src/lv_core/lv_obj.o
                0x000000000802abec                lv_obj_set_auto_realign
 .text.lv_obj_set_ext_click_area
                0x000000000802ac18       0x1c ././lvgl/src/lv_core/lv_obj.o
                0x000000000802ac18                lv_obj_set_ext_click_area
 .text.lv_obj_set_click
                0x000000000802ac34       0x20 ././lvgl/src/lv_core/lv_obj.o
                0x000000000802ac34                lv_obj_set_click
 .text.lv_obj_set_top
                0x000000000802ac54       0x2c ././lvgl/src/lv_core/lv_obj.o
                0x000000000802ac54                lv_obj_set_top
 .text.lv_obj_set_drag
                0x000000000802ac80       0x38 ././lvgl/src/lv_core/lv_obj.o
                0x000000000802ac80                lv_obj_set_drag
 .text.lv_obj_set_drag_dir
                0x000000000802acb8       0x3c ././lvgl/src/lv_core/lv_obj.o
                0x000000000802acb8                lv_obj_set_drag_dir
 .text.lv_obj_set_drag_throw
                0x000000000802acf4       0x2c ././lvgl/src/lv_core/lv_obj.o
                0x000000000802acf4                lv_obj_set_drag_throw
 .text.lv_obj_set_drag_parent
                0x000000000802ad20       0x2c ././lvgl/src/lv_core/lv_obj.o
                0x000000000802ad20                lv_obj_set_drag_parent
 .text.lv_obj_set_parent_event
                0x000000000802ad4c       0x2c ././lvgl/src/lv_core/lv_obj.o
                0x000000000802ad4c                lv_obj_set_parent_event
 .text.lv_obj_set_opa_scale_enable
                0x000000000802ad78       0x2c ././lvgl/src/lv_core/lv_obj.o
                0x000000000802ad78                lv_obj_set_opa_scale_enable
 .text.lv_obj_set_protect
                0x000000000802ada4       0x28 ././lvgl/src/lv_core/lv_obj.o
                0x000000000802ada4                lv_obj_set_protect
 .text.lv_obj_clear_protect
                0x000000000802adcc       0x2c ././lvgl/src/lv_core/lv_obj.o
                0x000000000802adcc                lv_obj_clear_protect
 .text.lv_obj_set_event_cb
                0x000000000802adf8       0x20 ././lvgl/src/lv_core/lv_obj.o
                0x000000000802adf8                lv_obj_set_event_cb
 .text.lv_event_send_func
                0x000000000802ae18       0xac ././lvgl/src/lv_core/lv_obj.o
                0x000000000802ae18                lv_event_send_func
 .text.lv_event_send
                0x000000000802aec4       0x34 ././lvgl/src/lv_core/lv_obj.o
                0x000000000802aec4                lv_event_send
 .text.lv_event_get_data
                0x000000000802aef8        0xc ././lvgl/src/lv_core/lv_obj.o
                0x000000000802aef8                lv_event_get_data
 .text.lv_obj_set_signal_cb
                0x000000000802af04       0x20 ././lvgl/src/lv_core/lv_obj.o
                0x000000000802af04                lv_obj_set_signal_cb
 .text.lv_signal_send
                0x000000000802af24       0x28 ././lvgl/src/lv_core/lv_obj.o
                0x000000000802af24                lv_signal_send
 .text.lv_obj_set_design_cb
                0x000000000802af4c       0x20 ././lvgl/src/lv_core/lv_obj.o
                0x000000000802af4c                lv_obj_set_design_cb
 .text.lv_obj_allocate_ext_attr
                0x000000000802af6c       0x28 ././lvgl/src/lv_core/lv_obj.o
                0x000000000802af6c                lv_obj_allocate_ext_attr
 .text.lv_obj_get_parent
                0x000000000802af94       0x14 ././lvgl/src/lv_core/lv_obj.o
                0x000000000802af94                lv_obj_get_parent
 .text.lv_obj_get_screen
                0x000000000802afa8       0x24 ././lvgl/src/lv_core/lv_obj.o
                0x000000000802afa8                lv_obj_get_screen
 .text.lv_obj_get_disp
                0x000000000802afcc       0x60 ././lvgl/src/lv_core/lv_obj.o
                0x000000000802afcc                lv_obj_get_disp
 .text.lv_obj_get_child
                0x000000000802b02c       0x28 ././lvgl/src/lv_core/lv_obj.o
                0x000000000802b02c                lv_obj_get_child
 .text.base_dir_refr_children
                0x000000000802b054       0x3c ././lvgl/src/lv_core/lv_obj.o
 .text.lv_obj_set_base_dir
                0x000000000802b090       0x28 ././lvgl/src/lv_core/lv_obj.o
                0x000000000802b090                lv_obj_set_base_dir
 .text.lv_obj_get_child_back
                0x000000000802b0b8       0x34 ././lvgl/src/lv_core/lv_obj.o
                0x000000000802b0b8                lv_obj_get_child_back
 .text.lv_obj_count_children
                0x000000000802b0ec       0x40 ././lvgl/src/lv_core/lv_obj.o
                0x000000000802b0ec                lv_obj_count_children
 .text.lv_obj_count_children_recursive
                0x000000000802b12c       0x4c ././lvgl/src/lv_core/lv_obj.o
                0x000000000802b12c                lv_obj_count_children_recursive
 .text.lv_obj_get_coords
                0x000000000802b178       0x2c ././lvgl/src/lv_core/lv_obj.o
                0x000000000802b178                lv_obj_get_coords
 .text.lv_obj_get_x
                0x000000000802b1a4       0x34 ././lvgl/src/lv_core/lv_obj.o
                0x000000000802b1a4                lv_obj_get_x
 .text.lv_obj_get_y
                0x000000000802b1d8       0x34 ././lvgl/src/lv_core/lv_obj.o
                0x000000000802b1d8                lv_obj_get_y
 .text.lv_obj_get_width
                0x000000000802b20c       0x1c ././lvgl/src/lv_core/lv_obj.o
                0x000000000802b20c                lv_obj_get_width
 .text.lv_obj_get_height
                0x000000000802b228       0x1c ././lvgl/src/lv_core/lv_obj.o
                0x000000000802b228                lv_obj_get_height
 .text.lv_obj_get_auto_realign
                0x000000000802b244       0x24 ././lvgl/src/lv_core/lv_obj.o
                0x000000000802b244                lv_obj_get_auto_realign
 .text.lv_obj_get_ext_click_pad_left
                0x000000000802b268       0x20 ././lvgl/src/lv_core/lv_obj.o
                0x000000000802b268                lv_obj_get_ext_click_pad_left
 .text.lv_obj_get_ext_click_pad_right
                0x000000000802b288        0x4 ././lvgl/src/lv_core/lv_obj.o
                0x000000000802b288                lv_obj_get_ext_click_pad_right
 .text.lv_obj_get_ext_click_pad_top
                0x000000000802b28c        0x4 ././lvgl/src/lv_core/lv_obj.o
                0x000000000802b28c                lv_obj_get_ext_click_pad_top
 .text.lv_obj_get_ext_click_pad_bottom
                0x000000000802b290        0x4 ././lvgl/src/lv_core/lv_obj.o
                0x000000000802b290                lv_obj_get_ext_click_pad_bottom
 .text.lv_obj_get_ext_draw_pad
                0x000000000802b294       0x20 ././lvgl/src/lv_core/lv_obj.o
                0x000000000802b294                lv_obj_get_ext_draw_pad
 .text.lv_obj_get_hidden
                0x000000000802b2b4       0x1c ././lvgl/src/lv_core/lv_obj.o
                0x000000000802b2b4                lv_obj_get_hidden
 .text.lv_obj_invalidate_area
                0x000000000802b2d0       0xd0 ././lvgl/src/lv_core/lv_obj.o
                0x000000000802b2d0                lv_obj_invalidate_area
 .text.lv_obj_invalidate
                0x000000000802b3a0       0x64 ././lvgl/src/lv_core/lv_obj.o
                0x000000000802b3a0                lv_obj_invalidate
 .text.lv_obj_move_foreground
                0x000000000802b404       0x58 ././lvgl/src/lv_core/lv_obj.o
                0x000000000802b404                lv_obj_move_foreground
 .text.lv_obj_move_background
                0x000000000802b45c       0x58 ././lvgl/src/lv_core/lv_obj.o
                0x000000000802b45c                lv_obj_move_background
 .text.lv_obj_set_pos
                0x000000000802b4b4       0x9c ././lvgl/src/lv_core/lv_obj.o
                0x000000000802b4b4                lv_obj_set_pos
 .text.lv_obj_set_x
                0x000000000802b550       0x30 ././lvgl/src/lv_core/lv_obj.o
                0x000000000802b550                lv_obj_set_x
 .text.lv_obj_set_y
                0x000000000802b580       0x30 ././lvgl/src/lv_core/lv_obj.o
                0x000000000802b580                lv_obj_set_y
 .text.lv_obj_align
                0x000000000802b5b0      0x2ec ././lvgl/src/lv_core/lv_obj.o
                0x000000000802b5b0                lv_obj_align
 .text.lv_obj_align_origo
                0x000000000802b89c      0x198 ././lvgl/src/lv_core/lv_obj.o
                0x000000000802b89c                lv_obj_align_origo
 .text.lv_obj_realign
                0x000000000802ba34       0x3c ././lvgl/src/lv_core/lv_obj.o
                0x000000000802ba34                lv_obj_realign
 .text.lv_obj_set_parent
                0x000000000802ba70       0x8c ././lvgl/src/lv_core/lv_obj.o
                0x000000000802ba70                lv_obj_set_parent
 .text.lv_obj_refresh_style
                0x000000000802bafc       0x34 ././lvgl/src/lv_core/lv_obj.o
                0x000000000802bafc                lv_obj_refresh_style
 .text.refresh_children_style
                0x000000000802bb30       0x40 ././lvgl/src/lv_core/lv_obj.o
 .text.lv_obj_set_style
                0x000000000802bb70       0x48 ././lvgl/src/lv_core/lv_obj.o
                0x000000000802bb70                lv_obj_set_style
 .text.report_style_mod_core
                0x000000000802bbb8       0x40 ././lvgl/src/lv_core/lv_obj.o
 .text.lv_obj_report_style_mod
                0x000000000802bbf8       0x68 ././lvgl/src/lv_core/lv_obj.o
                0x000000000802bbf8                lv_obj_report_style_mod
 .text.lv_obj_set_hidden
                0x000000000802bc60       0x58 ././lvgl/src/lv_core/lv_obj.o
                0x000000000802bc60                lv_obj_set_hidden
 .text.lv_obj_set_opa_scale
                0x000000000802bcb8       0x2c ././lvgl/src/lv_core/lv_obj.o
                0x000000000802bcb8                lv_obj_set_opa_scale
 .text.lv_obj_refresh_ext_draw_pad
                0x000000000802bce4       0x28 ././lvgl/src/lv_core/lv_obj.o
                0x000000000802bce4                lv_obj_refresh_ext_draw_pad
 .text.lv_obj_create
                0x000000000802bd0c      0x2d4 ././lvgl/src/lv_core/lv_obj.o
                0x000000000802bd0c                lv_obj_create
 .text.lv_obj_set_size
                0x000000000802bfe0       0xb0 ././lvgl/src/lv_core/lv_obj.o
                0x000000000802bfe0                lv_obj_set_size
 .text.lv_obj_set_width
                0x000000000802c090       0x30 ././lvgl/src/lv_core/lv_obj.o
                0x000000000802c090                lv_obj_set_width
 .text.lv_obj_set_height
                0x000000000802c0c0       0x30 ././lvgl/src/lv_core/lv_obj.o
                0x000000000802c0c0                lv_obj_set_height
 .text.lv_obj_get_click
                0x000000000802c0f0       0x24 ././lvgl/src/lv_core/lv_obj.o
                0x000000000802c0f0                lv_obj_get_click
 .text.lv_obj_get_top
                0x000000000802c114       0x24 ././lvgl/src/lv_core/lv_obj.o
                0x000000000802c114                lv_obj_get_top
 .text.lv_obj_get_drag
                0x000000000802c138       0x24 ././lvgl/src/lv_core/lv_obj.o
                0x000000000802c138                lv_obj_get_drag
 .text.lv_obj_get_drag_dir
                0x000000000802c15c       0x24 ././lvgl/src/lv_core/lv_obj.o
                0x000000000802c15c                lv_obj_get_drag_dir
 .text.lv_obj_get_drag_throw
                0x000000000802c180       0x24 ././lvgl/src/lv_core/lv_obj.o
                0x000000000802c180                lv_obj_get_drag_throw
 .text.lv_obj_get_drag_parent
                0x000000000802c1a4        0xc ././lvgl/src/lv_core/lv_obj.o
                0x000000000802c1a4                lv_obj_get_drag_parent
 .text.lv_obj_get_parent_event
                0x000000000802c1b0       0x24 ././lvgl/src/lv_core/lv_obj.o
                0x000000000802c1b0                lv_obj_get_parent_event
 .text.lv_obj_get_base_dir
                0x000000000802c1d4        0x4 ././lvgl/src/lv_core/lv_obj.o
                0x000000000802c1d4                lv_obj_get_base_dir
 .text.lv_obj_get_opa_scale_enable
                0x000000000802c1d8       0x24 ././lvgl/src/lv_core/lv_obj.o
                0x000000000802c1d8                lv_obj_get_opa_scale_enable
 .text.lv_obj_get_opa_scale
                0x000000000802c1fc       0x30 ././lvgl/src/lv_core/lv_obj.o
                0x000000000802c1fc                lv_obj_get_opa_scale
 .text.lv_obj_get_protect
                0x000000000802c22c       0x20 ././lvgl/src/lv_core/lv_obj.o
                0x000000000802c22c                lv_obj_get_protect
 .text.lv_obj_is_protected
                0x000000000802c24c       0x20 ././lvgl/src/lv_core/lv_obj.o
                0x000000000802c24c                lv_obj_is_protected
 .text.lv_obj_get_signal_cb
                0x000000000802c26c       0x20 ././lvgl/src/lv_core/lv_obj.o
                0x000000000802c26c                lv_obj_get_signal_cb
 .text.lv_obj_get_design_cb
                0x000000000802c28c       0x20 ././lvgl/src/lv_core/lv_obj.o
                0x000000000802c28c                lv_obj_get_design_cb
 .text.lv_obj_get_event_cb
                0x000000000802c2ac       0x20 ././lvgl/src/lv_core/lv_obj.o
                0x000000000802c2ac                lv_obj_get_event_cb
 .text.lv_obj_get_ext_attr
                0x000000000802c2cc       0x20 ././lvgl/src/lv_core/lv_obj.o
                0x000000000802c2cc                lv_obj_get_ext_attr
 .text.lv_obj_get_type
                0x000000000802c2ec       0x90 ././lvgl/src/lv_core/lv_obj.o
                0x000000000802c2ec                lv_obj_get_type
 .text.lv_obj_get_group
                0x000000000802c37c       0x14 ././lvgl/src/lv_core/lv_obj.o
                0x000000000802c37c                lv_obj_get_group
 .text.delete_children
                0x000000000802c390       0xdc ././lvgl/src/lv_core/lv_obj.o
 .text.lv_obj_del
                0x000000000802c46c      0x120 ././lvgl/src/lv_core/lv_obj.o
                0x000000000802c46c                lv_obj_del
 .text.lv_obj_del_async_cb
                0x000000000802c58c       0x24 ././lvgl/src/lv_core/lv_obj.o
 .text.lv_obj_clean
                0x000000000802c5b0       0x40 ././lvgl/src/lv_core/lv_obj.o
                0x000000000802c5b0                lv_obj_clean
 .text.lv_obj_get_style
                0x000000000802c5f0       0x94 ././lvgl/src/lv_core/lv_obj.o
                0x000000000802c5f0                lv_obj_get_style
 .text.lv_obj_design
                0x000000000802c684       0xb4 ././lvgl/src/lv_core/lv_obj.o
 .text.lv_obj_get_inner_coords
                0x000000000802c738       0x58 ././lvgl/src/lv_core/lv_obj.o
                0x000000000802c738                lv_obj_get_inner_coords
 .text.lv_obj_get_width_fit
                0x000000000802c790       0x34 ././lvgl/src/lv_core/lv_obj.o
                0x000000000802c790                lv_obj_get_width_fit
 .text.lv_obj_get_height_fit
                0x000000000802c7c4       0x34 ././lvgl/src/lv_core/lv_obj.o
                0x000000000802c7c4                lv_obj_get_height_fit
 .text.lv_obj_signal
                0x000000000802c7f8       0x60 ././lvgl/src/lv_core/lv_obj.o
 .text.lv_obj_is_focused
                0x000000000802c858       0x2c ././lvgl/src/lv_core/lv_obj.o
                0x000000000802c858                lv_obj_is_focused
 .text.lv_obj_handle_get_type_signal
                0x000000000802c884       0x20 ././lvgl/src/lv_core/lv_obj.o
                0x000000000802c884                lv_obj_handle_get_type_signal
 .text          0x000000000802c8a4        0x0 ././lvgl/src/lv_core/lv_style.o
 .text.lv_style_init
                0x000000000802c8a4      0x3b8 ././lvgl/src/lv_core/lv_style.o
                0x000000000802c8a4                lv_style_init
 .text.lv_style_copy
                0x000000000802cc5c       0x24 ././lvgl/src/lv_core/lv_style.o
                0x000000000802cc5c                lv_style_copy
 .text.lv_style_mix
                0x000000000802cc80      0x544 ././lvgl/src/lv_core/lv_style.o
                0x000000000802cc80                lv_style_mix
 .text          0x000000000802d1c4        0x0 ././lvgl/src/lv_core/lv_group.o
 .text.style_mod_def
                0x000000000802d1c4      0x1d4 ././lvgl/src/lv_core/lv_group.o
 .text.style_mod_edit_def
                0x000000000802d398      0x1bc ././lvgl/src/lv_core/lv_group.o
 .text.obj_to_foreground
                0x000000000802d554       0x30 ././lvgl/src/lv_core/lv_group.o
 .text.focus_next_core.part.1
                0x000000000802d584       0xdc ././lvgl/src/lv_core/lv_group.o
 .text.lv_group_refocus
                0x000000000802d660       0x60 ././lvgl/src/lv_core/lv_group.o
 .text.lv_group_init
                0x000000000802d6c0        0xc ././lvgl/src/lv_core/lv_group.o
                0x000000000802d6c0                lv_group_init
 .text.lv_group_create
                0x000000000802d6cc       0x74 ././lvgl/src/lv_core/lv_group.o
                0x000000000802d6cc                lv_group_create
 .text.lv_group_del
                0x000000000802d740       0x50 ././lvgl/src/lv_core/lv_group.o
                0x000000000802d740                lv_group_del
 .text.lv_group_add_obj
                0x000000000802d790       0x78 ././lvgl/src/lv_core/lv_group.o
                0x000000000802d790                lv_group_add_obj
 .text.lv_group_remove_obj
                0x000000000802d808       0x88 ././lvgl/src/lv_core/lv_group.o
                0x000000000802d808                lv_group_remove_obj
 .text.lv_group_remove_all_objs
                0x000000000802d890       0x44 ././lvgl/src/lv_core/lv_group.o
                0x000000000802d890                lv_group_remove_all_objs
 .text.lv_group_focus_next
                0x000000000802d8d4       0x1c ././lvgl/src/lv_core/lv_group.o
                0x000000000802d8d4                lv_group_focus_next
 .text.lv_group_focus_prev
                0x000000000802d8f0       0x1c ././lvgl/src/lv_core/lv_group.o
                0x000000000802d8f0                lv_group_focus_prev
 .text.lv_group_focus_freeze
                0x000000000802d90c       0x10 ././lvgl/src/lv_core/lv_group.o
                0x000000000802d90c                lv_group_focus_freeze
 .text.lv_group_send_data
                0x000000000802d91c       0x38 ././lvgl/src/lv_core/lv_group.o
                0x000000000802d91c                lv_group_send_data
 .text.lv_group_set_style_mod_cb
                0x000000000802d954       0x10 ././lvgl/src/lv_core/lv_group.o
                0x000000000802d954                lv_group_set_style_mod_cb
 .text.lv_group_set_style_mod_edit_cb
                0x000000000802d964       0x10 ././lvgl/src/lv_core/lv_group.o
                0x000000000802d964                lv_group_set_style_mod_edit_cb
 .text.lv_group_set_focus_cb
                0x000000000802d974        0x4 ././lvgl/src/lv_core/lv_group.o
                0x000000000802d974                lv_group_set_focus_cb
 .text.lv_group_set_editing
                0x000000000802d978       0x48 ././lvgl/src/lv_core/lv_group.o
                0x000000000802d978                lv_group_set_editing
 .text.lv_group_focus_obj
                0x000000000802d9c0       0xa8 ././lvgl/src/lv_core/lv_group.o
                0x000000000802d9c0                lv_group_focus_obj
 .text.lv_group_set_click_focus
                0x000000000802da68       0x10 ././lvgl/src/lv_core/lv_group.o
                0x000000000802da68                lv_group_set_click_focus
 .text.lv_group_set_refocus_policy
                0x000000000802da78       0x10 ././lvgl/src/lv_core/lv_group.o
                0x000000000802da78                lv_group_set_refocus_policy
 .text.lv_group_set_wrap
                0x000000000802da88       0x10 ././lvgl/src/lv_core/lv_group.o
                0x000000000802da88                lv_group_set_wrap
 .text.lv_group_mod_style
                0x000000000802da98       0x30 ././lvgl/src/lv_core/lv_group.o
                0x000000000802da98                lv_group_mod_style
 .text.lv_group_get_focused
                0x000000000802dac8        0xc ././lvgl/src/lv_core/lv_group.o
                0x000000000802dac8                lv_group_get_focused
 .text.lv_group_get_style_mod_cb
                0x000000000802dad4        0x8 ././lvgl/src/lv_core/lv_group.o
                0x000000000802dad4                lv_group_get_style_mod_cb
 .text.lv_group_get_style_mod_edit_cb
                0x000000000802dadc        0x8 ././lvgl/src/lv_core/lv_group.o
                0x000000000802dadc                lv_group_get_style_mod_edit_cb
 .text.lv_group_get_focus_cb
                0x000000000802dae4        0x8 ././lvgl/src/lv_core/lv_group.o
                0x000000000802dae4                lv_group_get_focus_cb
 .text.lv_group_get_editing
                0x000000000802daec        0xc ././lvgl/src/lv_core/lv_group.o
                0x000000000802daec                lv_group_get_editing
 .text.lv_group_get_click_focus
                0x000000000802daf8        0xc ././lvgl/src/lv_core/lv_group.o
                0x000000000802daf8                lv_group_get_click_focus
 .text.lv_group_get_wrap
                0x000000000802db04        0xc ././lvgl/src/lv_core/lv_group.o
                0x000000000802db04                lv_group_get_wrap
 .text.lv_group_report_style_mod
                0x000000000802db10       0x7c ././lvgl/src/lv_core/lv_group.o
                0x000000000802db10                lv_group_report_style_mod
 .text          0x000000000802db8c        0x0 ././lvgl/src/lv_objx/lv_spinbox.o
 .text.lv_spinbox_updatevalue
                0x000000000802db8c      0x188 ././lvgl/src/lv_objx/lv_spinbox.o
 .text.lv_spinbox_set_value
                0x000000000802dd14       0x44 ././lvgl/src/lv_objx/lv_spinbox.o
                0x000000000802dd14                lv_spinbox_set_value
 .text.lv_spinbox_set_digit_format
                0x000000000802dd58       0x50 ././lvgl/src/lv_objx/lv_spinbox.o
                0x000000000802dd58                lv_spinbox_set_digit_format
 .text.lv_spinbox_set_step
                0x000000000802dda8       0x28 ././lvgl/src/lv_objx/lv_spinbox.o
                0x000000000802dda8                lv_spinbox_set_step
 .text.lv_spinbox_set_range
                0x000000000802ddd0       0x54 ././lvgl/src/lv_objx/lv_spinbox.o
                0x000000000802ddd0                lv_spinbox_set_range
 .text.lv_spinbox_create
                0x000000000802de24      0x158 ././lvgl/src/lv_objx/lv_spinbox.o
                0x000000000802de24                lv_spinbox_create
 .text.lv_spinbox_set_padding_left
                0x000000000802df7c       0x3c ././lvgl/src/lv_objx/lv_spinbox.o
                0x000000000802df7c                lv_spinbox_set_padding_left
 .text.lv_spinbox_get_value
                0x000000000802dfb8       0x24 ././lvgl/src/lv_objx/lv_spinbox.o
                0x000000000802dfb8                lv_spinbox_get_value
 .text.lv_spinbox_step_next
                0x000000000802dfdc       0x50 ././lvgl/src/lv_objx/lv_spinbox.o
                0x000000000802dfdc                lv_spinbox_step_next
 .text.lv_spinbox_step_prev
                0x000000000802e02c       0x4c ././lvgl/src/lv_objx/lv_spinbox.o
                0x000000000802e02c                lv_spinbox_step_prev
 .text.lv_spinbox_increment
                0x000000000802e078       0x50 ././lvgl/src/lv_objx/lv_spinbox.o
                0x000000000802e078                lv_spinbox_increment
 .text.lv_spinbox_decrement
                0x000000000802e0c8       0x54 ././lvgl/src/lv_objx/lv_spinbox.o
                0x000000000802e0c8                lv_spinbox_decrement
 .text.lv_spinbox_signal
                0x000000000802e11c       0xf8 ././lvgl/src/lv_objx/lv_spinbox.o
 .text          0x000000000802e214        0x0 ././lvgl/src/lv_objx/lv_roller.o
 .text.refr_height
                0x000000000802e214       0x6c ././lvgl/src/lv_objx/lv_roller.o
 .text.refr_position.isra.3
                0x000000000802e280       0xe4 ././lvgl/src/lv_objx/lv_roller.o
 .text.lv_roller_scrl_signal
                0x000000000802e364      0x108 ././lvgl/src/lv_objx/lv_roller.o
 .text.lv_roller_set_align
                0x000000000802e46c       0x74 ././lvgl/src/lv_objx/lv_roller.o
                0x000000000802e46c                lv_roller_set_align
 .text.lv_roller_set_visible_row_count
                0x000000000802e4e0       0x50 ././lvgl/src/lv_objx/lv_roller.o
                0x000000000802e4e0                lv_roller_set_visible_row_count
 .text.lv_roller_set_style
                0x000000000802e530       0x40 ././lvgl/src/lv_objx/lv_roller.o
                0x000000000802e530                lv_roller_set_style
 .text.lv_roller_create
                0x000000000802e570      0x174 ././lvgl/src/lv_objx/lv_roller.o
                0x000000000802e570                lv_roller_create
 .text.lv_roller_get_selected
                0x000000000802e6e4       0x5c ././lvgl/src/lv_objx/lv_roller.o
                0x000000000802e6e4                lv_roller_get_selected
 .text.lv_roller_set_selected
                0x000000000802e740       0x3c ././lvgl/src/lv_objx/lv_roller.o
                0x000000000802e740                lv_roller_set_selected
 .text.lv_roller_signal
                0x000000000802e77c      0x12c ././lvgl/src/lv_objx/lv_roller.o
 .text.lv_roller_set_options
                0x000000000802e8a8       0xdc ././lvgl/src/lv_objx/lv_roller.o
                0x000000000802e8a8                lv_roller_set_options
 .text.lv_roller_get_align
                0x000000000802e984       0x58 ././lvgl/src/lv_objx/lv_roller.o
                0x000000000802e984                lv_roller_get_align
 .text.lv_roller_get_hor_fit
                0x000000000802e9dc       0x2c ././lvgl/src/lv_objx/lv_roller.o
                0x000000000802e9dc                lv_roller_get_hor_fit
 .text.lv_roller_get_style
                0x000000000802ea08       0x3c ././lvgl/src/lv_objx/lv_roller.o
                0x000000000802ea08                lv_roller_get_style
 .text.lv_roller_design
                0x000000000802ea44      0x320 ././lvgl/src/lv_objx/lv_roller.o
 .text          0x000000000802ed64        0x0 ././lvgl/src/lv_objx/lv_led.o
 .text.lv_led_signal
                0x000000000802ed64       0x38 ././lvgl/src/lv_objx/lv_led.o
 .text.lv_led_design
                0x000000000802ed9c      0x17c ././lvgl/src/lv_objx/lv_led.o
 .text.lv_led_create
                0x000000000802ef18       0xd8 ././lvgl/src/lv_objx/lv_led.o
                0x000000000802ef18                lv_led_create
 .text.lv_led_set_bright
                0x000000000802eff0       0x38 ././lvgl/src/lv_objx/lv_led.o
                0x000000000802eff0                lv_led_set_bright
 .text.lv_led_on
                0x000000000802f028       0x28 ././lvgl/src/lv_objx/lv_led.o
                0x000000000802f028                lv_led_on
 .text.lv_led_off
                0x000000000802f050       0x28 ././lvgl/src/lv_objx/lv_led.o
                0x000000000802f050                lv_led_off
 .text.lv_led_get_bright
                0x000000000802f078       0x24 ././lvgl/src/lv_objx/lv_led.o
                0x000000000802f078                lv_led_get_bright
 .text.lv_led_toggle
                0x000000000802f09c       0x38 ././lvgl/src/lv_objx/lv_led.o
                0x000000000802f09c                lv_led_toggle
 .text          0x000000000802f0d4        0x0 ././lvgl/src/lv_objx/lv_img.o
 .text.lv_img_design
                0x000000000802f0d4      0x178 ././lvgl/src/lv_objx/lv_img.o
 .text.lv_img_set_auto_size
                0x000000000802f24c       0x2c ././lvgl/src/lv_objx/lv_img.o
                0x000000000802f24c                lv_img_set_auto_size
 .text.lv_img_set_offset_x
                0x000000000802f278       0x3c ././lvgl/src/lv_objx/lv_img.o
                0x000000000802f278                lv_img_set_offset_x
 .text.lv_img_set_offset_y
                0x000000000802f2b4       0x3c ././lvgl/src/lv_objx/lv_img.o
                0x000000000802f2b4                lv_img_set_offset_y
 .text.lv_img_get_src
                0x000000000802f2f0       0x24 ././lvgl/src/lv_objx/lv_img.o
                0x000000000802f2f0                lv_img_get_src
 .text.lv_img_get_file_name
                0x000000000802f314       0x34 ././lvgl/src/lv_objx/lv_img.o
                0x000000000802f314                lv_img_get_file_name
 .text.lv_img_get_auto_size
                0x000000000802f348       0x28 ././lvgl/src/lv_objx/lv_img.o
                0x000000000802f348                lv_img_get_auto_size
 .text.lv_img_set_src
                0x000000000802f370      0x188 ././lvgl/src/lv_objx/lv_img.o
                0x000000000802f370                lv_img_set_src
 .text.lv_img_create
                0x000000000802f4f8      0x10c ././lvgl/src/lv_objx/lv_img.o
                0x000000000802f4f8                lv_img_create
 .text.lv_img_signal
                0x000000000802f604       0x70 ././lvgl/src/lv_objx/lv_img.o
 .text.lv_img_get_offset_x
                0x000000000802f674       0x28 ././lvgl/src/lv_objx/lv_img.o
                0x000000000802f674                lv_img_get_offset_x
 .text.lv_img_get_offset_y
                0x000000000802f69c       0x28 ././lvgl/src/lv_objx/lv_img.o
                0x000000000802f69c                lv_img_get_offset_y
 .text          0x000000000802f6c4        0x0 ././lvgl/src/lv_objx/lv_imgbtn.o
 .text.refr_img
                0x000000000802f6c4       0xb8 ././lvgl/src/lv_objx/lv_imgbtn.o
 .text.lv_imgbtn_signal
                0x000000000802f77c       0x3c ././lvgl/src/lv_objx/lv_imgbtn.o
 .text.lv_imgbtn_create
                0x000000000802f7b8       0xd0 ././lvgl/src/lv_objx/lv_imgbtn.o
                0x000000000802f7b8                lv_imgbtn_create
 .text.lv_imgbtn_set_src
                0x000000000802f888       0x34 ././lvgl/src/lv_objx/lv_imgbtn.o
                0x000000000802f888                lv_imgbtn_set_src
 .text.lv_imgbtn_set_style
                0x000000000802f8bc       0x2c ././lvgl/src/lv_objx/lv_imgbtn.o
                0x000000000802f8bc                lv_imgbtn_set_style
 .text.lv_imgbtn_get_src
                0x000000000802f8e8       0x2c ././lvgl/src/lv_objx/lv_imgbtn.o
                0x000000000802f8e8                lv_imgbtn_get_src
 .text.lv_imgbtn_get_style
                0x000000000802f914       0x28 ././lvgl/src/lv_objx/lv_imgbtn.o
                0x000000000802f914                lv_imgbtn_get_style
 .text.lv_imgbtn_design
                0x000000000802f93c       0xac ././lvgl/src/lv_objx/lv_imgbtn.o
 .text          0x000000000802f9e8        0x0 ././lvgl/src/lv_objx/lv_lmeter.o
 .text.lv_lmeter_design
                0x000000000802f9e8      0x294 ././lvgl/src/lv_objx/lv_lmeter.o
 .text.lv_lmeter_signal
                0x000000000802fc7c       0x5c ././lvgl/src/lv_objx/lv_lmeter.o
 .text.lv_lmeter_create
                0x000000000802fcd8       0xe4 ././lvgl/src/lv_objx/lv_lmeter.o
                0x000000000802fcd8                lv_lmeter_create
 .text.lv_lmeter_set_value
                0x000000000802fdbc       0x50 ././lvgl/src/lv_objx/lv_lmeter.o
                0x000000000802fdbc                lv_lmeter_set_value
 .text.lv_lmeter_set_range
                0x000000000802fe0c       0x78 ././lvgl/src/lv_objx/lv_lmeter.o
                0x000000000802fe0c                lv_lmeter_set_range
 .text.lv_lmeter_set_scale
                0x000000000802fe84       0x40 ././lvgl/src/lv_objx/lv_lmeter.o
                0x000000000802fe84                lv_lmeter_set_scale
 .text.lv_lmeter_set_angle_offset
                0x000000000802fec4       0x20 ././lvgl/src/lv_objx/lv_lmeter.o
                0x000000000802fec4                lv_lmeter_set_angle_offset
 .text.lv_lmeter_get_value
                0x000000000802fee4       0x28 ././lvgl/src/lv_objx/lv_lmeter.o
                0x000000000802fee4                lv_lmeter_get_value
 .text.lv_lmeter_get_min_value
                0x000000000802ff0c       0x28 ././lvgl/src/lv_objx/lv_lmeter.o
                0x000000000802ff0c                lv_lmeter_get_min_value
 .text.lv_lmeter_get_max_value
                0x000000000802ff34       0x28 ././lvgl/src/lv_objx/lv_lmeter.o
                0x000000000802ff34                lv_lmeter_get_max_value
 .text.lv_lmeter_get_line_count
                0x000000000802ff5c       0x24 ././lvgl/src/lv_objx/lv_lmeter.o
                0x000000000802ff5c                lv_lmeter_get_line_count
 .text.lv_lmeter_get_scale_angle
                0x000000000802ff80       0x24 ././lvgl/src/lv_objx/lv_lmeter.o
                0x000000000802ff80                lv_lmeter_get_scale_angle
 .text.lv_lmeter_get_angle_offset
                0x000000000802ffa4        0xc ././lvgl/src/lv_objx/lv_lmeter.o
                0x000000000802ffa4                lv_lmeter_get_angle_offset
 .text          0x000000000802ffb0        0x0 ././lvgl/src/lv_objx/lv_kb.o
 .text          0x000000000802ffb0        0x0 ././lvgl/src/lv_objx/lv_arc.o
 .text.lv_arc_signal
                0x000000000802ffb0       0x2c ././lvgl/src/lv_objx/lv_arc.o
 .text.lv_arc_set_angles
                0x000000000802ffdc       0x48 ././lvgl/src/lv_objx/lv_arc.o
                0x000000000802ffdc                lv_arc_set_angles
 .text.lv_arc_set_style
                0x0000000008030024       0x30 ././lvgl/src/lv_objx/lv_arc.o
                0x0000000008030024                lv_arc_set_style
 .text.lv_arc_create
                0x0000000008030054       0xdc ././lvgl/src/lv_objx/lv_arc.o
                0x0000000008030054                lv_arc_create
 .text.lv_arc_get_angle_start
                0x0000000008030130       0x24 ././lvgl/src/lv_objx/lv_arc.o
                0x0000000008030130                lv_arc_get_angle_start
 .text.lv_arc_get_angle_end
                0x0000000008030154       0x24 ././lvgl/src/lv_objx/lv_arc.o
                0x0000000008030154                lv_arc_get_angle_end
 .text.lv_arc_get_style
                0x0000000008030178       0x2c ././lvgl/src/lv_objx/lv_arc.o
                0x0000000008030178                lv_arc_get_style
 .text.lv_arc_design
                0x00000000080301a4      0x198 ././lvgl/src/lv_objx/lv_arc.o
 .text          0x000000000803033c        0x0 ././lvgl/src/lv_objx/lv_bar.o
 .text.lv_bar_set_value
                0x000000000803033c       0x50 ././lvgl/src/lv_objx/lv_bar.o
                0x000000000803033c                lv_bar_set_value
 .text.lv_bar_set_range
                0x000000000803038c       0x7c ././lvgl/src/lv_objx/lv_bar.o
                0x000000000803038c                lv_bar_set_range
 .text.lv_bar_set_sym
                0x0000000008030408       0x2c ././lvgl/src/lv_objx/lv_bar.o
                0x0000000008030408                lv_bar_set_sym
 .text.lv_bar_set_anim_time
                0x0000000008030434       0x1c ././lvgl/src/lv_objx/lv_bar.o
                0x0000000008030434                lv_bar_set_anim_time
 .text.lv_bar_set_style
                0x0000000008030450       0x44 ././lvgl/src/lv_objx/lv_bar.o
                0x0000000008030450                lv_bar_set_style
 .text.lv_bar_create
                0x0000000008030494      0x13c ././lvgl/src/lv_objx/lv_bar.o
                0x0000000008030494                lv_bar_create
 .text.lv_bar_get_value
                0x00000000080305d0       0x28 ././lvgl/src/lv_objx/lv_bar.o
                0x00000000080305d0                lv_bar_get_value
 .text.lv_bar_get_min_value
                0x00000000080305f8       0x28 ././lvgl/src/lv_objx/lv_bar.o
                0x00000000080305f8                lv_bar_get_min_value
 .text.lv_bar_get_max_value
                0x0000000008030620       0x28 ././lvgl/src/lv_objx/lv_bar.o
                0x0000000008030620                lv_bar_get_max_value
 .text.lv_bar_get_sym
                0x0000000008030648       0x28 ././lvgl/src/lv_objx/lv_bar.o
                0x0000000008030648                lv_bar_get_sym
 .text.lv_bar_get_anim_time
                0x0000000008030670       0x20 ././lvgl/src/lv_objx/lv_bar.o
                0x0000000008030670                lv_bar_get_anim_time
 .text.lv_bar_get_style
                0x0000000008030690       0x3c ././lvgl/src/lv_objx/lv_bar.o
                0x0000000008030690                lv_bar_get_style
 .text.lv_bar_design
                0x00000000080306cc      0x1f8 ././lvgl/src/lv_objx/lv_bar.o
 .text.lv_bar_signal
                0x00000000080308c4       0x4c ././lvgl/src/lv_objx/lv_bar.o
 .text          0x0000000008030910        0x0 ././lvgl/src/lv_objx/lv_tabview.o
 .text.tabpage_pressing_handler
                0x0000000008030910      0x16c ././lvgl/src/lv_objx/lv_tabview.o
 .text.tabpage_pressed_handler.isra.3
                0x0000000008030a7c       0x18 ././lvgl/src/lv_objx/lv_tabview.o
 .text.lv_tabview_clean
                0x0000000008030a94       0x28 ././lvgl/src/lv_objx/lv_tabview.o
                0x0000000008030a94                lv_tabview_clean
 .text.lv_tabview_set_sliding
                0x0000000008030abc       0x2c ././lvgl/src/lv_objx/lv_tabview.o
                0x0000000008030abc                lv_tabview_set_sliding
 .text.lv_tabview_set_anim_time
                0x0000000008030ae8       0x1c ././lvgl/src/lv_objx/lv_tabview.o
                0x0000000008030ae8                lv_tabview_set_anim_time
 .text.lv_tabview_get_tab_act
                0x0000000008030b04       0x24 ././lvgl/src/lv_objx/lv_tabview.o
                0x0000000008030b04                lv_tabview_get_tab_act
 .text.lv_tabview_get_tab_count
                0x0000000008030b28       0x24 ././lvgl/src/lv_objx/lv_tabview.o
                0x0000000008030b28                lv_tabview_get_tab_count
 .text.lv_tabview_get_tab
                0x0000000008030b4c       0x4c ././lvgl/src/lv_objx/lv_tabview.o
                0x0000000008030b4c                lv_tabview_get_tab
 .text.lv_tabview_get_sliding
                0x0000000008030b98       0x28 ././lvgl/src/lv_objx/lv_tabview.o
                0x0000000008030b98                lv_tabview_get_sliding
 .text.lv_tabview_get_anim_time
                0x0000000008030bc0       0x20 ././lvgl/src/lv_objx/lv_tabview.o
                0x0000000008030bc0                lv_tabview_get_anim_time
 .text.lv_tabview_get_style
                0x0000000008030be0       0x7c ././lvgl/src/lv_objx/lv_tabview.o
                0x0000000008030be0                lv_tabview_get_style
 .text.lv_tabview_set_tab_act
                0x0000000008030c5c      0x160 ././lvgl/src/lv_objx/lv_tabview.o
                0x0000000008030c5c                lv_tabview_set_tab_act
 .text.tab_btnm_event_cb
                0x0000000008030dbc       0x60 ././lvgl/src/lv_objx/lv_tabview.o
 .text.tabpage_press_lost_handler
                0x0000000008030e1c      0x108 ././lvgl/src/lv_objx/lv_tabview.o
 .text.tabpage_signal
                0x0000000008030f24       0x6c ././lvgl/src/lv_objx/lv_tabview.o
 .text.tabpage_scrl_signal
                0x0000000008030f90       0x74 ././lvgl/src/lv_objx/lv_tabview.o
 .text.tabview_realign
                0x0000000008031004      0x3ac ././lvgl/src/lv_objx/lv_tabview.o
 .text.lv_tabview_signal
                0x00000000080313b0      0x140 ././lvgl/src/lv_objx/lv_tabview.o
 .text.lv_tabview_set_style
                0x00000000080314f0       0xc4 ././lvgl/src/lv_objx/lv_tabview.o
                0x00000000080314f0                lv_tabview_set_style
 .text.lv_tabview_set_btns_pos
                0x00000000080315b4       0x38 ././lvgl/src/lv_objx/lv_tabview.o
                0x00000000080315b4                lv_tabview_set_btns_pos
 .text.lv_tabview_set_btns_hidden
                0x00000000080315ec       0x38 ././lvgl/src/lv_objx/lv_tabview.o
                0x00000000080315ec                lv_tabview_set_btns_hidden
 .text.lv_tabview_add_tab
                0x0000000008031624      0x274 ././lvgl/src/lv_objx/lv_tabview.o
                0x0000000008031624                lv_tabview_add_tab
 .text.lv_tabview_create
                0x0000000008031898      0x2ec ././lvgl/src/lv_objx/lv_tabview.o
                0x0000000008031898                lv_tabview_create
 .text.lv_tabview_get_btns_pos
                0x0000000008031b84       0x28 ././lvgl/src/lv_objx/lv_tabview.o
                0x0000000008031b84                lv_tabview_get_btns_pos
 .text.lv_tabview_get_btns_hidden
                0x0000000008031bac       0x28 ././lvgl/src/lv_objx/lv_tabview.o
                0x0000000008031bac                lv_tabview_get_btns_hidden
 .text          0x0000000008031bd4        0x0 ././lvgl/src/lv_objx/lv_chart.o
 .text          0x0000000008031bd4        0x0 ././lvgl/src/lv_objx/lv_mbox.o
 .text.lv_mbox_btnm_event_cb
                0x0000000008031bd4       0x28 ././lvgl/src/lv_objx/lv_mbox.o
 .text.lv_mbox_set_anim_time
                0x0000000008031bfc       0x1c ././lvgl/src/lv_objx/lv_mbox.o
                0x0000000008031bfc                lv_mbox_set_anim_time
 .text.lv_mbox_start_auto_close
                0x0000000008031c18       0x24 ././lvgl/src/lv_objx/lv_mbox.o
                0x0000000008031c18                lv_mbox_start_auto_close
 .text.lv_mbox_stop_auto_close
                0x0000000008031c3c       0x1c ././lvgl/src/lv_objx/lv_mbox.o
                0x0000000008031c3c                lv_mbox_stop_auto_close
 .text.lv_mbox_set_recolor
                0x0000000008031c58       0x34 ././lvgl/src/lv_objx/lv_mbox.o
                0x0000000008031c58                lv_mbox_set_recolor
 .text.lv_mbox_get_text
                0x0000000008031c8c       0x2c ././lvgl/src/lv_objx/lv_mbox.o
                0x0000000008031c8c                lv_mbox_get_text
 .text.lv_mbox_get_active_btn
                0x0000000008031cb8       0x34 ././lvgl/src/lv_objx/lv_mbox.o
                0x0000000008031cb8                lv_mbox_get_active_btn
 .text.lv_mbox_default_event_cb
                0x0000000008031cec       0x24 ././lvgl/src/lv_objx/lv_mbox.o
 .text.lv_mbox_get_active_btn_text
                0x0000000008031d10       0x30 ././lvgl/src/lv_objx/lv_mbox.o
                0x0000000008031d10                lv_mbox_get_active_btn_text
 .text.lv_mbox_get_anim_time
                0x0000000008031d40       0x20 ././lvgl/src/lv_objx/lv_mbox.o
                0x0000000008031d40                lv_mbox_get_anim_time
 .text.lv_mbox_get_style
                0x0000000008031d60       0x88 ././lvgl/src/lv_objx/lv_mbox.o
                0x0000000008031d60                lv_mbox_get_style
 .text.mbox_realign
                0x0000000008031de8       0x6c ././lvgl/src/lv_objx/lv_mbox.o
 .text.lv_mbox_signal
                0x0000000008031e54      0x12c ././lvgl/src/lv_objx/lv_mbox.o
 .text.lv_mbox_set_text
                0x0000000008031f80       0x48 ././lvgl/src/lv_objx/lv_mbox.o
                0x0000000008031f80                lv_mbox_set_text
 .text.lv_mbox_set_style
                0x0000000008031fc8       0x90 ././lvgl/src/lv_objx/lv_mbox.o
                0x0000000008031fc8                lv_mbox_set_style
 .text.lv_mbox_create
                0x0000000008032058      0x124 ././lvgl/src/lv_objx/lv_mbox.o
                0x0000000008032058                lv_mbox_create
 .text.lv_mbox_add_btns
                0x000000000803217c       0xb4 ././lvgl/src/lv_objx/lv_mbox.o
                0x000000000803217c                lv_mbox_add_btns
 .text.lv_mbox_get_recolor
                0x0000000008032230       0x30 ././lvgl/src/lv_objx/lv_mbox.o
                0x0000000008032230                lv_mbox_get_recolor
 .text.lv_mbox_get_btnm
                0x0000000008032260       0x24 ././lvgl/src/lv_objx/lv_mbox.o
                0x0000000008032260                lv_mbox_get_btnm
 .text          0x0000000008032284        0x0 ././lvgl/src/lv_objx/lv_calendar.o
 .text          0x0000000008032284        0x0 ././lvgl/src/lv_objx/lv_slider.o
 .text.lv_slider_set_knob_in
                0x0000000008032284       0x40 ././lvgl/src/lv_objx/lv_slider.o
                0x0000000008032284                lv_slider_set_knob_in
 .text.lv_slider_set_style
                0x00000000080322c4       0x58 ././lvgl/src/lv_objx/lv_slider.o
                0x00000000080322c4                lv_slider_set_style
 .text.lv_slider_create
                0x000000000803231c      0x110 ././lvgl/src/lv_objx/lv_slider.o
                0x000000000803231c                lv_slider_create
 .text.lv_slider_get_value
                0x000000000803242c       0x38 ././lvgl/src/lv_objx/lv_slider.o
                0x000000000803242c                lv_slider_get_value
 .text.lv_slider_is_dragged
                0x0000000008032464       0x30 ././lvgl/src/lv_objx/lv_slider.o
                0x0000000008032464                lv_slider_is_dragged
 .text.lv_slider_get_knob_in
                0x0000000008032494       0x28 ././lvgl/src/lv_objx/lv_slider.o
                0x0000000008032494                lv_slider_get_knob_in
 .text.lv_slider_get_style
                0x00000000080324bc       0x44 ././lvgl/src/lv_objx/lv_slider.o
                0x00000000080324bc                lv_slider_get_style
 .text.lv_slider_design
                0x0000000008032500      0x4a8 ././lvgl/src/lv_objx/lv_slider.o
 .text.lv_slider_signal
                0x00000000080329a8      0x26c ././lvgl/src/lv_objx/lv_slider.o
 .text          0x0000000008032c14        0x0 ././lvgl/src/lv_objx/lv_gauge.o
 .text.lv_gauge_design
                0x0000000008032c14      0x490 ././lvgl/src/lv_objx/lv_gauge.o
 .text.lv_gauge_signal
                0x00000000080330a4       0x48 ././lvgl/src/lv_objx/lv_gauge.o
 .text.lv_gauge_set_needle_count
                0x00000000080330ec       0x98 ././lvgl/src/lv_objx/lv_gauge.o
                0x00000000080330ec                lv_gauge_set_needle_count
 .text.lv_gauge_set_value
                0x0000000008033184       0x6c ././lvgl/src/lv_objx/lv_gauge.o
                0x0000000008033184                lv_gauge_set_value
 .text.lv_gauge_set_scale
                0x00000000080331f0       0x3c ././lvgl/src/lv_objx/lv_gauge.o
                0x00000000080331f0                lv_gauge_set_scale
 .text.lv_gauge_create
                0x000000000803322c      0x124 ././lvgl/src/lv_objx/lv_gauge.o
                0x000000000803322c                lv_gauge_create
 .text.lv_gauge_get_value
                0x0000000008033350       0x38 ././lvgl/src/lv_objx/lv_gauge.o
                0x0000000008033350                lv_gauge_get_value
 .text.lv_gauge_get_needle_count
                0x0000000008033388       0x24 ././lvgl/src/lv_objx/lv_gauge.o
                0x0000000008033388                lv_gauge_get_needle_count
 .text.lv_gauge_get_label_count
                0x00000000080333ac       0x24 ././lvgl/src/lv_objx/lv_gauge.o
                0x00000000080333ac                lv_gauge_get_label_count
 .text          0x00000000080333d0        0x0 ././lvgl/src/lv_objx/lv_win.o
 .text.lv_win_clean
                0x00000000080333d0       0x28 ././lvgl/src/lv_objx/lv_win.o
                0x00000000080333d0                lv_win_clean
 .text.lv_win_set_content_size
                0x00000000080333f8       0x3c ././lvgl/src/lv_objx/lv_win.o
                0x00000000080333f8                lv_win_set_content_size
 .text.lv_win_set_layout
                0x0000000008033434       0x34 ././lvgl/src/lv_objx/lv_win.o
                0x0000000008033434                lv_win_set_layout
 .text.lv_win_set_sb_mode
                0x0000000008033468       0x30 ././lvgl/src/lv_objx/lv_win.o
                0x0000000008033468                lv_win_set_sb_mode
 .text.lv_win_set_drag
                0x0000000008033498       0x38 ././lvgl/src/lv_objx/lv_win.o
                0x0000000008033498                lv_win_set_drag
 .text.lv_win_get_title
                0x00000000080334d0       0x2c ././lvgl/src/lv_objx/lv_win.o
                0x00000000080334d0                lv_win_get_title
 .text.lv_win_get_content
                0x00000000080334fc       0x24 ././lvgl/src/lv_objx/lv_win.o
                0x00000000080334fc                lv_win_get_content
 .text.lv_win_set_anim_time
                0x0000000008033520       0x2c ././lvgl/src/lv_objx/lv_win.o
                0x0000000008033520                lv_win_set_anim_time
 .text.lv_win_get_btn_size
                0x000000000803354c       0x28 ././lvgl/src/lv_objx/lv_win.o
                0x000000000803354c                lv_win_get_btn_size
 .text.lv_win_get_from_btn
                0x0000000008033574       0x28 ././lvgl/src/lv_objx/lv_win.o
                0x0000000008033574                lv_win_get_from_btn
 .text.lv_win_close_event_cb
                0x000000000803359c       0x30 ././lvgl/src/lv_objx/lv_win.o
                0x000000000803359c                lv_win_close_event_cb
 .text.lv_win_get_layout
                0x00000000080335cc       0x30 ././lvgl/src/lv_objx/lv_win.o
                0x00000000080335cc                lv_win_get_layout
 .text.lv_win_get_sb_mode
                0x00000000080335fc       0x2c ././lvgl/src/lv_objx/lv_win.o
                0x00000000080335fc                lv_win_get_sb_mode
 .text.lv_win_get_anim_time
                0x0000000008033628       0x28 ././lvgl/src/lv_objx/lv_win.o
                0x0000000008033628                lv_win_get_anim_time
 .text.lv_win_get_width
                0x0000000008033650       0x40 ././lvgl/src/lv_objx/lv_win.o
                0x0000000008033650                lv_win_get_width
 .text.lv_win_get_style
                0x0000000008033690       0x68 ././lvgl/src/lv_objx/lv_win.o
                0x0000000008033690                lv_win_get_style
 .text.lv_win_realign
                0x00000000080336f8      0x110 ././lvgl/src/lv_objx/lv_win.o
 .text.lv_win_signal
                0x0000000008033808       0xd4 ././lvgl/src/lv_objx/lv_win.o
 .text.lv_win_add_btn
                0x00000000080338dc       0x84 ././lvgl/src/lv_objx/lv_win.o
                0x00000000080338dc                lv_win_add_btn
 .text.lv_win_set_title
                0x0000000008033960       0x48 ././lvgl/src/lv_objx/lv_win.o
                0x0000000008033960                lv_win_set_title
 .text.lv_win_set_btn_size
                0x00000000080339a8       0x38 ././lvgl/src/lv_objx/lv_win.o
                0x00000000080339a8                lv_win_set_btn_size
 .text.lv_win_set_style
                0x00000000080339e0       0xb0 ././lvgl/src/lv_objx/lv_win.o
                0x00000000080339e0                lv_win_set_style
 .text.lv_win_create
                0x0000000008033a90      0x22c ././lvgl/src/lv_objx/lv_win.o
                0x0000000008033a90                lv_win_create
 .text.lv_win_focus
                0x0000000008033cbc       0x48 ././lvgl/src/lv_objx/lv_win.o
                0x0000000008033cbc                lv_win_focus
 .text          0x0000000008033d04        0x0 ././lvgl/src/lv_objx/lv_cpicker.o
 .text.angle_to_mode_color
                0x0000000008033d04       0x74 ././lvgl/src/lv_objx/lv_cpicker.o
 .text.lv_cpicker_set_style
                0x0000000008033d78       0x44 ././lvgl/src/lv_objx/lv_cpicker.o
                0x0000000008033d78                lv_cpicker_set_style
 .text.lv_cpicker_set_color_mode_fixed
                0x0000000008033dbc       0x2c ././lvgl/src/lv_objx/lv_cpicker.o
                0x0000000008033dbc                lv_cpicker_set_color_mode_fixed
 .text.lv_cpicker_set_preview
                0x0000000008033de8       0x38 ././lvgl/src/lv_objx/lv_cpicker.o
                0x0000000008033de8                lv_cpicker_set_preview
 .text.lv_cpicker_get_color_mode
                0x0000000008033e20       0x28 ././lvgl/src/lv_objx/lv_cpicker.o
                0x0000000008033e20                lv_cpicker_get_color_mode
 .text.lv_cpicker_get_color_mode_fixed
                0x0000000008033e48       0x28 ././lvgl/src/lv_objx/lv_cpicker.o
                0x0000000008033e48                lv_cpicker_get_color_mode_fixed
 .text.lv_cpicker_get_style
                0x0000000008033e70       0x3c ././lvgl/src/lv_objx/lv_cpicker.o
                0x0000000008033e70                lv_cpicker_get_style
 .text.get_indic_area
                0x0000000008033eac       0x80 ././lvgl/src/lv_objx/lv_cpicker.o
 .text.invalidate_indic
                0x0000000008033f2c       0x1c ././lvgl/src/lv_objx/lv_cpicker.o
 .text.lv_cpicker_set_indic_colored
                0x0000000008033f48       0x38 ././lvgl/src/lv_objx/lv_cpicker.o
                0x0000000008033f48                lv_cpicker_set_indic_colored
 .text.refr_indic_pos
                0x0000000008033f80      0x12c ././lvgl/src/lv_objx/lv_cpicker.o
 .text.lv_cpicker_create
                0x00000000080340ac      0x158 ././lvgl/src/lv_objx/lv_cpicker.o
                0x00000000080340ac                lv_cpicker_create
 .text.next_color_mode
                0x0000000008034204       0x38 ././lvgl/src/lv_objx/lv_cpicker.o
 .text.lv_cpicker_set_type
                0x000000000803423c       0x4c ././lvgl/src/lv_objx/lv_cpicker.o
                0x000000000803423c                lv_cpicker_set_type
 .text.lv_cpicker_set_hsv
                0x0000000008034288       0xb4 ././lvgl/src/lv_objx/lv_cpicker.o
                0x0000000008034288                lv_cpicker_set_hsv
 .text.lv_cpicker_set_color
                0x000000000803433c       0x64 ././lvgl/src/lv_objx/lv_cpicker.o
                0x000000000803433c                lv_cpicker_set_color
 .text.lv_cpicker_set_color_mode
                0x00000000080343a0       0x3c ././lvgl/src/lv_objx/lv_cpicker.o
                0x00000000080343a0                lv_cpicker_set_color_mode
 .text.lv_cpicker_signal
                0x00000000080343dc      0x42c ././lvgl/src/lv_objx/lv_cpicker.o
 .text.lv_cpicker_get_hue
                0x0000000008034808       0x24 ././lvgl/src/lv_objx/lv_cpicker.o
                0x0000000008034808                lv_cpicker_get_hue
 .text.lv_cpicker_get_saturation
                0x000000000803482c       0x24 ././lvgl/src/lv_objx/lv_cpicker.o
                0x000000000803482c                lv_cpicker_get_saturation
 .text.lv_cpicker_get_value
                0x0000000008034850       0x24 ././lvgl/src/lv_objx/lv_cpicker.o
                0x0000000008034850                lv_cpicker_get_value
 .text.lv_cpicker_get_hsv
                0x0000000008034874       0x38 ././lvgl/src/lv_objx/lv_cpicker.o
                0x0000000008034874                lv_cpicker_get_hsv
 .text.lv_cpicker_set_hue
                0x00000000080348ac       0x20 ././lvgl/src/lv_objx/lv_cpicker.o
                0x00000000080348ac                lv_cpicker_set_hue
 .text.lv_cpicker_set_saturation
                0x00000000080348cc       0x20 ././lvgl/src/lv_objx/lv_cpicker.o
                0x00000000080348cc                lv_cpicker_set_saturation
 .text.lv_cpicker_set_value
                0x00000000080348ec       0x20 ././lvgl/src/lv_objx/lv_cpicker.o
                0x00000000080348ec                lv_cpicker_set_value
 .text.lv_cpicker_get_color
                0x000000000803490c       0x30 ././lvgl/src/lv_objx/lv_cpicker.o
                0x000000000803490c                lv_cpicker_get_color
 .text.lv_cpicker_design
                0x000000000803493c      0x534 ././lvgl/src/lv_objx/lv_cpicker.o
 .text.lv_cpicker_get_indic_colored
                0x0000000008034e70       0x28 ././lvgl/src/lv_objx/lv_cpicker.o
                0x0000000008034e70                lv_cpicker_get_indic_colored
 .text.lv_cpicker_get_preview
                0x0000000008034e98       0x28 ././lvgl/src/lv_objx/lv_cpicker.o
                0x0000000008034e98                lv_cpicker_get_preview
 .text          0x0000000008034ec0        0x0 ././lvgl/src/lv_objx/lv_line.o
 .text.lv_line_signal
                0x0000000008034ec0       0x4c ././lvgl/src/lv_objx/lv_line.o
 .text.lv_line_design
                0x0000000008034f0c      0x1a4 ././lvgl/src/lv_objx/lv_line.o
 .text.lv_line_set_points
                0x00000000080350b0       0x80 ././lvgl/src/lv_objx/lv_line.o
                0x00000000080350b0                lv_line_set_points
 .text.lv_line_set_auto_size
                0x0000000008035130       0x48 ././lvgl/src/lv_objx/lv_line.o
                0x0000000008035130                lv_line_set_auto_size
 .text.lv_line_set_y_invert
                0x0000000008035178       0x40 ././lvgl/src/lv_objx/lv_line.o
                0x0000000008035178                lv_line_set_y_invert
 .text.lv_line_get_auto_size
                0x00000000080351b8       0x28 ././lvgl/src/lv_objx/lv_line.o
                0x00000000080351b8                lv_line_get_auto_size
 .text.lv_line_get_y_invert
                0x00000000080351e0       0x28 ././lvgl/src/lv_objx/lv_line.o
                0x00000000080351e0                lv_line_get_y_invert
 .text.lv_line_create
                0x0000000008035208       0xf4 ././lvgl/src/lv_objx/lv_line.o
                0x0000000008035208                lv_line_create
 .text          0x00000000080352fc        0x0 ././lvgl/src/lv_objx/lv_cont.o
 .text.lv_cont_refr_autofit
                0x00000000080352fc      0x318 ././lvgl/src/lv_objx/lv_cont.o
 .text.lv_cont_create
                0x0000000008035614       0xf4 ././lvgl/src/lv_objx/lv_cont.o
                0x0000000008035614                lv_cont_create
 .text.lv_cont_set_layout
                0x0000000008035708       0x44 ././lvgl/src/lv_objx/lv_cont.o
                0x0000000008035708                lv_cont_set_layout
 .text.lv_cont_set_fit4
                0x000000000803574c       0x80 ././lvgl/src/lv_objx/lv_cont.o
                0x000000000803574c                lv_cont_set_fit4
 .text.lv_cont_get_layout
                0x00000000080357cc       0x28 ././lvgl/src/lv_objx/lv_cont.o
                0x00000000080357cc                lv_cont_get_layout
 .text.lv_cont_refr_layout
                0x00000000080357f4      0x5f4 ././lvgl/src/lv_objx/lv_cont.o
 .text.lv_cont_signal
                0x0000000008035de8       0x84 ././lvgl/src/lv_objx/lv_cont.o
 .text.lv_cont_get_fit_left
                0x0000000008035e6c       0x28 ././lvgl/src/lv_objx/lv_cont.o
                0x0000000008035e6c                lv_cont_get_fit_left
 .text.lv_cont_get_fit_right
                0x0000000008035e94       0x28 ././lvgl/src/lv_objx/lv_cont.o
                0x0000000008035e94                lv_cont_get_fit_right
 .text.lv_cont_get_fit_top
                0x0000000008035ebc       0x28 ././lvgl/src/lv_objx/lv_cont.o
                0x0000000008035ebc                lv_cont_get_fit_top
 .text.lv_cont_get_fit_bottom
                0x0000000008035ee4       0x28 ././lvgl/src/lv_objx/lv_cont.o
                0x0000000008035ee4                lv_cont_get_fit_bottom
 .text          0x0000000008035f0c        0x0 ././lvgl/src/lv_objx/lv_tileview.o
 .text.lv_tileview_signal
                0x0000000008035f0c       0x2c ././lvgl/src/lv_objx/lv_tileview.o
 .text.lv_tileview_create
                0x0000000008035f38      0x1b0 ././lvgl/src/lv_objx/lv_tileview.o
                0x0000000008035f38                lv_tileview_create
 .text.lv_tileview_set_tile_act
                0x00000000080360e8       0x9c ././lvgl/src/lv_objx/lv_tileview.o
                0x00000000080360e8                lv_tileview_set_tile_act
 .text.tileview_scrl_event_cb
                0x0000000008036184      0x270 ././lvgl/src/lv_objx/lv_tileview.o
 .text.lv_tileview_add_element
                0x00000000080363f4       0x60 ././lvgl/src/lv_objx/lv_tileview.o
                0x00000000080363f4                lv_tileview_add_element
 .text.lv_tileview_set_valid_positions
                0x0000000008036454       0x84 ././lvgl/src/lv_objx/lv_tileview.o
                0x0000000008036454                lv_tileview_set_valid_positions
 .text.lv_tileview_set_style
                0x00000000080364d8       0x30 ././lvgl/src/lv_objx/lv_tileview.o
                0x00000000080364d8                lv_tileview_set_style
 .text.lv_tileview_get_style
                0x0000000008036508       0x2c ././lvgl/src/lv_objx/lv_tileview.o
                0x0000000008036508                lv_tileview_get_style
 .text.lv_tileview_scrl_signal
                0x0000000008036534      0x220 ././lvgl/src/lv_objx/lv_tileview.o
 .text          0x0000000008036754        0x0 ././lvgl/src/lv_objx/lv_canvas.o
 .text.lv_canvas_signal
                0x0000000008036754       0x2c ././lvgl/src/lv_objx/lv_canvas.o
 .text.lv_canvas_create
                0x0000000008036780       0xa4 ././lvgl/src/lv_objx/lv_canvas.o
                0x0000000008036780                lv_canvas_create
 .text.lv_canvas_set_buffer
                0x0000000008036824       0x84 ././lvgl/src/lv_objx/lv_canvas.o
                0x0000000008036824                lv_canvas_set_buffer
 .text.lv_canvas_set_px
                0x00000000080368a8       0x3c ././lvgl/src/lv_objx/lv_canvas.o
                0x00000000080368a8                lv_canvas_set_px
 .text.lv_canvas_set_palette
                0x00000000080368e4       0x38 ././lvgl/src/lv_objx/lv_canvas.o
                0x00000000080368e4                lv_canvas_set_palette
 .text.lv_canvas_set_style
                0x000000000803691c       0x30 ././lvgl/src/lv_objx/lv_canvas.o
                0x000000000803691c                lv_canvas_set_style
 .text.lv_canvas_get_img
                0x000000000803694c       0x24 ././lvgl/src/lv_objx/lv_canvas.o
                0x000000000803694c                lv_canvas_get_img
 .text.lv_canvas_get_style
                0x0000000008036970       0x2c ././lvgl/src/lv_objx/lv_canvas.o
                0x0000000008036970                lv_canvas_get_style
 .text.lv_canvas_get_px
                0x000000000803699c       0x44 ././lvgl/src/lv_objx/lv_canvas.o
                0x000000000803699c                lv_canvas_get_px
 .text.lv_canvas_copy_buf
                0x00000000080369e0       0xac ././lvgl/src/lv_objx/lv_canvas.o
                0x00000000080369e0                lv_canvas_copy_buf
 .text.lv_canvas_rotate
                0x0000000008036a8c      0x568 ././lvgl/src/lv_objx/lv_canvas.o
                0x0000000008036a8c                lv_canvas_rotate
 .text.lv_canvas_fill_bg
                0x0000000008036ff4       0x68 ././lvgl/src/lv_objx/lv_canvas.o
                0x0000000008036ff4                lv_canvas_fill_bg
 .text.lv_canvas_draw_rect
                0x000000000803705c      0x11c ././lvgl/src/lv_objx/lv_canvas.o
                0x000000000803705c                lv_canvas_draw_rect
 .text.lv_canvas_draw_text
                0x0000000008037178      0x118 ././lvgl/src/lv_objx/lv_canvas.o
                0x0000000008037178                lv_canvas_draw_text
 .text.lv_canvas_draw_img
                0x0000000008037290      0x10c ././lvgl/src/lv_objx/lv_canvas.o
                0x0000000008037290                lv_canvas_draw_img
 .text.lv_canvas_draw_line
                0x000000000803739c      0x1e4 ././lvgl/src/lv_objx/lv_canvas.o
                0x000000000803739c                lv_canvas_draw_line
 .text.lv_canvas_draw_polygon
                0x0000000008037580      0x108 ././lvgl/src/lv_objx/lv_canvas.o
                0x0000000008037580                lv_canvas_draw_polygon
 .text.lv_canvas_draw_arc
                0x0000000008037688      0x118 ././lvgl/src/lv_objx/lv_canvas.o
                0x0000000008037688                lv_canvas_draw_arc
 .text          0x00000000080377a0        0x0 ././lvgl/src/lv_objx/lv_objx_templ.o
 .text          0x00000000080377a0        0x0 ././lvgl/src/lv_objx/lv_label.o
 .text.lv_label_dot_tmp_free
                0x00000000080377a0       0x24 ././lvgl/src/lv_objx/lv_label.o
 .text.lv_label_revert_dots
                0x00000000080377c4       0x74 ././lvgl/src/lv_objx/lv_label.o
 .text.lv_label_set_dot_tmp
                0x0000000008037838       0x54 ././lvgl/src/lv_objx/lv_label.o
 .text.lv_label_get_text_sel_start.part.18
                0x000000000803788c       0x14 ././lvgl/src/lv_objx/lv_label.o
 .text.lv_label_set_align
                0x00000000080378a0       0x40 ././lvgl/src/lv_objx/lv_label.o
                0x00000000080378a0                lv_label_set_align
 .text.lv_label_set_body_draw
                0x00000000080378e0       0x44 ././lvgl/src/lv_objx/lv_label.o
                0x00000000080378e0                lv_label_set_body_draw
 .text.lv_label_set_anim_speed
                0x0000000008037924       0x1c ././lvgl/src/lv_objx/lv_label.o
                0x0000000008037924                lv_label_set_anim_speed
 .text.lv_label_set_text_sel_start
                0x0000000008037940        0x4 ././lvgl/src/lv_objx/lv_label.o
                0x0000000008037940                lv_label_set_text_sel_start
 .text.lv_label_set_text_sel_end
                0x0000000008037944        0x4 ././lvgl/src/lv_objx/lv_label.o
                0x0000000008037944                lv_label_set_text_sel_end
 .text.lv_label_get_text
                0x0000000008037948       0x24 ././lvgl/src/lv_objx/lv_label.o
                0x0000000008037948                lv_label_get_text
 .text.lv_label_get_long_mode
                0x000000000803796c       0x28 ././lvgl/src/lv_objx/lv_label.o
                0x000000000803796c                lv_label_get_long_mode
 .text.lv_label_get_align
                0x0000000008037994       0x30 ././lvgl/src/lv_objx/lv_label.o
                0x0000000008037994                lv_label_get_align
 .text.lv_label_design
                0x00000000080379c4      0x284 ././lvgl/src/lv_objx/lv_label.o
 .text.lv_label_get_recolor
                0x0000000008037c48       0x28 ././lvgl/src/lv_objx/lv_label.o
                0x0000000008037c48                lv_label_get_recolor
 .text.lv_label_get_body_draw
                0x0000000008037c70       0x28 ././lvgl/src/lv_objx/lv_label.o
                0x0000000008037c70                lv_label_get_body_draw
 .text.lv_label_get_anim_speed
                0x0000000008037c98       0x20 ././lvgl/src/lv_objx/lv_label.o
                0x0000000008037c98                lv_label_get_anim_speed
 .text.lv_label_get_letter_pos
                0x0000000008037cb8      0x1d4 ././lvgl/src/lv_objx/lv_label.o
                0x0000000008037cb8                lv_label_get_letter_pos
 .text.lv_label_get_letter_on
                0x0000000008037e8c      0x224 ././lvgl/src/lv_objx/lv_label.o
                0x0000000008037e8c                lv_label_get_letter_on
 .text.lv_label_refr_text
                0x00000000080380b0      0x1b0 ././lvgl/src/lv_objx/lv_label.o
 .text.lv_label_signal
                0x0000000008038260       0xdc ././lvgl/src/lv_objx/lv_label.o
 .text.lv_label_set_text
                0x000000000803833c       0xd0 ././lvgl/src/lv_objx/lv_label.o
                0x000000000803833c                lv_label_set_text
 .text.lv_label_set_text_fmt
                0x000000000803840c       0xcc ././lvgl/src/lv_objx/lv_label.o
                0x000000000803840c                lv_label_set_text_fmt
 .text.lv_label_set_array_text
                0x00000000080384d8       0x9c ././lvgl/src/lv_objx/lv_label.o
                0x00000000080384d8                lv_label_set_array_text
 .text.lv_label_set_static_text
                0x0000000008038574       0x4c ././lvgl/src/lv_objx/lv_label.o
                0x0000000008038574                lv_label_set_static_text
 .text.lv_label_set_long_mode
                0x00000000080385c0       0x68 ././lvgl/src/lv_objx/lv_label.o
                0x00000000080385c0                lv_label_set_long_mode
 .text.lv_label_set_recolor
                0x0000000008038628       0x40 ././lvgl/src/lv_objx/lv_label.o
                0x0000000008038628                lv_label_set_recolor
 .text.lv_label_create
                0x0000000008038668      0x1bc ././lvgl/src/lv_objx/lv_label.o
                0x0000000008038668                lv_label_create
 .text.lv_label_get_text_sel_start
                0x0000000008038824       0x18 ././lvgl/src/lv_objx/lv_label.o
                0x0000000008038824                lv_label_get_text_sel_start
 .text.lv_label_get_text_sel_end
                0x000000000803883c       0x18 ././lvgl/src/lv_objx/lv_label.o
                0x000000000803883c                lv_label_get_text_sel_end
 .text.lv_label_is_char_under_pos
                0x0000000008038854      0x22c ././lvgl/src/lv_objx/lv_label.o
                0x0000000008038854                lv_label_is_char_under_pos
 .text.lv_label_ins_text
                0x0000000008038a80       0xb4 ././lvgl/src/lv_objx/lv_label.o
                0x0000000008038a80                lv_label_ins_text
 .text.lv_label_cut_text
                0x0000000008038b34       0x4c ././lvgl/src/lv_objx/lv_label.o
                0x0000000008038b34                lv_label_cut_text
 .text          0x0000000008038b80        0x0 ././lvgl/src/lv_objx/lv_ddlist.o
 .text.lv_ddlist_pos_current_option
                0x0000000008038b80       0x64 ././lvgl/src/lv_objx/lv_ddlist.o
 .text.lv_ddlist_refr_size.isra.1
                0x0000000008038be4       0x78 ././lvgl/src/lv_objx/lv_ddlist.o
 .text.release_handler
                0x0000000008038c5c      0x15c ././lvgl/src/lv_objx/lv_ddlist.o
 .text.lv_ddlist_signal
                0x0000000008038db8      0x1c8 ././lvgl/src/lv_objx/lv_ddlist.o
 .text.lv_ddlist_refr_width
                0x0000000008038f80       0xe0 ././lvgl/src/lv_objx/lv_ddlist.o
 .text.lv_ddlist_set_options
                0x0000000008039060       0xc8 ././lvgl/src/lv_objx/lv_ddlist.o
                0x0000000008039060                lv_ddlist_set_options
 .text.lv_ddlist_set_selected
                0x0000000008039128       0x54 ././lvgl/src/lv_objx/lv_ddlist.o
                0x0000000008039128                lv_ddlist_set_selected
 .text.lv_ddlist_set_fix_height
                0x000000000803917c       0x38 ././lvgl/src/lv_objx/lv_ddlist.o
                0x000000000803917c                lv_ddlist_set_fix_height
 .text.lv_ddlist_set_fix_width
                0x00000000080391b4       0xc0 ././lvgl/src/lv_objx/lv_ddlist.o
                0x00000000080391b4                lv_ddlist_set_fix_width
 .text.lv_ddlist_set_draw_arrow
                0x0000000008039274       0x30 ././lvgl/src/lv_objx/lv_ddlist.o
                0x0000000008039274                lv_ddlist_set_draw_arrow
 .text.lv_ddlist_set_stay_open
                0x00000000080392a4       0x30 ././lvgl/src/lv_objx/lv_ddlist.o
                0x00000000080392a4                lv_ddlist_set_stay_open
 .text.lv_ddlist_set_style
                0x00000000080392d4       0x64 ././lvgl/src/lv_objx/lv_ddlist.o
                0x00000000080392d4                lv_ddlist_set_style
 .text.lv_ddlist_set_align
                0x0000000008039338       0x74 ././lvgl/src/lv_objx/lv_ddlist.o
                0x0000000008039338                lv_ddlist_set_align
 .text.lv_ddlist_get_options
                0x00000000080393ac       0x2c ././lvgl/src/lv_objx/lv_ddlist.o
                0x00000000080393ac                lv_ddlist_get_options
 .text.lv_ddlist_get_selected
                0x00000000080393d8       0x24 ././lvgl/src/lv_objx/lv_ddlist.o
                0x00000000080393d8                lv_ddlist_get_selected
 .text.lv_ddlist_get_selected_str
                0x00000000080393fc       0xa0 ././lvgl/src/lv_objx/lv_ddlist.o
                0x00000000080393fc                lv_ddlist_get_selected_str
 .text.lv_ddlist_get_fix_height
                0x000000000803949c       0x28 ././lvgl/src/lv_objx/lv_ddlist.o
                0x000000000803949c                lv_ddlist_get_fix_height
 .text.lv_ddlist_get_draw_arrow
                0x00000000080394c4       0x2c ././lvgl/src/lv_objx/lv_ddlist.o
                0x00000000080394c4                lv_ddlist_get_draw_arrow
 .text.lv_ddlist_get_stay_open
                0x00000000080394f0       0x2c ././lvgl/src/lv_objx/lv_ddlist.o
                0x00000000080394f0                lv_ddlist_get_stay_open
 .text.lv_ddlist_get_style
                0x000000000803951c       0x44 ././lvgl/src/lv_objx/lv_ddlist.o
                0x000000000803951c                lv_ddlist_get_style
 .text.lv_ddlist_create
                0x0000000008039560      0x2ac ././lvgl/src/lv_objx/lv_ddlist.o
                0x0000000008039560                lv_ddlist_create
 .text.lv_ddlist_design
                0x000000000803980c      0x268 ././lvgl/src/lv_objx/lv_ddlist.o
 .text.lv_ddlist_scrl_signal
                0x0000000008039a74       0x80 ././lvgl/src/lv_objx/lv_ddlist.o
 .text.lv_ddlist_get_align
                0x0000000008039af4       0x10 ././lvgl/src/lv_objx/lv_ddlist.o
                0x0000000008039af4                lv_ddlist_get_align
 .text.lv_ddlist_open
                0x0000000008039b04       0x2c ././lvgl/src/lv_objx/lv_ddlist.o
                0x0000000008039b04                lv_ddlist_open
 .text.lv_ddlist_close
                0x0000000008039b30       0x2c ././lvgl/src/lv_objx/lv_ddlist.o
                0x0000000008039b30                lv_ddlist_close
 .text          0x0000000008039b5c        0x0 ././lvgl/src/lv_objx/lv_list.o
 .text.lv_list_is_list_btn
                0x0000000008039b5c       0x38 ././lvgl/src/lv_objx/lv_list.o
 .text.lv_list_clean
                0x0000000008039b94       0x30 ././lvgl/src/lv_objx/lv_list.o
                0x0000000008039b94                lv_list_clean
 .text.lv_list_set_single_mode
                0x0000000008039bc4       0x30 ././lvgl/src/lv_objx/lv_list.o
                0x0000000008039bc4                lv_list_set_single_mode
 .text.lv_list_set_btn_selected
                0x0000000008039bf4       0xa8 ././lvgl/src/lv_objx/lv_list.o
                0x0000000008039bf4                lv_list_set_btn_selected
 .text.lv_list_get_single_mode
                0x0000000008039c9c       0x2c ././lvgl/src/lv_objx/lv_list.o
                0x0000000008039c9c                lv_list_get_single_mode
 .text.lv_list_get_btn_label
                0x0000000008039cc8       0x6c ././lvgl/src/lv_objx/lv_list.o
                0x0000000008039cc8                lv_list_get_btn_label
 .text.lv_list_get_btn_text
                0x0000000008039d34       0x34 ././lvgl/src/lv_objx/lv_list.o
                0x0000000008039d34                lv_list_get_btn_text
 .text.lv_list_get_btn_img
                0x0000000008039d68       0x6c ././lvgl/src/lv_objx/lv_list.o
                0x0000000008039d68                lv_list_get_btn_img
 .text.lv_list_get_prev_btn
                0x0000000008039dd4       0x50 ././lvgl/src/lv_objx/lv_list.o
                0x0000000008039dd4                lv_list_get_prev_btn
 .text.lv_list_set_style
                0x0000000008039e24       0xbc ././lvgl/src/lv_objx/lv_list.o
                0x0000000008039e24                lv_list_set_style
 .text.lv_list_get_next_btn
                0x0000000008039ee0       0x50 ././lvgl/src/lv_objx/lv_list.o
                0x0000000008039ee0                lv_list_get_next_btn
 .text.lv_list_signal
                0x0000000008039f30      0x220 ././lvgl/src/lv_objx/lv_list.o
 .text.lv_list_remove
                0x000000000803a150       0x74 ././lvgl/src/lv_objx/lv_list.o
                0x000000000803a150                lv_list_remove
 .text.lv_list_get_btn_index
                0x000000000803a1c4       0x70 ././lvgl/src/lv_objx/lv_list.o
                0x000000000803a1c4                lv_list_get_btn_index
 .text.lv_list_get_size
                0x000000000803a234       0x24 ././lvgl/src/lv_objx/lv_list.o
                0x000000000803a234                lv_list_get_size
 .text.lv_list_get_btn_selected
                0x000000000803a258       0x24 ././lvgl/src/lv_objx/lv_list.o
                0x000000000803a258                lv_list_get_btn_selected
 .text.lv_list_btn_signal
                0x000000000803a27c      0x14c ././lvgl/src/lv_objx/lv_list.o
 .text.lv_list_get_layout
                0x000000000803a3c8       0x28 ././lvgl/src/lv_objx/lv_list.o
                0x000000000803a3c8                lv_list_get_layout
 .text.lv_list_add_btn
                0x000000000803a3f0      0x1f4 ././lvgl/src/lv_objx/lv_list.o
                0x000000000803a3f0                lv_list_add_btn
 .text.lv_list_create
                0x000000000803a5e4      0x210 ././lvgl/src/lv_objx/lv_list.o
                0x000000000803a5e4                lv_list_create
 .text.lv_list_set_layout
                0x000000000803a7f4       0xe8 ././lvgl/src/lv_objx/lv_list.o
                0x000000000803a7f4                lv_list_set_layout
 .text.lv_list_get_style
                0x000000000803a8dc       0x7c ././lvgl/src/lv_objx/lv_list.o
                0x000000000803a8dc                lv_list_get_style
 .text.lv_list_up
                0x000000000803a958       0x90 ././lvgl/src/lv_objx/lv_list.o
                0x000000000803a958                lv_list_up
 .text.lv_list_down
                0x000000000803a9e8       0x64 ././lvgl/src/lv_objx/lv_list.o
                0x000000000803a9e8                lv_list_down
 .text.lv_list_focus
                0x000000000803aa4c       0x30 ././lvgl/src/lv_objx/lv_list.o
                0x000000000803aa4c                lv_list_focus
 .text          0x000000000803aa7c        0x0 ././lvgl/src/lv_objx/lv_preload.o
 .text          0x000000000803aa7c        0x0 ././lvgl/src/lv_objx/lv_btn.o
 .text.lv_btn_design
                0x000000000803aa7c       0x24 ././lvgl/src/lv_objx/lv_btn.o
 .text.lv_btn_set_toggle
                0x000000000803aaa0       0x2c ././lvgl/src/lv_objx/lv_btn.o
                0x000000000803aaa0                lv_btn_set_toggle
 .text.lv_btn_set_state
                0x000000000803aacc       0x44 ././lvgl/src/lv_objx/lv_btn.o
                0x000000000803aacc                lv_btn_set_state
 .text.lv_btn_toggle
                0x000000000803ab10       0x64 ././lvgl/src/lv_objx/lv_btn.o
                0x000000000803ab10                lv_btn_toggle
 .text.lv_btn_set_ink_in_time
                0x000000000803ab74       0x1c ././lvgl/src/lv_objx/lv_btn.o
                0x000000000803ab74                lv_btn_set_ink_in_time
 .text.lv_btn_set_ink_wait_time
                0x000000000803ab90        0x4 ././lvgl/src/lv_objx/lv_btn.o
                0x000000000803ab90                lv_btn_set_ink_wait_time
 .text.lv_btn_set_ink_out_time
                0x000000000803ab94        0x4 ././lvgl/src/lv_objx/lv_btn.o
                0x000000000803ab94                lv_btn_set_ink_out_time
 .text.lv_btn_set_style
                0x000000000803ab98       0x5c ././lvgl/src/lv_objx/lv_btn.o
                0x000000000803ab98                lv_btn_set_style
 .text.lv_btn_create
                0x000000000803abf4      0x168 ././lvgl/src/lv_objx/lv_btn.o
                0x000000000803abf4                lv_btn_create
 .text.lv_btn_get_state
                0x000000000803ad5c       0x28 ././lvgl/src/lv_objx/lv_btn.o
                0x000000000803ad5c                lv_btn_get_state
 .text.lv_btn_get_toggle
                0x000000000803ad84       0x28 ././lvgl/src/lv_objx/lv_btn.o
                0x000000000803ad84                lv_btn_get_toggle
 .text.lv_btn_signal
                0x000000000803adac      0x170 ././lvgl/src/lv_objx/lv_btn.o
 .text.lv_btn_get_ink_in_time
                0x000000000803af1c       0x20 ././lvgl/src/lv_objx/lv_btn.o
                0x000000000803af1c                lv_btn_get_ink_in_time
 .text.lv_btn_get_ink_wait_time
                0x000000000803af3c        0x4 ././lvgl/src/lv_objx/lv_btn.o
                0x000000000803af3c                lv_btn_get_ink_wait_time
 .text.lv_btn_get_ink_out_time
                0x000000000803af40        0x4 ././lvgl/src/lv_objx/lv_btn.o
                0x000000000803af40                lv_btn_get_ink_out_time
 .text.lv_btn_get_style
                0x000000000803af44       0x70 ././lvgl/src/lv_objx/lv_btn.o
                0x000000000803af44                lv_btn_get_style
 .text          0x000000000803afb4        0x0 ././lvgl/src/lv_objx/lv_btnm.o
 .text.get_button_from_point
                0x000000000803afb4       0x88 ././lvgl/src/lv_objx/lv_btnm.o
 .text.invalidate_button_area.part.2
                0x000000000803b03c       0x60 ././lvgl/src/lv_objx/lv_btnm.o
 .text.lv_btnm_set_pressed
                0x000000000803b09c       0x44 ././lvgl/src/lv_objx/lv_btnm.o
                0x000000000803b09c                lv_btnm_set_pressed
 .text.lv_btnm_set_style
                0x000000000803b0e0       0x7c ././lvgl/src/lv_objx/lv_btnm.o
                0x000000000803b0e0                lv_btnm_set_style
 .text.lv_btnm_set_recolor
                0x000000000803b15c       0x3c ././lvgl/src/lv_objx/lv_btnm.o
                0x000000000803b15c                lv_btnm_set_recolor
 .text.lv_btnm_set_btn_ctrl
                0x000000000803b198       0x4c ././lvgl/src/lv_objx/lv_btnm.o
                0x000000000803b198                lv_btnm_set_btn_ctrl
 .text.lv_btnm_clear_btn_ctrl
                0x000000000803b1e4       0x50 ././lvgl/src/lv_objx/lv_btnm.o
                0x000000000803b1e4                lv_btnm_clear_btn_ctrl
 .text.lv_btnm_set_btn_ctrl_all
                0x000000000803b234       0x40 ././lvgl/src/lv_objx/lv_btnm.o
                0x000000000803b234                lv_btnm_set_btn_ctrl_all
 .text.lv_btnm_clear_btn_ctrl_all
                0x000000000803b274       0x40 ././lvgl/src/lv_objx/lv_btnm.o
                0x000000000803b274                lv_btnm_clear_btn_ctrl_all
 .text.lv_btnm_get_map_array
                0x000000000803b2b4       0x24 ././lvgl/src/lv_objx/lv_btnm.o
                0x000000000803b2b4                lv_btnm_get_map_array
 .text.lv_btnm_get_recolor
                0x000000000803b2d8       0x2c ././lvgl/src/lv_objx/lv_btnm.o
                0x000000000803b2d8                lv_btnm_get_recolor
 .text.lv_btnm_get_active_btn
                0x000000000803b304       0x24 ././lvgl/src/lv_objx/lv_btnm.o
                0x000000000803b304                lv_btnm_get_active_btn
 .text.lv_btnm_get_pressed_btn
                0x000000000803b328       0x24 ././lvgl/src/lv_objx/lv_btnm.o
                0x000000000803b328                lv_btnm_get_pressed_btn
 .text.lv_btnm_get_btn_text
                0x000000000803b34c       0x84 ././lvgl/src/lv_objx/lv_btnm.o
                0x000000000803b34c                lv_btnm_get_btn_text
 .text.lv_btnm_get_active_btn_text
                0x000000000803b3d0       0x38 ././lvgl/src/lv_objx/lv_btnm.o
                0x000000000803b3d0                lv_btnm_get_active_btn_text
 .text.lv_btnm_get_btn_ctrl
                0x000000000803b408       0x40 ././lvgl/src/lv_objx/lv_btnm.o
                0x000000000803b408                lv_btnm_get_btn_ctrl
 .text.make_one_button_toggled
                0x000000000803b448       0x28 ././lvgl/src/lv_objx/lv_btnm.o
 .text.lv_btnm_set_one_toggle
                0x000000000803b470       0x3c ././lvgl/src/lv_objx/lv_btnm.o
                0x000000000803b470                lv_btnm_set_one_toggle
 .text.lv_btnm_get_style
                0x000000000803b4ac       0x54 ././lvgl/src/lv_objx/lv_btnm.o
                0x000000000803b4ac                lv_btnm_get_style
 .text.lv_btnm_design
                0x000000000803b500      0x2d0 ././lvgl/src/lv_objx/lv_btnm.o
 .text.lv_btnm_set_map
                0x000000000803b7d0      0x39c ././lvgl/src/lv_objx/lv_btnm.o
                0x000000000803b7d0                lv_btnm_set_map
 .text.lv_btnm_create
                0x000000000803bb6c      0x188 ././lvgl/src/lv_objx/lv_btnm.o
                0x000000000803bb6c                lv_btnm_create
 .text.lv_btnm_set_ctrl_map
                0x000000000803bcf4       0x3c ././lvgl/src/lv_objx/lv_btnm.o
                0x000000000803bcf4                lv_btnm_set_ctrl_map
 .text.lv_btnm_set_btn_width
                0x000000000803bd30       0x4c ././lvgl/src/lv_objx/lv_btnm.o
                0x000000000803bd30                lv_btnm_set_btn_width
 .text.lv_btnm_signal
                0x000000000803bd7c      0x3cc ././lvgl/src/lv_objx/lv_btnm.o
 .text.lv_btnm_get_one_toggle
                0x000000000803c148       0x2c ././lvgl/src/lv_objx/lv_btnm.o
                0x000000000803c148                lv_btnm_get_one_toggle
 .text          0x000000000803c174        0x0 ././lvgl/src/lv_objx/lv_ta.o
 .text.pwd_char_hider
                0x000000000803c174       0x50 ././lvgl/src/lv_objx/lv_ta.o
 .text.get_cursor_style
                0x000000000803c1c4       0x4c ././lvgl/src/lv_objx/lv_ta.o
 .text.lv_ta_design
                0x000000000803c210       0x24 ././lvgl/src/lv_objx/lv_ta.o
 .text.lv_ta_scrollable_design
                0x000000000803c234      0x15c ././lvgl/src/lv_objx/lv_ta.o
 .text.lv_ta_set_cursor_click_pos
                0x000000000803c390       0x30 ././lvgl/src/lv_objx/lv_ta.o
                0x000000000803c390                lv_ta_set_cursor_click_pos
 .text.lv_ta_set_accepted_chars
                0x000000000803c3c0       0x28 ././lvgl/src/lv_objx/lv_ta.o
                0x000000000803c3c0                lv_ta_set_accepted_chars
 .text.lv_ta_set_max_length
                0x000000000803c3e8       0x28 ././lvgl/src/lv_objx/lv_ta.o
                0x000000000803c3e8                lv_ta_set_max_length
 .text.lv_ta_set_insert_replace
                0x000000000803c410       0x28 ././lvgl/src/lv_objx/lv_ta.o
                0x000000000803c410                lv_ta_set_insert_replace
 .text.lv_ta_set_text_sel
                0x000000000803c438       0x1c ././lvgl/src/lv_objx/lv_ta.o
                0x000000000803c438                lv_ta_set_text_sel
 .text.lv_ta_set_pwd_show_time
                0x000000000803c454       0x28 ././lvgl/src/lv_objx/lv_ta.o
                0x000000000803c454                lv_ta_set_pwd_show_time
 .text.lv_ta_set_cursor_blink_time
                0x000000000803c47c       0x34 ././lvgl/src/lv_objx/lv_ta.o
                0x000000000803c47c                lv_ta_set_cursor_blink_time
 .text.lv_ta_get_text
                0x000000000803c4b0       0x38 ././lvgl/src/lv_objx/lv_ta.o
                0x000000000803c4b0                lv_ta_get_text
 .text.placeholder_update
                0x000000000803c4e8       0x6c ././lvgl/src/lv_objx/lv_ta.o
 .text.lv_ta_get_placeholder_text
                0x000000000803c554       0x30 ././lvgl/src/lv_objx/lv_ta.o
                0x000000000803c554                lv_ta_get_placeholder_text
 .text.lv_ta_get_label
                0x000000000803c584       0x24 ././lvgl/src/lv_objx/lv_ta.o
                0x000000000803c584                lv_ta_get_label
 .text.lv_ta_get_cursor_pos
                0x000000000803c5a8       0x24 ././lvgl/src/lv_objx/lv_ta.o
                0x000000000803c5a8                lv_ta_get_cursor_pos
 .text.refr_cursor_area
                0x000000000803c5cc      0x2cc ././lvgl/src/lv_objx/lv_ta.o
 .text.lv_ta_set_cursor_pos
                0x000000000803c898      0x154 ././lvgl/src/lv_objx/lv_ta.o
                0x000000000803c898                lv_ta_set_cursor_pos
 .text.update_cursor_position_on_click
                0x000000000803c9ec       0xa8 ././lvgl/src/lv_objx/lv_ta.o
 .text.lv_ta_scrollable_signal
                0x000000000803ca94       0xe8 ././lvgl/src/lv_objx/lv_ta.o
 .text.lv_ta_set_cursor_type
                0x000000000803cb7c       0x44 ././lvgl/src/lv_objx/lv_ta.o
                0x000000000803cb7c                lv_ta_set_cursor_type
 .text.lv_ta_set_text_align
                0x000000000803cbc0       0xc0 ././lvgl/src/lv_objx/lv_ta.o
                0x000000000803cbc0                lv_ta_set_text_align
 .text.lv_ta_set_placeholder_text
                0x000000000803cc80       0x7c ././lvgl/src/lv_objx/lv_ta.o
                0x000000000803cc80                lv_ta_set_placeholder_text
 .text.lv_ta_set_one_line
                0x000000000803ccfc      0x12c ././lvgl/src/lv_objx/lv_ta.o
                0x000000000803ccfc                lv_ta_set_one_line
 .text.lv_ta_set_style
                0x000000000803ce28       0x84 ././lvgl/src/lv_objx/lv_ta.o
                0x000000000803ce28                lv_ta_set_style
 .text.lv_ta_get_cursor_type
                0x000000000803ceac       0x2c ././lvgl/src/lv_objx/lv_ta.o
                0x000000000803ceac                lv_ta_get_cursor_type
 .text.lv_ta_get_cursor_click_pos
                0x000000000803ced8       0x2c ././lvgl/src/lv_objx/lv_ta.o
                0x000000000803ced8                lv_ta_get_cursor_click_pos
 .text.lv_ta_get_pwd_mode
                0x000000000803cf04       0x2c ././lvgl/src/lv_objx/lv_ta.o
                0x000000000803cf04                lv_ta_get_pwd_mode
 .text.lv_ta_get_one_line
                0x000000000803cf30       0x2c ././lvgl/src/lv_objx/lv_ta.o
                0x000000000803cf30                lv_ta_get_one_line
 .text.lv_ta_get_accepted_chars
                0x000000000803cf5c       0x24 ././lvgl/src/lv_objx/lv_ta.o
                0x000000000803cf5c                lv_ta_get_accepted_chars
 .text.lv_ta_get_max_length
                0x000000000803cf80       0x24 ././lvgl/src/lv_objx/lv_ta.o
                0x000000000803cf80                lv_ta_get_max_length
 .text.lv_ta_get_style
                0x000000000803cfa4       0x6c ././lvgl/src/lv_objx/lv_ta.o
                0x000000000803cfa4                lv_ta_get_style
 .text.lv_ta_create
                0x000000000803d010      0x2b0 ././lvgl/src/lv_objx/lv_ta.o
                0x000000000803d010                lv_ta_create
 .text.lv_ta_text_is_selected
                0x000000000803d2c0       0x20 ././lvgl/src/lv_objx/lv_ta.o
                0x000000000803d2c0                lv_ta_text_is_selected
 .text.lv_ta_get_text_sel_en
                0x000000000803d2e0        0x4 ././lvgl/src/lv_objx/lv_ta.o
                0x000000000803d2e0                lv_ta_get_text_sel_en
 .text.lv_ta_get_pwd_show_time
                0x000000000803d2e4       0x24 ././lvgl/src/lv_objx/lv_ta.o
                0x000000000803d2e4                lv_ta_get_pwd_show_time
 .text.lv_ta_get_cursor_blink_time
                0x000000000803d308       0x28 ././lvgl/src/lv_objx/lv_ta.o
                0x000000000803d308                lv_ta_get_cursor_blink_time
 .text.lv_ta_clear_selection
                0x000000000803d330       0x1c ././lvgl/src/lv_objx/lv_ta.o
                0x000000000803d330                lv_ta_clear_selection
 .text.lv_ta_add_text
                0x000000000803d34c      0x170 ././lvgl/src/lv_objx/lv_ta.o
                0x000000000803d34c                lv_ta_add_text
 .text.lv_ta_add_char
                0x000000000803d4bc      0x174 ././lvgl/src/lv_objx/lv_ta.o
                0x000000000803d4bc                lv_ta_add_char
 .text.lv_ta_del_char
                0x000000000803d630      0x12c ././lvgl/src/lv_objx/lv_ta.o
                0x000000000803d630                lv_ta_del_char
 .text.lv_ta_del_char_forward
                0x000000000803d75c       0x44 ././lvgl/src/lv_objx/lv_ta.o
                0x000000000803d75c                lv_ta_del_char_forward
 .text.lv_ta_set_text
                0x000000000803d7a0      0x140 ././lvgl/src/lv_objx/lv_ta.o
                0x000000000803d7a0                lv_ta_set_text
 .text.lv_ta_set_pwd_mode
                0x000000000803d8e0       0xe4 ././lvgl/src/lv_objx/lv_ta.o
                0x000000000803d8e0                lv_ta_set_pwd_mode
 .text.lv_ta_cursor_right
                0x000000000803d9c4       0x30 ././lvgl/src/lv_objx/lv_ta.o
                0x000000000803d9c4                lv_ta_cursor_right
 .text.lv_ta_cursor_left
                0x000000000803d9f4       0x34 ././lvgl/src/lv_objx/lv_ta.o
                0x000000000803d9f4                lv_ta_cursor_left
 .text.lv_ta_cursor_down
                0x000000000803da28       0x80 ././lvgl/src/lv_objx/lv_ta.o
                0x000000000803da28                lv_ta_cursor_down
 .text.lv_ta_cursor_up
                0x000000000803daa8       0x70 ././lvgl/src/lv_objx/lv_ta.o
                0x000000000803daa8                lv_ta_cursor_up
 .text.lv_ta_signal
                0x000000000803db18      0x2c8 ././lvgl/src/lv_objx/lv_ta.o
 .text          0x000000000803dde0        0x0 ././lvgl/src/lv_objx/lv_page.o
 .text.scrl_def_event_cb
                0x000000000803dde0       0x24 ././lvgl/src/lv_objx/lv_page.o
 .text.lv_page_sb_refresh
                0x000000000803de04      0x3a8 ././lvgl/src/lv_objx/lv_page.o
 .text.lv_scrl_design
                0x000000000803e1ac       0x9c ././lvgl/src/lv_objx/lv_page.o
 .text.lv_page_scrollable_signal
                0x000000000803e248      0x438 ././lvgl/src/lv_objx/lv_page.o
 .text.lv_page_set_sb_mode
                0x000000000803e680       0x78 ././lvgl/src/lv_objx/lv_page.o
                0x000000000803e680                lv_page_set_sb_mode
 .text.lv_page_set_anim_time
                0x000000000803e6f8       0x1c ././lvgl/src/lv_objx/lv_page.o
                0x000000000803e6f8                lv_page_set_anim_time
 .text.lv_page_set_scroll_propagation
                0x000000000803e714       0x30 ././lvgl/src/lv_objx/lv_page.o
                0x000000000803e714                lv_page_set_scroll_propagation
 .text.lv_page_set_edge_flash
                0x000000000803e744       0x1c ././lvgl/src/lv_objx/lv_page.o
                0x000000000803e744                lv_page_set_edge_flash
 .text.lv_page_set_style
                0x000000000803e760       0x7c ././lvgl/src/lv_objx/lv_page.o
                0x000000000803e760                lv_page_set_style
 .text.lv_page_get_scrl
                0x000000000803e7dc       0x24 ././lvgl/src/lv_objx/lv_page.o
                0x000000000803e7dc                lv_page_get_scrl
 .text.lv_page_clean
                0x000000000803e800       0x28 ././lvgl/src/lv_objx/lv_page.o
                0x000000000803e800                lv_page_clean
 .text.lv_page_get_anim_time
                0x000000000803e828       0x20 ././lvgl/src/lv_objx/lv_page.o
                0x000000000803e828                lv_page_get_anim_time
 .text.lv_page_get_sb_mode
                0x000000000803e848       0x28 ././lvgl/src/lv_objx/lv_page.o
                0x000000000803e848                lv_page_get_sb_mode
 .text.lv_page_get_scroll_propagation
                0x000000000803e870       0x2c ././lvgl/src/lv_objx/lv_page.o
                0x000000000803e870                lv_page_get_scroll_propagation
 .text.lv_page_get_edge_flash
                0x000000000803e89c       0x20 ././lvgl/src/lv_objx/lv_page.o
                0x000000000803e89c                lv_page_get_edge_flash
 .text.lv_page_get_style
                0x000000000803e8bc       0x48 ././lvgl/src/lv_objx/lv_page.o
                0x000000000803e8bc                lv_page_get_style
 .text.lv_page_create
                0x000000000803e904      0x220 ././lvgl/src/lv_objx/lv_page.o
                0x000000000803e904                lv_page_create
 .text.lv_page_design
                0x000000000803eb24      0x138 ././lvgl/src/lv_objx/lv_page.o
 .text.lv_page_get_fit_width
                0x000000000803ec5c       0x48 ././lvgl/src/lv_objx/lv_page.o
                0x000000000803ec5c                lv_page_get_fit_width
 .text.lv_page_get_fit_height
                0x000000000803eca4       0x48 ././lvgl/src/lv_objx/lv_page.o
                0x000000000803eca4                lv_page_get_fit_height
 .text.lv_page_on_edge
                0x000000000803ecec       0x8c ././lvgl/src/lv_objx/lv_page.o
                0x000000000803ecec                lv_page_on_edge
 .text.lv_page_glue_obj
                0x000000000803ed78       0x18 ././lvgl/src/lv_objx/lv_page.o
                0x000000000803ed78                lv_page_glue_obj
 .text.lv_page_focus
                0x000000000803ed90      0x164 ././lvgl/src/lv_objx/lv_page.o
                0x000000000803ed90                lv_page_focus
 .text.lv_page_scroll_hor
                0x000000000803eef4       0x1c ././lvgl/src/lv_objx/lv_page.o
                0x000000000803eef4                lv_page_scroll_hor
 .text.lv_page_scroll_ver
                0x000000000803ef10       0x1c ././lvgl/src/lv_objx/lv_page.o
                0x000000000803ef10                lv_page_scroll_ver
 .text.lv_page_signal
                0x000000000803ef2c      0x2d4 ././lvgl/src/lv_objx/lv_page.o
 .text.lv_page_start_edge_flash
                0x000000000803f200        0x4 ././lvgl/src/lv_objx/lv_page.o
                0x000000000803f200                lv_page_start_edge_flash
 .text          0x000000000803f204        0x0 ././lvgl/src/lv_objx/lv_table.o
 .text.get_row_height
                0x000000000803f204      0x128 ././lvgl/src/lv_objx/lv_table.o
 .text.refr_size
                0x000000000803f32c       0x9c ././lvgl/src/lv_objx/lv_table.o
 .text.lv_table_design
                0x000000000803f3c8      0x36c ././lvgl/src/lv_objx/lv_table.o
 .text.lv_table_signal
                0x000000000803f734       0x7c ././lvgl/src/lv_objx/lv_table.o
 .text.lv_table_set_cell_value
                0x000000000803f7b0       0xa0 ././lvgl/src/lv_objx/lv_table.o
                0x000000000803f7b0                lv_table_set_cell_value
 .text.lv_table_set_row_cnt
                0x000000000803f850       0x74 ././lvgl/src/lv_objx/lv_table.o
                0x000000000803f850                lv_table_set_row_cnt
 .text.lv_table_set_col_cnt
                0x000000000803f8c4       0x78 ././lvgl/src/lv_objx/lv_table.o
                0x000000000803f8c4                lv_table_set_col_cnt
 .text.lv_table_set_col_width
                0x000000000803f93c       0x3c ././lvgl/src/lv_objx/lv_table.o
                0x000000000803f93c                lv_table_set_col_width
 .text.lv_table_set_cell_align
                0x000000000803f978       0x70 ././lvgl/src/lv_objx/lv_table.o
                0x000000000803f978                lv_table_set_cell_align
 .text.lv_table_set_cell_type
                0x000000000803f9e8       0x88 ././lvgl/src/lv_objx/lv_table.o
                0x000000000803f9e8                lv_table_set_cell_type
 .text.lv_table_set_cell_crop
                0x000000000803fa70       0x70 ././lvgl/src/lv_objx/lv_table.o
                0x000000000803fa70                lv_table_set_cell_crop
 .text.lv_table_set_cell_merge_right
                0x000000000803fae0       0x7c ././lvgl/src/lv_objx/lv_table.o
                0x000000000803fae0                lv_table_set_cell_merge_right
 .text.lv_table_set_style
                0x000000000803fb5c       0x78 ././lvgl/src/lv_objx/lv_table.o
                0x000000000803fb5c                lv_table_set_style
 .text.lv_table_create
                0x000000000803fbd4      0x14c ././lvgl/src/lv_objx/lv_table.o
                0x000000000803fbd4                lv_table_create
 .text.lv_table_get_cell_value
                0x000000000803fd20       0x48 ././lvgl/src/lv_objx/lv_table.o
                0x000000000803fd20                lv_table_get_cell_value
 .text.lv_table_get_row_cnt
                0x000000000803fd68       0x24 ././lvgl/src/lv_objx/lv_table.o
                0x000000000803fd68                lv_table_get_row_cnt
 .text.lv_table_get_col_cnt
                0x000000000803fd8c       0x24 ././lvgl/src/lv_objx/lv_table.o
                0x000000000803fd8c                lv_table_get_col_cnt
 .text.lv_table_get_col_width
                0x000000000803fdb0       0x34 ././lvgl/src/lv_objx/lv_table.o
                0x000000000803fdb0                lv_table_get_col_width
 .text.lv_table_get_cell_align
                0x000000000803fde4       0x48 ././lvgl/src/lv_objx/lv_table.o
                0x000000000803fde4                lv_table_get_cell_align
 .text.lv_table_get_cell_type
                0x000000000803fe2c       0x4c ././lvgl/src/lv_objx/lv_table.o
                0x000000000803fe2c                lv_table_get_cell_type
 .text.lv_table_get_cell_crop
                0x000000000803fe78       0x48 ././lvgl/src/lv_objx/lv_table.o
                0x000000000803fe78                lv_table_get_cell_crop
 .text.lv_table_get_cell_merge_right
                0x000000000803fec0       0x48 ././lvgl/src/lv_objx/lv_table.o
                0x000000000803fec0                lv_table_get_cell_merge_right
 .text.lv_table_get_style
                0x000000000803ff08       0x50 ././lvgl/src/lv_objx/lv_table.o
                0x000000000803ff08                lv_table_get_style
 .text          0x000000000803ff58        0x0 ././lvgl/src/lv_objx/lv_cb.o
 .text.lv_cb_design
                0x000000000803ff58       0x48 ././lvgl/src/lv_objx/lv_cb.o
 .text.lv_bullet_design
                0x000000000803ffa0       0x78 ././lvgl/src/lv_objx/lv_cb.o
 .text.lv_cb_signal
                0x0000000008040018       0x88 ././lvgl/src/lv_objx/lv_cb.o
 .text.lv_cb_set_text
                0x00000000080400a0       0x30 ././lvgl/src/lv_objx/lv_cb.o
                0x00000000080400a0                lv_cb_set_text
 .text.lv_cb_set_static_text
                0x00000000080400d0       0x30 ././lvgl/src/lv_objx/lv_cb.o
                0x00000000080400d0                lv_cb_set_static_text
 .text.lv_cb_set_style
                0x0000000008040100       0xb0 ././lvgl/src/lv_objx/lv_cb.o
                0x0000000008040100                lv_cb_set_style
 .text.lv_cb_create
                0x00000000080401b0      0x1bc ././lvgl/src/lv_objx/lv_cb.o
                0x00000000080401b0                lv_cb_create
 .text.lv_cb_get_text
                0x000000000804036c       0x2c ././lvgl/src/lv_objx/lv_cb.o
                0x000000000804036c                lv_cb_get_text
 .text.lv_cb_get_style
                0x0000000008040398       0x7c ././lvgl/src/lv_objx/lv_cb.o
                0x0000000008040398                lv_cb_get_style
 .text          0x0000000008040414        0x0 ././lvgl/src/lv_objx/lv_sw.o
 .text.lv_sw_on
                0x0000000008040414       0x3c ././lvgl/src/lv_objx/lv_sw.o
                0x0000000008040414                lv_sw_on
 .text.lv_sw_off
                0x0000000008040450       0x3c ././lvgl/src/lv_objx/lv_sw.o
                0x0000000008040450                lv_sw_off
 .text.lv_sw_signal
                0x000000000804048c      0x258 ././lvgl/src/lv_objx/lv_sw.o
 .text.lv_sw_toggle
                0x00000000080406e4       0x48 ././lvgl/src/lv_objx/lv_sw.o
                0x00000000080406e4                lv_sw_toggle
 .text.lv_sw_set_style
                0x000000000804072c       0x74 ././lvgl/src/lv_objx/lv_sw.o
                0x000000000804072c                lv_sw_set_style
 .text.lv_sw_create
                0x00000000080407a0      0x100 ././lvgl/src/lv_objx/lv_sw.o
                0x00000000080407a0                lv_sw_create
 .text.lv_sw_set_anim_time
                0x00000000080408a0       0x1c ././lvgl/src/lv_objx/lv_sw.o
                0x00000000080408a0                lv_sw_set_anim_time
 .text.lv_sw_get_style
                0x00000000080408bc       0x54 ././lvgl/src/lv_objx/lv_sw.o
                0x00000000080408bc                lv_sw_get_style
 .text.lv_sw_get_anim_time
                0x0000000008040910       0x20 ././lvgl/src/lv_objx/lv_sw.o
                0x0000000008040910                lv_sw_get_anim_time
 .text          0x0000000008040930        0x0 ././lvgl/src/lv_draw/lv_draw_img.o
 .text.lv_draw_img
                0x0000000008040930      0x1e4 ././lvgl/src/lv_draw/lv_draw_img.o
                0x0000000008040930                lv_draw_img
 .text.lv_img_buf_get_px_color
                0x0000000008040b14      0x100 ././lvgl/src/lv_draw/lv_draw_img.o
                0x0000000008040b14                lv_img_buf_get_px_color
 .text.lv_img_buf_get_px_alpha
                0x0000000008040c14      0x104 ././lvgl/src/lv_draw/lv_draw_img.o
                0x0000000008040c14                lv_img_buf_get_px_alpha
 .text.lv_img_buf_set_px_color
                0x0000000008040d18      0x140 ././lvgl/src/lv_draw/lv_draw_img.o
                0x0000000008040d18                lv_img_buf_set_px_color
 .text.lv_img_buf_set_px_alpha
                0x0000000008040e58       0xdc ././lvgl/src/lv_draw/lv_draw_img.o
                0x0000000008040e58                lv_img_buf_set_px_alpha
 .text.lv_img_buf_set_palette
                0x0000000008040f34       0x78 ././lvgl/src/lv_draw/lv_draw_img.o
                0x0000000008040f34                lv_img_buf_set_palette
 .text.lv_img_color_format_get_px_size
                0x0000000008040fac       0x14 ././lvgl/src/lv_draw/lv_draw_img.o
                0x0000000008040fac                lv_img_color_format_get_px_size
 .text.lv_img_color_format_is_chroma_keyed
                0x0000000008040fc0       0x1c ././lvgl/src/lv_draw/lv_draw_img.o
                0x0000000008040fc0                lv_img_color_format_is_chroma_keyed
 .text.lv_img_color_format_has_alpha
                0x0000000008040fdc       0x1c ././lvgl/src/lv_draw/lv_draw_img.o
                0x0000000008040fdc                lv_img_color_format_has_alpha
 .text.lv_img_src_get_type
                0x0000000008040ff8       0x20 ././lvgl/src/lv_draw/lv_draw_img.o
                0x0000000008040ff8                lv_img_src_get_type
 .text.lv_img_buf_free
                0x0000000008041018       0x1c ././lvgl/src/lv_draw/lv_draw_img.o
                0x0000000008041018                lv_img_buf_free
 .text.lv_img_buf_get_img_size
                0x0000000008041034       0x98 ././lvgl/src/lv_draw/lv_draw_img.o
                0x0000000008041034                lv_img_buf_get_img_size
 .text.lv_img_buf_alloc
                0x00000000080410cc       0x74 ././lvgl/src/lv_draw/lv_draw_img.o
                0x00000000080410cc                lv_img_buf_alloc
 .text          0x0000000008041140        0x0 ././lvgl/src/lv_draw/lv_draw_arc.o
 .text.deg_test_norm
                0x0000000008041140       0x14 ././lvgl/src/lv_draw/lv_draw_arc.o
 .text.deg_test_inv
                0x0000000008041154       0x14 ././lvgl/src/lv_draw/lv_draw_arc.o
 .text.hor_line
                0x0000000008041168       0x30 ././lvgl/src/lv_draw/lv_draw_arc.o
 .text.lv_draw_arc
                0x0000000008041198      0x558 ././lvgl/src/lv_draw/lv_draw_arc.o
                0x0000000008041198                lv_draw_arc
 .text          0x00000000080416f0        0x0 ././lvgl/src/lv_draw/lv_draw.o
 .text.lv_draw_get_buf
                0x00000000080416f0       0x5c ././lvgl/src/lv_draw/lv_draw.o
                0x00000000080416f0                lv_draw_get_buf
 .text.lv_draw_free_buf
                0x000000000804174c       0x20 ././lvgl/src/lv_draw/lv_draw.o
                0x000000000804174c                lv_draw_free_buf
 .text.lv_draw_aa_get_opa
                0x000000000804176c       0x2c ././lvgl/src/lv_draw/lv_draw.o
                0x000000000804176c                lv_draw_aa_get_opa
 .text.lv_draw_aa_ver_seg
                0x0000000008041798       0x64 ././lvgl/src/lv_draw/lv_draw.o
                0x0000000008041798                lv_draw_aa_ver_seg
 .text.lv_draw_aa_hor_seg
                0x00000000080417fc       0x64 ././lvgl/src/lv_draw/lv_draw.o
                0x00000000080417fc                lv_draw_aa_hor_seg
 .text          0x0000000008041860        0x0 ././lvgl/src/lv_draw/lv_draw_triangle.o
 .text.tri_draw_flat
                0x0000000008041860      0x3f4 ././lvgl/src/lv_draw/lv_draw_triangle.o
                0x0000000008041860                tri_draw_flat
 .text.tri_draw_tall
                0x0000000008041c54      0x2f8 ././lvgl/src/lv_draw/lv_draw_triangle.o
                0x0000000008041c54                tri_draw_tall
 .text.lv_draw_triangle
                0x0000000008041f4c       0xdc ././lvgl/src/lv_draw/lv_draw_triangle.o
                0x0000000008041f4c                lv_draw_triangle
 .text.lv_draw_polygon
                0x0000000008042028       0x68 ././lvgl/src/lv_draw/lv_draw_triangle.o
                0x0000000008042028                lv_draw_polygon
 .text          0x0000000008042090        0x0 ././lvgl/src/lv_draw/lv_img_cache.o
 .text.lv_img_cache_open
                0x0000000008042090      0x13c ././lvgl/src/lv_draw/lv_img_cache.o
                0x0000000008042090                lv_img_cache_open
 .text.lv_img_cache_invalidate_src
                0x00000000080421cc       0x58 ././lvgl/src/lv_draw/lv_img_cache.o
                0x00000000080421cc                lv_img_cache_invalidate_src
 .text.lv_img_cache_set_size
                0x0000000008042224       0x7c ././lvgl/src/lv_draw/lv_img_cache.o
                0x0000000008042224                lv_img_cache_set_size
 .text          0x00000000080422a0        0x0 ././lvgl/src/lv_draw/lv_img_decoder.o
 .text.lv_img_decoder_built_in_read_line
                0x00000000080422a0        0x4 ././lvgl/src/lv_draw/lv_img_decoder.o
                0x00000000080422a0                lv_img_decoder_built_in_read_line
 .text.lv_img_decoder_built_in_close
                0x00000000080422a4       0x24 ././lvgl/src/lv_draw/lv_img_decoder.o
                0x00000000080422a4                lv_img_decoder_built_in_close
 .text.lv_img_decoder_built_in_open
                0x00000000080422c8       0x40 ././lvgl/src/lv_draw/lv_img_decoder.o
                0x00000000080422c8                lv_img_decoder_built_in_open
 .text.lv_img_decoder_built_in_info
                0x0000000008042308       0x60 ././lvgl/src/lv_draw/lv_img_decoder.o
                0x0000000008042308                lv_img_decoder_built_in_info
 .text.lv_img_decoder_get_info
                0x0000000008042368       0x4c ././lvgl/src/lv_draw/lv_img_decoder.o
                0x0000000008042368                lv_img_decoder_get_info
 .text.lv_img_decoder_open
                0x00000000080423b4       0xa4 ././lvgl/src/lv_draw/lv_img_decoder.o
                0x00000000080423b4                lv_img_decoder_open
 .text.lv_img_decoder_read_line
                0x0000000008042458       0x28 ././lvgl/src/lv_draw/lv_img_decoder.o
                0x0000000008042458                lv_img_decoder_read_line
 .text.lv_img_decoder_close
                0x0000000008042480       0x28 ././lvgl/src/lv_draw/lv_img_decoder.o
                0x0000000008042480                lv_img_decoder_close
 .text.lv_img_decoder_create
                0x00000000080424a8       0x34 ././lvgl/src/lv_draw/lv_img_decoder.o
                0x00000000080424a8                lv_img_decoder_create
 .text.lv_img_decoder_init
                0x00000000080424dc       0x50 ././lvgl/src/lv_draw/lv_img_decoder.o
                0x00000000080424dc                lv_img_decoder_init
 .text.lv_img_decoder_delete
                0x000000000804252c       0x1c ././lvgl/src/lv_draw/lv_img_decoder.o
                0x000000000804252c                lv_img_decoder_delete
 .text.lv_img_decoder_set_info_cb
                0x0000000008042548        0x4 ././lvgl/src/lv_draw/lv_img_decoder.o
                0x0000000008042548                lv_img_decoder_set_info_cb
 .text.lv_img_decoder_set_open_cb
                0x000000000804254c        0x4 ././lvgl/src/lv_draw/lv_img_decoder.o
                0x000000000804254c                lv_img_decoder_set_open_cb
 .text.lv_img_decoder_set_read_line_cb
                0x0000000008042550        0x4 ././lvgl/src/lv_draw/lv_img_decoder.o
                0x0000000008042550                lv_img_decoder_set_read_line_cb
 .text.lv_img_decoder_set_close_cb
                0x0000000008042554        0x4 ././lvgl/src/lv_draw/lv_img_decoder.o
                0x0000000008042554                lv_img_decoder_set_close_cb
 .text          0x0000000008042558        0x0 ././lvgl/src/lv_draw/lv_draw_basic.o
 .text.lv_draw_px
                0x0000000008042558       0xf0 ././lvgl/src/lv_draw/lv_draw_basic.o
                0x0000000008042558                lv_draw_px
 .text.lv_draw_fill
                0x0000000008042648      0x1e4 ././lvgl/src/lv_draw/lv_draw_basic.o
                0x0000000008042648                lv_draw_fill
 .text.lv_draw_letter
                0x000000000804282c      0x588 ././lvgl/src/lv_draw/lv_draw_basic.o
                0x000000000804282c                lv_draw_letter
 .text.lv_draw_map
                0x0000000008042db4      0x41c ././lvgl/src/lv_draw/lv_draw_basic.o
                0x0000000008042db4                lv_draw_map
 .text          0x00000000080431d0        0x0 ././lvgl/src/lv_draw/lv_draw_line.o
 .text.line_next
                0x00000000080431d0       0x5c ././lvgl/src/lv_draw/lv_draw_line.o
 .text.line_init.isra.0
                0x000000000804322c       0x78 ././lvgl/src/lv_draw/lv_draw_line.o
 .text.lv_draw_line
                0x00000000080432a4      0xe70 ././lvgl/src/lv_draw/lv_draw_line.o
                0x00000000080432a4                lv_draw_line
 .text          0x0000000008044114        0x0 ././lvgl/src/lv_draw/lv_draw_label.o
 .text.hex_char_to_num.part.2
                0x0000000008044114       0x1c ././lvgl/src/lv_draw/lv_draw_label.o
 .text.lv_draw_label
                0x0000000008044130      0x59c ././lvgl/src/lv_draw/lv_draw_label.o
                0x0000000008044130                lv_draw_label
 .text          0x00000000080446cc        0x0 ././lvgl/src/lv_draw/lv_draw_rect.o
 .text.lv_draw_cont_radius_corr
                0x00000000080446cc       0x40 ././lvgl/src/lv_draw/lv_draw_rect.o
 .text.antialias_get_opa_circ
                0x000000000804470c       0x60 ././lvgl/src/lv_draw/lv_draw_rect.o
 .text.lv_draw_rect
                0x000000000804476c     0x2654 ././lvgl/src/lv_draw/lv_draw_rect.o
                0x000000000804476c                lv_draw_rect
 .text          0x0000000008046dc0        0x0 ././lvgl/porting/lv_port_disp_template.o
 .text          0x0000000008046dc0        0x0 ././lvgl/porting/lv_port_indev_template.o
 .text          0x0000000008046dc0        0x0 ././lvgl/porting/lv_port_fs_template.o
 .text          0x0000000008046dc0        0x0 ././ui/ui_msgbox.o
 .text._mew_msgbox_event_handler
                0x0000000008046dc0       0x30 ././ui/ui_msgbox.o
 .text.mew_ui_msgbox
                0x0000000008046df0      0x104 ././ui/ui_msgbox.o
                0x0000000008046df0                mew_ui_msgbox
 .text          0x0000000008046ef4        0x0 ././ui/ui_lhandlers.o
 .text.mew_ui_show_window
                0x0000000008046ef4        0xc ././ui/ui_lhandlers.o
                0x0000000008046ef4                mew_ui_show_window
 .text.mew_ui_lhandler
                0x0000000008046f00       0x3c ././ui/ui_lhandlers.o
                0x0000000008046f00                mew_ui_lhandler
 .text.mew_lvgl_lhandler
                0x0000000008046f3c       0x28 ././ui/ui_lhandlers.o
                0x0000000008046f3c                mew_lvgl_lhandler
 .text          0x0000000008046f64        0x0 ././ui/qrcode_ui.o
 .text.__mew_setpoint
                0x0000000008046f64       0x2c ././ui/qrcode_ui.o
                0x0000000008046f64                __mew_setpoint
 .text.mew_qrcode_set_data
                0x0000000008046f90       0x10 ././ui/qrcode_ui.o
                0x0000000008046f90                mew_qrcode_set_data
 .text.mew_display_qrcode
                0x0000000008046fa0       0xa0 ././ui/qrcode_ui.o
                0x0000000008046fa0                mew_display_qrcode
 .text          0x0000000008047040        0x0 ././ui/ui_header.o
 .text.mew_ui_header_set_text
                0x0000000008047040       0x1c ././ui/ui_header.o
                0x0000000008047040                mew_ui_header_set_text
 .text.mew_display_small_header
                0x000000000804705c      0x144 ././ui/ui_header.o
                0x000000000804705c                mew_display_small_header
 .text.mew_remove_ui_header
                0x00000000080471a0       0x14 ././ui/ui_header.o
                0x00000000080471a0                mew_remove_ui_header
 .text.mew_display_ui_header
                0x00000000080471b4      0x18c ././ui/ui_header.o
                0x00000000080471b4                mew_display_ui_header
 .text          0x0000000008047340        0x0 ././ui/ui_win_startup_1.o
 .text._mew_pc_disp
                0x0000000008047340       0x34 ././ui/ui_win_startup_1.o
 .text._mew_msgbox_event_handler
                0x0000000008047374       0x4c ././ui/ui_win_startup_1.o
 .text._mew_msgbox_bad_pin_event_handler
                0x00000000080473c0       0x24 ././ui/ui_win_startup_1.o
 .text._mew_event_handler_2
                0x00000000080473e4       0xe8 ././ui/ui_win_startup_1.o
 .text._mew_btnm_event_handler
                0x00000000080474cc      0x128 ././ui/ui_win_startup_1.o
 .text._mew_btnm2_event_handler
                0x00000000080475f4       0x9c ././ui/ui_win_startup_1.o
 .text._mew_event_handler_1
                0x0000000008047690       0x2c ././ui/ui_win_startup_1.o
 .text.mew_show_startup_window_1
                0x00000000080476bc      0x378 ././ui/ui_win_startup_1.o
                0x00000000080476bc                mew_show_startup_window_1
 .text          0x0000000008047a34        0x0 ././ui/mew_font_ru_bold.o
 .text          0x0000000008047a34        0x0 ././ui/ui_main_win.o
 .text.mew_show_main_window
                0x0000000008047a34        0x4 ././ui/ui_main_win.o
                0x0000000008047a34                mew_show_main_window
 .text          0x0000000008047a38        0x0 ././ui/mew_font_ru_bold_title.o
 .text          0x0000000008047a38        0x0 ././ui/mew_logo.o
 .text          0x0000000008047a38        0x8 ././drivers/system/byteorder.o
                0x0000000008047a38                big2little32
                0x0000000008047a3c                big2little16
 .text          0x0000000008047a40      0xdb4 ././drivers/hw_crypt/P256-cortex-m4-ecdh-speedopt-gcc.o
                0x00000000080485a8                P256_pointmult
                0x0000000008048768                P256_ecdh_keygen
                0x0000000008048770                P256_ecdh_shared_secret
 .text          0x00000000080487f4        0x0 /home/user/Devel/stm32/libopencm3/lib/libopencm3_stm32f4.a(rcc.o)
 .text.rcc_osc_ready_int_clear
                0x00000000080487f4       0x5c /home/user/Devel/stm32/libopencm3/lib/libopencm3_stm32f4.a(rcc.o)
                0x00000000080487f4                rcc_osc_ready_int_clear
 .text.rcc_osc_ready_int_enable
                0x0000000008048850       0x5c /home/user/Devel/stm32/libopencm3/lib/libopencm3_stm32f4.a(rcc.o)
                0x0000000008048850                rcc_osc_ready_int_enable
 .text.rcc_osc_ready_int_disable
                0x00000000080488ac       0x5c /home/user/Devel/stm32/libopencm3/lib/libopencm3_stm32f4.a(rcc.o)
                0x00000000080488ac                rcc_osc_ready_int_disable
 .text.rcc_osc_ready_int_flag
                0x0000000008048908       0x60 /home/user/Devel/stm32/libopencm3/lib/libopencm3_stm32f4.a(rcc.o)
                0x0000000008048908                rcc_osc_ready_int_flag
 .text.rcc_css_int_clear
                0x0000000008048968       0x10 /home/user/Devel/stm32/libopencm3/lib/libopencm3_stm32f4.a(rcc.o)
                0x0000000008048968                rcc_css_int_clear
 .text.rcc_css_int_flag
                0x0000000008048978       0x10 /home/user/Devel/stm32/libopencm3/lib/libopencm3_stm32f4.a(rcc.o)
                0x0000000008048978                rcc_css_int_flag
 .text.rcc_is_osc_ready
                0x0000000008048988       0x5c /home/user/Devel/stm32/libopencm3/lib/libopencm3_stm32f4.a(rcc.o)
                0x0000000008048988                rcc_is_osc_ready
 .text.rcc_wait_for_osc_ready
                0x00000000080489e4       0x10 /home/user/Devel/stm32/libopencm3/lib/libopencm3_stm32f4.a(rcc.o)
                0x00000000080489e4                rcc_wait_for_osc_ready
 .text.rcc_wait_for_sysclk_status
                0x00000000080489f4       0x3c /home/user/Devel/stm32/libopencm3/lib/libopencm3_stm32f4.a(rcc.o)
                0x00000000080489f4                rcc_wait_for_sysclk_status
 .text.rcc_osc_on
                0x0000000008048a30       0x58 /home/user/Devel/stm32/libopencm3/lib/libopencm3_stm32f4.a(rcc.o)
                0x0000000008048a30                rcc_osc_on
 .text.rcc_osc_off
                0x0000000008048a88       0x58 /home/user/Devel/stm32/libopencm3/lib/libopencm3_stm32f4.a(rcc.o)
                0x0000000008048a88                rcc_osc_off
 .text.rcc_css_enable
                0x0000000008048ae0       0x10 /home/user/Devel/stm32/libopencm3/lib/libopencm3_stm32f4.a(rcc.o)
                0x0000000008048ae0                rcc_css_enable
 .text.rcc_css_disable
                0x0000000008048af0       0x10 /home/user/Devel/stm32/libopencm3/lib/libopencm3_stm32f4.a(rcc.o)
                0x0000000008048af0                rcc_css_disable
 .text.rcc_osc_bypass_enable
                0x0000000008048b00       0x28 /home/user/Devel/stm32/libopencm3/lib/libopencm3_stm32f4.a(rcc.o)
                0x0000000008048b00                rcc_osc_bypass_enable
 .text.rcc_osc_bypass_disable
                0x0000000008048b28       0x28 /home/user/Devel/stm32/libopencm3/lib/libopencm3_stm32f4.a(rcc.o)
                0x0000000008048b28                rcc_osc_bypass_disable
 .text.rcc_pllsai_config
                0x0000000008048b50       0x2c /home/user/Devel/stm32/libopencm3/lib/libopencm3_stm32f4.a(rcc.o)
                0x0000000008048b50                rcc_pllsai_config
 .text.rcc_pllsai_postscalers
                0x0000000008048b7c       0x24 /home/user/Devel/stm32/libopencm3/lib/libopencm3_stm32f4.a(rcc.o)
                0x0000000008048b7c                rcc_pllsai_postscalers
 .text.rcc_set_sysclk_source
                0x0000000008048ba0       0x14 /home/user/Devel/stm32/libopencm3/lib/libopencm3_stm32f4.a(rcc.o)
                0x0000000008048ba0                rcc_set_sysclk_source
 .text.rcc_set_pll_source
                0x0000000008048bb4       0x14 /home/user/Devel/stm32/libopencm3/lib/libopencm3_stm32f4.a(rcc.o)
                0x0000000008048bb4                rcc_set_pll_source
 .text.rcc_set_ppre2
                0x0000000008048bc8       0x14 /home/user/Devel/stm32/libopencm3/lib/libopencm3_stm32f4.a(rcc.o)
                0x0000000008048bc8                rcc_set_ppre2
 .text.rcc_set_ppre1
                0x0000000008048bdc       0x14 /home/user/Devel/stm32/libopencm3/lib/libopencm3_stm32f4.a(rcc.o)
                0x0000000008048bdc                rcc_set_ppre1
 .text.rcc_set_hpre
                0x0000000008048bf0       0x14 /home/user/Devel/stm32/libopencm3/lib/libopencm3_stm32f4.a(rcc.o)
                0x0000000008048bf0                rcc_set_hpre
 .text.rcc_set_rtcpre
                0x0000000008048c04       0x14 /home/user/Devel/stm32/libopencm3/lib/libopencm3_stm32f4.a(rcc.o)
                0x0000000008048c04                rcc_set_rtcpre
 .text.rcc_set_main_pll_hsi
                0x0000000008048c18       0x44 /home/user/Devel/stm32/libopencm3/lib/libopencm3_stm32f4.a(rcc.o)
                0x0000000008048c18                rcc_set_main_pll_hsi
 .text.rcc_set_main_pll_hse
                0x0000000008048c5c       0x48 /home/user/Devel/stm32/libopencm3/lib/libopencm3_stm32f4.a(rcc.o)
                0x0000000008048c5c                rcc_set_main_pll_hse
 .text.rcc_system_clock_source
                0x0000000008048ca4       0x10 /home/user/Devel/stm32/libopencm3/lib/libopencm3_stm32f4.a(rcc.o)
                0x0000000008048ca4                rcc_system_clock_source
 .text.rcc_clock_setup_hse_3v3
                0x0000000008048cb4       0xa8 /home/user/Devel/stm32/libopencm3/lib/libopencm3_stm32f4.a(rcc.o)
                0x0000000008048cb4                rcc_clock_setup_hse_3v3
 .text          0x0000000008048d5c        0x0 /home/user/Devel/stm32/libopencm3/lib/libopencm3_stm32f4.a(crc_common_all.o)
 .text.crc_reset
                0x0000000008048d5c       0x10 /home/user/Devel/stm32/libopencm3/lib/libopencm3_stm32f4.a(crc_common_all.o)
                0x0000000008048d5c                crc_reset
 .text.crc_calculate
                0x0000000008048d6c        0xc /home/user/Devel/stm32/libopencm3/lib/libopencm3_stm32f4.a(crc_common_all.o)
                0x0000000008048d6c                crc_calculate
 .text.crc_calculate_block
                0x0000000008048d78       0x20 /home/user/Devel/stm32/libopencm3/lib/libopencm3_stm32f4.a(crc_common_all.o)
                0x0000000008048d78                crc_calculate_block
 .text          0x0000000008048d98        0x0 /home/user/Devel/stm32/libopencm3/lib/libopencm3_stm32f4.a(dma_common_f24.o)
 .text.dma_stream_reset
                0x0000000008048d98       0x4c /home/user/Devel/stm32/libopencm3/lib/libopencm3_stm32f4.a(dma_common_f24.o)
                0x0000000008048d98                dma_stream_reset
 .text.dma_clear_interrupt_flags
                0x0000000008048de4       0x1e /home/user/Devel/stm32/libopencm3/lib/libopencm3_stm32f4.a(dma_common_f24.o)
                0x0000000008048de4                dma_clear_interrupt_flags
 .text.dma_get_interrupt_flag
                0x0000000008048e02       0x28 /home/user/Devel/stm32/libopencm3/lib/libopencm3_stm32f4.a(dma_common_f24.o)
                0x0000000008048e02                dma_get_interrupt_flag
 .text.dma_set_transfer_mode
                0x0000000008048e2a       0x22 /home/user/Devel/stm32/libopencm3/lib/libopencm3_stm32f4.a(dma_common_f24.o)
                0x0000000008048e2a                dma_set_transfer_mode
 .text.dma_set_priority
                0x0000000008048e4c       0x18 /home/user/Devel/stm32/libopencm3/lib/libopencm3_stm32f4.a(dma_common_f24.o)
                0x0000000008048e4c                dma_set_priority
 .text.dma_set_memory_size
                0x0000000008048e64       0x18 /home/user/Devel/stm32/libopencm3/lib/libopencm3_stm32f4.a(dma_common_f24.o)
                0x0000000008048e64                dma_set_memory_size
 .text.dma_set_peripheral_size
                0x0000000008048e7c       0x18 /home/user/Devel/stm32/libopencm3/lib/libopencm3_stm32f4.a(dma_common_f24.o)
                0x0000000008048e7c                dma_set_peripheral_size
 .text.dma_enable_memory_increment_mode
                0x0000000008048e94       0x12 /home/user/Devel/stm32/libopencm3/lib/libopencm3_stm32f4.a(dma_common_f24.o)
                0x0000000008048e94                dma_enable_memory_increment_mode
 .text.dma_disable_memory_increment_mode
                0x0000000008048ea6       0x12 /home/user/Devel/stm32/libopencm3/lib/libopencm3_stm32f4.a(dma_common_f24.o)
                0x0000000008048ea6                dma_disable_memory_increment_mode
 .text.dma_enable_peripheral_increment_mode
                0x0000000008048eb8       0x16 /home/user/Devel/stm32/libopencm3/lib/libopencm3_stm32f4.a(dma_common_f24.o)
                0x0000000008048eb8                dma_enable_peripheral_increment_mode
 .text.dma_disable_peripheral_increment_mode
                0x0000000008048ece       0x12 /home/user/Devel/stm32/libopencm3/lib/libopencm3_stm32f4.a(dma_common_f24.o)
                0x0000000008048ece                dma_disable_peripheral_increment_mode
 .text.dma_enable_fixed_peripheral_increment_mode
                0x0000000008048ee0       0x12 /home/user/Devel/stm32/libopencm3/lib/libopencm3_stm32f4.a(dma_common_f24.o)
                0x0000000008048ee0                dma_enable_fixed_peripheral_increment_mode
 .text.dma_enable_circular_mode
                0x0000000008048ef2       0x12 /home/user/Devel/stm32/libopencm3/lib/libopencm3_stm32f4.a(dma_common_f24.o)
                0x0000000008048ef2                dma_enable_circular_mode
 .text.dma_channel_select
                0x0000000008048f04       0x10 /home/user/Devel/stm32/libopencm3/lib/libopencm3_stm32f4.a(dma_common_f24.o)
                0x0000000008048f04                dma_channel_select
 .text.dma_set_memory_burst
                0x0000000008048f14       0x14 /home/user/Devel/stm32/libopencm3/lib/libopencm3_stm32f4.a(dma_common_f24.o)
                0x0000000008048f14                dma_set_memory_burst
 .text.dma_set_peripheral_burst
                0x0000000008048f28       0x14 /home/user/Devel/stm32/libopencm3/lib/libopencm3_stm32f4.a(dma_common_f24.o)
                0x0000000008048f28                dma_set_peripheral_burst
 .text.dma_set_initial_target
                0x0000000008048f3c       0x1a /home/user/Devel/stm32/libopencm3/lib/libopencm3_stm32f4.a(dma_common_f24.o)
                0x0000000008048f3c                dma_set_initial_target
 .text.dma_get_target
                0x0000000008048f56       0x10 /home/user/Devel/stm32/libopencm3/lib/libopencm3_stm32f4.a(dma_common_f24.o)
                0x0000000008048f56                dma_get_target
 .text.dma_enable_double_buffer_mode
                0x0000000008048f66       0x12 /home/user/Devel/stm32/libopencm3/lib/libopencm3_stm32f4.a(dma_common_f24.o)
                0x0000000008048f66                dma_enable_double_buffer_mode
 .text.dma_disable_double_buffer_mode
                0x0000000008048f78       0x12 /home/user/Devel/stm32/libopencm3/lib/libopencm3_stm32f4.a(dma_common_f24.o)
                0x0000000008048f78                dma_disable_double_buffer_mode
 .text.dma_set_peripheral_flow_control
                0x0000000008048f8a       0x12 /home/user/Devel/stm32/libopencm3/lib/libopencm3_stm32f4.a(dma_common_f24.o)
                0x0000000008048f8a                dma_set_peripheral_flow_control
 .text.dma_set_dma_flow_control
                0x0000000008048f9c       0x12 /home/user/Devel/stm32/libopencm3/lib/libopencm3_stm32f4.a(dma_common_f24.o)
                0x0000000008048f9c                dma_set_dma_flow_control
 .text.dma_enable_transfer_error_interrupt
                0x0000000008048fae       0x1e /home/user/Devel/stm32/libopencm3/lib/libopencm3_stm32f4.a(dma_common_f24.o)
                0x0000000008048fae                dma_enable_transfer_error_interrupt
 .text.dma_disable_transfer_error_interrupt
                0x0000000008048fcc       0x12 /home/user/Devel/stm32/libopencm3/lib/libopencm3_stm32f4.a(dma_common_f24.o)
                0x0000000008048fcc                dma_disable_transfer_error_interrupt
 .text.dma_enable_half_transfer_interrupt
                0x0000000008048fde       0x1e /home/user/Devel/stm32/libopencm3/lib/libopencm3_stm32f4.a(dma_common_f24.o)
                0x0000000008048fde                dma_enable_half_transfer_interrupt
 .text.dma_disable_half_transfer_interrupt
                0x0000000008048ffc       0x12 /home/user/Devel/stm32/libopencm3/lib/libopencm3_stm32f4.a(dma_common_f24.o)
                0x0000000008048ffc                dma_disable_half_transfer_interrupt
 .text.dma_enable_transfer_complete_interrupt
                0x000000000804900e       0x1e /home/user/Devel/stm32/libopencm3/lib/libopencm3_stm32f4.a(dma_common_f24.o)
                0x000000000804900e                dma_enable_transfer_complete_interrupt
 .text.dma_disable_transfer_complete_interrupt
                0x000000000804902c       0x12 /home/user/Devel/stm32/libopencm3/lib/libopencm3_stm32f4.a(dma_common_f24.o)
                0x000000000804902c                dma_disable_transfer_complete_interrupt
 .text.dma_enable_direct_mode_error_interrupt
                0x000000000804903e       0x1e /home/user/Devel/stm32/libopencm3/lib/libopencm3_stm32f4.a(dma_common_f24.o)
                0x000000000804903e                dma_enable_direct_mode_error_interrupt
 .text.dma_disable_direct_mode_error_interrupt
                0x000000000804905c       0x12 /home/user/Devel/stm32/libopencm3/lib/libopencm3_stm32f4.a(dma_common_f24.o)
                0x000000000804905c                dma_disable_direct_mode_error_interrupt
 .text.dma_enable_fifo_error_interrupt
                0x000000000804906e       0x1e /home/user/Devel/stm32/libopencm3/lib/libopencm3_stm32f4.a(dma_common_f24.o)
                0x000000000804906e                dma_enable_fifo_error_interrupt
 .text.dma_disable_fifo_error_interrupt
                0x000000000804908c       0x12 /home/user/Devel/stm32/libopencm3/lib/libopencm3_stm32f4.a(dma_common_f24.o)
                0x000000000804908c                dma_disable_fifo_error_interrupt
 .text.dma_fifo_status
                0x000000000804909e       0x10 /home/user/Devel/stm32/libopencm3/lib/libopencm3_stm32f4.a(dma_common_f24.o)
                0x000000000804909e                dma_fifo_status
 .text.dma_enable_direct_mode
                0x00000000080490ae       0x12 /home/user/Devel/stm32/libopencm3/lib/libopencm3_stm32f4.a(dma_common_f24.o)
                0x00000000080490ae                dma_enable_direct_mode
 .text.dma_enable_fifo_mode
                0x00000000080490c0       0x12 /home/user/Devel/stm32/libopencm3/lib/libopencm3_stm32f4.a(dma_common_f24.o)
                0x00000000080490c0                dma_enable_fifo_mode
 .text.dma_set_fifo_threshold
                0x00000000080490d2       0x14 /home/user/Devel/stm32/libopencm3/lib/libopencm3_stm32f4.a(dma_common_f24.o)
                0x00000000080490d2                dma_set_fifo_threshold
 .text.dma_enable_stream
                0x00000000080490e6       0x12 /home/user/Devel/stm32/libopencm3/lib/libopencm3_stm32f4.a(dma_common_f24.o)
                0x00000000080490e6                dma_enable_stream
 .text.dma_disable_stream
                0x00000000080490f8       0x12 /home/user/Devel/stm32/libopencm3/lib/libopencm3_stm32f4.a(dma_common_f24.o)
                0x00000000080490f8                dma_disable_stream
 .text.dma_set_peripheral_address
                0x000000000804910a       0x10 /home/user/Devel/stm32/libopencm3/lib/libopencm3_stm32f4.a(dma_common_f24.o)
                0x000000000804910a                dma_set_peripheral_address
 .text.dma_set_memory_address
                0x000000000804911a       0x1a /home/user/Devel/stm32/libopencm3/lib/libopencm3_stm32f4.a(dma_common_f24.o)
                0x000000000804911a                dma_set_memory_address
 .text.dma_set_memory_address_1
                0x0000000008049134       0x1a /home/user/Devel/stm32/libopencm3/lib/libopencm3_stm32f4.a(dma_common_f24.o)
                0x0000000008049134                dma_set_memory_address_1
 .text.dma_set_number_of_data
                0x000000000804914e        0xc /home/user/Devel/stm32/libopencm3/lib/libopencm3_stm32f4.a(dma_common_f24.o)
                0x000000000804914e                dma_set_number_of_data
 .text          0x000000000804915a        0x0 /home/user/Devel/stm32/libopencm3/lib/libopencm3_stm32f4.a(gpio_common_all.o)
 .text.gpio_set
                0x000000000804915a        0x4 /home/user/Devel/stm32/libopencm3/lib/libopencm3_stm32f4.a(gpio_common_all.o)
                0x000000000804915a                gpio_set
 .text.gpio_clear
                0x000000000804915e        0x6 /home/user/Devel/stm32/libopencm3/lib/libopencm3_stm32f4.a(gpio_common_all.o)
                0x000000000804915e                gpio_clear
 .text.gpio_get
                0x0000000008049164        0x6 /home/user/Devel/stm32/libopencm3/lib/libopencm3_stm32f4.a(gpio_common_all.o)
                0x0000000008049164                gpio_get
 .text.gpio_toggle
                0x000000000804916a       0x12 /home/user/Devel/stm32/libopencm3/lib/libopencm3_stm32f4.a(gpio_common_all.o)
                0x000000000804916a                gpio_toggle
 .text.gpio_port_read
                0x000000000804917c        0x6 /home/user/Devel/stm32/libopencm3/lib/libopencm3_stm32f4.a(gpio_common_all.o)
                0x000000000804917c                gpio_port_read
 .text.gpio_port_write
                0x0000000008049182        0x4 /home/user/Devel/stm32/libopencm3/lib/libopencm3_stm32f4.a(gpio_common_all.o)
                0x0000000008049182                gpio_port_write
 .text.gpio_port_config_lock
                0x0000000008049186       0x10 /home/user/Devel/stm32/libopencm3/lib/libopencm3_stm32f4.a(gpio_common_all.o)
                0x0000000008049186                gpio_port_config_lock
 .text          0x0000000008049196        0x0 /home/user/Devel/stm32/libopencm3/lib/libopencm3_stm32f4.a(gpio_common_f0234.o)
 .text.gpio_mode_setup
                0x0000000008049196       0x44 /home/user/Devel/stm32/libopencm3/lib/libopencm3_stm32f4.a(gpio_common_f0234.o)
                0x0000000008049196                gpio_mode_setup
 .text.gpio_set_output_options
                0x00000000080491da       0x36 /home/user/Devel/stm32/libopencm3/lib/libopencm3_stm32f4.a(gpio_common_f0234.o)
                0x00000000080491da                gpio_set_output_options
 .text.gpio_set_af
                0x0000000008049210       0x58 /home/user/Devel/stm32/libopencm3/lib/libopencm3_stm32f4.a(gpio_common_f0234.o)
                0x0000000008049210                gpio_set_af
 .text          0x0000000008049268        0x0 /home/user/Devel/stm32/libopencm3/lib/libopencm3_stm32f4.a(i2c_common_v1.o)
 .text.i2c_reset
                0x0000000008049268       0x30 /home/user/Devel/stm32/libopencm3/lib/libopencm3_stm32f4.a(i2c_common_v1.o)
                0x0000000008049268                i2c_reset
 .text.i2c_peripheral_enable
                0x0000000008049298        0xa /home/user/Devel/stm32/libopencm3/lib/libopencm3_stm32f4.a(i2c_common_v1.o)
                0x0000000008049298                i2c_peripheral_enable
 .text.i2c_peripheral_disable
                0x00000000080492a2        0xa /home/user/Devel/stm32/libopencm3/lib/libopencm3_stm32f4.a(i2c_common_v1.o)
                0x00000000080492a2                i2c_peripheral_disable
 .text.i2c_send_start
                0x00000000080492ac        0xa /home/user/Devel/stm32/libopencm3/lib/libopencm3_stm32f4.a(i2c_common_v1.o)
                0x00000000080492ac                i2c_send_start
 .text.i2c_send_stop
                0x00000000080492b6        0xa /home/user/Devel/stm32/libopencm3/lib/libopencm3_stm32f4.a(i2c_common_v1.o)
                0x00000000080492b6                i2c_send_stop
 .text.i2c_clear_stop
                0x00000000080492c0        0xa /home/user/Devel/stm32/libopencm3/lib/libopencm3_stm32f4.a(i2c_common_v1.o)
                0x00000000080492c0                i2c_clear_stop
 .text.i2c_set_own_7bit_slave_address
                0x00000000080492ca        0xa /home/user/Devel/stm32/libopencm3/lib/libopencm3_stm32f4.a(i2c_common_v1.o)
                0x00000000080492ca                i2c_set_own_7bit_slave_address
 .text.i2c_set_own_10bit_slave_address
                0x00000000080492d4        0x8 /home/user/Devel/stm32/libopencm3/lib/libopencm3_stm32f4.a(i2c_common_v1.o)
                0x00000000080492d4                i2c_set_own_10bit_slave_address
 .text.i2c_set_own_7bit_slave_address_two
                0x00000000080492dc        0x6 /home/user/Devel/stm32/libopencm3/lib/libopencm3_stm32f4.a(i2c_common_v1.o)
                0x00000000080492dc                i2c_set_own_7bit_slave_address_two
 .text.i2c_enable_dual_addressing_mode
                0x00000000080492e2        0xa /home/user/Devel/stm32/libopencm3/lib/libopencm3_stm32f4.a(i2c_common_v1.o)
                0x00000000080492e2                i2c_enable_dual_addressing_mode
 .text.i2c_disable_dual_addressing_mode
                0x00000000080492ec        0xa /home/user/Devel/stm32/libopencm3/lib/libopencm3_stm32f4.a(i2c_common_v1.o)
                0x00000000080492ec                i2c_disable_dual_addressing_mode
 .text.i2c_set_clock_frequency
                0x00000000080492f6        0xe /home/user/Devel/stm32/libopencm3/lib/libopencm3_stm32f4.a(i2c_common_v1.o)
                0x00000000080492f6                i2c_set_clock_frequency
 .text.i2c_send_data
                0x0000000008049304        0x4 /home/user/Devel/stm32/libopencm3/lib/libopencm3_stm32f4.a(i2c_common_v1.o)
                0x0000000008049304                i2c_send_data
 .text.i2c_set_fast_mode
                0x0000000008049308        0xa /home/user/Devel/stm32/libopencm3/lib/libopencm3_stm32f4.a(i2c_common_v1.o)
                0x0000000008049308                i2c_set_fast_mode
 .text.i2c_set_standard_mode
                0x0000000008049312        0xa /home/user/Devel/stm32/libopencm3/lib/libopencm3_stm32f4.a(i2c_common_v1.o)
                0x0000000008049312                i2c_set_standard_mode
 .text.i2c_set_ccr
                0x000000000804931c        0xc /home/user/Devel/stm32/libopencm3/lib/libopencm3_stm32f4.a(i2c_common_v1.o)
                0x000000000804931c                i2c_set_ccr
 .text.i2c_set_trise
                0x0000000008049328        0x4 /home/user/Devel/stm32/libopencm3/lib/libopencm3_stm32f4.a(i2c_common_v1.o)
                0x0000000008049328                i2c_set_trise
 .text.i2c_send_7bit_address
                0x000000000804932c        0xa /home/user/Devel/stm32/libopencm3/lib/libopencm3_stm32f4.a(i2c_common_v1.o)
                0x000000000804932c                i2c_send_7bit_address
 .text.i2c_get_data
                0x0000000008049336        0x6 /home/user/Devel/stm32/libopencm3/lib/libopencm3_stm32f4.a(i2c_common_v1.o)
                0x0000000008049336                i2c_get_data
 .text.i2c_enable_interrupt
                0x000000000804933c        0x8 /home/user/Devel/stm32/libopencm3/lib/libopencm3_stm32f4.a(i2c_common_v1.o)
                0x000000000804933c                i2c_enable_interrupt
 .text.i2c_disable_interrupt
                0x0000000008049344        0xa /home/user/Devel/stm32/libopencm3/lib/libopencm3_stm32f4.a(i2c_common_v1.o)
                0x0000000008049344                i2c_disable_interrupt
 .text.i2c_enable_ack
                0x000000000804934e        0xa /home/user/Devel/stm32/libopencm3/lib/libopencm3_stm32f4.a(i2c_common_v1.o)
                0x000000000804934e                i2c_enable_ack
 .text.i2c_disable_ack
                0x0000000008049358        0xa /home/user/Devel/stm32/libopencm3/lib/libopencm3_stm32f4.a(i2c_common_v1.o)
                0x0000000008049358                i2c_disable_ack
 .text.i2c_nack_next
                0x0000000008049362        0xa /home/user/Devel/stm32/libopencm3/lib/libopencm3_stm32f4.a(i2c_common_v1.o)
                0x0000000008049362                i2c_nack_next
 .text.i2c_nack_current
                0x000000000804936c        0xa /home/user/Devel/stm32/libopencm3/lib/libopencm3_stm32f4.a(i2c_common_v1.o)
                0x000000000804936c                i2c_nack_current
 .text.i2c_set_dutycycle
                0x0000000008049376       0x12 /home/user/Devel/stm32/libopencm3/lib/libopencm3_stm32f4.a(i2c_common_v1.o)
                0x0000000008049376                i2c_set_dutycycle
 .text.i2c_enable_dma
                0x0000000008049388        0xa /home/user/Devel/stm32/libopencm3/lib/libopencm3_stm32f4.a(i2c_common_v1.o)
                0x0000000008049388                i2c_enable_dma
 .text.i2c_disable_dma
                0x0000000008049392        0xa /home/user/Devel/stm32/libopencm3/lib/libopencm3_stm32f4.a(i2c_common_v1.o)
                0x0000000008049392                i2c_disable_dma
 .text.i2c_set_dma_last_transfer
                0x000000000804939c        0xa /home/user/Devel/stm32/libopencm3/lib/libopencm3_stm32f4.a(i2c_common_v1.o)
                0x000000000804939c                i2c_set_dma_last_transfer
 .text.i2c_clear_dma_last_transfer
                0x00000000080493a6        0xa /home/user/Devel/stm32/libopencm3/lib/libopencm3_stm32f4.a(i2c_common_v1.o)
                0x00000000080493a6                i2c_clear_dma_last_transfer
 .text.i2c_transfer7
                0x00000000080493b0       0xc2 /home/user/Devel/stm32/libopencm3/lib/libopencm3_stm32f4.a(i2c_common_v1.o)
                0x00000000080493b0                i2c_transfer7
 .text          0x0000000008049472        0x0 /home/user/Devel/stm32/libopencm3/lib/libopencm3_stm32f4.a(spi_common_all.o)
 *fill*         0x0000000008049472        0x2 
 .text.spi_reset
                0x0000000008049474       0x60 /home/user/Devel/stm32/libopencm3/lib/libopencm3_stm32f4.a(spi_common_all.o)
                0x0000000008049474                spi_reset
 .text.spi_enable
                0x00000000080494d4        0xa /home/user/Devel/stm32/libopencm3/lib/libopencm3_stm32f4.a(spi_common_all.o)
                0x00000000080494d4                spi_enable
 .text.spi_disable
                0x00000000080494de        0xa /home/user/Devel/stm32/libopencm3/lib/libopencm3_stm32f4.a(spi_common_all.o)
                0x00000000080494de                spi_disable
 .text.spi_clean_disable
                0x00000000080494e8       0x26 /home/user/Devel/stm32/libopencm3/lib/libopencm3_stm32f4.a(spi_common_all.o)
                0x00000000080494e8                spi_clean_disable
 .text.spi_write
                0x000000000804950e        0x4 /home/user/Devel/stm32/libopencm3/lib/libopencm3_stm32f4.a(spi_common_all.o)
                0x000000000804950e                spi_write
 .text.spi_send
                0x0000000008049512        0xa /home/user/Devel/stm32/libopencm3/lib/libopencm3_stm32f4.a(spi_common_all.o)
                0x0000000008049512                spi_send
 .text.spi_read
                0x000000000804951c        0xc /home/user/Devel/stm32/libopencm3/lib/libopencm3_stm32f4.a(spi_common_all.o)
                0x000000000804951c                spi_read
 .text.spi_xfer
                0x0000000008049528        0xe /home/user/Devel/stm32/libopencm3/lib/libopencm3_stm32f4.a(spi_common_all.o)
                0x0000000008049528                spi_xfer
 .text.spi_set_bidirectional_mode
                0x0000000008049536        0xa /home/user/Devel/stm32/libopencm3/lib/libopencm3_stm32f4.a(spi_common_all.o)
                0x0000000008049536                spi_set_bidirectional_mode
 .text.spi_set_unidirectional_mode
                0x0000000008049540        0xa /home/user/Devel/stm32/libopencm3/lib/libopencm3_stm32f4.a(spi_common_all.o)
                0x0000000008049540                spi_set_unidirectional_mode
 .text.spi_set_bidirectional_receive_only_mode
                0x000000000804954a       0x12 /home/user/Devel/stm32/libopencm3/lib/libopencm3_stm32f4.a(spi_common_all.o)
                0x000000000804954a                spi_set_bidirectional_receive_only_mode
 .text.spi_set_bidirectional_transmit_only_mode
                0x000000000804955c       0x12 /home/user/Devel/stm32/libopencm3/lib/libopencm3_stm32f4.a(spi_common_all.o)
                0x000000000804955c                spi_set_bidirectional_transmit_only_mode
 .text.spi_enable_crc
                0x000000000804956e        0xa /home/user/Devel/stm32/libopencm3/lib/libopencm3_stm32f4.a(spi_common_all.o)
                0x000000000804956e                spi_enable_crc
 .text.spi_disable_crc
                0x0000000008049578        0xa /home/user/Devel/stm32/libopencm3/lib/libopencm3_stm32f4.a(spi_common_all.o)
                0x0000000008049578                spi_disable_crc
 .text.spi_set_next_tx_from_buffer
                0x0000000008049582        0xa /home/user/Devel/stm32/libopencm3/lib/libopencm3_stm32f4.a(spi_common_all.o)
                0x0000000008049582                spi_set_next_tx_from_buffer
 .text.spi_set_next_tx_from_crc
                0x000000000804958c        0xa /home/user/Devel/stm32/libopencm3/lib/libopencm3_stm32f4.a(spi_common_all.o)
                0x000000000804958c                spi_set_next_tx_from_crc
 .text.spi_set_full_duplex_mode
                0x0000000008049596        0xa /home/user/Devel/stm32/libopencm3/lib/libopencm3_stm32f4.a(spi_common_all.o)
                0x0000000008049596                spi_set_full_duplex_mode
 .text.spi_set_receive_only_mode
                0x00000000080495a0        0xa /home/user/Devel/stm32/libopencm3/lib/libopencm3_stm32f4.a(spi_common_all.o)
                0x00000000080495a0                spi_set_receive_only_mode
 .text.spi_disable_software_slave_management
                0x00000000080495aa        0xa /home/user/Devel/stm32/libopencm3/lib/libopencm3_stm32f4.a(spi_common_all.o)
                0x00000000080495aa                spi_disable_software_slave_management
 .text.spi_enable_software_slave_management
                0x00000000080495b4       0x12 /home/user/Devel/stm32/libopencm3/lib/libopencm3_stm32f4.a(spi_common_all.o)
                0x00000000080495b4                spi_enable_software_slave_management
 .text.spi_set_nss_high
                0x00000000080495c6        0xa /home/user/Devel/stm32/libopencm3/lib/libopencm3_stm32f4.a(spi_common_all.o)
                0x00000000080495c6                spi_set_nss_high
 .text.spi_set_nss_low
                0x00000000080495d0        0xa /home/user/Devel/stm32/libopencm3/lib/libopencm3_stm32f4.a(spi_common_all.o)
                0x00000000080495d0                spi_set_nss_low
 .text.spi_send_lsb_first
                0x00000000080495da        0xa /home/user/Devel/stm32/libopencm3/lib/libopencm3_stm32f4.a(spi_common_all.o)
                0x00000000080495da                spi_send_lsb_first
 .text.spi_send_msb_first
                0x00000000080495e4        0xa /home/user/Devel/stm32/libopencm3/lib/libopencm3_stm32f4.a(spi_common_all.o)
                0x00000000080495e4                spi_send_msb_first
 .text.spi_set_baudrate_prescaler
                0x00000000080495ee       0x14 /home/user/Devel/stm32/libopencm3/lib/libopencm3_stm32f4.a(spi_common_all.o)
                0x00000000080495ee                spi_set_baudrate_prescaler
 .text.spi_set_master_mode
                0x0000000008049602        0xa /home/user/Devel/stm32/libopencm3/lib/libopencm3_stm32f4.a(spi_common_all.o)
                0x0000000008049602                spi_set_master_mode
 .text.spi_set_slave_mode
                0x000000000804960c        0xa /home/user/Devel/stm32/libopencm3/lib/libopencm3_stm32f4.a(spi_common_all.o)
                0x000000000804960c                spi_set_slave_mode
 .text.spi_set_clock_polarity_1
                0x0000000008049616        0xa /home/user/Devel/stm32/libopencm3/lib/libopencm3_stm32f4.a(spi_common_all.o)
                0x0000000008049616                spi_set_clock_polarity_1
 .text.spi_set_clock_polarity_0
                0x0000000008049620        0xa /home/user/Devel/stm32/libopencm3/lib/libopencm3_stm32f4.a(spi_common_all.o)
                0x0000000008049620                spi_set_clock_polarity_0
 .text.spi_set_clock_phase_1
                0x000000000804962a        0xa /home/user/Devel/stm32/libopencm3/lib/libopencm3_stm32f4.a(spi_common_all.o)
                0x000000000804962a                spi_set_clock_phase_1
 .text.spi_set_clock_phase_0
                0x0000000008049634        0xa /home/user/Devel/stm32/libopencm3/lib/libopencm3_stm32f4.a(spi_common_all.o)
                0x0000000008049634                spi_set_clock_phase_0
 .text.spi_enable_tx_buffer_empty_interrupt
                0x000000000804963e        0xa /home/user/Devel/stm32/libopencm3/lib/libopencm3_stm32f4.a(spi_common_all.o)
                0x000000000804963e                spi_enable_tx_buffer_empty_interrupt
 .text.spi_disable_tx_buffer_empty_interrupt
                0x0000000008049648        0xa /home/user/Devel/stm32/libopencm3/lib/libopencm3_stm32f4.a(spi_common_all.o)
                0x0000000008049648                spi_disable_tx_buffer_empty_interrupt
 .text.spi_enable_rx_buffer_not_empty_interrupt
                0x0000000008049652        0xa /home/user/Devel/stm32/libopencm3/lib/libopencm3_stm32f4.a(spi_common_all.o)
                0x0000000008049652                spi_enable_rx_buffer_not_empty_interrupt
 .text.spi_disable_rx_buffer_not_empty_interrupt
                0x000000000804965c        0xa /home/user/Devel/stm32/libopencm3/lib/libopencm3_stm32f4.a(spi_common_all.o)
                0x000000000804965c                spi_disable_rx_buffer_not_empty_interrupt
 .text.spi_enable_error_interrupt
                0x0000000008049666        0xa /home/user/Devel/stm32/libopencm3/lib/libopencm3_stm32f4.a(spi_common_all.o)
                0x0000000008049666                spi_enable_error_interrupt
 .text.spi_disable_error_interrupt
                0x0000000008049670        0xa /home/user/Devel/stm32/libopencm3/lib/libopencm3_stm32f4.a(spi_common_all.o)
                0x0000000008049670                spi_disable_error_interrupt
 .text.spi_enable_ss_output
                0x000000000804967a        0xa /home/user/Devel/stm32/libopencm3/lib/libopencm3_stm32f4.a(spi_common_all.o)
                0x000000000804967a                spi_enable_ss_output
 .text.spi_disable_ss_output
                0x0000000008049684        0xa /home/user/Devel/stm32/libopencm3/lib/libopencm3_stm32f4.a(spi_common_all.o)
                0x0000000008049684                spi_disable_ss_output
 .text.spi_enable_tx_dma
                0x000000000804968e        0xa /home/user/Devel/stm32/libopencm3/lib/libopencm3_stm32f4.a(spi_common_all.o)
                0x000000000804968e                spi_enable_tx_dma
 .text.spi_disable_tx_dma
                0x0000000008049698        0xa /home/user/Devel/stm32/libopencm3/lib/libopencm3_stm32f4.a(spi_common_all.o)
                0x0000000008049698                spi_disable_tx_dma
 .text.spi_enable_rx_dma
                0x00000000080496a2        0xa /home/user/Devel/stm32/libopencm3/lib/libopencm3_stm32f4.a(spi_common_all.o)
                0x00000000080496a2                spi_enable_rx_dma
 .text.spi_disable_rx_dma
                0x00000000080496ac        0xa /home/user/Devel/stm32/libopencm3/lib/libopencm3_stm32f4.a(spi_common_all.o)
                0x00000000080496ac                spi_disable_rx_dma
 .text.spi_set_standard_mode
                0x00000000080496b6       0x10 /home/user/Devel/stm32/libopencm3/lib/libopencm3_stm32f4.a(spi_common_all.o)
                0x00000000080496b6                spi_set_standard_mode
 .text          0x00000000080496c6        0x0 /home/user/Devel/stm32/libopencm3/lib/libopencm3_stm32f4.a(spi_common_l1f124.o)
 .text.spi_init_master
                0x00000000080496c6       0x2a /home/user/Devel/stm32/libopencm3/lib/libopencm3_stm32f4.a(spi_common_l1f124.o)
                0x00000000080496c6                spi_init_master
 .text.spi_set_dff_8bit
                0x00000000080496f0        0xa /home/user/Devel/stm32/libopencm3/lib/libopencm3_stm32f4.a(spi_common_l1f124.o)
                0x00000000080496f0                spi_set_dff_8bit
 .text.spi_set_dff_16bit
                0x00000000080496fa        0xa /home/user/Devel/stm32/libopencm3/lib/libopencm3_stm32f4.a(spi_common_l1f124.o)
                0x00000000080496fa                spi_set_dff_16bit
 .text          0x0000000008049704        0x0 /home/user/Devel/stm32/libopencm3/lib/libopencm3_stm32f4.a(usart_common_all.o)
 .text.usart_set_baudrate
                0x0000000008049704       0x30 /home/user/Devel/stm32/libopencm3/lib/libopencm3_stm32f4.a(usart_common_all.o)
                0x0000000008049704                usart_set_baudrate
 .text.usart_set_databits
                0x0000000008049734       0x12 /home/user/Devel/stm32/libopencm3/lib/libopencm3_stm32f4.a(usart_common_all.o)
                0x0000000008049734                usart_set_databits
 .text.usart_set_stopbits
                0x0000000008049746        0xc /home/user/Devel/stm32/libopencm3/lib/libopencm3_stm32f4.a(usart_common_all.o)
                0x0000000008049746                usart_set_stopbits
 .text.usart_set_parity
                0x0000000008049752        0xc /home/user/Devel/stm32/libopencm3/lib/libopencm3_stm32f4.a(usart_common_all.o)
                0x0000000008049752                usart_set_parity
 .text.usart_set_mode
                0x000000000804975e        0xc /home/user/Devel/stm32/libopencm3/lib/libopencm3_stm32f4.a(usart_common_all.o)
                0x000000000804975e                usart_set_mode
 .text.usart_set_flow_control
                0x000000000804976a        0xc /home/user/Devel/stm32/libopencm3/lib/libopencm3_stm32f4.a(usart_common_all.o)
                0x000000000804976a                usart_set_flow_control
 .text.usart_enable
                0x0000000008049776        0xa /home/user/Devel/stm32/libopencm3/lib/libopencm3_stm32f4.a(usart_common_all.o)
                0x0000000008049776                usart_enable
 .text.usart_disable
                0x0000000008049780        0xa /home/user/Devel/stm32/libopencm3/lib/libopencm3_stm32f4.a(usart_common_all.o)
                0x0000000008049780                usart_disable
 .text.usart_send_blocking
                0x000000000804978a       0x16 /home/user/Devel/stm32/libopencm3/lib/libopencm3_stm32f4.a(usart_common_all.o)
                0x000000000804978a                usart_send_blocking
 .text.usart_recv_blocking
                0x00000000080497a0       0x12 /home/user/Devel/stm32/libopencm3/lib/libopencm3_stm32f4.a(usart_common_all.o)
                0x00000000080497a0                usart_recv_blocking
 .text.usart_enable_rx_dma
                0x00000000080497b2        0xa /home/user/Devel/stm32/libopencm3/lib/libopencm3_stm32f4.a(usart_common_all.o)
                0x00000000080497b2                usart_enable_rx_dma
 .text.usart_disable_rx_dma
                0x00000000080497bc        0xa /home/user/Devel/stm32/libopencm3/lib/libopencm3_stm32f4.a(usart_common_all.o)
                0x00000000080497bc                usart_disable_rx_dma
 .text.usart_enable_tx_dma
                0x00000000080497c6        0xa /home/user/Devel/stm32/libopencm3/lib/libopencm3_stm32f4.a(usart_common_all.o)
                0x00000000080497c6                usart_enable_tx_dma
 .text.usart_disable_tx_dma
                0x00000000080497d0        0xa /home/user/Devel/stm32/libopencm3/lib/libopencm3_stm32f4.a(usart_common_all.o)
                0x00000000080497d0                usart_disable_tx_dma
 .text.usart_enable_rx_interrupt
                0x00000000080497da        0xa /home/user/Devel/stm32/libopencm3/lib/libopencm3_stm32f4.a(usart_common_all.o)
                0x00000000080497da                usart_enable_rx_interrupt
 .text.usart_disable_rx_interrupt
                0x00000000080497e4        0xa /home/user/Devel/stm32/libopencm3/lib/libopencm3_stm32f4.a(usart_common_all.o)
                0x00000000080497e4                usart_disable_rx_interrupt
 .text.usart_enable_tx_interrupt
                0x00000000080497ee        0xa /home/user/Devel/stm32/libopencm3/lib/libopencm3_stm32f4.a(usart_common_all.o)
                0x00000000080497ee                usart_enable_tx_interrupt
 .text.usart_disable_tx_interrupt
                0x00000000080497f8        0xa /home/user/Devel/stm32/libopencm3/lib/libopencm3_stm32f4.a(usart_common_all.o)
                0x00000000080497f8                usart_disable_tx_interrupt
 .text.usart_enable_error_interrupt
                0x0000000008049802        0xa /home/user/Devel/stm32/libopencm3/lib/libopencm3_stm32f4.a(usart_common_all.o)
                0x0000000008049802                usart_enable_error_interrupt
 .text.usart_disable_error_interrupt
                0x000000000804980c        0xa /home/user/Devel/stm32/libopencm3/lib/libopencm3_stm32f4.a(usart_common_all.o)
                0x000000000804980c                usart_disable_error_interrupt
 .text          0x0000000008049816        0x0 /home/user/Devel/stm32/libopencm3/lib/libopencm3_stm32f4.a(usart_common_f124.o)
 .text.usart_send
                0x0000000008049816        0x8 /home/user/Devel/stm32/libopencm3/lib/libopencm3_stm32f4.a(usart_common_f124.o)
                0x0000000008049816                usart_send
 .text.usart_recv
                0x000000000804981e        0x8 /home/user/Devel/stm32/libopencm3/lib/libopencm3_stm32f4.a(usart_common_f124.o)
                0x000000000804981e                usart_recv
 .text.usart_wait_send_ready
                0x0000000008049826        0x8 /home/user/Devel/stm32/libopencm3/lib/libopencm3_stm32f4.a(usart_common_f124.o)
                0x0000000008049826                usart_wait_send_ready
 .text.usart_wait_recv_ready
                0x000000000804982e        0x8 /home/user/Devel/stm32/libopencm3/lib/libopencm3_stm32f4.a(usart_common_f124.o)
                0x000000000804982e                usart_wait_recv_ready
 .text.usart_get_flag
                0x0000000008049836        0xc /home/user/Devel/stm32/libopencm3/lib/libopencm3_stm32f4.a(usart_common_f124.o)
                0x0000000008049836                usart_get_flag
 .text          0x0000000008049842        0x0 /home/user/Devel/stm32/libopencm3/lib/libopencm3_stm32f4.a(flash_common_f234.o)
 *fill*         0x0000000008049842        0x2 
 .text.flash_set_ws
                0x0000000008049844       0x14 /home/user/Devel/stm32/libopencm3/lib/libopencm3_stm32f4.a(flash_common_f234.o)
                0x0000000008049844                flash_set_ws
 .text.flash_unlock
                0x0000000008049858       0x24 /home/user/Devel/stm32/libopencm3/lib/libopencm3_stm32f4.a(flash_common_f234.o)
                0x0000000008049858                flash_unlock
 .text.flash_lock
                0x000000000804987c       0x10 /home/user/Devel/stm32/libopencm3/lib/libopencm3_stm32f4.a(flash_common_f234.o)
                0x000000000804987c                flash_lock
 .text.flash_clear_pgperr_flag
                0x000000000804988c       0x10 /home/user/Devel/stm32/libopencm3/lib/libopencm3_stm32f4.a(flash_common_f234.o)
                0x000000000804988c                flash_clear_pgperr_flag
 .text.flash_clear_eop_flag
                0x000000000804989c       0x10 /home/user/Devel/stm32/libopencm3/lib/libopencm3_stm32f4.a(flash_common_f234.o)
                0x000000000804989c                flash_clear_eop_flag
 .text.flash_clear_bsy_flag
                0x00000000080498ac       0x10 /home/user/Devel/stm32/libopencm3/lib/libopencm3_stm32f4.a(flash_common_f234.o)
                0x00000000080498ac                flash_clear_bsy_flag
 .text.flash_wait_for_last_operation
                0x00000000080498bc       0x10 /home/user/Devel/stm32/libopencm3/lib/libopencm3_stm32f4.a(flash_common_f234.o)
                0x00000000080498bc                flash_wait_for_last_operation
 .text          0x00000000080498cc        0x0 /home/user/Devel/stm32/libopencm3/lib/libopencm3_stm32f4.a(flash_common_f24.o)
 .text.flash_set_program_size
                0x00000000080498cc       0x18 /home/user/Devel/stm32/libopencm3/lib/libopencm3_stm32f4.a(flash_common_f24.o)
 .text.flash_dcache_enable
                0x00000000080498e4       0x10 /home/user/Devel/stm32/libopencm3/lib/libopencm3_stm32f4.a(flash_common_f24.o)
                0x00000000080498e4                flash_dcache_enable
 .text.flash_dcache_disable
                0x00000000080498f4       0x10 /home/user/Devel/stm32/libopencm3/lib/libopencm3_stm32f4.a(flash_common_f24.o)
                0x00000000080498f4                flash_dcache_disable
 .text.flash_icache_enable
                0x0000000008049904       0x10 /home/user/Devel/stm32/libopencm3/lib/libopencm3_stm32f4.a(flash_common_f24.o)
                0x0000000008049904                flash_icache_enable
 .text.flash_icache_disable
                0x0000000008049914       0x10 /home/user/Devel/stm32/libopencm3/lib/libopencm3_stm32f4.a(flash_common_f24.o)
                0x0000000008049914                flash_icache_disable
 .text.flash_prefetch_enable
                0x0000000008049924       0x10 /home/user/Devel/stm32/libopencm3/lib/libopencm3_stm32f4.a(flash_common_f24.o)
                0x0000000008049924                flash_prefetch_enable
 .text.flash_prefetch_disable
                0x0000000008049934       0x10 /home/user/Devel/stm32/libopencm3/lib/libopencm3_stm32f4.a(flash_common_f24.o)
                0x0000000008049934                flash_prefetch_disable
 .text.flash_dcache_reset
                0x0000000008049944       0x10 /home/user/Devel/stm32/libopencm3/lib/libopencm3_stm32f4.a(flash_common_f24.o)
                0x0000000008049944                flash_dcache_reset
 .text.flash_icache_reset
                0x0000000008049954       0x10 /home/user/Devel/stm32/libopencm3/lib/libopencm3_stm32f4.a(flash_common_f24.o)
                0x0000000008049954                flash_icache_reset
 .text.flash_clear_pgserr_flag
                0x0000000008049964       0x10 /home/user/Devel/stm32/libopencm3/lib/libopencm3_stm32f4.a(flash_common_f24.o)
                0x0000000008049964                flash_clear_pgserr_flag
 .text.flash_clear_pgaerr_flag
                0x0000000008049974       0x10 /home/user/Devel/stm32/libopencm3/lib/libopencm3_stm32f4.a(flash_common_f24.o)
                0x0000000008049974                flash_clear_pgaerr_flag
 .text.flash_clear_wrperr_flag
                0x0000000008049984       0x10 /home/user/Devel/stm32/libopencm3/lib/libopencm3_stm32f4.a(flash_common_f24.o)
                0x0000000008049984                flash_clear_wrperr_flag
 .text.flash_clear_status_flags
                0x0000000008049994       0x1e /home/user/Devel/stm32/libopencm3/lib/libopencm3_stm32f4.a(flash_common_f24.o)
                0x0000000008049994                flash_clear_status_flags
 *fill*         0x00000000080499b2        0x2 
 .text.flash_unlock_option_bytes
                0x00000000080499b4       0x24 /home/user/Devel/stm32/libopencm3/lib/libopencm3_stm32f4.a(flash_common_f24.o)
                0x00000000080499b4                flash_unlock_option_bytes
 .text.flash_lock_option_bytes
                0x00000000080499d8       0x10 /home/user/Devel/stm32/libopencm3/lib/libopencm3_stm32f4.a(flash_common_f24.o)
                0x00000000080499d8                flash_lock_option_bytes
 .text.flash_program_double_word
                0x00000000080499e8       0x34 /home/user/Devel/stm32/libopencm3/lib/libopencm3_stm32f4.a(flash_common_f24.o)
                0x00000000080499e8                flash_program_double_word
 .text.flash_program_word
                0x0000000008049a1c       0x30 /home/user/Devel/stm32/libopencm3/lib/libopencm3_stm32f4.a(flash_common_f24.o)
                0x0000000008049a1c                flash_program_word
 .text.flash_program_half_word
                0x0000000008049a4c       0x30 /home/user/Devel/stm32/libopencm3/lib/libopencm3_stm32f4.a(flash_common_f24.o)
                0x0000000008049a4c                flash_program_half_word
 .text.flash_program_byte
                0x0000000008049a7c       0x30 /home/user/Devel/stm32/libopencm3/lib/libopencm3_stm32f4.a(flash_common_f24.o)
                0x0000000008049a7c                flash_program_byte
 .text.flash_program
                0x0000000008049aac       0x1a /home/user/Devel/stm32/libopencm3/lib/libopencm3_stm32f4.a(flash_common_f24.o)
                0x0000000008049aac                flash_program
 *fill*         0x0000000008049ac6        0x2 
 .text.flash_erase_sector
                0x0000000008049ac8       0x50 /home/user/Devel/stm32/libopencm3/lib/libopencm3_stm32f4.a(flash_common_f24.o)
                0x0000000008049ac8                flash_erase_sector
 .text.flash_erase_all_sectors
                0x0000000008049b18       0x34 /home/user/Devel/stm32/libopencm3/lib/libopencm3_stm32f4.a(flash_common_f24.o)
                0x0000000008049b18                flash_erase_all_sectors
 .text.flash_program_option_bytes
                0x0000000008049b4c       0x30 /home/user/Devel/stm32/libopencm3/lib/libopencm3_stm32f4.a(flash_common_f24.o)
                0x0000000008049b4c                flash_program_option_bytes
 .text          0x0000000008049b7c        0x0 /home/user/Devel/stm32/libopencm3/lib/libopencm3_stm32f4.a(exti_common_all.o)
 .text.exti_set_trigger
                0x0000000008049b7c       0x3c /home/user/Devel/stm32/libopencm3/lib/libopencm3_stm32f4.a(exti_common_all.o)
                0x0000000008049b7c                exti_set_trigger
 .text.exti_enable_request
                0x0000000008049bb8       0x14 /home/user/Devel/stm32/libopencm3/lib/libopencm3_stm32f4.a(exti_common_all.o)
                0x0000000008049bb8                exti_enable_request
 .text.exti_disable_request
                0x0000000008049bcc       0x18 /home/user/Devel/stm32/libopencm3/lib/libopencm3_stm32f4.a(exti_common_all.o)
                0x0000000008049bcc                exti_disable_request
 .text.exti_reset_request
                0x0000000008049be4        0xc /home/user/Devel/stm32/libopencm3/lib/libopencm3_stm32f4.a(exti_common_all.o)
                0x0000000008049be4                exti_reset_request
 .text.exti_get_flag_status
                0x0000000008049bf0        0xc /home/user/Devel/stm32/libopencm3/lib/libopencm3_stm32f4.a(exti_common_all.o)
                0x0000000008049bf0                exti_get_flag_status
 .text.exti_select_source
                0x0000000008049bfc       0xdc /home/user/Devel/stm32/libopencm3/lib/libopencm3_stm32f4.a(exti_common_all.o)
                0x0000000008049bfc                exti_select_source
 .text          0x0000000008049cd8        0x0 /home/user/Devel/stm32/libopencm3/lib/libopencm3_stm32f4.a(rcc_common_all.o)
 .text.rcc_peripheral_enable_clock
                0x0000000008049cd8        0x8 /home/user/Devel/stm32/libopencm3/lib/libopencm3_stm32f4.a(rcc_common_all.o)
                0x0000000008049cd8                rcc_peripheral_enable_clock
 .text.rcc_peripheral_disable_clock
                0x0000000008049ce0        0xa /home/user/Devel/stm32/libopencm3/lib/libopencm3_stm32f4.a(rcc_common_all.o)
                0x0000000008049ce0                rcc_peripheral_disable_clock
 .text.rcc_peripheral_reset
                0x0000000008049cea        0x8 /home/user/Devel/stm32/libopencm3/lib/libopencm3_stm32f4.a(rcc_common_all.o)
                0x0000000008049cea                rcc_peripheral_reset
 .text.rcc_peripheral_clear_reset
                0x0000000008049cf2        0xa /home/user/Devel/stm32/libopencm3/lib/libopencm3_stm32f4.a(rcc_common_all.o)
                0x0000000008049cf2                rcc_peripheral_clear_reset
 .text.rcc_periph_clock_enable
                0x0000000008049cfc       0x1c /home/user/Devel/stm32/libopencm3/lib/libopencm3_stm32f4.a(rcc_common_all.o)
                0x0000000008049cfc                rcc_periph_clock_enable
 .text.rcc_periph_clock_disable
                0x0000000008049d18       0x1e /home/user/Devel/stm32/libopencm3/lib/libopencm3_stm32f4.a(rcc_common_all.o)
                0x0000000008049d18                rcc_periph_clock_disable
 .text.rcc_periph_reset_pulse
                0x0000000008049d36       0x26 /home/user/Devel/stm32/libopencm3/lib/libopencm3_stm32f4.a(rcc_common_all.o)
                0x0000000008049d36                rcc_periph_reset_pulse
 .text.rcc_periph_reset_hold
                0x0000000008049d5c       0x1c /home/user/Devel/stm32/libopencm3/lib/libopencm3_stm32f4.a(rcc_common_all.o)
                0x0000000008049d5c                rcc_periph_reset_hold
 .text.rcc_periph_reset_release
                0x0000000008049d78       0x1e /home/user/Devel/stm32/libopencm3/lib/libopencm3_stm32f4.a(rcc_common_all.o)
                0x0000000008049d78                rcc_periph_reset_release
 *fill*         0x0000000008049d96        0x2 
 .text.rcc_set_mco
                0x0000000008049d98       0x14 /home/user/Devel/stm32/libopencm3/lib/libopencm3_stm32f4.a(rcc_common_all.o)
                0x0000000008049d98                rcc_set_mco
 .text          0x0000000008049dac        0x0 /home/user/Devel/stm32/libopencm3/lib/libopencm3_stm32f4.a(usb.o)
 .text.usbd_init
                0x0000000008049dac       0x58 /home/user/Devel/stm32/libopencm3/lib/libopencm3_stm32f4.a(usb.o)
                0x0000000008049dac                usbd_init
 .text.usbd_register_reset_callback
                0x0000000008049e04        0x4 /home/user/Devel/stm32/libopencm3/lib/libopencm3_stm32f4.a(usb.o)
                0x0000000008049e04                usbd_register_reset_callback
 .text.usbd_register_suspend_callback
                0x0000000008049e08        0x4 /home/user/Devel/stm32/libopencm3/lib/libopencm3_stm32f4.a(usb.o)
                0x0000000008049e08                usbd_register_suspend_callback
 .text.usbd_register_resume_callback
                0x0000000008049e0c        0x4 /home/user/Devel/stm32/libopencm3/lib/libopencm3_stm32f4.a(usb.o)
                0x0000000008049e0c                usbd_register_resume_callback
 .text.usbd_register_sof_callback
                0x0000000008049e10        0x4 /home/user/Devel/stm32/libopencm3/lib/libopencm3_stm32f4.a(usb.o)
                0x0000000008049e10                usbd_register_sof_callback
 .text.usbd_poll
                0x0000000008049e14        0x8 /home/user/Devel/stm32/libopencm3/lib/libopencm3_stm32f4.a(usb.o)
                0x0000000008049e14                usbd_poll
 .text.usbd_disconnect
                0x0000000008049e1c        0xc /home/user/Devel/stm32/libopencm3/lib/libopencm3_stm32f4.a(usb.o)
                0x0000000008049e1c                usbd_disconnect
 .text.usbd_ep_setup
                0x0000000008049e28       0x10 /home/user/Devel/stm32/libopencm3/lib/libopencm3_stm32f4.a(usb.o)
                0x0000000008049e28                usbd_ep_setup
 .text._usbd_reset
                0x0000000008049e38       0x34 /home/user/Devel/stm32/libopencm3/lib/libopencm3_stm32f4.a(usb.o)
                0x0000000008049e38                _usbd_reset
 .text.usbd_ep_write_packet
                0x0000000008049e6c       0x10 /home/user/Devel/stm32/libopencm3/lib/libopencm3_stm32f4.a(usb.o)
                0x0000000008049e6c                usbd_ep_write_packet
 .text.usbd_ep_read_packet
                0x0000000008049e7c       0x10 /home/user/Devel/stm32/libopencm3/lib/libopencm3_stm32f4.a(usb.o)
                0x0000000008049e7c                usbd_ep_read_packet
 .text.usbd_ep_stall_set
                0x0000000008049e8c        0x8 /home/user/Devel/stm32/libopencm3/lib/libopencm3_stm32f4.a(usb.o)
                0x0000000008049e8c                usbd_ep_stall_set
 .text.usbd_ep_stall_get
                0x0000000008049e94        0x8 /home/user/Devel/stm32/libopencm3/lib/libopencm3_stm32f4.a(usb.o)
                0x0000000008049e94                usbd_ep_stall_get
 .text.usbd_ep_nak_set
                0x0000000008049e9c        0x8 /home/user/Devel/stm32/libopencm3/lib/libopencm3_stm32f4.a(usb.o)
                0x0000000008049e9c                usbd_ep_nak_set
 .text          0x0000000008049ea4        0x0 /home/user/Devel/stm32/libopencm3/lib/libopencm3_stm32f4.a(usb_standard.o)
 .text.usb_standard_set_configuration
                0x0000000008049ea4       0x96 /home/user/Devel/stm32/libopencm3/lib/libopencm3_stm32f4.a(usb_standard.o)
 .text.usb_standard_get_configuration
                0x0000000008049f3a       0x22 /home/user/Devel/stm32/libopencm3/lib/libopencm3_stm32f4.a(usb_standard.o)
 .text.usb_standard_get_interface
                0x0000000008049f5c       0x38 /home/user/Devel/stm32/libopencm3/lib/libopencm3_stm32f4.a(usb_standard.o)
 .text.usb_standard_interface_get_status
                0x0000000008049f94       0x18 /home/user/Devel/stm32/libopencm3/lib/libopencm3_stm32f4.a(usb_standard.o)
 .text.usb_standard_endpoint_get_status
                0x0000000008049fac       0x2a /home/user/Devel/stm32/libopencm3/lib/libopencm3_stm32f4.a(usb_standard.o)
 .text.usb_standard_endpoint_stall
                0x0000000008049fd6       0x10 /home/user/Devel/stm32/libopencm3/lib/libopencm3_stm32f4.a(usb_standard.o)
 .text.usb_standard_endpoint_unstall
                0x0000000008049fe6       0x10 /home/user/Devel/stm32/libopencm3/lib/libopencm3_stm32f4.a(usb_standard.o)
 .text.usb_standard_set_address
                0x0000000008049ff6       0x2a /home/user/Devel/stm32/libopencm3/lib/libopencm3_stm32f4.a(usb_standard.o)
 .text.usb_standard_set_interface
                0x000000000804a020       0x4e /home/user/Devel/stm32/libopencm3/lib/libopencm3_stm32f4.a(usb_standard.o)
 .text.usb_standard_get_descriptor
                0x000000000804a06e      0x25e /home/user/Devel/stm32/libopencm3/lib/libopencm3_stm32f4.a(usb_standard.o)
 .text.usb_standard_device_get_status
                0x000000000804a2cc       0x18 /home/user/Devel/stm32/libopencm3/lib/libopencm3_stm32f4.a(usb_standard.o)
 .text.usbd_register_set_config_callback
                0x000000000804a2e4       0x24 /home/user/Devel/stm32/libopencm3/lib/libopencm3_stm32f4.a(usb_standard.o)
                0x000000000804a2e4                usbd_register_set_config_callback
 .text.usbd_register_set_altsetting_callback
                0x000000000804a308        0x6 /home/user/Devel/stm32/libopencm3/lib/libopencm3_stm32f4.a(usb_standard.o)
                0x000000000804a308                usbd_register_set_altsetting_callback
 *fill*         0x000000000804a30e        0x2 
 .text._usbd_standard_request_device
                0x000000000804a310       0x20 /home/user/Devel/stm32/libopencm3/lib/libopencm3_stm32f4.a(usb_standard.o)
                0x000000000804a310                _usbd_standard_request_device
 .text._usbd_standard_request_interface
                0x000000000804a330       0x20 /home/user/Devel/stm32/libopencm3/lib/libopencm3_stm32f4.a(usb_standard.o)
                0x000000000804a330                _usbd_standard_request_interface
 .text._usbd_standard_request_endpoint
                0x000000000804a350       0x40 /home/user/Devel/stm32/libopencm3/lib/libopencm3_stm32f4.a(usb_standard.o)
                0x000000000804a350                _usbd_standard_request_endpoint
 .text._usbd_standard_request
                0x000000000804a390       0x38 /home/user/Devel/stm32/libopencm3/lib/libopencm3_stm32f4.a(usb_standard.o)
                0x000000000804a390                _usbd_standard_request
 .text          0x000000000804a3c8        0x0 /home/user/Devel/stm32/libopencm3/lib/libopencm3_stm32f4.a(usb_control.o)
 .text.stall_transaction
                0x000000000804a3c8       0x14 /home/user/Devel/stm32/libopencm3/lib/libopencm3_stm32f4.a(usb_control.o)
 .text.usb_control_recv_chunk
                0x000000000804a3dc       0x3c /home/user/Devel/stm32/libopencm3/lib/libopencm3_stm32f4.a(usb_control.o)
 .text.usb_control_send_chunk
                0x000000000804a418       0x56 /home/user/Devel/stm32/libopencm3/lib/libopencm3_stm32f4.a(usb_control.o)
 .text.usb_control_request_dispatch
                0x000000000804a46e       0x62 /home/user/Devel/stm32/libopencm3/lib/libopencm3_stm32f4.a(usb_control.o)
 .text.usb_control_setup_read
                0x000000000804a4d0       0x6a /home/user/Devel/stm32/libopencm3/lib/libopencm3_stm32f4.a(usb_control.o)
 .text.usbd_register_control_callback
                0x000000000804a53a       0x26 /home/user/Devel/stm32/libopencm3/lib/libopencm3_stm32f4.a(usb_control.o)
                0x000000000804a53a                usbd_register_control_callback
 .text._usbd_control_setup
                0x000000000804a560       0x5a /home/user/Devel/stm32/libopencm3/lib/libopencm3_stm32f4.a(usb_control.o)
                0x000000000804a560                _usbd_control_setup
 .text._usbd_control_out
                0x000000000804a5ba       0x86 /home/user/Devel/stm32/libopencm3/lib/libopencm3_stm32f4.a(usb_control.o)
                0x000000000804a5ba                _usbd_control_out
 .text._usbd_control_in
                0x000000000804a640       0x56 /home/user/Devel/stm32/libopencm3/lib/libopencm3_stm32f4.a(usb_control.o)
                0x000000000804a640                _usbd_control_in
 .text          0x000000000804a696        0x0 /home/user/Devel/stm32/libopencm3/lib/libopencm3_stm32f4.a(usb_f107.o)
 *fill*         0x000000000804a696        0x2 
 .text.stm32f107_usbd_init
                0x000000000804a698       0xd0 /home/user/Devel/stm32/libopencm3/lib/libopencm3_stm32f4.a(usb_f107.o)
 .text          0x000000000804a768        0x0 /home/user/Devel/stm32/libopencm3/lib/libopencm3_stm32f4.a(vector.o)
 .text.blocking_handler
                0x000000000804a768        0x2 /home/user/Devel/stm32/libopencm3/lib/libopencm3_stm32f4.a(vector.o)
                0x000000000804a768                dma2_stream1_isr
                0x000000000804a768                tim8_brk_tim12_isr
                0x000000000804a768                dma1_stream7_isr
                0x000000000804a768                usart3_isr
                0x000000000804a768                tim7_isr
                0x000000000804a768                dma2d_isr
                0x000000000804a768                uart8_isr
                0x000000000804a768                dma1_stream2_isr
                0x000000000804a768                otg_hs_isr
                0x000000000804a768                blocking_handler
                0x000000000804a768                tim5_isr
                0x000000000804a768                rtc_wkup_isr
                0x000000000804a768                spi1_isr
                0x000000000804a768                i2c3_er_isr
                0x000000000804a768                spi5_isr
                0x000000000804a768                usb_fs_wkup_isr
                0x000000000804a768                tamp_stamp_isr
                0x000000000804a768                can1_rx1_isr
                0x000000000804a768                i2c3_ev_isr
                0x000000000804a768                can2_rx0_isr
                0x000000000804a768                dma1_stream6_isr
                0x000000000804a768                can2_rx1_isr
                0x000000000804a768                can1_sce_isr
                0x000000000804a768                tim1_cc_isr
                0x000000000804a768                can1_tx_isr
                0x000000000804a768                tim1_up_tim10_isr
                0x000000000804a768                sdio_isr
                0x000000000804a768                eth_isr
                0x000000000804a768                spi6_isr
                0x000000000804a768                pvd_isr
                0x000000000804a768                can1_rx0_isr
                0x000000000804a768                rcc_isr
                0x000000000804a768                flash_isr
                0x000000000804a768                uart4_isr
                0x000000000804a768                lcd_tft_isr
                0x000000000804a768                rtc_alarm_isr
                0x000000000804a768                exti15_10_isr
                0x000000000804a768                hash_rng_isr
                0x000000000804a768                tim1_trg_com_tim11_isr
                0x000000000804a768                exti1_isr
                0x000000000804a768                i2c1_ev_isr
                0x000000000804a768                usart6_isr
                0x000000000804a768                spi2_isr
                0x000000000804a768                cryp_isr
                0x000000000804a768                nvic_wwdg_isr
                0x000000000804a768                dma1_stream1_isr
                0x000000000804a768                dma2_stream4_isr
                0x000000000804a768                exti3_isr
                0x000000000804a768                tim3_isr
                0x000000000804a768                usart2_isr
                0x000000000804a768                sai1_isr
                0x000000000804a768                fpu_isr
                0x000000000804a768                i2c2_er_isr
                0x000000000804a768                i2c2_ev_isr
                0x000000000804a768                uart5_isr
                0x000000000804a768                spi4_isr
                0x000000000804a768                adc_isr
                0x000000000804a768                tim8_up_tim13_isr
                0x000000000804a768                fsmc_isr
                0x000000000804a768                exti4_isr
                0x000000000804a768                tim6_dac_isr
                0x000000000804a768                dma1_stream3_isr
                0x000000000804a768                tim8_trg_com_tim14_isr
                0x000000000804a768                mem_manage_handler
                0x000000000804a768                lcd_tft_err_isr
                0x000000000804a768                can2_tx_isr
                0x000000000804a768                exti9_5_isr
                0x000000000804a768                tim1_brk_tim9_isr
                0x000000000804a768                uart7_isr
                0x000000000804a768                can2_sce_isr
                0x000000000804a768                tim4_isr
                0x000000000804a768                otg_hs_wkup_isr
                0x000000000804a768                i2c1_er_isr
                0x000000000804a768                dma1_stream0_isr
                0x000000000804a768                tim8_cc_isr
                0x000000000804a768                dcmi_isr
                0x000000000804a768                dma2_stream2_isr
                0x000000000804a768                eth_wkup_isr
                0x000000000804a768                otg_hs_ep1_out_isr
                0x000000000804a768                spi3_isr
                0x000000000804a768                dma1_stream5_isr
                0x000000000804a768                otg_hs_ep1_in_isr
                0x000000000804a768                tim2_isr
                0x000000000804a768                exti0_isr
 .text.null_handler
                0x000000000804a76a        0x2 /home/user/Devel/stm32/libopencm3/lib/libopencm3_stm32f4.a(vector.o)
                0x000000000804a76a                null_handler
                0x000000000804a76a                sv_call_handler
                0x000000000804a76a                pend_sv_handler
                0x000000000804a76a                debug_monitor_handler
                0x000000000804a76a                nmi_handler
 .text.reset_handler
                0x000000000804a76c       0x98 /home/user/Devel/stm32/libopencm3/lib/libopencm3_stm32f4.a(vector.o)
                0x000000000804a76c                reset_handler
 .text          0x000000000804a804        0x0 /home/user/Devel/stm32/libopencm3/lib/libopencm3_stm32f4.a(systick.o)
 .text.systick_set_reload
                0x000000000804a804       0x10 /home/user/Devel/stm32/libopencm3/lib/libopencm3_stm32f4.a(systick.o)
                0x000000000804a804                systick_set_reload
 .text.systick_get_reload
                0x000000000804a814       0x10 /home/user/Devel/stm32/libopencm3/lib/libopencm3_stm32f4.a(systick.o)
                0x000000000804a814                systick_get_reload
 .text.systick_get_value
                0x000000000804a824       0x10 /home/user/Devel/stm32/libopencm3/lib/libopencm3_stm32f4.a(systick.o)
                0x000000000804a824                systick_get_value
 .text.systick_set_clocksource
                0x000000000804a834       0x18 /home/user/Devel/stm32/libopencm3/lib/libopencm3_stm32f4.a(systick.o)
                0x000000000804a834                systick_set_clocksource
 .text.systick_set_frequency
                0x000000000804a84c       0x3c /home/user/Devel/stm32/libopencm3/lib/libopencm3_stm32f4.a(systick.o)
                0x000000000804a84c                systick_set_frequency
 .text.systick_interrupt_enable
                0x000000000804a888       0x10 /home/user/Devel/stm32/libopencm3/lib/libopencm3_stm32f4.a(systick.o)
                0x000000000804a888                systick_interrupt_enable
 .text.systick_interrupt_disable
                0x000000000804a898       0x10 /home/user/Devel/stm32/libopencm3/lib/libopencm3_stm32f4.a(systick.o)
                0x000000000804a898                systick_interrupt_disable
 .text.systick_counter_enable
                0x000000000804a8a8       0x10 /home/user/Devel/stm32/libopencm3/lib/libopencm3_stm32f4.a(systick.o)
                0x000000000804a8a8                systick_counter_enable
 .text.systick_counter_disable
                0x000000000804a8b8       0x10 /home/user/Devel/stm32/libopencm3/lib/libopencm3_stm32f4.a(systick.o)
                0x000000000804a8b8                systick_counter_disable
 .text.systick_get_countflag
                0x000000000804a8c8       0x10 /home/user/Devel/stm32/libopencm3/lib/libopencm3_stm32f4.a(systick.o)
                0x000000000804a8c8                systick_get_countflag
 .text.systick_clear
                0x000000000804a8d8        0xc /home/user/Devel/stm32/libopencm3/lib/libopencm3_stm32f4.a(systick.o)
                0x000000000804a8d8                systick_clear
 .text.systick_get_calib
                0x000000000804a8e4       0x10 /home/user/Devel/stm32/libopencm3/lib/libopencm3_stm32f4.a(systick.o)
                0x000000000804a8e4                systick_get_calib
 .text          0x000000000804a8f4        0x0 /home/user/Devel/stm32/libopencm3/lib/libopencm3_stm32f4.a(nvic.o)
 .text.nvic_enable_irq
                0x000000000804a8f4       0x1c /home/user/Devel/stm32/libopencm3/lib/libopencm3_stm32f4.a(nvic.o)
                0x000000000804a8f4                nvic_enable_irq
 .text.nvic_disable_irq
                0x000000000804a910       0x1c /home/user/Devel/stm32/libopencm3/lib/libopencm3_stm32f4.a(nvic.o)
                0x000000000804a910                nvic_disable_irq
 .text.nvic_get_pending_irq
                0x000000000804a92c       0x24 /home/user/Devel/stm32/libopencm3/lib/libopencm3_stm32f4.a(nvic.o)
                0x000000000804a92c                nvic_get_pending_irq
 .text.nvic_set_pending_irq
                0x000000000804a950       0x1c /home/user/Devel/stm32/libopencm3/lib/libopencm3_stm32f4.a(nvic.o)
                0x000000000804a950                nvic_set_pending_irq
 .text.nvic_clear_pending_irq
                0x000000000804a96c       0x1c /home/user/Devel/stm32/libopencm3/lib/libopencm3_stm32f4.a(nvic.o)
                0x000000000804a96c                nvic_clear_pending_irq
 .text.nvic_get_irq_enabled
                0x000000000804a988       0x24 /home/user/Devel/stm32/libopencm3/lib/libopencm3_stm32f4.a(nvic.o)
                0x000000000804a988                nvic_get_irq_enabled
 .text.nvic_set_priority
                0x000000000804a9ac       0x20 /home/user/Devel/stm32/libopencm3/lib/libopencm3_stm32f4.a(nvic.o)
                0x000000000804a9ac                nvic_set_priority
 .text.nvic_get_active_irq
                0x000000000804a9cc       0x24 /home/user/Devel/stm32/libopencm3/lib/libopencm3_stm32f4.a(nvic.o)
                0x000000000804a9cc                nvic_get_active_irq
 .text.nvic_generate_software_interrupt
                0x000000000804a9f0       0x14 /home/user/Devel/stm32/libopencm3/lib/libopencm3_stm32f4.a(nvic.o)
                0x000000000804a9f0                nvic_generate_software_interrupt
 .text          0x000000000804aa04        0x0 /home/user/Devel/stm32/libopencm3/lib/libopencm3_stm32f4.a(pwr.o)
 .text.pwr_set_vos_scale
                0x000000000804aa04       0x20 /home/user/Devel/stm32/libopencm3/lib/libopencm3_stm32f4.a(pwr.o)
                0x000000000804aa04                pwr_set_vos_scale
 .text          0x000000000804aa24        0x0 /home/user/Devel/stm32/libopencm3/lib/libopencm3_stm32f4.a(usb_fx07_common.o)
 .text.stm32fx07_set_address
                0x000000000804aa24       0x18 /home/user/Devel/stm32/libopencm3/lib/libopencm3_stm32f4.a(usb_fx07_common.o)
                0x000000000804aa24                stm32fx07_set_address
 .text.stm32fx07_ep_setup
                0x000000000804aa3c      0x144 /home/user/Devel/stm32/libopencm3/lib/libopencm3_stm32f4.a(usb_fx07_common.o)
                0x000000000804aa3c                stm32fx07_ep_setup
 .text.stm32fx07_endpoints_reset
                0x000000000804ab80       0x4c /home/user/Devel/stm32/libopencm3/lib/libopencm3_stm32f4.a(usb_fx07_common.o)
                0x000000000804ab80                stm32fx07_endpoints_reset
 .text.stm32fx07_ep_stall_set
                0x000000000804abcc       0x4e /home/user/Devel/stm32/libopencm3/lib/libopencm3_stm32f4.a(usb_fx07_common.o)
                0x000000000804abcc                stm32fx07_ep_stall_set
 .text.stm32fx07_ep_stall_get
                0x000000000804ac1a       0x1e /home/user/Devel/stm32/libopencm3/lib/libopencm3_stm32f4.a(usb_fx07_common.o)
                0x000000000804ac1a                stm32fx07_ep_stall_get
 .text.stm32fx07_ep_nak_set
                0x000000000804ac38       0x2a /home/user/Devel/stm32/libopencm3/lib/libopencm3_stm32f4.a(usb_fx07_common.o)
                0x000000000804ac38                stm32fx07_ep_nak_set
 .text.stm32fx07_ep_write_packet
                0x000000000804ac62       0x4c /home/user/Devel/stm32/libopencm3/lib/libopencm3_stm32f4.a(usb_fx07_common.o)
                0x000000000804ac62                stm32fx07_ep_write_packet
 .text.stm32fx07_ep_read_packet
                0x000000000804acae       0x60 /home/user/Devel/stm32/libopencm3/lib/libopencm3_stm32f4.a(usb_fx07_common.o)
                0x000000000804acae                stm32fx07_ep_read_packet
 .text.stm32fx07_poll
                0x000000000804ad0e      0x1c6 /home/user/Devel/stm32/libopencm3/lib/libopencm3_stm32f4.a(usb_fx07_common.o)
                0x000000000804ad0e                stm32fx07_poll
 .text.stm32fx07_disconnect
                0x000000000804aed4       0x1c /home/user/Devel/stm32/libopencm3/lib/libopencm3_stm32f4.a(usb_fx07_common.o)
                0x000000000804aed4                stm32fx07_disconnect
 .text          0x000000000804aef0        0x0 /home/user/Devel/stm32/gcc-arm-none-eabi-8-2018-q4-major/bin/../lib/gcc/arm-none-eabi/8.2.1/../../../../arm-none-eabi/lib/thumb/v7e-m+fp/hard/libc_nano.a(lib_a-assert.o)
 .text.__assert_func
                0x000000000804aef0       0x3c /home/user/Devel/stm32/gcc-arm-none-eabi-8-2018-q4-major/bin/../lib/gcc/arm-none-eabi/8.2.1/../../../../arm-none-eabi/lib/thumb/v7e-m+fp/hard/libc_nano.a(lib_a-assert.o)
                0x000000000804aef0                __assert_func
 .text.__assert
                0x000000000804af2c        0xa /home/user/Devel/stm32/gcc-arm-none-eabi-8-2018-q4-major/bin/../lib/gcc/arm-none-eabi/8.2.1/../../../../arm-none-eabi/lib/thumb/v7e-m+fp/hard/libc_nano.a(lib_a-assert.o)
                0x000000000804af2c                __assert
 .text          0x000000000804af36        0x0 /home/user/Devel/stm32/gcc-arm-none-eabi-8-2018-q4-major/bin/../lib/gcc/arm-none-eabi/8.2.1/../../../../arm-none-eabi/lib/thumb/v7e-m+fp/hard/libc_nano.a(lib_a-fprintf.o)
 .text._fprintf_r
                0x000000000804af36       0x1a /home/user/Devel/stm32/gcc-arm-none-eabi-8-2018-q4-major/bin/../lib/gcc/arm-none-eabi/8.2.1/../../../../arm-none-eabi/lib/thumb/v7e-m+fp/hard/libc_nano.a(lib_a-fprintf.o)
                0x000000000804af36                _fprintf_r
                0x000000000804af36                _fiprintf_r
 .text.fprintf  0x000000000804af50       0x24 /home/user/Devel/stm32/gcc-arm-none-eabi-8-2018-q4-major/bin/../lib/gcc/arm-none-eabi/8.2.1/../../../../arm-none-eabi/lib/thumb/v7e-m+fp/hard/libc_nano.a(lib_a-fprintf.o)
                0x000000000804af50                fprintf
                0x000000000804af50                fiprintf
 .text          0x000000000804af74        0x0 /home/user/Devel/stm32/gcc-arm-none-eabi-8-2018-q4-major/bin/../lib/gcc/arm-none-eabi/8.2.1/../../../../arm-none-eabi/lib/thumb/v7e-m+fp/hard/libc_nano.a(lib_a-impure.o)
 .text          0x000000000804af74        0x0 /home/user/Devel/stm32/gcc-arm-none-eabi-8-2018-q4-major/bin/../lib/gcc/arm-none-eabi/8.2.1/../../../../arm-none-eabi/lib/thumb/v7e-m+fp/hard/libc_nano.a(lib_a-memcmp.o)
 .text.memcmp   0x000000000804af74       0x1c /home/user/Devel/stm32/gcc-arm-none-eabi-8-2018-q4-major/bin/../lib/gcc/arm-none-eabi/8.2.1/../../../../arm-none-eabi/lib/thumb/v7e-m+fp/hard/libc_nano.a(lib_a-memcmp.o)
                0x000000000804af74                memcmp
 .text          0x000000000804af90        0x0 /home/user/Devel/stm32/gcc-arm-none-eabi-8-2018-q4-major/bin/../lib/gcc/arm-none-eabi/8.2.1/../../../../arm-none-eabi/lib/thumb/v7e-m+fp/hard/libc_nano.a(lib_a-memcpy-stub.o)
 .text.memcpy   0x000000000804af90       0x1c /home/user/Devel/stm32/gcc-arm-none-eabi-8-2018-q4-major/bin/../lib/gcc/arm-none-eabi/8.2.1/../../../../arm-none-eabi/lib/thumb/v7e-m+fp/hard/libc_nano.a(lib_a-memcpy-stub.o)
                0x000000000804af90                memcpy
 .text          0x000000000804afac        0x0 /home/user/Devel/stm32/gcc-arm-none-eabi-8-2018-q4-major/bin/../lib/gcc/arm-none-eabi/8.2.1/../../../../arm-none-eabi/lib/thumb/v7e-m+fp/hard/libc_nano.a(lib_a-memmove.o)
 .text.memmove  0x000000000804afac       0x34 /home/user/Devel/stm32/gcc-arm-none-eabi-8-2018-q4-major/bin/../lib/gcc/arm-none-eabi/8.2.1/../../../../arm-none-eabi/lib/thumb/v7e-m+fp/hard/libc_nano.a(lib_a-memmove.o)
                0x000000000804afac                memmove
 .text          0x000000000804afe0        0x0 /home/user/Devel/stm32/gcc-arm-none-eabi-8-2018-q4-major/bin/../lib/gcc/arm-none-eabi/8.2.1/../../../../arm-none-eabi/lib/thumb/v7e-m+fp/hard/libc_nano.a(lib_a-memset.o)
 .text.memset   0x000000000804afe0       0x10 /home/user/Devel/stm32/gcc-arm-none-eabi-8-2018-q4-major/bin/../lib/gcc/arm-none-eabi/8.2.1/../../../../arm-none-eabi/lib/thumb/v7e-m+fp/hard/libc_nano.a(lib_a-memset.o)
                0x000000000804afe0                memset
 .text          0x000000000804aff0        0x0 /home/user/Devel/stm32/gcc-arm-none-eabi-8-2018-q4-major/bin/../lib/gcc/arm-none-eabi/8.2.1/../../../../arm-none-eabi/lib/thumb/v7e-m+fp/hard/libc_nano.a(lib_a-nano-vfprintf.o)
 .text.__sfputc_r
                0x000000000804aff0       0x2e /home/user/Devel/stm32/gcc-arm-none-eabi-8-2018-q4-major/bin/../lib/gcc/arm-none-eabi/8.2.1/../../../../arm-none-eabi/lib/thumb/v7e-m+fp/hard/libc_nano.a(lib_a-nano-vfprintf.o)
 .text.__sfputs_r
                0x000000000804b01e       0x24 /home/user/Devel/stm32/gcc-arm-none-eabi-8-2018-q4-major/bin/../lib/gcc/arm-none-eabi/8.2.1/../../../../arm-none-eabi/lib/thumb/v7e-m+fp/hard/libc_nano.a(lib_a-nano-vfprintf.o)
                0x000000000804b01e                __sfputs_r
 .text.__sprint_r
                0x000000000804b042       0x1a /home/user/Devel/stm32/gcc-arm-none-eabi-8-2018-q4-major/bin/../lib/gcc/arm-none-eabi/8.2.1/../../../../arm-none-eabi/lib/thumb/v7e-m+fp/hard/libc_nano.a(lib_a-nano-vfprintf.o)
                0x000000000804b042                __sprint_r
 .text._vfprintf_r
                0x000000000804b05c      0x250 /home/user/Devel/stm32/gcc-arm-none-eabi-8-2018-q4-major/bin/../lib/gcc/arm-none-eabi/8.2.1/../../../../arm-none-eabi/lib/thumb/v7e-m+fp/hard/libc_nano.a(lib_a-nano-vfprintf.o)
                0x000000000804b05c                _vfiprintf_r
                0x000000000804b05c                _vfprintf_r
 .text.vfprintf
                0x000000000804b2ac       0x14 /home/user/Devel/stm32/gcc-arm-none-eabi-8-2018-q4-major/bin/../lib/gcc/arm-none-eabi/8.2.1/../../../../arm-none-eabi/lib/thumb/v7e-m+fp/hard/libc_nano.a(lib_a-nano-vfprintf.o)
                0x000000000804b2ac                vfiprintf
                0x000000000804b2ac                vfprintf
 .text          0x000000000804b2c0        0x0 /home/user/Devel/stm32/gcc-arm-none-eabi-8-2018-q4-major/bin/../lib/gcc/arm-none-eabi/8.2.1/../../../../arm-none-eabi/lib/thumb/v7e-m+fp/hard/libc_nano.a(lib_a-nano-vfprintf_i.o)
 .text._printf_common
                0x000000000804b2c0       0xea /home/user/Devel/stm32/gcc-arm-none-eabi-8-2018-q4-major/bin/../lib/gcc/arm-none-eabi/8.2.1/../../../../arm-none-eabi/lib/thumb/v7e-m+fp/hard/libc_nano.a(lib_a-nano-vfprintf_i.o)
                0x000000000804b2c0                _printf_common
 *fill*         0x000000000804b3aa        0x2 
 .text._printf_i
                0x000000000804b3ac      0x228 /home/user/Devel/stm32/gcc-arm-none-eabi-8-2018-q4-major/bin/../lib/gcc/arm-none-eabi/8.2.1/../../../../arm-none-eabi/lib/thumb/v7e-m+fp/hard/libc_nano.a(lib_a-nano-vfprintf_i.o)
                0x000000000804b3ac                _printf_i
 .text          0x000000000804b5d4        0x0 /home/user/Devel/stm32/gcc-arm-none-eabi-8-2018-q4-major/bin/../lib/gcc/arm-none-eabi/8.2.1/../../../../arm-none-eabi/lib/thumb/v7e-m+fp/hard/libc_nano.a(lib_a-strchr.o)
 .text.strchr   0x000000000804b5d4       0x1a /home/user/Devel/stm32/gcc-arm-none-eabi-8-2018-q4-major/bin/../lib/gcc/arm-none-eabi/8.2.1/../../../../arm-none-eabi/lib/thumb/v7e-m+fp/hard/libc_nano.a(lib_a-strchr.o)
                0x000000000804b5d4                strchr
 .text          0x000000000804b5ee       0x14 /home/user/Devel/stm32/gcc-arm-none-eabi-8-2018-q4-major/bin/../lib/gcc/arm-none-eabi/8.2.1/../../../../arm-none-eabi/lib/thumb/v7e-m+fp/hard/libc_nano.a(lib_a-strcmp.o)
                0x000000000804b5ee                strcmp
 .text          0x000000000804b602        0x0 /home/user/Devel/stm32/gcc-arm-none-eabi-8-2018-q4-major/bin/../lib/gcc/arm-none-eabi/8.2.1/../../../../arm-none-eabi/lib/thumb/v7e-m+fp/hard/libc_nano.a(lib_a-strcpy.o)
 .text.strcpy   0x000000000804b602       0x10 /home/user/Devel/stm32/gcc-arm-none-eabi-8-2018-q4-major/bin/../lib/gcc/arm-none-eabi/8.2.1/../../../../arm-none-eabi/lib/thumb/v7e-m+fp/hard/libc_nano.a(lib_a-strcpy.o)
                0x000000000804b602                strcpy
 .text          0x000000000804b612       0x10 /home/user/Devel/stm32/gcc-arm-none-eabi-8-2018-q4-major/bin/../lib/gcc/arm-none-eabi/8.2.1/../../../../arm-none-eabi/lib/thumb/v7e-m+fp/hard/libc_nano.a(lib_a-strlen.o)
                0x000000000804b612                strlen
 .text          0x000000000804b622        0x0 /home/user/Devel/stm32/gcc-arm-none-eabi-8-2018-q4-major/bin/../lib/gcc/arm-none-eabi/8.2.1/../../../../arm-none-eabi/lib/thumb/v7e-m+fp/hard/libc_nano.a(lib_a-strstr.o)
 .text.strstr   0x000000000804b622       0x2e /home/user/Devel/stm32/gcc-arm-none-eabi-8-2018-q4-major/bin/../lib/gcc/arm-none-eabi/8.2.1/../../../../arm-none-eabi/lib/thumb/v7e-m+fp/hard/libc_nano.a(lib_a-strstr.o)
                0x000000000804b622                strstr
 .text          0x000000000804b650        0x0 /home/user/Devel/stm32/gcc-arm-none-eabi-8-2018-q4-major/bin/../lib/gcc/arm-none-eabi/8.2.1/../../../../arm-none-eabi/lib/thumb/v7e-m+fp/hard/libc_nano.a(lib_a-wbuf.o)
 .text.__swbuf_r
                0x000000000804b650       0xa4 /home/user/Devel/stm32/gcc-arm-none-eabi-8-2018-q4-major/bin/../lib/gcc/arm-none-eabi/8.2.1/../../../../arm-none-eabi/lib/thumb/v7e-m+fp/hard/libc_nano.a(lib_a-wbuf.o)
                0x000000000804b650                __swbuf_r
 .text.__swbuf  0x000000000804b6f4       0x10 /home/user/Devel/stm32/gcc-arm-none-eabi-8-2018-q4-major/bin/../lib/gcc/arm-none-eabi/8.2.1/../../../../arm-none-eabi/lib/thumb/v7e-m+fp/hard/libc_nano.a(lib_a-wbuf.o)
                0x000000000804b6f4                __swbuf
 .text          0x000000000804b704        0x0 /home/user/Devel/stm32/gcc-arm-none-eabi-8-2018-q4-major/bin/../lib/gcc/arm-none-eabi/8.2.1/../../../../arm-none-eabi/lib/thumb/v7e-m+fp/hard/libc_nano.a(lib_a-wsetup.o)
 .text.__swsetup_r
                0x000000000804b704       0xdc /home/user/Devel/stm32/gcc-arm-none-eabi-8-2018-q4-major/bin/../lib/gcc/arm-none-eabi/8.2.1/../../../../arm-none-eabi/lib/thumb/v7e-m+fp/hard/libc_nano.a(lib_a-wsetup.o)
                0x000000000804b704                __swsetup_r
 .text          0x000000000804b7e0        0x0 /home/user/Devel/stm32/gcc-arm-none-eabi-8-2018-q4-major/bin/../lib/gcc/arm-none-eabi/8.2.1/../../../../arm-none-eabi/lib/thumb/v7e-m+fp/hard/libc_nano.a(lib_a-abort.o)
 .text.abort    0x000000000804b7e0        0xe /home/user/Devel/stm32/gcc-arm-none-eabi-8-2018-q4-major/bin/../lib/gcc/arm-none-eabi/8.2.1/../../../../arm-none-eabi/lib/thumb/v7e-m+fp/hard/libc_nano.a(lib_a-abort.o)
                0x000000000804b7e0                abort
 .text          0x000000000804b7ee        0x0 /home/user/Devel/stm32/gcc-arm-none-eabi-8-2018-q4-major/bin/../lib/gcc/arm-none-eabi/8.2.1/../../../../arm-none-eabi/lib/thumb/v7e-m+fp/hard/libc_nano.a(lib_a-fflush.o)
 *fill*         0x000000000804b7ee        0x2 
 .text.__sflush_r
                0x000000000804b7f0      0x10c /home/user/Devel/stm32/gcc-arm-none-eabi-8-2018-q4-major/bin/../lib/gcc/arm-none-eabi/8.2.1/../../../../arm-none-eabi/lib/thumb/v7e-m+fp/hard/libc_nano.a(lib_a-fflush.o)
                0x000000000804b7f0                __sflush_r
 .text._fflush_r
                0x000000000804b8fc       0x78 /home/user/Devel/stm32/gcc-arm-none-eabi-8-2018-q4-major/bin/../lib/gcc/arm-none-eabi/8.2.1/../../../../arm-none-eabi/lib/thumb/v7e-m+fp/hard/libc_nano.a(lib_a-fflush.o)
                0x000000000804b8fc                _fflush_r
 .text.fflush   0x000000000804b974       0x24 /home/user/Devel/stm32/gcc-arm-none-eabi-8-2018-q4-major/bin/../lib/gcc/arm-none-eabi/8.2.1/../../../../arm-none-eabi/lib/thumb/v7e-m+fp/hard/libc_nano.a(lib_a-fflush.o)
                0x000000000804b974                fflush
 .text          0x000000000804b998        0x0 /home/user/Devel/stm32/gcc-arm-none-eabi-8-2018-q4-major/bin/../lib/gcc/arm-none-eabi/8.2.1/../../../../arm-none-eabi/lib/thumb/v7e-m+fp/hard/libc_nano.a(lib_a-findfp.o)
 .text.std      0x000000000804b998       0x48 /home/user/Devel/stm32/gcc-arm-none-eabi-8-2018-q4-major/bin/../lib/gcc/arm-none-eabi/8.2.1/../../../../arm-none-eabi/lib/thumb/v7e-m+fp/hard/libc_nano.a(lib_a-findfp.o)
 .text._cleanup_r
                0x000000000804b9e0        0xc /home/user/Devel/stm32/gcc-arm-none-eabi-8-2018-q4-major/bin/../lib/gcc/arm-none-eabi/8.2.1/../../../../arm-none-eabi/lib/thumb/v7e-m+fp/hard/libc_nano.a(lib_a-findfp.o)
                0x000000000804b9e0                _cleanup_r
 .text.__fp_lock
                0x000000000804b9ec       0x18 /home/user/Devel/stm32/gcc-arm-none-eabi-8-2018-q4-major/bin/../lib/gcc/arm-none-eabi/8.2.1/../../../../arm-none-eabi/lib/thumb/v7e-m+fp/hard/libc_nano.a(lib_a-findfp.o)
 .text.__fp_unlock
                0x000000000804ba04       0x18 /home/user/Devel/stm32/gcc-arm-none-eabi-8-2018-q4-major/bin/../lib/gcc/arm-none-eabi/8.2.1/../../../../arm-none-eabi/lib/thumb/v7e-m+fp/hard/libc_nano.a(lib_a-findfp.o)
 .text.__sfmoreglue
                0x000000000804ba1c       0x2c /home/user/Devel/stm32/gcc-arm-none-eabi-8-2018-q4-major/bin/../lib/gcc/arm-none-eabi/8.2.1/../../../../arm-none-eabi/lib/thumb/v7e-m+fp/hard/libc_nano.a(lib_a-findfp.o)
                0x000000000804ba1c                __sfmoreglue
 .text._cleanup
                0x000000000804ba48        0xc /home/user/Devel/stm32/gcc-arm-none-eabi-8-2018-q4-major/bin/../lib/gcc/arm-none-eabi/8.2.1/../../../../arm-none-eabi/lib/thumb/v7e-m+fp/hard/libc_nano.a(lib_a-findfp.o)
                0x000000000804ba48                _cleanup
 .text.__sfp_lock_acquire
                0x000000000804ba54        0xc /home/user/Devel/stm32/gcc-arm-none-eabi-8-2018-q4-major/bin/../lib/gcc/arm-none-eabi/8.2.1/../../../../arm-none-eabi/lib/thumb/v7e-m+fp/hard/libc_nano.a(lib_a-findfp.o)
                0x000000000804ba54                __sfp_lock_acquire
 .text.__sfp_lock_release
                0x000000000804ba60        0xc /home/user/Devel/stm32/gcc-arm-none-eabi-8-2018-q4-major/bin/../lib/gcc/arm-none-eabi/8.2.1/../../../../arm-none-eabi/lib/thumb/v7e-m+fp/hard/libc_nano.a(lib_a-findfp.o)
                0x000000000804ba60                __sfp_lock_release
 .text.__sinit_lock_acquire
                0x000000000804ba6c        0xc /home/user/Devel/stm32/gcc-arm-none-eabi-8-2018-q4-major/bin/../lib/gcc/arm-none-eabi/8.2.1/../../../../arm-none-eabi/lib/thumb/v7e-m+fp/hard/libc_nano.a(lib_a-findfp.o)
                0x000000000804ba6c                __sinit_lock_acquire
 .text.__sinit_lock_release
                0x000000000804ba78        0xc /home/user/Devel/stm32/gcc-arm-none-eabi-8-2018-q4-major/bin/../lib/gcc/arm-none-eabi/8.2.1/../../../../arm-none-eabi/lib/thumb/v7e-m+fp/hard/libc_nano.a(lib_a-findfp.o)
                0x000000000804ba78                __sinit_lock_release
 .text.__sinit  0x000000000804ba84       0x70 /home/user/Devel/stm32/gcc-arm-none-eabi-8-2018-q4-major/bin/../lib/gcc/arm-none-eabi/8.2.1/../../../../arm-none-eabi/lib/thumb/v7e-m+fp/hard/libc_nano.a(lib_a-findfp.o)
                0x000000000804ba84                __sinit
 .text.__sfp    0x000000000804baf4       0x8c /home/user/Devel/stm32/gcc-arm-none-eabi-8-2018-q4-major/bin/../lib/gcc/arm-none-eabi/8.2.1/../../../../arm-none-eabi/lib/thumb/v7e-m+fp/hard/libc_nano.a(lib_a-findfp.o)
                0x000000000804baf4                __sfp
 .text.__fp_lock_all
                0x000000000804bb80       0x1c /home/user/Devel/stm32/gcc-arm-none-eabi-8-2018-q4-major/bin/../lib/gcc/arm-none-eabi/8.2.1/../../../../arm-none-eabi/lib/thumb/v7e-m+fp/hard/libc_nano.a(lib_a-findfp.o)
                0x000000000804bb80                __fp_lock_all
 .text.__fp_unlock_all
                0x000000000804bb9c       0x1c /home/user/Devel/stm32/gcc-arm-none-eabi-8-2018-q4-major/bin/../lib/gcc/arm-none-eabi/8.2.1/../../../../arm-none-eabi/lib/thumb/v7e-m+fp/hard/libc_nano.a(lib_a-findfp.o)
                0x000000000804bb9c                __fp_unlock_all
 .text          0x000000000804bbb8        0x0 /home/user/Devel/stm32/gcc-arm-none-eabi-8-2018-q4-major/bin/../lib/gcc/arm-none-eabi/8.2.1/../../../../arm-none-eabi/lib/thumb/v7e-m+fp/hard/libc_nano.a(lib_a-fvwrite.o)
 .text.__sfvwrite_r
                0x000000000804bbb8      0x2a0 /home/user/Devel/stm32/gcc-arm-none-eabi-8-2018-q4-major/bin/../lib/gcc/arm-none-eabi/8.2.1/../../../../arm-none-eabi/lib/thumb/v7e-m+fp/hard/libc_nano.a(lib_a-fvwrite.o)
                0x000000000804bbb8                __sfvwrite_r
 .text          0x000000000804be58        0x0 /home/user/Devel/stm32/gcc-arm-none-eabi-8-2018-q4-major/bin/../lib/gcc/arm-none-eabi/8.2.1/../../../../arm-none-eabi/lib/thumb/v7e-m+fp/hard/libc_nano.a(lib_a-fwalk.o)
 .text._fwalk   0x000000000804be58       0x38 /home/user/Devel/stm32/gcc-arm-none-eabi-8-2018-q4-major/bin/../lib/gcc/arm-none-eabi/8.2.1/../../../../arm-none-eabi/lib/thumb/v7e-m+fp/hard/libc_nano.a(lib_a-fwalk.o)
                0x000000000804be58                _fwalk
 .text._fwalk_reent
                0x000000000804be90       0x3c /home/user/Devel/stm32/gcc-arm-none-eabi-8-2018-q4-major/bin/../lib/gcc/arm-none-eabi/8.2.1/../../../../arm-none-eabi/lib/thumb/v7e-m+fp/hard/libc_nano.a(lib_a-fwalk.o)
                0x000000000804be90                _fwalk_reent
 .text          0x000000000804becc        0x0 /home/user/Devel/stm32/gcc-arm-none-eabi-8-2018-q4-major/bin/../lib/gcc/arm-none-eabi/8.2.1/../../../../arm-none-eabi/lib/thumb/v7e-m+fp/hard/libc_nano.a(lib_a-lock.o)
 .text.__retarget_lock_init
                0x000000000804becc        0x2 /home/user/Devel/stm32/gcc-arm-none-eabi-8-2018-q4-major/bin/../lib/gcc/arm-none-eabi/8.2.1/../../../../arm-none-eabi/lib/thumb/v7e-m+fp/hard/libc_nano.a(lib_a-lock.o)
                0x000000000804becc                __retarget_lock_init
 .text.__retarget_lock_init_recursive
                0x000000000804bece        0x2 /home/user/Devel/stm32/gcc-arm-none-eabi-8-2018-q4-major/bin/../lib/gcc/arm-none-eabi/8.2.1/../../../../arm-none-eabi/lib/thumb/v7e-m+fp/hard/libc_nano.a(lib_a-lock.o)
                0x000000000804bece                __retarget_lock_init_recursive
 .text.__retarget_lock_close
                0x000000000804bed0        0x2 /home/user/Devel/stm32/gcc-arm-none-eabi-8-2018-q4-major/bin/../lib/gcc/arm-none-eabi/8.2.1/../../../../arm-none-eabi/lib/thumb/v7e-m+fp/hard/libc_nano.a(lib_a-lock.o)
                0x000000000804bed0                __retarget_lock_close
 .text.__retarget_lock_close_recursive
                0x000000000804bed2        0x2 /home/user/Devel/stm32/gcc-arm-none-eabi-8-2018-q4-major/bin/../lib/gcc/arm-none-eabi/8.2.1/../../../../arm-none-eabi/lib/thumb/v7e-m+fp/hard/libc_nano.a(lib_a-lock.o)
                0x000000000804bed2                __retarget_lock_close_recursive
 .text.__retarget_lock_acquire
                0x000000000804bed4        0x2 /home/user/Devel/stm32/gcc-arm-none-eabi-8-2018-q4-major/bin/../lib/gcc/arm-none-eabi/8.2.1/../../../../arm-none-eabi/lib/thumb/v7e-m+fp/hard/libc_nano.a(lib_a-lock.o)
                0x000000000804bed4                __retarget_lock_acquire
 .text.__retarget_lock_acquire_recursive
                0x000000000804bed6        0x2 /home/user/Devel/stm32/gcc-arm-none-eabi-8-2018-q4-major/bin/../lib/gcc/arm-none-eabi/8.2.1/../../../../arm-none-eabi/lib/thumb/v7e-m+fp/hard/libc_nano.a(lib_a-lock.o)
                0x000000000804bed6                __retarget_lock_acquire_recursive
 .text.__retarget_lock_try_acquire
                0x000000000804bed8        0x4 /home/user/Devel/stm32/gcc-arm-none-eabi-8-2018-q4-major/bin/../lib/gcc/arm-none-eabi/8.2.1/../../../../arm-none-eabi/lib/thumb/v7e-m+fp/hard/libc_nano.a(lib_a-lock.o)
                0x000000000804bed8                __retarget_lock_try_acquire
 .text.__retarget_lock_try_acquire_recursive
                0x000000000804bedc        0x4 /home/user/Devel/stm32/gcc-arm-none-eabi-8-2018-q4-major/bin/../lib/gcc/arm-none-eabi/8.2.1/../../../../arm-none-eabi/lib/thumb/v7e-m+fp/hard/libc_nano.a(lib_a-lock.o)
                0x000000000804bedc                __retarget_lock_try_acquire_recursive
 .text.__retarget_lock_release
                0x000000000804bee0        0x2 /home/user/Devel/stm32/gcc-arm-none-eabi-8-2018-q4-major/bin/../lib/gcc/arm-none-eabi/8.2.1/../../../../arm-none-eabi/lib/thumb/v7e-m+fp/hard/libc_nano.a(lib_a-lock.o)
                0x000000000804bee0                __retarget_lock_release
 .text.__retarget_lock_release_recursive
                0x000000000804bee2        0x2 /home/user/Devel/stm32/gcc-arm-none-eabi-8-2018-q4-major/bin/../lib/gcc/arm-none-eabi/8.2.1/../../../../arm-none-eabi/lib/thumb/v7e-m+fp/hard/libc_nano.a(lib_a-lock.o)
                0x000000000804bee2                __retarget_lock_release_recursive
 .text          0x000000000804bee4        0x0 /home/user/Devel/stm32/gcc-arm-none-eabi-8-2018-q4-major/bin/../lib/gcc/arm-none-eabi/8.2.1/../../../../arm-none-eabi/lib/thumb/v7e-m+fp/hard/libc_nano.a(lib_a-makebuf.o)
 .text.__swhatbuf_r
                0x000000000804bee4       0x48 /home/user/Devel/stm32/gcc-arm-none-eabi-8-2018-q4-major/bin/../lib/gcc/arm-none-eabi/8.2.1/../../../../arm-none-eabi/lib/thumb/v7e-m+fp/hard/libc_nano.a(lib_a-makebuf.o)
                0x000000000804bee4                __swhatbuf_r
 .text.__smakebuf_r
                0x000000000804bf2c       0x80 /home/user/Devel/stm32/gcc-arm-none-eabi-8-2018-q4-major/bin/../lib/gcc/arm-none-eabi/8.2.1/../../../../arm-none-eabi/lib/thumb/v7e-m+fp/hard/libc_nano.a(lib_a-makebuf.o)
                0x000000000804bf2c                __smakebuf_r
 *fill*         0x000000000804bfac        0x4 
 .text          0x000000000804bfb0       0xa0 /home/user/Devel/stm32/gcc-arm-none-eabi-8-2018-q4-major/bin/../lib/gcc/arm-none-eabi/8.2.1/../../../../arm-none-eabi/lib/thumb/v7e-m+fp/hard/libc_nano.a(lib_a-memchr.o)
                0x000000000804bfb0                memchr
 .text          0x000000000804c050        0x0 /home/user/Devel/stm32/gcc-arm-none-eabi-8-2018-q4-major/bin/../lib/gcc/arm-none-eabi/8.2.1/../../../../arm-none-eabi/lib/thumb/v7e-m+fp/hard/libc_nano.a(lib_a-nano-freer.o)
 .text._free_r  0x000000000804c050       0x9c /home/user/Devel/stm32/gcc-arm-none-eabi-8-2018-q4-major/bin/../lib/gcc/arm-none-eabi/8.2.1/../../../../arm-none-eabi/lib/thumb/v7e-m+fp/hard/libc_nano.a(lib_a-nano-freer.o)
                0x000000000804c050                _free_r
 .text          0x000000000804c0ec        0x0 /home/user/Devel/stm32/gcc-arm-none-eabi-8-2018-q4-major/bin/../lib/gcc/arm-none-eabi/8.2.1/../../../../arm-none-eabi/lib/thumb/v7e-m+fp/hard/libc_nano.a(lib_a-nano-mallocr.o)
 .text._malloc_r
                0x000000000804c0ec       0xb4 /home/user/Devel/stm32/gcc-arm-none-eabi-8-2018-q4-major/bin/../lib/gcc/arm-none-eabi/8.2.1/../../../../arm-none-eabi/lib/thumb/v7e-m+fp/hard/libc_nano.a(lib_a-nano-mallocr.o)
                0x000000000804c0ec                _malloc_r
 .text          0x000000000804c1a0        0x0 /home/user/Devel/stm32/gcc-arm-none-eabi-8-2018-q4-major/bin/../lib/gcc/arm-none-eabi/8.2.1/../../../../arm-none-eabi/lib/thumb/v7e-m+fp/hard/libc_nano.a(lib_a-nano-reallocr.o)
 .text._realloc_r
                0x000000000804c1a0       0x4c /home/user/Devel/stm32/gcc-arm-none-eabi-8-2018-q4-major/bin/../lib/gcc/arm-none-eabi/8.2.1/../../../../arm-none-eabi/lib/thumb/v7e-m+fp/hard/libc_nano.a(lib_a-nano-reallocr.o)
                0x000000000804c1a0                _realloc_r
 .text          0x000000000804c1ec        0x0 /home/user/Devel/stm32/gcc-arm-none-eabi-8-2018-q4-major/bin/../lib/gcc/arm-none-eabi/8.2.1/../../../../arm-none-eabi/lib/thumb/v7e-m+fp/hard/libc_nano.a(lib_a-sbrkr.o)
 .text._sbrk_r  0x000000000804c1ec       0x20 /home/user/Devel/stm32/gcc-arm-none-eabi-8-2018-q4-major/bin/../lib/gcc/arm-none-eabi/8.2.1/../../../../arm-none-eabi/lib/thumb/v7e-m+fp/hard/libc_nano.a(lib_a-sbrkr.o)
                0x000000000804c1ec                _sbrk_r
 .text          0x000000000804c20c        0x0 /home/user/Devel/stm32/gcc-arm-none-eabi-8-2018-q4-major/bin/../lib/gcc/arm-none-eabi/8.2.1/../../../../arm-none-eabi/lib/thumb/v7e-m+fp/hard/libc_nano.a(lib_a-signal.o)
 .text._init_signal_r
                0x000000000804c20c       0x28 /home/user/Devel/stm32/gcc-arm-none-eabi-8-2018-q4-major/bin/../lib/gcc/arm-none-eabi/8.2.1/../../../../arm-none-eabi/lib/thumb/v7e-m+fp/hard/libc_nano.a(lib_a-signal.o)
                0x000000000804c20c                _init_signal_r
 .text._signal_r
                0x000000000804c234       0x30 /home/user/Devel/stm32/gcc-arm-none-eabi-8-2018-q4-major/bin/../lib/gcc/arm-none-eabi/8.2.1/../../../../arm-none-eabi/lib/thumb/v7e-m+fp/hard/libc_nano.a(lib_a-signal.o)
                0x000000000804c234                _signal_r
 .text._raise_r
                0x000000000804c264       0x50 /home/user/Devel/stm32/gcc-arm-none-eabi-8-2018-q4-major/bin/../lib/gcc/arm-none-eabi/8.2.1/../../../../arm-none-eabi/lib/thumb/v7e-m+fp/hard/libc_nano.a(lib_a-signal.o)
                0x000000000804c264                _raise_r
 .text.__sigtramp_r
                0x000000000804c2b4       0x48 /home/user/Devel/stm32/gcc-arm-none-eabi-8-2018-q4-major/bin/../lib/gcc/arm-none-eabi/8.2.1/../../../../arm-none-eabi/lib/thumb/v7e-m+fp/hard/libc_nano.a(lib_a-signal.o)
                0x000000000804c2b4                __sigtramp_r
 .text.raise    0x000000000804c2fc       0x10 /home/user/Devel/stm32/gcc-arm-none-eabi-8-2018-q4-major/bin/../lib/gcc/arm-none-eabi/8.2.1/../../../../arm-none-eabi/lib/thumb/v7e-m+fp/hard/libc_nano.a(lib_a-signal.o)
                0x000000000804c2fc                raise
 .text.signal   0x000000000804c30c       0x10 /home/user/Devel/stm32/gcc-arm-none-eabi-8-2018-q4-major/bin/../lib/gcc/arm-none-eabi/8.2.1/../../../../arm-none-eabi/lib/thumb/v7e-m+fp/hard/libc_nano.a(lib_a-signal.o)
                0x000000000804c30c                signal
 .text._init_signal
                0x000000000804c31c        0xc /home/user/Devel/stm32/gcc-arm-none-eabi-8-2018-q4-major/bin/../lib/gcc/arm-none-eabi/8.2.1/../../../../arm-none-eabi/lib/thumb/v7e-m+fp/hard/libc_nano.a(lib_a-signal.o)
                0x000000000804c31c                _init_signal
 .text.__sigtramp
                0x000000000804c328       0x10 /home/user/Devel/stm32/gcc-arm-none-eabi-8-2018-q4-major/bin/../lib/gcc/arm-none-eabi/8.2.1/../../../../arm-none-eabi/lib/thumb/v7e-m+fp/hard/libc_nano.a(lib_a-signal.o)
                0x000000000804c328                __sigtramp
 .text          0x000000000804c338        0x0 /home/user/Devel/stm32/gcc-arm-none-eabi-8-2018-q4-major/bin/../lib/gcc/arm-none-eabi/8.2.1/../../../../arm-none-eabi/lib/thumb/v7e-m+fp/hard/libc_nano.a(lib_a-signalr.o)
 .text._kill_r  0x000000000804c338       0x24 /home/user/Devel/stm32/gcc-arm-none-eabi-8-2018-q4-major/bin/../lib/gcc/arm-none-eabi/8.2.1/../../../../arm-none-eabi/lib/thumb/v7e-m+fp/hard/libc_nano.a(lib_a-signalr.o)
                0x000000000804c338                _kill_r
 .text._getpid_r
                0x000000000804c35c        0x4 /home/user/Devel/stm32/gcc-arm-none-eabi-8-2018-q4-major/bin/../lib/gcc/arm-none-eabi/8.2.1/../../../../arm-none-eabi/lib/thumb/v7e-m+fp/hard/libc_nano.a(lib_a-signalr.o)
                0x000000000804c35c                _getpid_r
 .text          0x000000000804c360        0x0 /home/user/Devel/stm32/gcc-arm-none-eabi-8-2018-q4-major/bin/../lib/gcc/arm-none-eabi/8.2.1/../../../../arm-none-eabi/lib/thumb/v7e-m+fp/hard/libc_nano.a(lib_a-stdio.o)
 .text.__sread  0x000000000804c360       0x22 /home/user/Devel/stm32/gcc-arm-none-eabi-8-2018-q4-major/bin/../lib/gcc/arm-none-eabi/8.2.1/../../../../arm-none-eabi/lib/thumb/v7e-m+fp/hard/libc_nano.a(lib_a-stdio.o)
                0x000000000804c360                __sread
 .text.__seofread
                0x000000000804c382        0x4 /home/user/Devel/stm32/gcc-arm-none-eabi-8-2018-q4-major/bin/../lib/gcc/arm-none-eabi/8.2.1/../../../../arm-none-eabi/lib/thumb/v7e-m+fp/hard/libc_nano.a(lib_a-stdio.o)
                0x000000000804c382                __seofread
 .text.__swrite
                0x000000000804c386       0x38 /home/user/Devel/stm32/gcc-arm-none-eabi-8-2018-q4-major/bin/../lib/gcc/arm-none-eabi/8.2.1/../../../../arm-none-eabi/lib/thumb/v7e-m+fp/hard/libc_nano.a(lib_a-stdio.o)
                0x000000000804c386                __swrite
 .text.__sseek  0x000000000804c3be       0x24 /home/user/Devel/stm32/gcc-arm-none-eabi-8-2018-q4-major/bin/../lib/gcc/arm-none-eabi/8.2.1/../../../../arm-none-eabi/lib/thumb/v7e-m+fp/hard/libc_nano.a(lib_a-stdio.o)
                0x000000000804c3be                __sseek
 .text.__sclose
                0x000000000804c3e2        0x8 /home/user/Devel/stm32/gcc-arm-none-eabi-8-2018-q4-major/bin/../lib/gcc/arm-none-eabi/8.2.1/../../../../arm-none-eabi/lib/thumb/v7e-m+fp/hard/libc_nano.a(lib_a-stdio.o)
                0x000000000804c3e2                __sclose
 .text          0x000000000804c3ea        0x0 /home/user/Devel/stm32/gcc-arm-none-eabi-8-2018-q4-major/bin/../lib/gcc/arm-none-eabi/8.2.1/../../../../arm-none-eabi/lib/thumb/v7e-m+fp/hard/libc_nano.a(lib_a-writer.o)
 *fill*         0x000000000804c3ea        0x2 
 .text._write_r
                0x000000000804c3ec       0x24 /home/user/Devel/stm32/gcc-arm-none-eabi-8-2018-q4-major/bin/../lib/gcc/arm-none-eabi/8.2.1/../../../../arm-none-eabi/lib/thumb/v7e-m+fp/hard/libc_nano.a(lib_a-writer.o)
                0x000000000804c3ec                _write_r
 .text          0x000000000804c410        0x0 /home/user/Devel/stm32/gcc-arm-none-eabi-8-2018-q4-major/bin/../lib/gcc/arm-none-eabi/8.2.1/../../../../arm-none-eabi/lib/thumb/v7e-m+fp/hard/libc_nano.a(lib_a-closer.o)
 .text._close_r
                0x000000000804c410       0x20 /home/user/Devel/stm32/gcc-arm-none-eabi-8-2018-q4-major/bin/../lib/gcc/arm-none-eabi/8.2.1/../../../../arm-none-eabi/lib/thumb/v7e-m+fp/hard/libc_nano.a(lib_a-closer.o)
                0x000000000804c410                _close_r
 .text          0x000000000804c430        0x0 /home/user/Devel/stm32/gcc-arm-none-eabi-8-2018-q4-major/bin/../lib/gcc/arm-none-eabi/8.2.1/../../../../arm-none-eabi/lib/thumb/v7e-m+fp/hard/libc_nano.a(lib_a-fstatr.o)
 .text._fstat_r
                0x000000000804c430       0x24 /home/user/Devel/stm32/gcc-arm-none-eabi-8-2018-q4-major/bin/../lib/gcc/arm-none-eabi/8.2.1/../../../../arm-none-eabi/lib/thumb/v7e-m+fp/hard/libc_nano.a(lib_a-fstatr.o)
                0x000000000804c430                _fstat_r
 .text          0x000000000804c454        0x0 /home/user/Devel/stm32/gcc-arm-none-eabi-8-2018-q4-major/bin/../lib/gcc/arm-none-eabi/8.2.1/../../../../arm-none-eabi/lib/thumb/v7e-m+fp/hard/libc_nano.a(lib_a-isattyr.o)
 .text._isatty_r
                0x000000000804c454       0x20 /home/user/Devel/stm32/gcc-arm-none-eabi-8-2018-q4-major/bin/../lib/gcc/arm-none-eabi/8.2.1/../../../../arm-none-eabi/lib/thumb/v7e-m+fp/hard/libc_nano.a(lib_a-isattyr.o)
                0x000000000804c454                _isatty_r
 .text          0x000000000804c474        0x0 /home/user/Devel/stm32/gcc-arm-none-eabi-8-2018-q4-major/bin/../lib/gcc/arm-none-eabi/8.2.1/../../../../arm-none-eabi/lib/thumb/v7e-m+fp/hard/libc_nano.a(lib_a-lseekr.o)
 .text._lseek_r
                0x000000000804c474       0x24 /home/user/Devel/stm32/gcc-arm-none-eabi-8-2018-q4-major/bin/../lib/gcc/arm-none-eabi/8.2.1/../../../../arm-none-eabi/lib/thumb/v7e-m+fp/hard/libc_nano.a(lib_a-lseekr.o)
                0x000000000804c474                _lseek_r
 .text          0x000000000804c498        0x0 /home/user/Devel/stm32/gcc-arm-none-eabi-8-2018-q4-major/bin/../lib/gcc/arm-none-eabi/8.2.1/../../../../arm-none-eabi/lib/thumb/v7e-m+fp/hard/libc_nano.a(lib_a-mlock.o)
 .text.__malloc_lock
                0x000000000804c498        0xc /home/user/Devel/stm32/gcc-arm-none-eabi-8-2018-q4-major/bin/../lib/gcc/arm-none-eabi/8.2.1/../../../../arm-none-eabi/lib/thumb/v7e-m+fp/hard/libc_nano.a(lib_a-mlock.o)
                0x000000000804c498                __malloc_lock
 .text.__malloc_unlock
                0x000000000804c4a4        0xc /home/user/Devel/stm32/gcc-arm-none-eabi-8-2018-q4-major/bin/../lib/gcc/arm-none-eabi/8.2.1/../../../../arm-none-eabi/lib/thumb/v7e-m+fp/hard/libc_nano.a(lib_a-mlock.o)
                0x000000000804c4a4                __malloc_unlock
 .text          0x000000000804c4b0        0x0 /home/user/Devel/stm32/gcc-arm-none-eabi-8-2018-q4-major/bin/../lib/gcc/arm-none-eabi/8.2.1/../../../../arm-none-eabi/lib/thumb/v7e-m+fp/hard/libc_nano.a(lib_a-nano-msizer.o)
 .text._malloc_usable_size_r
                0x000000000804c4b0       0x10 /home/user/Devel/stm32/gcc-arm-none-eabi-8-2018-q4-major/bin/../lib/gcc/arm-none-eabi/8.2.1/../../../../arm-none-eabi/lib/thumb/v7e-m+fp/hard/libc_nano.a(lib_a-nano-msizer.o)
                0x000000000804c4b0                _malloc_usable_size_r
 .text          0x000000000804c4c0        0x0 /home/user/Devel/stm32/gcc-arm-none-eabi-8-2018-q4-major/bin/../lib/gcc/arm-none-eabi/8.2.1/../../../../arm-none-eabi/lib/thumb/v7e-m+fp/hard/libc_nano.a(lib_a-readr.o)
 .text._read_r  0x000000000804c4c0       0x24 /home/user/Devel/stm32/gcc-arm-none-eabi-8-2018-q4-major/bin/../lib/gcc/arm-none-eabi/8.2.1/../../../../arm-none-eabi/lib/thumb/v7e-m+fp/hard/libc_nano.a(lib_a-readr.o)
                0x000000000804c4c0                _read_r
 .text          0x000000000804c4e4        0x0 /home/user/Devel/stm32/gcc-arm-none-eabi-8-2018-q4-major/bin/../lib/gcc/arm-none-eabi/8.2.1/../../../../arm-none-eabi/lib/thumb/v7e-m+fp/hard/libc_nano.a(lib_a-reent.o)
 .text.cleanup_glue
                0x000000000804c4e4       0x1a /home/user/Devel/stm32/gcc-arm-none-eabi-8-2018-q4-major/bin/../lib/gcc/arm-none-eabi/8.2.1/../../../../arm-none-eabi/lib/thumb/v7e-m+fp/hard/libc_nano.a(lib_a-reent.o)
                0x000000000804c4e4                cleanup_glue
 *fill*         0x000000000804c4fe        0x2 
 .text._reclaim_reent
                0x000000000804c500       0xb8 /home/user/Devel/stm32/gcc-arm-none-eabi-8-2018-q4-major/bin/../lib/gcc/arm-none-eabi/8.2.1/../../../../arm-none-eabi/lib/thumb/v7e-m+fp/hard/libc_nano.a(lib_a-reent.o)
                0x000000000804c500                _reclaim_reent
 .text          0x000000000804c5b8      0x378 /home/user/Devel/stm32/gcc-arm-none-eabi-8-2018-q4-major/bin/../lib/gcc/arm-none-eabi/8.2.1/thumb/v7e-m+fp/hard/libgcc.a(_arm_addsubdf3.o)
                0x000000000804c5b8                __aeabi_drsub
                0x000000000804c5c0                __aeabi_dsub
                0x000000000804c5c0                __subdf3
                0x000000000804c5c4                __adddf3
                0x000000000804c5c4                __aeabi_dadd
                0x000000000804c83c                __aeabi_ui2d
                0x000000000804c83c                __floatunsidf
                0x000000000804c85c                __floatsidf
                0x000000000804c85c                __aeabi_i2d
                0x000000000804c880                __extendsfdf2
                0x000000000804c880                __aeabi_f2d
                0x000000000804c8c4                __aeabi_ul2d
                0x000000000804c8c4                __floatundidf
                0x000000000804c8d4                __floatdidf
                0x000000000804c8d4                __aeabi_l2d
 .text          0x000000000804c930      0x424 /home/user/Devel/stm32/gcc-arm-none-eabi-8-2018-q4-major/bin/../lib/gcc/arm-none-eabi/8.2.1/thumb/v7e-m+fp/hard/libgcc.a(_arm_muldivdf3.o)
                0x000000000804c930                __aeabi_dmul
                0x000000000804c930                __muldf3
                0x000000000804cb84                __aeabi_ddiv
                0x000000000804cb84                __divdf3
 .text          0x000000000804cd54      0x110 /home/user/Devel/stm32/gcc-arm-none-eabi-8-2018-q4-major/bin/../lib/gcc/arm-none-eabi/8.2.1/thumb/v7e-m+fp/hard/libgcc.a(_arm_cmpdf2.o)
                0x000000000804cd54                __gtdf2
                0x000000000804cd54                __gedf2
                0x000000000804cd5c                __ltdf2
                0x000000000804cd5c                __ledf2
                0x000000000804cd64                __cmpdf2
                0x000000000804cd64                __eqdf2
                0x000000000804cd64                __nedf2
                0x000000000804cde0                __aeabi_cdrcmple
                0x000000000804cdf0                __aeabi_cdcmple
                0x000000000804cdf0                __aeabi_cdcmpeq
                0x000000000804ce00                __aeabi_dcmpeq
                0x000000000804ce14                __aeabi_dcmplt
                0x000000000804ce28                __aeabi_dcmple
                0x000000000804ce3c                __aeabi_dcmpge
                0x000000000804ce50                __aeabi_dcmpgt
 .text          0x000000000804ce64       0x50 /home/user/Devel/stm32/gcc-arm-none-eabi-8-2018-q4-major/bin/../lib/gcc/arm-none-eabi/8.2.1/thumb/v7e-m+fp/hard/libgcc.a(_arm_fixdfsi.o)
                0x000000000804ce64                __fixdfsi
                0x000000000804ce64                __aeabi_d2iz
 .text          0x000000000804ceb4       0x40 /home/user/Devel/stm32/gcc-arm-none-eabi-8-2018-q4-major/bin/../lib/gcc/arm-none-eabi/8.2.1/thumb/v7e-m+fp/hard/libgcc.a(_arm_fixunsdfsi.o)
                0x000000000804ceb4                __fixunsdfsi
                0x000000000804ceb4                __aeabi_d2uiz
 .text          0x000000000804cef4       0x30 /home/user/Devel/stm32/gcc-arm-none-eabi-8-2018-q4-major/bin/../lib/gcc/arm-none-eabi/8.2.1/thumb/v7e-m+fp/hard/libgcc.a(_aeabi_uldivmod.o)
                0x000000000804cef4                __aeabi_uldivmod
 .text          0x000000000804cf24      0x2d0 /home/user/Devel/stm32/gcc-arm-none-eabi-8-2018-q4-major/bin/../lib/gcc/arm-none-eabi/8.2.1/thumb/v7e-m+fp/hard/libgcc.a(_udivmoddi4.o)
                0x000000000804cf24                __udivmoddi4
 .text          0x000000000804d1f4        0x4 /home/user/Devel/stm32/gcc-arm-none-eabi-8-2018-q4-major/bin/../lib/gcc/arm-none-eabi/8.2.1/thumb/v7e-m+fp/hard/libgcc.a(_dvmd_tls.o)
                0x000000000804d1f4                __aeabi_ldiv0
                0x000000000804d1f4                __aeabi_idiv0
 .text          0x000000000804d1f8        0x0 /home/user/Devel/stm32/gcc-arm-none-eabi-8-2018-q4-major/bin/../lib/gcc/arm-none-eabi/8.2.1/../../../../arm-none-eabi/lib/thumb/v7e-m+fp/hard/libnosys.a(close.o)
 .text._close   0x000000000804d1f8       0x10 /home/user/Devel/stm32/gcc-arm-none-eabi-8-2018-q4-major/bin/../lib/gcc/arm-none-eabi/8.2.1/../../../../arm-none-eabi/lib/thumb/v7e-m+fp/hard/libnosys.a(close.o)
                0x000000000804d1f8                _close
 .text          0x000000000804d208        0x0 /home/user/Devel/stm32/gcc-arm-none-eabi-8-2018-q4-major/bin/../lib/gcc/arm-none-eabi/8.2.1/../../../../arm-none-eabi/lib/thumb/v7e-m+fp/hard/libnosys.a(fstat.o)
 .text._fstat   0x000000000804d208       0x10 /home/user/Devel/stm32/gcc-arm-none-eabi-8-2018-q4-major/bin/../lib/gcc/arm-none-eabi/8.2.1/../../../../arm-none-eabi/lib/thumb/v7e-m+fp/hard/libnosys.a(fstat.o)
                0x000000000804d208                _fstat
 .text          0x000000000804d218        0x0 /home/user/Devel/stm32/gcc-arm-none-eabi-8-2018-q4-major/bin/../lib/gcc/arm-none-eabi/8.2.1/../../../../arm-none-eabi/lib/thumb/v7e-m+fp/hard/libnosys.a(getpid.o)
 .text._getpid  0x000000000804d218       0x10 /home/user/Devel/stm32/gcc-arm-none-eabi-8-2018-q4-major/bin/../lib/gcc/arm-none-eabi/8.2.1/../../../../arm-none-eabi/lib/thumb/v7e-m+fp/hard/libnosys.a(getpid.o)
                0x000000000804d218                _getpid
 .text          0x000000000804d228        0x0 /home/user/Devel/stm32/gcc-arm-none-eabi-8-2018-q4-major/bin/../lib/gcc/arm-none-eabi/8.2.1/../../../../arm-none-eabi/lib/thumb/v7e-m+fp/hard/libnosys.a(isatty.o)
 .text._isatty  0x000000000804d228       0x10 /home/user/Devel/stm32/gcc-arm-none-eabi-8-2018-q4-major/bin/../lib/gcc/arm-none-eabi/8.2.1/../../../../arm-none-eabi/lib/thumb/v7e-m+fp/hard/libnosys.a(isatty.o)
                0x000000000804d228                _isatty
 .text          0x000000000804d238        0x0 /home/user/Devel/stm32/gcc-arm-none-eabi-8-2018-q4-major/bin/../lib/gcc/arm-none-eabi/8.2.1/../../../../arm-none-eabi/lib/thumb/v7e-m+fp/hard/libnosys.a(kill.o)
 .text._kill    0x000000000804d238       0x10 /home/user/Devel/stm32/gcc-arm-none-eabi-8-2018-q4-major/bin/../lib/gcc/arm-none-eabi/8.2.1/../../../../arm-none-eabi/lib/thumb/v7e-m+fp/hard/libnosys.a(kill.o)
                0x000000000804d238                _kill
 .text          0x000000000804d248        0x0 /home/user/Devel/stm32/gcc-arm-none-eabi-8-2018-q4-major/bin/../lib/gcc/arm-none-eabi/8.2.1/../../../../arm-none-eabi/lib/thumb/v7e-m+fp/hard/libnosys.a(lseek.o)
 .text._lseek   0x000000000804d248       0x10 /home/user/Devel/stm32/gcc-arm-none-eabi-8-2018-q4-major/bin/../lib/gcc/arm-none-eabi/8.2.1/../../../../arm-none-eabi/lib/thumb/v7e-m+fp/hard/libnosys.a(lseek.o)
                0x000000000804d248                _lseek
 .text          0x000000000804d258        0x0 /home/user/Devel/stm32/gcc-arm-none-eabi-8-2018-q4-major/bin/../lib/gcc/arm-none-eabi/8.2.1/../../../../arm-none-eabi/lib/thumb/v7e-m+fp/hard/libnosys.a(read.o)
 .text._read    0x000000000804d258       0x10 /home/user/Devel/stm32/gcc-arm-none-eabi-8-2018-q4-major/bin/../lib/gcc/arm-none-eabi/8.2.1/../../../../arm-none-eabi/lib/thumb/v7e-m+fp/hard/libnosys.a(read.o)
                0x000000000804d258                _read
 .text          0x000000000804d268        0x0 /home/user/Devel/stm32/gcc-arm-none-eabi-8-2018-q4-major/bin/../lib/gcc/arm-none-eabi/8.2.1/../../../../arm-none-eabi/lib/thumb/v7e-m+fp/hard/libnosys.a(sbrk.o)
 .text._sbrk    0x000000000804d268       0x1c /home/user/Devel/stm32/gcc-arm-none-eabi-8-2018-q4-major/bin/../lib/gcc/arm-none-eabi/8.2.1/../../../../arm-none-eabi/lib/thumb/v7e-m+fp/hard/libnosys.a(sbrk.o)
                0x000000000804d268                _sbrk
 .text          0x000000000804d284        0x0 /home/user/Devel/stm32/gcc-arm-none-eabi-8-2018-q4-major/bin/../lib/gcc/arm-none-eabi/8.2.1/../../../../arm-none-eabi/lib/thumb/v7e-m+fp/hard/libnosys.a(write.o)
 .text._write   0x000000000804d284       0x10 /home/user/Devel/stm32/gcc-arm-none-eabi-8-2018-q4-major/bin/../lib/gcc/arm-none-eabi/8.2.1/../../../../arm-none-eabi/lib/thumb/v7e-m+fp/hard/libnosys.a(write.o)
                0x000000000804d284                _write
 .text          0x000000000804d294        0x0 /home/user/Devel/stm32/gcc-arm-none-eabi-8-2018-q4-major/bin/../lib/gcc/arm-none-eabi/8.2.1/../../../../arm-none-eabi/lib/thumb/v7e-m+fp/hard/libnosys.a(_exit.o)
 .text._exit    0x000000000804d294        0x4 /home/user/Devel/stm32/gcc-arm-none-eabi-8-2018-q4-major/bin/../lib/gcc/arm-none-eabi/8.2.1/../../../../arm-none-eabi/lib/thumb/v7e-m+fp/hard/libnosys.a(_exit.o)
                0x000000000804d294                _exit
                0x000000000804d298                . = ALIGN (0x4)
 *(.rodata*)
 .rodata.CSWTCH.12
                0x000000000804d298       0x36 ././drivers/bluetooth/bt_usart.o
 *fill*         0x000000000804d2ce        0x2 
 .rodata.mew_bluetooth_init.str1.4
                0x000000000804d2d0       0x6b ././drivers/bluetooth/bt_usart.o
 *fill*         0x000000000804d33b        0x1 
 .rodata.config
                0x000000000804d33c        0xd ././drivers/usb/mew_usb_hid.o
                0x000000000804d33c                config
 *fill*         0x000000000804d349        0x3 
 .rodata.dev    0x000000000804d34c       0x12 ././drivers/usb/mew_usb_hid.o
                0x000000000804d34c                dev
 *fill*         0x000000000804d35e        0x2 
 .rodata.hid_endpoints
                0x000000000804d360       0x1e ././drivers/usb/mew_usb_hid.o
                0x000000000804d360                hid_endpoints
 *fill*         0x000000000804d37e        0x2 
 .rodata.hid_function
                0x000000000804d380        0x9 ././drivers/usb/mew_usb_hid.o
 *fill*         0x000000000804d389        0x3 
 .rodata.hid_iface
                0x000000000804d38c       0x15 ././drivers/usb/mew_usb_hid.o
                0x000000000804d38c                hid_iface
 *fill*         0x000000000804d3a1        0x3 
 .rodata.ifaces
                0x000000000804d3a4       0x10 ././drivers/usb/mew_usb_hid.o
                0x000000000804d3a4                ifaces
 .rodata.keyboard_report_descriptor
                0x000000000804d3b4       0x3d ././drivers/usb/mew_usb_hid.o
                0x000000000804d3b4                keyboard_report_descriptor
 *fill*         0x000000000804d3f1        0x3 
 .rodata.str1.4
                0x000000000804d3f4       0x24 ././drivers/usb/mew_usb_hid.o
 .rodata        0x000000000804d418       0x7c ././drivers/display/display.o
 .rodata.mew_display_flush.str1.4
                0x000000000804d494       0x16 ././drivers/display/display.o
 *fill*         0x000000000804d4aa        0x2 
 .rodata.__mew_input_read.str1.4
                0x000000000804d4ac       0x6c ././drivers/display/ts_tsc2007.o
 .rodata.mew_touchscreen_init.str1.4
                0x000000000804d518       0x25 ././drivers/display/ts_tsc2007.o
 *fill*         0x000000000804d53d        0x3 
 .rodata._mew_ss_array
                0x000000000804d540      0x240 ././drivers/flash/otp_storage.o
 .rodata.mew_otp_storage_init.str1.4
                0x000000000804d780       0x4a ././drivers/flash/otp_storage.o
 *fill*         0x000000000804d7ca        0x2 
 .rodata.mew_otp_write_temporary_data.str1.4
                0x000000000804d7cc       0x55 ././drivers/flash/otp_storage.o
 *fill*         0x000000000804d821        0x3 
 .rodata.mew_i2c_eeprom_test.str1.4
                0x000000000804d824       0x5c ././drivers/i2c/i2c.o
 .rodata.mew_i2c_read_block_ts2007.str1.4
                0x000000000804d880       0x25 ././drivers/i2c/i2c.o
 *fill*         0x000000000804d8a5        0x3 
 .rodata.mew_spi_flash_init.str1.4
                0x000000000804d8a8        0xf ././drivers/spi_flash/flash.o
 *fill*         0x000000000804d8b7        0x1 
 .rodata.mew_spi_flash_xfer.str1.4
                0x000000000804d8b8       0x3f ././drivers/spi_flash/flash.o
 *fill*         0x000000000804d8f7        0x1 
 .rodata.mew_wait_for_state.str1.4
                0x000000000804d8f8       0x11 ././drivers/system/system.o
 *fill*         0x000000000804d909        0x3 
 .rodata.CSWTCH.2
                0x000000000804d90c        0xf ././drivers/duart/duart.o
 *fill*         0x000000000804d91b        0x1 
 .rodata.mewcrypt_aes256.str1.4
                0x000000000804d91c       0x36 ././drivers/hw_crypt/aes256.o
 *fill*         0x000000000804d952        0x2 
 .rodata.mew_load_secure_settings.str1.4
                0x000000000804d954       0x58 ././drivers/hw_crypt/secure_eeprom.o
 .rodata.mew_save_secure_settings.str1.4
                0x000000000804d9ac       0x48 ././drivers/hw_crypt/secure_eeprom.o
 .rodata.mew_p256_ecdh_test.str1.4
                0x000000000804d9f4       0x9b ././drivers/hw_crypt/P256-cortex-ecdh.o
 *fill*         0x000000000804da8f        0x1 
 .rodata.keycodes_digits
                0x000000000804da90       0x14 ././app/pwd_generator/mew_passgen.o
 .rodata.keycodes_letter
                0x000000000804daa4       0x34 ././app/pwd_generator/mew_passgen.o
 .rodata.keycodes_symbols
                0x000000000804dad8       0x16 ././app/pwd_generator/mew_passgen.o
 *fill*         0x000000000804daee        0x2 
 .rodata.mew_comm_handler.str1.4
                0x000000000804daf0       0x5b ././app/packet_parser/parser.o
 *fill*         0x000000000804db4b        0x1 
 .rodata.ECC_CODEWORDS_PER_BLOCK
                0x000000000804db4c       0xa4 ././app/qr_code/qrcodegen.o
 .rodata.NUM_ERROR_CORRECTION_BLOCKS
                0x000000000804dbf0       0xa4 ././app/qr_code/qrcodegen.o
 .rodata.__func__.6606
                0x000000000804dc94       0x13 ././app/qr_code/qrcodegen.o
 *fill*         0x000000000804dca7        0x1 
 .rodata.__func__.6629
                0x000000000804dca8       0x21 ././app/qr_code/qrcodegen.o
 *fill*         0x000000000804dcc9        0x3 
 .rodata.__func__.6669
                0x000000000804dccc       0x14 ././app/qr_code/qrcodegen.o
 .rodata.__func__.6700
                0x000000000804dce0       0x14 ././app/qr_code/qrcodegen.o
 .rodata.__func__.6704
                0x000000000804dcf4       0x15 ././app/qr_code/qrcodegen.o
 *fill*         0x000000000804dd09        0x3 
 .rodata.__func__.6711
                0x000000000804dd0c       0x1a ././app/qr_code/qrcodegen.o
 *fill*         0x000000000804dd26        0x2 
 .rodata.__func__.6805
                0x000000000804dd28       0x19 ././app/qr_code/qrcodegen.o
 *fill*         0x000000000804dd41        0x3 
 .rodata.__func__.6820
                0x000000000804dd44        0xf ././app/qr_code/qrcodegen.o
 *fill*         0x000000000804dd53        0x1 
 .rodata.__func__.6895
                0x000000000804dd54        0xe ././app/qr_code/qrcodegen.o
 *fill*         0x000000000804dd62        0x2 
 .rodata.__func__.6901
                0x000000000804dd64        0xa ././app/qr_code/qrcodegen.o
 *fill*         0x000000000804dd6e        0x2 
 .rodata.__func__.6978
                0x000000000804dd70       0x1b ././app/qr_code/qrcodegen.o
 *fill*         0x000000000804dd8b        0x1 
 .rodata.__func__.6993
                0x000000000804dd8c       0x12 ././app/qr_code/qrcodegen.o
 *fill*         0x000000000804dd9e        0x2 
 .rodata.__func__.7000
                0x000000000804dda0       0x14 ././app/qr_code/qrcodegen.o
 .rodata.__func__.7008
                0x000000000804ddb4        0xa ././app/qr_code/qrcodegen.o
 *fill*         0x000000000804ddbe        0x2 
 .rodata.__func__.7017
                0x000000000804ddc0        0xa ././app/qr_code/qrcodegen.o
 *fill*         0x000000000804ddca        0x2 
 .rodata.__func__.7035
                0x000000000804ddcc       0x19 ././app/qr_code/qrcodegen.o
 *fill*         0x000000000804dde5        0x3 
 .rodata.__func__.7042
                0x000000000804dde8       0x14 ././app/qr_code/qrcodegen.o
 .rodata.__func__.7051
                0x000000000804ddfc       0x20 ././app/qr_code/qrcodegen.o
 .rodata.__func__.7057
                0x000000000804de1c       0x15 ././app/qr_code/qrcodegen.o
 *fill*         0x000000000804de31        0x3 
 .rodata.__func__.7063
                0x000000000804de34       0x14 ././app/qr_code/qrcodegen.o
 .rodata.__func__.7069
                0x000000000804de48       0x16 ././app/qr_code/qrcodegen.o
 *fill*         0x000000000804de5e        0x2 
 .rodata.__func__.7083
                0x000000000804de60       0x1b ././app/qr_code/qrcodegen.o
 *fill*         0x000000000804de7b        0x1 
 .rodata.__func__.7098
                0x000000000804de7c       0x12 ././app/qr_code/qrcodegen.o
 *fill*         0x000000000804de8e        0x2 
 .rodata.__func__.7104
                0x000000000804de90        0xd ././app/qr_code/qrcodegen.o
 *fill*         0x000000000804de9d        0x3 
 .rodata.__func__.7117
                0x000000000804dea0       0x11 ././app/qr_code/qrcodegen.o
 *fill*         0x000000000804deb1        0x3 
 .rodata.appendBitsToBuffer.str1.4
                0x000000000804deb4       0x44 ././app/qr_code/qrcodegen.o
 .rodata.applyMask.str1.4
                0x000000000804def8       0x21 ././app/qr_code/qrcodegen.o
 *fill*         0x000000000804df19        0x3 
 .rodata.calcSegmentBitLength.str1.4
                0x000000000804df1c        0x6 ././app/qr_code/qrcodegen.o
 *fill*         0x000000000804df22        0x2 
 .rodata.drawFormatBits.str1.4
                0x000000000804df24       0x10 ././app/qr_code/qrcodegen.o
 .rodata.finderPenaltyCountPatterns.str1.4
                0x000000000804df34       0x28 ././app/qr_code/qrcodegen.o
 .rodata.getModule.str1.4
                0x000000000804df5c       0x4e ././app/qr_code/qrcodegen.o
 *fill*         0x000000000804dfaa        0x2 
 .rodata.getNumDataCodewords.str1.4
                0x000000000804dfac       0x10 ././app/qr_code/qrcodegen.o
 .rodata.getNumRawDataModules.str1.4
                0x000000000804dfbc       0x61 ././app/qr_code/qrcodegen.o
 *fill*         0x000000000804e01d        0x3 
 .rodata.numCharCountBits.str1.4
                0x000000000804e020       0x45 ././app/qr_code/qrcodegen.o
 *fill*         0x000000000804e065        0x3 
 .rodata.qrcodegen_calcSegmentBufferSize.str1.4
                0x000000000804e068       0x1f ././app/qr_code/qrcodegen.o
 *fill*         0x000000000804e087        0x1 
 .rodata.qrcodegen_encodeSegmentsAdvanced.str1.4
                0x000000000804e088      0x244 ././app/qr_code/qrcodegen.o
 .rodata.qrcodegen_getSize.str1.4
                0x000000000804e2cc       0x69 ././app/qr_code/qrcodegen.o
 *fill*         0x000000000804e335        0x3 
 .rodata.qrcodegen_isAlphanumeric.str1.4
                0x000000000804e338       0x3e ././app/qr_code/qrcodegen.o
 *fill*         0x000000000804e376        0x2 
 .rodata.qrcodegen_makeAlphanumeric.str1.4
                0x000000000804e378        0xd ././app/qr_code/qrcodegen.o
 *fill*         0x000000000804e385        0x3 
 .rodata.qrcodegen_makeBytes.str1.4
                0x000000000804e388       0x33 ././app/qr_code/qrcodegen.o
 *fill*         0x000000000804e3bb        0x1 
 .rodata.qrcodegen_makeNumeric.str1.4
                0x000000000804e3bc       0x53 ././app/qr_code/qrcodegen.o
 *fill*         0x000000000804e40f        0x1 
 .rodata.table.6821
                0x000000000804e410       0x10 ././app/qr_code/qrcodegen.o
 .rodata.temp.7120
                0x000000000804e420        0xc ././app/qr_code/qrcodegen.o
 .rodata.temp.7122
                0x000000000804e42c        0xc ././app/qr_code/qrcodegen.o
 .rodata.temp.7124
                0x000000000804e438        0xc ././app/qr_code/qrcodegen.o
 .rodata.temp.7126
                0x000000000804e444        0xc ././app/qr_code/qrcodegen.o
 .rodata.bus_fault_handler.str1.4
                0x000000000804e450       0x12 ././debug.o
 *fill*         0x000000000804e462        0x2 
 .rodata.hard_fault_handler.str1.4
                0x000000000804e464       0x13 ././debug.o
 *fill*         0x000000000804e477        0x1 
 .rodata.usage_fault_handler.str1.4
                0x000000000804e478       0x14 ././debug.o
 .rodata.drivers
                0x000000000804e48c       0xe0 ././mew.o
                0x000000000804e48c                drivers
 .rodata.loop_handlers
                0x000000000804e56c       0x3c ././mew.o
                0x000000000804e56c                loop_handlers
 .rodata.main.str1.4
                0x000000000804e5a8       0x15 ././mew.o
 *fill*         0x000000000804e5bd        0x3 
 .rodata.str1.4
                0x000000000804e5c0      0x1a7 ././mew.o
 *fill*         0x000000000804e767        0x1 
 .rodata.lv_disp_drv_register.str1.4
                0x000000000804e768        0xe ././lvgl/src/lv_hal/lv_hal_disp.o
 .rodata.lv_indev_drv_register.str1.4
                0x000000000804e776        0xe ././lvgl/src/lv_hal/lv_hal_indev.o
 *fill*         0x000000000804e776        0x2 
 .rodata.cmaps  0x000000000804e778       0x28 ././lvgl/src/lv_font/lv_font_roboto_12.o
 .rodata.glyph_dsc
                0x000000000804e7a0      0x4c8 ././lvgl/src/lv_font/lv_font_roboto_12.o
 .rodata.gylph_bitmap
                0x000000000804ec68     0x182e ././lvgl/src/lv_font/lv_font_roboto_12.o
 *fill*         0x0000000008050496        0x2 
 .rodata.kern_class_values
                0x0000000008050498      0x578 ././lvgl/src/lv_font/lv_font_roboto_12.o
 .rodata.kern_classes
                0x0000000008050a10       0x10 ././lvgl/src/lv_font/lv_font_roboto_12.o
 .rodata.kern_left_class_mapping
                0x0000000008050a20       0x99 ././lvgl/src/lv_font/lv_font_roboto_12.o
 *fill*         0x0000000008050ab9        0x3 
 .rodata.kern_right_class_mapping
                0x0000000008050abc       0x99 ././lvgl/src/lv_font/lv_font_roboto_12.o
 *fill*         0x0000000008050b55        0x3 
 .rodata.unicode_list_1
                0x0000000008050b58       0x72 ././lvgl/src/lv_font/lv_font_roboto_12.o
 *fill*         0x0000000008050bca        0x2 
 .rodata.CSWTCH.58
                0x0000000008050bcc        0x8 ././lvgl/src/lv_font/lv_font_fmt_txt.o
 .rodata.lv_font_get_bitmap_fmt_txt.str1.4
                0x0000000008050bd4        0xe ././lvgl/src/lv_font/lv_font_fmt_txt.o
 .rodata.cmaps  0x0000000008050bd4       0x28 ././lvgl/src/lv_font/lv_font_roboto_28_compressed.o
 .rodata.glyph_dsc
                0x0000000008050bfc      0x4c8 ././lvgl/src/lv_font/lv_font_roboto_28_compressed.o
 .rodata.gylph_bitmap
                0x00000000080510c4     0x3185 ././lvgl/src/lv_font/lv_font_roboto_28_compressed.o
 *fill*         0x0000000008054249        0x3 
 .rodata.kern_class_values
                0x000000000805424c      0x578 ././lvgl/src/lv_font/lv_font_roboto_28_compressed.o
 .rodata.kern_classes
                0x00000000080547c4       0x10 ././lvgl/src/lv_font/lv_font_roboto_28_compressed.o
 .rodata.kern_left_class_mapping
                0x00000000080547d4       0x99 ././lvgl/src/lv_font/lv_font_roboto_28_compressed.o
 *fill*         0x000000000805486d        0x3 
 .rodata.kern_right_class_mapping
                0x0000000008054870       0x99 ././lvgl/src/lv_font/lv_font_roboto_28_compressed.o
 *fill*         0x0000000008054909        0x3 
 .rodata.unicode_list_1
                0x000000000805490c       0x72 ././lvgl/src/lv_font/lv_font_roboto_28_compressed.o
 *fill*         0x000000000805497e        0x2 
 .rodata.cmaps  0x0000000008054980       0x28 ././lvgl/src/lv_font/lv_font_roboto_12_subpx.o
 .rodata.glyph_dsc
                0x00000000080549a8      0x4c8 ././lvgl/src/lv_font/lv_font_roboto_12_subpx.o
 .rodata.gylph_bitmap
                0x0000000008054e70     0x4fcd ././lvgl/src/lv_font/lv_font_roboto_12_subpx.o
 *fill*         0x0000000008059e3d        0x3 
 .rodata.kern_class_values
                0x0000000008059e40      0x578 ././lvgl/src/lv_font/lv_font_roboto_12_subpx.o
 .rodata.kern_classes
                0x000000000805a3b8       0x10 ././lvgl/src/lv_font/lv_font_roboto_12_subpx.o
 .rodata.kern_left_class_mapping
                0x000000000805a3c8       0x99 ././lvgl/src/lv_font/lv_font_roboto_12_subpx.o
 *fill*         0x000000000805a461        0x3 
 .rodata.kern_right_class_mapping
                0x000000000805a464       0x99 ././lvgl/src/lv_font/lv_font_roboto_12_subpx.o
 *fill*         0x000000000805a4fd        0x3 
 .rodata.unicode_list_1
                0x000000000805a500       0x72 ././lvgl/src/lv_font/lv_font_roboto_12_subpx.o
 *fill*         0x000000000805a572        0x2 
 .rodata._ftoa.str1.4
                0x000000000805a574       0x15 ././lvgl/src/lv_misc/lv_printf.o
 *fill*         0x000000000805a589        0x7 
 .rodata.pow10.5707
                0x000000000805a590       0x50 ././lvgl/src/lv_misc/lv_printf.o
 .rodata.lv_txt_get_next_line.part.4.str1.4
                0x000000000805a5e0        0x8 ././lvgl/src/lv_misc/lv_txt.o
 .rodata.lv_task_create_basic.str1.4
                0x000000000805a5e8        0xe ././lvgl/src/lv_misc/lv_task.o
 .rodata.sin0_90_table
                0x000000000805a5e8       0xb6 ././lvgl/src/lv_misc/lv_math.o
 *fill*         0x000000000805a69e        0x2 
 .rodata        0x000000000805a6a0        0x2 ././lvgl/src/lv_themes/lv_theme_material.o
 .rodata.lv_obj_create.str1.4
                0x000000000805a6a2        0xe ././lvgl/src/lv_core/lv_obj.o
 *fill*         0x000000000805a6a2        0x2 
 .rodata.lv_obj_set_click.part.2.str1.4
                0x000000000805a6a4        0xd ././lvgl/src/lv_core/lv_obj.o
 *fill*         0x000000000805a6b1        0x3 
 .rodata.lv_obj_set_style.str1.4
                0x000000000805a6b4        0xe ././lvgl/src/lv_core/lv_obj.o
 *fill*         0x000000000805a6c2        0x2 
 .rodata.lv_obj_signal.str1.4
                0x000000000805a6c4        0x7 ././lvgl/src/lv_core/lv_obj.o
 *fill*         0x000000000805a6cb        0x1 
 .rodata        0x000000000805a6cc        0xa ././lvgl/src/lv_core/lv_style.o
 .rodata.lv_group_create.str1.4
                0x000000000805a6d6        0xe ././lvgl/src/lv_core/lv_group.o
 .rodata.lv_spinbox_create.str1.4
                0x000000000805a6d6        0xe ././lvgl/src/lv_objx/lv_spinbox.o
 .rodata.lv_spinbox_set_value.str1.4
                0x000000000805a6d6        0xd ././lvgl/src/lv_objx/lv_spinbox.o
 *fill*         0x000000000805a6d6        0x2 
 .rodata.lv_spinbox_signal.str1.4
                0x000000000805a6d8        0xb ././lvgl/src/lv_objx/lv_spinbox.o
 .rodata.lv_roller_create.str1.4
                0x000000000805a6e3        0xe ././lvgl/src/lv_objx/lv_roller.o
 *fill*         0x000000000805a6e3        0x1 
 .rodata.lv_roller_scrl_signal.str1.4
                0x000000000805a6e4        0xa ././lvgl/src/lv_objx/lv_roller.o
 .rodata.lv_roller_set_align.str1.4
                0x000000000805a6ee        0xd ././lvgl/src/lv_objx/lv_roller.o
 .rodata.lv_led_create.str1.4
                0x000000000805a6ee        0xe ././lvgl/src/lv_objx/lv_led.o
 .rodata.lv_led_set_bright.str1.4
                0x000000000805a6ee        0xd ././lvgl/src/lv_objx/lv_led.o
 *fill*         0x000000000805a6ee        0x2 
 .rodata.lv_led_signal.str1.4
                0x000000000805a6f0        0x7 ././lvgl/src/lv_objx/lv_led.o
 .rodata.lv_img_get_file_name.str1.4
                0x000000000805a6f7        0x7 ././lvgl/src/lv_objx/lv_img.o
                                          0x1 (size before relaxing)
 .rodata.lv_img_set_auto_size.str1.4
                0x000000000805a6f7        0xd ././lvgl/src/lv_objx/lv_img.o
 .rodata.lv_img_set_src.str1.4
                0x000000000805a6f7        0xe ././lvgl/src/lv_objx/lv_img.o
 *fill*         0x000000000805a6f7        0x1 
 .rodata.lv_img_signal.str1.4
                0x000000000805a6f8        0x7 ././lvgl/src/lv_objx/lv_img.o
 .rodata.lv_imgbtn_create.str1.4
                0x000000000805a6ff        0xe ././lvgl/src/lv_objx/lv_imgbtn.o
 .rodata.lv_imgbtn_set_src.str1.4
                0x000000000805a6ff        0xd ././lvgl/src/lv_objx/lv_imgbtn.o
 *fill*         0x000000000805a6ff        0x1 
 .rodata.lv_imgbtn_signal.str1.4
                0x000000000805a700        0xa ././lvgl/src/lv_objx/lv_imgbtn.o
 .rodata.lv_lmeter_create.str1.4
                0x000000000805a70a        0xe ././lvgl/src/lv_objx/lv_lmeter.o
 .rodata.lv_lmeter_set_value.str1.4
                0x000000000805a70a        0xd ././lvgl/src/lv_objx/lv_lmeter.o
 *fill*         0x000000000805a70a        0x2 
 .rodata.lv_lmeter_signal.str1.4
                0x000000000805a70c        0xa ././lvgl/src/lv_objx/lv_lmeter.o
 .rodata.lv_arc_create.str1.4
                0x000000000805a716        0xe ././lvgl/src/lv_objx/lv_arc.o
 .rodata.lv_arc_set_angles.str1.4
                0x000000000805a716        0xd ././lvgl/src/lv_objx/lv_arc.o
 *fill*         0x000000000805a716        0x2 
 .rodata.lv_arc_signal.str1.4
                0x000000000805a718        0x7 ././lvgl/src/lv_objx/lv_arc.o
 .rodata.lv_bar_create.str1.4
                0x000000000805a71f        0xe ././lvgl/src/lv_objx/lv_bar.o
 .rodata.lv_bar_set_value.str1.4
                0x000000000805a71f        0xd ././lvgl/src/lv_objx/lv_bar.o
 *fill*         0x000000000805a71f        0x1 
 .rodata.lv_bar_signal.str1.4
                0x000000000805a720        0x7 ././lvgl/src/lv_objx/lv_bar.o
 *fill*         0x000000000805a727        0x1 
 .rodata.lv_tabview_add_tab.str1.4
                0x000000000805a728        0x2 ././lvgl/src/lv_objx/lv_tabview.o
                                         0x12 (size before relaxing)
 .rodata.lv_tabview_clean.str1.4
                0x000000000805a72a        0xd ././lvgl/src/lv_objx/lv_tabview.o
 *fill*         0x000000000805a72a        0x2 
 .rodata.lv_tabview_signal.str1.4
                0x000000000805a72c        0xb ././lvgl/src/lv_objx/lv_tabview.o
 .rodata.tabpage_signal.str1.4
                0x000000000805a737        0x1 ././lvgl/src/lv_objx/lv_tabview.o
 *fill*         0x000000000805a737        0x1 
 .rodata.lv_mbox_create.str1.4
                0x000000000805a738        0x8 ././lvgl/src/lv_objx/lv_mbox.o
                                         0x18 (size before relaxing)
 .rodata.lv_mbox_set_anim_time.str1.4
                0x000000000805a740        0xd ././lvgl/src/lv_objx/lv_mbox.o
 .rodata.lv_mbox_signal.str1.4
                0x000000000805a740        0x8 ././lvgl/src/lv_objx/lv_mbox.o
 .rodata.lv_slider_create.str1.4
                0x000000000805a748        0xe ././lvgl/src/lv_objx/lv_slider.o
 .rodata.lv_slider_set_knob_in.str1.4
                0x000000000805a748        0xd ././lvgl/src/lv_objx/lv_slider.o
 .rodata.lv_slider_signal.str1.4
                0x000000000805a748        0xa ././lvgl/src/lv_objx/lv_slider.o
 .rodata.lv_gauge_set_needle_count.str1.4
                0x000000000805a752       0x1e ././lvgl/src/lv_objx/lv_gauge.o
 *fill*         0x000000000805a752        0x2 
 .rodata.lv_gauge_signal.str1.4
                0x000000000805a754        0x9 ././lvgl/src/lv_objx/lv_gauge.o
 .rodata.lv_win_clean.str1.4
                0x000000000805a75d        0xd ././lvgl/src/lv_objx/lv_win.o
 *fill*         0x000000000805a75d        0x3 
 .rodata.lv_win_create.str1.4
                0x000000000805a760        0x9 ././lvgl/src/lv_objx/lv_win.o
                                         0x19 (size before relaxing)
 *fill*         0x000000000805a769        0x3 
 .rodata.lv_win_signal.str1.4
                0x000000000805a76c        0x7 ././lvgl/src/lv_objx/lv_win.o
 *fill*         0x000000000805a773        0x1 
 .rodata        0x000000000805a774        0x4 ././lvgl/src/lv_objx/lv_cpicker.o
 .rodata.lv_cpicker_create.str1.4
                0x000000000805a778        0xe ././lvgl/src/lv_objx/lv_cpicker.o
 .rodata.lv_cpicker_set_style.str1.4
                0x000000000805a778        0xd ././lvgl/src/lv_objx/lv_cpicker.o
 .rodata.lv_cpicker_signal.str1.4
                0x000000000805a778        0xb ././lvgl/src/lv_objx/lv_cpicker.o
 .rodata.lv_line_create.str1.4
                0x000000000805a783        0xe ././lvgl/src/lv_objx/lv_line.o
 .rodata.lv_line_set_points.str1.4
                0x000000000805a783        0xd ././lvgl/src/lv_objx/lv_line.o
 *fill*         0x000000000805a783        0x1 
 .rodata.lv_line_signal.str1.4
                0x000000000805a784        0x8 ././lvgl/src/lv_objx/lv_line.o
 .rodata.lv_cont_create.str1.4
                0x000000000805a78c        0xe ././lvgl/src/lv_objx/lv_cont.o
 .rodata.lv_cont_set_layout.str1.4
                0x000000000805a78c        0xd ././lvgl/src/lv_objx/lv_cont.o
 .rodata.lv_cont_signal.str1.4
                0x000000000805a78c        0x8 ././lvgl/src/lv_objx/lv_cont.o
 .rodata.lv_tileview_create.str1.4
                0x000000000805a794        0xe ././lvgl/src/lv_objx/lv_tileview.o
 .rodata.lv_tileview_scrl_signal.str1.4
                0x000000000805a794        0x1 ././lvgl/src/lv_objx/lv_tileview.o
 .rodata.lv_tileview_set_tile_act.str1.4
                0x000000000805a794        0xd ././lvgl/src/lv_objx/lv_tileview.o
 .rodata.lv_tileview_signal.str1.4
                0x000000000805a794        0xc ././lvgl/src/lv_objx/lv_tileview.o
 .rodata.lv_canvas_create.str1.4
                0x000000000805a7a0        0xe ././lvgl/src/lv_objx/lv_canvas.o
 .rodata.lv_canvas_set_buffer.str1.4
                0x000000000805a7a0        0xd ././lvgl/src/lv_objx/lv_canvas.o
 .rodata.lv_canvas_signal.str1.4
                0x000000000805a7a0        0xa ././lvgl/src/lv_objx/lv_canvas.o
 *fill*         0x000000000805a7aa        0x2 
 .rodata.lv_label_create.str1.4
                0x000000000805a7ac        0x5 ././lvgl/src/lv_objx/lv_label.o
 .rodata.lv_label_get_text_sel_start.part.18.str1.4
                0x000000000805a7b1        0xd ././lvgl/src/lv_objx/lv_label.o
 .rodata.lv_label_set_text.str1.4
                0x000000000805a7b1        0xe ././lvgl/src/lv_objx/lv_label.o
 *fill*         0x000000000805a7b1        0x3 
 .rodata.lv_label_signal.str1.4
                0x000000000805a7b4        0x9 ././lvgl/src/lv_objx/lv_label.o
 *fill*         0x000000000805a7bd        0x3 
 .rodata.lv_ddlist_create.str1.4
                0x000000000805a7c0       0x1b ././lvgl/src/lv_objx/lv_ddlist.o
                                         0x2b (size before relaxing)
 *fill*         0x000000000805a7db        0x1 
 .rodata.lv_ddlist_design.str1.4
                0x000000000805a7dc        0x4 ././lvgl/src/lv_objx/lv_ddlist.o
 .rodata.lv_ddlist_scrl_signal.str1.4
                0x000000000805a7e0        0x1 ././lvgl/src/lv_objx/lv_ddlist.o
 .rodata.lv_ddlist_set_options.str1.4
                0x000000000805a7e0        0xd ././lvgl/src/lv_objx/lv_ddlist.o
 .rodata.lv_ddlist_signal.str1.4
                0x000000000805a7e0        0xa ././lvgl/src/lv_objx/lv_ddlist.o
 .rodata.lv_list_clean.str1.4
                0x000000000805a7ea        0xd ././lvgl/src/lv_objx/lv_list.o
 .rodata.lv_list_create.str1.4
                0x000000000805a7ea        0xe ././lvgl/src/lv_objx/lv_list.o
 .rodata.lv_list_get_btn_img.str1.4
                0x000000000805a7ea        0x7 ././lvgl/src/lv_objx/lv_list.o
 .rodata.lv_list_get_btn_label.str1.4
                0x000000000805a7ea        0x9 ././lvgl/src/lv_objx/lv_list.o
 .rodata.lv_list_get_btn_text.str1.4
                0x000000000805a7ea        0x1 ././lvgl/src/lv_objx/lv_list.o
 *fill*         0x000000000805a7ea        0x2 
 .rodata.lv_list_is_list_btn.str1.4
                0x000000000805a7ec        0x7 ././lvgl/src/lv_objx/lv_list.o
 *fill*         0x000000000805a7f3        0x1 
 .rodata.lv_list_signal.str1.4
                0x000000000805a7f4        0x8 ././lvgl/src/lv_objx/lv_list.o
 .rodata.lv_btn_create.str1.4
                0x000000000805a7fc        0xe ././lvgl/src/lv_objx/lv_btn.o
 .rodata.lv_btn_set_toggle.str1.4
                0x000000000805a7fc        0xd ././lvgl/src/lv_objx/lv_btn.o
 .rodata.lv_btn_signal.str1.4
                0x000000000805a7fc        0x7 ././lvgl/src/lv_objx/lv_btn.o
 .rodata.lv_btnm_get_btn_text.str1.4
                0x000000000805a7fc        0x2 ././lvgl/src/lv_objx/lv_btnm.o
 .rodata.lv_btnm_set_map.str1.4
                0x000000000805a7fc        0xe ././lvgl/src/lv_objx/lv_btnm.o
 .rodata.lv_btnm_set_pressed.str1.4
                0x000000000805a7fc        0xd ././lvgl/src/lv_objx/lv_btnm.o
 .rodata.lv_btnm_signal.str1.4
                0x000000000805a7fc        0x8 ././lvgl/src/lv_objx/lv_btnm.o
 .rodata.str1.4
                0x000000000805a804       0x25 ././lvgl/src/lv_objx/lv_btnm.o
                                         0x29 (size before relaxing)
 *fill*         0x000000000805a829        0x3 
 .rodata.lv_ta_create.str1.4
                0x000000000805a82c        0xa ././lvgl/src/lv_objx/lv_ta.o
                                         0x1a (size before relaxing)
 .rodata.lv_ta_scrollable_signal.str1.4
                0x000000000805a836        0x1 ././lvgl/src/lv_objx/lv_ta.o
 .rodata.lv_ta_set_cursor_click_pos.str1.4
                0x000000000805a836        0xd ././lvgl/src/lv_objx/lv_ta.o
 *fill*         0x000000000805a836        0x2 
 .rodata.lv_ta_signal.str1.4
                0x000000000805a838        0x6 ././lvgl/src/lv_objx/lv_ta.o
 .rodata.lv_page_create.str1.4
                0x000000000805a83e        0xe ././lvgl/src/lv_objx/lv_page.o
 .rodata.lv_page_scrollable_signal.str1.4
                0x000000000805a83e        0x1 ././lvgl/src/lv_objx/lv_page.o
 .rodata.lv_page_set_sb_mode.str1.4
                0x000000000805a83e        0xd ././lvgl/src/lv_objx/lv_page.o
 *fill*         0x000000000805a83e        0x2 
 .rodata.lv_page_signal.str1.4
                0x000000000805a840        0x8 ././lvgl/src/lv_objx/lv_page.o
 .rodata.lv_table_create.str1.4
                0x000000000805a848        0xe ././lvgl/src/lv_objx/lv_table.o
 .rodata.lv_table_get_cell_value.str1.4
                0x000000000805a848        0x1 ././lvgl/src/lv_objx/lv_table.o
 .rodata.lv_table_set_cell_value.str1.4
                0x000000000805a848        0xd ././lvgl/src/lv_objx/lv_table.o
 .rodata.lv_table_signal.str1.4
                0x000000000805a848        0x9 ././lvgl/src/lv_objx/lv_table.o
 *fill*         0x000000000805a851        0x3 
 .rodata.lv_cb_create.str1.4
                0x000000000805a854        0xa ././lvgl/src/lv_objx/lv_cb.o
                                         0x1a (size before relaxing)
 .rodata.lv_cb_set_text.str1.4
                0x000000000805a85e        0xd ././lvgl/src/lv_objx/lv_cb.o
 *fill*         0x000000000805a85e        0x2 
 .rodata.lv_cb_signal.str1.4
                0x000000000805a860        0x6 ././lvgl/src/lv_objx/lv_cb.o
 .rodata.lv_sw_create.str1.4
                0x000000000805a866        0xe ././lvgl/src/lv_objx/lv_sw.o
 .rodata.lv_sw_on.str1.4
                0x000000000805a866        0xd ././lvgl/src/lv_objx/lv_sw.o
 *fill*         0x000000000805a866        0x2 
 .rodata.lv_sw_signal.str1.4
                0x000000000805a868        0x6 ././lvgl/src/lv_objx/lv_sw.o
 *fill*         0x000000000805a86e        0x2 
 .rodata        0x000000000805a870       0x10 ././lvgl/src/lv_draw/lv_draw_img.o
 .rodata.CSWTCH.16
                0x000000000805a880        0xb ././lvgl/src/lv_draw/lv_draw_img.o
 *fill*         0x000000000805a88b        0x1 
 .rodata.lv_draw_img.str1.4
                0x000000000805a88c        0x8 ././lvgl/src/lv_draw/lv_draw_img.o
 .rodata.lv_draw_get_buf.str1.4
                0x000000000805a894        0xe ././lvgl/src/lv_draw/lv_draw.o
 .rodata.seg1.8239
                0x000000000805a894        0x1 ././lvgl/src/lv_draw/lv_draw.o
 *fill*         0x000000000805a895        0x3 
 .rodata.seg2.8240
                0x000000000805a898        0x2 ././lvgl/src/lv_draw/lv_draw.o
 *fill*         0x000000000805a89a        0x2 
 .rodata.seg3.8241
                0x000000000805a89c        0x3 ././lvgl/src/lv_draw/lv_draw.o
 *fill*         0x000000000805a89f        0x1 
 .rodata.seg4.8242
                0x000000000805a8a0        0x4 ././lvgl/src/lv_draw/lv_draw.o
 .rodata.seg5.8243
                0x000000000805a8a4        0x5 ././lvgl/src/lv_draw/lv_draw.o
 *fill*         0x000000000805a8a9        0x3 
 .rodata.seg6.8244
                0x000000000805a8ac        0x6 ././lvgl/src/lv_draw/lv_draw.o
 *fill*         0x000000000805a8b2        0x2 
 .rodata.seg7.8245
                0x000000000805a8b4        0x7 ././lvgl/src/lv_draw/lv_draw.o
 *fill*         0x000000000805a8bb        0x1 
 .rodata.seg8.8246
                0x000000000805a8bc        0x8 ././lvgl/src/lv_draw/lv_draw.o
 .rodata.seg_map.8247
                0x000000000805a8c4       0x20 ././lvgl/src/lv_draw/lv_draw.o
 .rodata.lv_img_cache_set_size.str1.4
                0x000000000805a8e4        0xe ././lvgl/src/lv_draw/lv_img_cache.o
 .rodata.lv_img_decoder_create.str1.4
                0x000000000805a8e4        0xe ././lvgl/src/lv_draw/lv_img_decoder.o
 .rodata        0x000000000805a8e4       0x10 ././lvgl/src/lv_draw/lv_draw_basic.o
 .rodata.CSWTCH.20
                0x000000000805a8f4        0x6 ././lvgl/src/lv_draw/lv_draw_label.o
 *fill*         0x000000000805a8fa        0x2 
 .rodata.opa_map2.7740
                0x000000000805a8fc        0x2 ././lvgl/src/lv_draw/lv_draw_rect.o
 *fill*         0x000000000805a8fe        0x2 
 .rodata.opa_map3.7741
                0x000000000805a900        0x3 ././lvgl/src/lv_draw/lv_draw_rect.o
 *fill*         0x000000000805a903        0x1 
 .rodata.opa_map4.7742
                0x000000000805a904        0x4 ././lvgl/src/lv_draw/lv_draw_rect.o
 .rodata.opa_map8.7743
                0x000000000805a908        0x8 ././lvgl/src/lv_draw/lv_draw_rect.o
 .rodata.str1.4
                0x000000000805a910        0x6 ././ui/ui_msgbox.o
                                          0x9 (size before relaxing)
 *fill*         0x000000000805a916        0x2 
 .rodata        0x000000000805a918        0xa ././ui/ui_header.o
 *fill*         0x000000000805a922        0x2 
 .rodata.mew_display_small_header.str1.4
                0x000000000805a924        0xe ././ui/ui_header.o
 *fill*         0x000000000805a932        0x2 
 .rodata        0x000000000805a934        0x6 ././ui/ui_win_startup_1.o
 *fill*         0x000000000805a93a        0x2 
 .rodata._mew_btnm2_event_handler.str1.4
                0x000000000805a93c       0x25 ././ui/ui_win_startup_1.o
 *fill*         0x000000000805a961        0x3 
 .rodata._mew_btnm_event_handler.str1.4
                0x000000000805a964       0x45 ././ui/ui_win_startup_1.o
 *fill*         0x000000000805a9a9        0x3 
 .rodata._mew_msgbox_event_handler.str1.4
                0x000000000805a9ac       0x29 ././ui/ui_win_startup_1.o
 *fill*         0x000000000805a9d5        0x3 
 .rodata.mew_show_startup_window_1.str1.4
                0x000000000805a9d8       0xd7 ././ui/ui_win_startup_1.o
 *fill*         0x000000000805aaaf        0x1 
 .rodata.str1.4
                0x000000000805aab0       0x28 ././ui/ui_win_startup_1.o
                                         0x33 (size before relaxing)
 .rodata.cmaps  0x000000000805aad8      0x104 ././ui/mew_font_ru_bold.o
 .rodata.glyph_dsc
                0x000000000805abdc      0xe20 ././ui/mew_font_ru_bold.o
 .rodata.gylph_bitmap
                0x000000000805b9fc     0x5bde ././ui/mew_font_ru_bold.o
 *fill*         0x00000000080615da        0x2 
 .rodata.kern_pair_glyph_ids
                0x00000000080615dc     0x5508 ././ui/mew_font_ru_bold.o
 .rodata.kern_pair_values
                0x0000000008066ae4     0x1542 ././ui/mew_font_ru_bold.o
 *fill*         0x0000000008068026        0x2 
 .rodata.kern_pairs
                0x0000000008068028        0xc ././ui/mew_font_ru_bold.o
 .rodata.unicode_list_0
                0x0000000008068034        0x4 ././ui/mew_font_ru_bold.o
 .rodata.unicode_list_12
                0x0000000008068038       0x46 ././ui/mew_font_ru_bold.o
 *fill*         0x000000000806807e        0x2 
 .rodata.unicode_list_8
                0x0000000008068080       0x1e ././ui/mew_font_ru_bold.o
 *fill*         0x000000000806809e        0x2 
 .rodata.cmaps  0x00000000080680a0       0x3c ././ui/mew_font_ru_bold_title.o
 .rodata.glyph_dsc
                0x00000000080680dc      0x308 ././ui/mew_font_ru_bold_title.o
 .rodata.gylph_bitmap
                0x00000000080683e4     0x1ef8 ././ui/mew_font_ru_bold_title.o
 .rodata.kern_pair_glyph_ids
                0x000000000806a2dc      0x388 ././ui/mew_font_ru_bold_title.o
 .rodata.kern_pair_values
                0x000000000806a664      0x1c4 ././ui/mew_font_ru_bold_title.o
 .rodata.kern_pairs
                0x000000000806a828        0xc ././ui/mew_font_ru_bold_title.o
 .rodata.unicode_list_0
                0x000000000806a834        0x4 ././ui/mew_font_ru_bold_title.o
 .rodata.mew_logo
                0x000000000806a838        0xc ././ui/mew_logo.o
                0x000000000806a838                mew_logo
 .rodata.mew_logo_pixel_map
                0x000000000806a844     0x2480 ././ui/mew_logo.o
 .rodata.rcc_hse_16mhz_3v3
                0x000000000806ccc4       0x70 /home/user/Devel/stm32/libopencm3/lib/libopencm3_stm32f4.a(rcc.o)
                0x000000000806ccc4                rcc_hse_16mhz_3v3
 .rodata.rcc_hse_12mhz_3v3
                0x000000000806cd34       0x70 /home/user/Devel/stm32/libopencm3/lib/libopencm3_stm32f4.a(rcc.o)
                0x000000000806cd34                rcc_hse_12mhz_3v3
 .rodata.rcc_hse_25mhz_3v3
                0x000000000806cda4       0x70 /home/user/Devel/stm32/libopencm3/lib/libopencm3_stm32f4.a(rcc.o)
                0x000000000806cda4                rcc_hse_25mhz_3v3
 .rodata.rcc_hse_8mhz_3v3
                0x000000000806ce14       0x70 /home/user/Devel/stm32/libopencm3/lib/libopencm3_stm32f4.a(rcc.o)
                0x000000000806ce14                rcc_hse_8mhz_3v3
 .rodata.CSWTCH.24
                0x000000000806ce84       0x28 /home/user/Devel/stm32/libopencm3/lib/libopencm3_stm32f4.a(usb_standard.o)
 .rodata.CSWTCH.26
                0x000000000806ceac       0x30 /home/user/Devel/stm32/libopencm3/lib/libopencm3_stm32f4.a(usb_standard.o)
 .rodata.stm32f107_usb_driver
                0x000000000806cedc       0x34 /home/user/Devel/stm32/libopencm3/lib/libopencm3_stm32f4.a(usb_f107.o)
                0x000000000806cedc                stm32f107_usb_driver
 .rodata.__assert_func.str1.1
                0x000000000806cf10       0x3c /home/user/Devel/stm32/gcc-arm-none-eabi-8-2018-q4-major/bin/../lib/gcc/arm-none-eabi/8.2.1/../../../../arm-none-eabi/lib/thumb/v7e-m+fp/hard/libc_nano.a(lib_a-assert.o)
                                         0x3d (size before relaxing)
 .rodata._global_impure_ptr
                0x000000000806cf4c        0x4 /home/user/Devel/stm32/gcc-arm-none-eabi-8-2018-q4-major/bin/../lib/gcc/arm-none-eabi/8.2.1/../../../../arm-none-eabi/lib/thumb/v7e-m+fp/hard/libc_nano.a(lib_a-impure.o)
                0x000000000806cf4c                _global_impure_ptr
 .rodata._vfprintf_r.str1.1
                0x000000000806cf50       0x11 /home/user/Devel/stm32/gcc-arm-none-eabi-8-2018-q4-major/bin/../lib/gcc/arm-none-eabi/8.2.1/../../../../arm-none-eabi/lib/thumb/v7e-m+fp/hard/libc_nano.a(lib_a-nano-vfprintf.o)
 .rodata._printf_i.str1.1
                0x000000000806cf61       0x22 /home/user/Devel/stm32/gcc-arm-none-eabi-8-2018-q4-major/bin/../lib/gcc/arm-none-eabi/8.2.1/../../../../arm-none-eabi/lib/thumb/v7e-m+fp/hard/libc_nano.a(lib_a-nano-vfprintf_i.o)
 *fill*         0x000000000806cf83        0x1 
 .rodata.__sf_fake_stderr
                0x000000000806cf84       0x20 /home/user/Devel/stm32/gcc-arm-none-eabi-8-2018-q4-major/bin/../lib/gcc/arm-none-eabi/8.2.1/../../../../arm-none-eabi/lib/thumb/v7e-m+fp/hard/libc_nano.a(lib_a-findfp.o)
                0x000000000806cf84                __sf_fake_stderr
 .rodata.__sf_fake_stdin
                0x000000000806cfa4       0x20 /home/user/Devel/stm32/gcc-arm-none-eabi-8-2018-q4-major/bin/../lib/gcc/arm-none-eabi/8.2.1/../../../../arm-none-eabi/lib/thumb/v7e-m+fp/hard/libc_nano.a(lib_a-findfp.o)
                0x000000000806cfa4                __sf_fake_stdin
 .rodata.__sf_fake_stdout
                0x000000000806cfc4       0x20 /home/user/Devel/stm32/gcc-arm-none-eabi-8-2018-q4-major/bin/../lib/gcc/arm-none-eabi/8.2.1/../../../../arm-none-eabi/lib/thumb/v7e-m+fp/hard/libc_nano.a(lib_a-findfp.o)
                0x000000000806cfc4                __sf_fake_stdout
                0x000000000806cfe4                . = ALIGN (0x4)

.glue_7         0x000000000806cfe4        0x0
 .glue_7        0x000000000806cfe4        0x0 linker stubs

.glue_7t        0x000000000806cfe4        0x0
 .glue_7t       0x000000000806cfe4        0x0 linker stubs

.vfp11_veneer   0x000000000806cfe4        0x0
 .vfp11_veneer  0x000000000806cfe4        0x0 linker stubs

.v4_bx          0x000000000806cfe4        0x0
 .v4_bx         0x000000000806cfe4        0x0 linker stubs

.iplt           0x000000000806cfe4        0x0
 .iplt          0x000000000806cfe4        0x0 ././drivers/bluetooth/bt_usart.o

.preinit_array  0x000000000806cfe4        0x0
                0x000000000806cfe4                . = ALIGN (0x4)
                0x000000000806cfe4                __preinit_array_start = .
 *(.preinit_array)
                0x000000000806cfe4                __preinit_array_end = .

.init_array     0x000000000806cfe4        0x0
                0x000000000806cfe4                . = ALIGN (0x4)
                0x000000000806cfe4                __init_array_start = .
 *(SORT_BY_NAME(.init_array.*))
 *(.init_array)
                0x000000000806cfe4                __init_array_end = .

.fini_array     0x000000000806cfe4        0x0
                0x000000000806cfe4                . = ALIGN (0x4)
                0x000000000806cfe4                __fini_array_start = .
 *(.fini_array)
 *(SORT_BY_NAME(.fini_array.*))
                0x000000000806cfe4                __fini_array_end = .

.ARM.extab      0x000000000806cfe4        0x0
 *(.ARM.extab*)
 .ARM.extab     0x000000000806cfe4        0x0 /home/user/Devel/stm32/gcc-arm-none-eabi-8-2018-q4-major/bin/../lib/gcc/arm-none-eabi/8.2.1/thumb/v7e-m+fp/hard/libgcc.a(_udivmoddi4.o)

.ARM.exidx      0x000000000806cfe4        0x8
                0x000000000806cfe4                __exidx_start = .
 *(.ARM.exidx*)
 .ARM.exidx     0x000000000806cfe4        0x8 /home/user/Devel/stm32/gcc-arm-none-eabi-8-2018-q4-major/bin/../lib/gcc/arm-none-eabi/8.2.1/thumb/v7e-m+fp/hard/libgcc.a(_udivmoddi4.o)
                0x000000000806cfec                __exidx_end = .

.rel.dyn        0x000000000806cfec        0x0
 .rel.iplt      0x000000000806cfec        0x0 ././drivers/bluetooth/bt_usart.o
                0x000000000806cfec                . = ALIGN (0x4)
                0x000000000806cfec                _etext = .

.data           0x0000000020000000      0x1fc load address 0x000000000806cfec
                0x0000000020000000                _data = .
 *(.data*)
 .data          0x0000000020000000        0x0 ././drivers/bluetooth/bt_usart.o
 .data._mew_bt_cmd_rx_state
                0x0000000020000000        0x4 ././drivers/bluetooth/bt_usart.o
 .data          0x0000000020000004        0x0 ././drivers/usb/mew_usb_hid.o
 .data.usb_hid_disable
                0x0000000020000004        0x1 ././drivers/usb/mew_usb_hid.o
                0x0000000020000004                usb_hid_disable
 *fill*         0x0000000020000005        0x3 
 .data.usb_strings
                0x0000000020000008        0xc ././drivers/usb/mew_usb_hid.o
 .data          0x0000000020000014        0x0 ././drivers/display/display.o
 .data          0x0000000020000014        0x0 ././drivers/display/ts_tsc2007.o
 .data          0x0000000020000014        0x0 ././drivers/flash/otp_storage.o
 .data.mew_keystore
                0x0000000020000014        0x4 ././drivers/flash/otp_storage.o
                0x0000000020000014                mew_keystore
 .data          0x0000000020000018        0x0 ././drivers/i2c/i2c.o
 .data          0x0000000020000018        0x0 ././drivers/spi_flash/w25n01gvzeig.o
 .data._mew_cmd_fast_read
                0x0000000020000018        0x4 ././drivers/spi_flash/w25n01gvzeig.o
 .data._mew_cmd_read_id
                0x000000002000001c        0x2 ././drivers/spi_flash/w25n01gvzeig.o
 .data          0x000000002000001e        0x0 ././drivers/spi_flash/flash.o
 *fill*         0x000000002000001e        0x2 
 .data.mew_flash_dma_dummy
                0x0000000020000020        0x1 ././drivers/spi_flash/flash.o
 .data          0x0000000020000021        0x0 ././drivers/system/clock.o
 .data          0x0000000020000021        0x0 ././drivers/system/systick.o
 .data          0x0000000020000021        0x0 ././drivers/system/system.o
 .data          0x0000000020000021        0x0 ././drivers/system/random.o
 .data          0x0000000020000021        0x0 ././drivers/duart/duart.o
 .data          0x0000000020000021        0x0 ././drivers/hw_crypt/aes256.o
 .data.dma2_crypt_in_complete
                0x0000000020000021        0x1 ././drivers/hw_crypt/aes256.o
 .data.dma2_crypt_out_complete
                0x0000000020000022        0x1 ././drivers/hw_crypt/aes256.o
 .data          0x0000000020000023        0x0 ././drivers/hw_crypt/secure_eeprom.o
 .data          0x0000000020000023        0x0 ././drivers/hw_crypt/P256-cortex-ecdh.o
 .data          0x0000000020000023        0x0 ././drivers/hw_crypt/sha2_256.o
 .data          0x0000000020000023        0x0 ././app/pwd_generator/mew_xor_algo.o
 .data          0x0000000020000023        0x0 ././app/pwd_generator/mew_passgen.o
 .data          0x0000000020000023        0x0 ././app/packet_parser/parser.o
 .data          0x0000000020000023        0x0 ././app/qr_code/qrcodegen.o
 .data          0x0000000020000023        0x0 ././debug.o
 .data          0x0000000020000023        0x0 ././mew.o
 .data          0x0000000020000023        0x0 ././lvgl/src/lv_hal/lv_hal_disp.o
 .data          0x0000000020000023        0x0 ././lvgl/src/lv_hal/lv_hal_tick.o
 .data          0x0000000020000023        0x0 ././lvgl/src/lv_hal/lv_hal_indev.o
 .data          0x0000000020000023        0x0 ././lvgl/src/lv_font/lv_font_roboto_12.o
 *fill*         0x0000000020000023        0x1 
 .data.font_dsc
                0x0000000020000024       0x1c ././lvgl/src/lv_font/lv_font_roboto_12.o
 .data.lv_font_roboto_12
                0x0000000020000040       0x10 ././lvgl/src/lv_font/lv_font_roboto_12.o
                0x0000000020000040                lv_font_roboto_12
 .data          0x0000000020000050        0x0 ././lvgl/src/lv_font/lv_font_fmt_txt.o
 .data          0x0000000020000050        0x0 ././lvgl/src/lv_font/lv_font.o
 .data          0x0000000020000050        0x0 ././lvgl/src/lv_font/lv_font_roboto_28_compressed.o
 .data.font_dsc
                0x0000000020000050       0x1c ././lvgl/src/lv_font/lv_font_roboto_28_compressed.o
 .data.lv_font_roboto_28_compressed
                0x000000002000006c       0x10 ././lvgl/src/lv_font/lv_font_roboto_28_compressed.o
                0x000000002000006c                lv_font_roboto_28_compressed
 .data          0x000000002000007c        0x0 ././lvgl/src/lv_font/lv_font_roboto_12_subpx.o
 .data.font_dsc
                0x000000002000007c       0x1c ././lvgl/src/lv_font/lv_font_roboto_12_subpx.o
 .data.lv_font_roboto_12_subpx
                0x0000000020000098       0x10 ././lvgl/src/lv_font/lv_font_roboto_12_subpx.o
                0x0000000020000098                lv_font_roboto_12_subpx
 .data          0x00000000200000a8        0x0 ././lvgl/src/lv_font/lv_font_roboto_22.o
 .data          0x00000000200000a8        0x0 ././lvgl/src/lv_font/lv_font_roboto_16.o
 .data          0x00000000200000a8        0x0 ././lvgl/src/lv_font/lv_font_roboto_28.o
 .data          0x00000000200000a8        0x0 ././lvgl/src/lv_font/lv_font_unscii_8.o
 .data          0x00000000200000a8        0x0 ././lvgl/src/lv_misc/lv_gc.o
 .data          0x00000000200000a8        0x0 ././lvgl/src/lv_misc/lv_printf.o
 .data          0x00000000200000a8        0x0 ././lvgl/src/lv_misc/lv_mem.o
 .data          0x00000000200000a8        0x0 ././lvgl/src/lv_misc/lv_txt.o
 .data.lv_txt_encoded_conv_wc
                0x00000000200000a8        0x4 ././lvgl/src/lv_misc/lv_txt.o
                0x00000000200000a8                lv_txt_encoded_conv_wc
 .data.lv_txt_encoded_get_byte_id
                0x00000000200000ac        0x4 ././lvgl/src/lv_misc/lv_txt.o
                0x00000000200000ac                lv_txt_encoded_get_byte_id
 .data.lv_txt_encoded_get_char_id
                0x00000000200000b0        0x4 ././lvgl/src/lv_misc/lv_txt.o
                0x00000000200000b0                lv_txt_encoded_get_char_id
 .data.lv_txt_encoded_next
                0x00000000200000b4        0x4 ././lvgl/src/lv_misc/lv_txt.o
                0x00000000200000b4                lv_txt_encoded_next
 .data.lv_txt_encoded_prev
                0x00000000200000b8        0x4 ././lvgl/src/lv_misc/lv_txt.o
                0x00000000200000b8                lv_txt_encoded_prev
 .data.lv_txt_encoded_size
                0x00000000200000bc        0x4 ././lvgl/src/lv_misc/lv_txt.o
                0x00000000200000bc                lv_txt_encoded_size
 .data.lv_txt_get_encoded_length
                0x00000000200000c0        0x4 ././lvgl/src/lv_misc/lv_txt.o
                0x00000000200000c0                lv_txt_get_encoded_length
 .data.lv_txt_unicode_to_encoded
                0x00000000200000c4        0x4 ././lvgl/src/lv_misc/lv_txt.o
                0x00000000200000c4                lv_txt_unicode_to_encoded
 .data          0x00000000200000c8        0x0 ././lvgl/src/lv_misc/lv_area.o
 .data          0x00000000200000c8        0x0 ././lvgl/src/lv_misc/lv_templ.o
 .data          0x00000000200000c8        0x0 ././lvgl/src/lv_misc/lv_anim.o
 .data          0x00000000200000c8        0x0 ././lvgl/src/lv_misc/lv_utils.o
 .data          0x00000000200000c8        0x0 ././lvgl/src/lv_misc/lv_bidi.o
 .data          0x00000000200000c8        0x0 ././lvgl/src/lv_misc/lv_ll.o
 .data          0x00000000200000c8        0x0 ././lvgl/src/lv_misc/lv_color.o
 .data          0x00000000200000c8        0x0 ././lvgl/src/lv_misc/lv_circ.o
 .data          0x00000000200000c8        0x0 ././lvgl/src/lv_misc/lv_task.o
 .data          0x00000000200000c8        0x0 ././lvgl/src/lv_misc/lv_log.o
 .data          0x00000000200000c8        0x0 ././lvgl/src/lv_misc/lv_async.o
 .data          0x00000000200000c8        0x0 ././lvgl/src/lv_misc/lv_fs.o
 .data          0x00000000200000c8        0x0 ././lvgl/src/lv_misc/lv_math.o
 .data          0x00000000200000c8        0x0 ././lvgl/src/lv_themes/lv_theme.o
 .data          0x00000000200000c8        0x0 ././lvgl/src/lv_themes/lv_theme_mono.o
 .data          0x00000000200000c8        0x0 ././lvgl/src/lv_themes/lv_theme_material.o
 .data          0x00000000200000c8        0x0 ././lvgl/src/lv_themes/lv_theme_default.o
 .data          0x00000000200000c8        0x0 ././lvgl/src/lv_themes/lv_theme_alien.o
 .data          0x00000000200000c8        0x0 ././lvgl/src/lv_themes/lv_theme_night.o
 .data          0x00000000200000c8        0x0 ././lvgl/src/lv_themes/lv_theme_zen.o
 .data          0x00000000200000c8        0x0 ././lvgl/src/lv_themes/lv_theme_templ.o
 .data          0x00000000200000c8        0x0 ././lvgl/src/lv_themes/lv_theme_nemo.o
 .data          0x00000000200000c8        0x0 ././lvgl/src/lv_core/lv_disp.o
 .data          0x00000000200000c8        0x0 ././lvgl/src/lv_core/lv_debug.o
 .data          0x00000000200000c8        0x0 ././lvgl/src/lv_core/lv_indev.o
 .data          0x00000000200000c8        0x0 ././lvgl/src/lv_core/lv_refr.o
 .data          0x00000000200000c8        0x0 ././lvgl/src/lv_core/lv_obj.o
 .data          0x00000000200000c8        0x0 ././lvgl/src/lv_core/lv_style.o
 .data          0x00000000200000c8        0x0 ././lvgl/src/lv_core/lv_group.o
 .data          0x00000000200000c8        0x0 ././lvgl/src/lv_objx/lv_spinbox.o
 .data          0x00000000200000c8        0x0 ././lvgl/src/lv_objx/lv_roller.o
 .data          0x00000000200000c8        0x0 ././lvgl/src/lv_objx/lv_led.o
 .data          0x00000000200000c8        0x0 ././lvgl/src/lv_objx/lv_img.o
 .data          0x00000000200000c8        0x0 ././lvgl/src/lv_objx/lv_imgbtn.o
 .data          0x00000000200000c8        0x0 ././lvgl/src/lv_objx/lv_lmeter.o
 .data          0x00000000200000c8        0x0 ././lvgl/src/lv_objx/lv_kb.o
 .data          0x00000000200000c8        0x0 ././lvgl/src/lv_objx/lv_arc.o
 .data          0x00000000200000c8        0x0 ././lvgl/src/lv_objx/lv_bar.o
 .data          0x00000000200000c8        0x0 ././lvgl/src/lv_objx/lv_tabview.o
 .data.tab_def  0x00000000200000c8        0x4 ././lvgl/src/lv_objx/lv_tabview.o
 .data          0x00000000200000cc        0x0 ././lvgl/src/lv_objx/lv_chart.o
 .data          0x00000000200000cc        0x0 ././lvgl/src/lv_objx/lv_mbox.o
 .data          0x00000000200000cc        0x0 ././lvgl/src/lv_objx/lv_calendar.o
 .data          0x00000000200000cc        0x0 ././lvgl/src/lv_objx/lv_slider.o
 .data          0x00000000200000cc        0x0 ././lvgl/src/lv_objx/lv_gauge.o
 .data          0x00000000200000cc        0x0 ././lvgl/src/lv_objx/lv_win.o
 .data          0x00000000200000cc        0x0 ././lvgl/src/lv_objx/lv_cpicker.o
 .data          0x00000000200000cc        0x0 ././lvgl/src/lv_objx/lv_line.o
 .data          0x00000000200000cc        0x0 ././lvgl/src/lv_objx/lv_cont.o
 .data          0x00000000200000cc        0x0 ././lvgl/src/lv_objx/lv_tileview.o
 .data          0x00000000200000cc        0x0 ././lvgl/src/lv_objx/lv_canvas.o
 .data          0x00000000200000cc        0x0 ././lvgl/src/lv_objx/lv_objx_templ.o
 .data          0x00000000200000cc        0x0 ././lvgl/src/lv_objx/lv_label.o
 .data          0x00000000200000cc        0x0 ././lvgl/src/lv_objx/lv_ddlist.o
 .data          0x00000000200000cc        0x0 ././lvgl/src/lv_objx/lv_list.o
 .data          0x00000000200000cc        0x0 ././lvgl/src/lv_objx/lv_preload.o
 .data          0x00000000200000cc        0x0 ././lvgl/src/lv_objx/lv_btn.o
 .data          0x00000000200000cc        0x0 ././lvgl/src/lv_objx/lv_btnm.o
 .data.lv_btnm_def_map
                0x00000000200000cc       0x1c ././lvgl/src/lv_objx/lv_btnm.o
 .data          0x00000000200000e8        0x0 ././lvgl/src/lv_objx/lv_ta.o
 .data          0x00000000200000e8        0x0 ././lvgl/src/lv_objx/lv_page.o
 .data          0x00000000200000e8        0x0 ././lvgl/src/lv_objx/lv_table.o
 .data          0x00000000200000e8        0x0 ././lvgl/src/lv_objx/lv_cb.o
 .data          0x00000000200000e8        0x0 ././lvgl/src/lv_objx/lv_sw.o
 .data          0x00000000200000e8        0x0 ././lvgl/src/lv_draw/lv_draw_img.o
 .data          0x00000000200000e8        0x0 ././lvgl/src/lv_draw/lv_draw_arc.o
 .data          0x00000000200000e8        0x0 ././lvgl/src/lv_draw/lv_draw.o
 .data          0x00000000200000e8        0x0 ././lvgl/src/lv_draw/lv_draw_triangle.o
 .data          0x00000000200000e8        0x0 ././lvgl/src/lv_draw/lv_img_cache.o
 .data          0x00000000200000e8        0x0 ././lvgl/src/lv_draw/lv_img_decoder.o
 .data          0x00000000200000e8        0x0 ././lvgl/src/lv_draw/lv_draw_basic.o
 .data          0x00000000200000e8        0x0 ././lvgl/src/lv_draw/lv_draw_line.o
 .data          0x00000000200000e8        0x0 ././lvgl/src/lv_draw/lv_draw_label.o
 .data          0x00000000200000e8        0x0 ././lvgl/src/lv_draw/lv_draw_rect.o
 .data          0x00000000200000e8        0x0 ././lvgl/porting/lv_port_disp_template.o
 .data          0x00000000200000e8        0x0 ././lvgl/porting/lv_port_indev_template.o
 .data          0x00000000200000e8        0x0 ././lvgl/porting/lv_port_fs_template.o
 .data          0x00000000200000e8        0x0 ././ui/ui_msgbox.o
 .data._mew_msgbox_btns
                0x00000000200000e8        0x8 ././ui/ui_msgbox.o
 .data          0x00000000200000f0        0x0 ././ui/ui_lhandlers.o
 .data._mew_current_window
                0x00000000200000f0        0x4 ././ui/ui_lhandlers.o
 .data          0x00000000200000f4        0x0 ././ui/qrcode_ui.o
 .data          0x00000000200000f4        0x0 ././ui/ui_header.o
 .data          0x00000000200000f4        0x0 ././ui/ui_win_startup_1.o
 .data._mew_btnm_map
                0x00000000200000f4       0x40 ././ui/ui_win_startup_1.o
 .data          0x0000000020000134        0x0 ././ui/mew_font_ru_bold.o
 .data.font_dsc
                0x0000000020000134       0x1c ././ui/mew_font_ru_bold.o
 .data.mew_font_ru_bold
                0x0000000020000150       0x10 ././ui/mew_font_ru_bold.o
                0x0000000020000150                mew_font_ru_bold
 .data          0x0000000020000160        0x0 ././ui/ui_main_win.o
 .data          0x0000000020000160        0x0 ././ui/mew_font_ru_bold_title.o
 .data.font_dsc
                0x0000000020000160       0x1c ././ui/mew_font_ru_bold_title.o
 .data.mew_font_ru_bold_title
                0x000000002000017c       0x10 ././ui/mew_font_ru_bold_title.o
                0x000000002000017c                mew_font_ru_bold_title
 .data          0x000000002000018c        0x0 ././ui/mew_logo.o
 .data          0x000000002000018c        0x0 ././drivers/system/byteorder.o
 .data          0x000000002000018c        0x0 ././drivers/hw_crypt/P256-cortex-m4-ecdh-speedopt-gcc.o
 .data          0x000000002000018c        0x0 /home/user/Devel/stm32/libopencm3/lib/libopencm3_stm32f4.a(rcc.o)
 .data.rcc_ahb_frequency
                0x000000002000018c        0x4 /home/user/Devel/stm32/libopencm3/lib/libopencm3_stm32f4.a(rcc.o)
                0x000000002000018c                rcc_ahb_frequency
 .data.rcc_apb1_frequency
                0x0000000020000190        0x4 /home/user/Devel/stm32/libopencm3/lib/libopencm3_stm32f4.a(rcc.o)
                0x0000000020000190                rcc_apb1_frequency
 .data.rcc_apb2_frequency
                0x0000000020000194        0x4 /home/user/Devel/stm32/libopencm3/lib/libopencm3_stm32f4.a(rcc.o)
                0x0000000020000194                rcc_apb2_frequency
 .data          0x0000000020000198        0x0 /home/user/Devel/stm32/libopencm3/lib/libopencm3_stm32f4.a(crc_common_all.o)
 .data          0x0000000020000198        0x0 /home/user/Devel/stm32/libopencm3/lib/libopencm3_stm32f4.a(dma_common_f24.o)
 .data          0x0000000020000198        0x0 /home/user/Devel/stm32/libopencm3/lib/libopencm3_stm32f4.a(gpio_common_all.o)
 .data          0x0000000020000198        0x0 /home/user/Devel/stm32/libopencm3/lib/libopencm3_stm32f4.a(gpio_common_f0234.o)
 .data          0x0000000020000198        0x0 /home/user/Devel/stm32/libopencm3/lib/libopencm3_stm32f4.a(i2c_common_v1.o)
 .data          0x0000000020000198        0x0 /home/user/Devel/stm32/libopencm3/lib/libopencm3_stm32f4.a(spi_common_all.o)
 .data          0x0000000020000198        0x0 /home/user/Devel/stm32/libopencm3/lib/libopencm3_stm32f4.a(spi_common_l1f124.o)
 .data          0x0000000020000198        0x0 /home/user/Devel/stm32/libopencm3/lib/libopencm3_stm32f4.a(usart_common_all.o)
 .data          0x0000000020000198        0x0 /home/user/Devel/stm32/libopencm3/lib/libopencm3_stm32f4.a(usart_common_f124.o)
 .data          0x0000000020000198        0x0 /home/user/Devel/stm32/libopencm3/lib/libopencm3_stm32f4.a(flash_common_f234.o)
 .data          0x0000000020000198        0x0 /home/user/Devel/stm32/libopencm3/lib/libopencm3_stm32f4.a(flash_common_f24.o)
 .data          0x0000000020000198        0x0 /home/user/Devel/stm32/libopencm3/lib/libopencm3_stm32f4.a(exti_common_all.o)
 .data          0x0000000020000198        0x0 /home/user/Devel/stm32/libopencm3/lib/libopencm3_stm32f4.a(rcc_common_all.o)
 .data          0x0000000020000198        0x0 /home/user/Devel/stm32/libopencm3/lib/libopencm3_stm32f4.a(usb.o)
 .data          0x0000000020000198        0x0 /home/user/Devel/stm32/libopencm3/lib/libopencm3_stm32f4.a(usb_standard.o)
 .data          0x0000000020000198        0x0 /home/user/Devel/stm32/libopencm3/lib/libopencm3_stm32f4.a(usb_control.o)
 .data          0x0000000020000198        0x0 /home/user/Devel/stm32/libopencm3/lib/libopencm3_stm32f4.a(usb_f107.o)
 .data          0x0000000020000198        0x0 /home/user/Devel/stm32/libopencm3/lib/libopencm3_stm32f4.a(vector.o)
 .data          0x0000000020000198        0x0 /home/user/Devel/stm32/libopencm3/lib/libopencm3_stm32f4.a(systick.o)
 .data          0x0000000020000198        0x0 /home/user/Devel/stm32/libopencm3/lib/libopencm3_stm32f4.a(nvic.o)
 .data          0x0000000020000198        0x0 /home/user/Devel/stm32/libopencm3/lib/libopencm3_stm32f4.a(pwr.o)
 .data          0x0000000020000198        0x0 /home/user/Devel/stm32/libopencm3/lib/libopencm3_stm32f4.a(usb_fx07_common.o)
 .data          0x0000000020000198        0x0 /home/user/Devel/stm32/gcc-arm-none-eabi-8-2018-q4-major/bin/../lib/gcc/arm-none-eabi/8.2.1/../../../../arm-none-eabi/lib/thumb/v7e-m+fp/hard/libc_nano.a(lib_a-assert.o)
 .data          0x0000000020000198        0x0 /home/user/Devel/stm32/gcc-arm-none-eabi-8-2018-q4-major/bin/../lib/gcc/arm-none-eabi/8.2.1/../../../../arm-none-eabi/lib/thumb/v7e-m+fp/hard/libc_nano.a(lib_a-fprintf.o)
 .data          0x0000000020000198        0x0 /home/user/Devel/stm32/gcc-arm-none-eabi-8-2018-q4-major/bin/../lib/gcc/arm-none-eabi/8.2.1/../../../../arm-none-eabi/lib/thumb/v7e-m+fp/hard/libc_nano.a(lib_a-impure.o)
 .data._impure_ptr
                0x0000000020000198        0x4 /home/user/Devel/stm32/gcc-arm-none-eabi-8-2018-q4-major/bin/../lib/gcc/arm-none-eabi/8.2.1/../../../../arm-none-eabi/lib/thumb/v7e-m+fp/hard/libc_nano.a(lib_a-impure.o)
                0x0000000020000198                _impure_ptr
 .data.impure_data
                0x000000002000019c       0x60 /home/user/Devel/stm32/gcc-arm-none-eabi-8-2018-q4-major/bin/../lib/gcc/arm-none-eabi/8.2.1/../../../../arm-none-eabi/lib/thumb/v7e-m+fp/hard/libc_nano.a(lib_a-impure.o)
 .data          0x00000000200001fc        0x0 /home/user/Devel/stm32/gcc-arm-none-eabi-8-2018-q4-major/bin/../lib/gcc/arm-none-eabi/8.2.1/../../../../arm-none-eabi/lib/thumb/v7e-m+fp/hard/libc_nano.a(lib_a-memcmp.o)
 .data          0x00000000200001fc        0x0 /home/user/Devel/stm32/gcc-arm-none-eabi-8-2018-q4-major/bin/../lib/gcc/arm-none-eabi/8.2.1/../../../../arm-none-eabi/lib/thumb/v7e-m+fp/hard/libc_nano.a(lib_a-memcpy-stub.o)
 .data          0x00000000200001fc        0x0 /home/user/Devel/stm32/gcc-arm-none-eabi-8-2018-q4-major/bin/../lib/gcc/arm-none-eabi/8.2.1/../../../../arm-none-eabi/lib/thumb/v7e-m+fp/hard/libc_nano.a(lib_a-memmove.o)
 .data          0x00000000200001fc        0x0 /home/user/Devel/stm32/gcc-arm-none-eabi-8-2018-q4-major/bin/../lib/gcc/arm-none-eabi/8.2.1/../../../../arm-none-eabi/lib/thumb/v7e-m+fp/hard/libc_nano.a(lib_a-memset.o)
 .data          0x00000000200001fc        0x0 /home/user/Devel/stm32/gcc-arm-none-eabi-8-2018-q4-major/bin/../lib/gcc/arm-none-eabi/8.2.1/../../../../arm-none-eabi/lib/thumb/v7e-m+fp/hard/libc_nano.a(lib_a-nano-vfprintf.o)
 .data          0x00000000200001fc        0x0 /home/user/Devel/stm32/gcc-arm-none-eabi-8-2018-q4-major/bin/../lib/gcc/arm-none-eabi/8.2.1/../../../../arm-none-eabi/lib/thumb/v7e-m+fp/hard/libc_nano.a(lib_a-nano-vfprintf_i.o)
 .data          0x00000000200001fc        0x0 /home/user/Devel/stm32/gcc-arm-none-eabi-8-2018-q4-major/bin/../lib/gcc/arm-none-eabi/8.2.1/../../../../arm-none-eabi/lib/thumb/v7e-m+fp/hard/libc_nano.a(lib_a-strchr.o)
 .data          0x00000000200001fc        0x0 /home/user/Devel/stm32/gcc-arm-none-eabi-8-2018-q4-major/bin/../lib/gcc/arm-none-eabi/8.2.1/../../../../arm-none-eabi/lib/thumb/v7e-m+fp/hard/libc_nano.a(lib_a-strcmp.o)
 .data          0x00000000200001fc        0x0 /home/user/Devel/stm32/gcc-arm-none-eabi-8-2018-q4-major/bin/../lib/gcc/arm-none-eabi/8.2.1/../../../../arm-none-eabi/lib/thumb/v7e-m+fp/hard/libc_nano.a(lib_a-strcpy.o)
 .data          0x00000000200001fc        0x0 /home/user/Devel/stm32/gcc-arm-none-eabi-8-2018-q4-major/bin/../lib/gcc/arm-none-eabi/8.2.1/../../../../arm-none-eabi/lib/thumb/v7e-m+fp/hard/libc_nano.a(lib_a-strlen.o)
 .data          0x00000000200001fc        0x0 /home/user/Devel/stm32/gcc-arm-none-eabi-8-2018-q4-major/bin/../lib/gcc/arm-none-eabi/8.2.1/../../../../arm-none-eabi/lib/thumb/v7e-m+fp/hard/libc_nano.a(lib_a-strstr.o)
 .data          0x00000000200001fc        0x0 /home/user/Devel/stm32/gcc-arm-none-eabi-8-2018-q4-major/bin/../lib/gcc/arm-none-eabi/8.2.1/../../../../arm-none-eabi/lib/thumb/v7e-m+fp/hard/libc_nano.a(lib_a-wbuf.o)
 .data          0x00000000200001fc        0x0 /home/user/Devel/stm32/gcc-arm-none-eabi-8-2018-q4-major/bin/../lib/gcc/arm-none-eabi/8.2.1/../../../../arm-none-eabi/lib/thumb/v7e-m+fp/hard/libc_nano.a(lib_a-wsetup.o)
 .data          0x00000000200001fc        0x0 /home/user/Devel/stm32/gcc-arm-none-eabi-8-2018-q4-major/bin/../lib/gcc/arm-none-eabi/8.2.1/../../../../arm-none-eabi/lib/thumb/v7e-m+fp/hard/libc_nano.a(lib_a-abort.o)
 .data          0x00000000200001fc        0x0 /home/user/Devel/stm32/gcc-arm-none-eabi-8-2018-q4-major/bin/../lib/gcc/arm-none-eabi/8.2.1/../../../../arm-none-eabi/lib/thumb/v7e-m+fp/hard/libc_nano.a(lib_a-fflush.o)
 .data          0x00000000200001fc        0x0 /home/user/Devel/stm32/gcc-arm-none-eabi-8-2018-q4-major/bin/../lib/gcc/arm-none-eabi/8.2.1/../../../../arm-none-eabi/lib/thumb/v7e-m+fp/hard/libc_nano.a(lib_a-findfp.o)
 .data          0x00000000200001fc        0x0 /home/user/Devel/stm32/gcc-arm-none-eabi-8-2018-q4-major/bin/../lib/gcc/arm-none-eabi/8.2.1/../../../../arm-none-eabi/lib/thumb/v7e-m+fp/hard/libc_nano.a(lib_a-fvwrite.o)
 .data          0x00000000200001fc        0x0 /home/user/Devel/stm32/gcc-arm-none-eabi-8-2018-q4-major/bin/../lib/gcc/arm-none-eabi/8.2.1/../../../../arm-none-eabi/lib/thumb/v7e-m+fp/hard/libc_nano.a(lib_a-fwalk.o)
 .data          0x00000000200001fc        0x0 /home/user/Devel/stm32/gcc-arm-none-eabi-8-2018-q4-major/bin/../lib/gcc/arm-none-eabi/8.2.1/../../../../arm-none-eabi/lib/thumb/v7e-m+fp/hard/libc_nano.a(lib_a-lock.o)
 .data          0x00000000200001fc        0x0 /home/user/Devel/stm32/gcc-arm-none-eabi-8-2018-q4-major/bin/../lib/gcc/arm-none-eabi/8.2.1/../../../../arm-none-eabi/lib/thumb/v7e-m+fp/hard/libc_nano.a(lib_a-makebuf.o)
 .data          0x00000000200001fc        0x0 /home/user/Devel/stm32/gcc-arm-none-eabi-8-2018-q4-major/bin/../lib/gcc/arm-none-eabi/8.2.1/../../../../arm-none-eabi/lib/thumb/v7e-m+fp/hard/libc_nano.a(lib_a-memchr.o)
 .data          0x00000000200001fc        0x0 /home/user/Devel/stm32/gcc-arm-none-eabi-8-2018-q4-major/bin/../lib/gcc/arm-none-eabi/8.2.1/../../../../arm-none-eabi/lib/thumb/v7e-m+fp/hard/libc_nano.a(lib_a-nano-freer.o)
 .data          0x00000000200001fc        0x0 /home/user/Devel/stm32/gcc-arm-none-eabi-8-2018-q4-major/bin/../lib/gcc/arm-none-eabi/8.2.1/../../../../arm-none-eabi/lib/thumb/v7e-m+fp/hard/libc_nano.a(lib_a-nano-mallocr.o)
 .data          0x00000000200001fc        0x0 /home/user/Devel/stm32/gcc-arm-none-eabi-8-2018-q4-major/bin/../lib/gcc/arm-none-eabi/8.2.1/../../../../arm-none-eabi/lib/thumb/v7e-m+fp/hard/libc_nano.a(lib_a-nano-reallocr.o)
 .data          0x00000000200001fc        0x0 /home/user/Devel/stm32/gcc-arm-none-eabi-8-2018-q4-major/bin/../lib/gcc/arm-none-eabi/8.2.1/../../../../arm-none-eabi/lib/thumb/v7e-m+fp/hard/libc_nano.a(lib_a-sbrkr.o)
 .data          0x00000000200001fc        0x0 /home/user/Devel/stm32/gcc-arm-none-eabi-8-2018-q4-major/bin/../lib/gcc/arm-none-eabi/8.2.1/../../../../arm-none-eabi/lib/thumb/v7e-m+fp/hard/libc_nano.a(lib_a-signal.o)
 .data          0x00000000200001fc        0x0 /home/user/Devel/stm32/gcc-arm-none-eabi-8-2018-q4-major/bin/../lib/gcc/arm-none-eabi/8.2.1/../../../../arm-none-eabi/lib/thumb/v7e-m+fp/hard/libc_nano.a(lib_a-signalr.o)
 .data          0x00000000200001fc        0x0 /home/user/Devel/stm32/gcc-arm-none-eabi-8-2018-q4-major/bin/../lib/gcc/arm-none-eabi/8.2.1/../../../../arm-none-eabi/lib/thumb/v7e-m+fp/hard/libc_nano.a(lib_a-stdio.o)
 .data          0x00000000200001fc        0x0 /home/user/Devel/stm32/gcc-arm-none-eabi-8-2018-q4-major/bin/../lib/gcc/arm-none-eabi/8.2.1/../../../../arm-none-eabi/lib/thumb/v7e-m+fp/hard/libc_nano.a(lib_a-writer.o)
 .data          0x00000000200001fc        0x0 /home/user/Devel/stm32/gcc-arm-none-eabi-8-2018-q4-major/bin/../lib/gcc/arm-none-eabi/8.2.1/../../../../arm-none-eabi/lib/thumb/v7e-m+fp/hard/libc_nano.a(lib_a-closer.o)
 .data          0x00000000200001fc        0x0 /home/user/Devel/stm32/gcc-arm-none-eabi-8-2018-q4-major/bin/../lib/gcc/arm-none-eabi/8.2.1/../../../../arm-none-eabi/lib/thumb/v7e-m+fp/hard/libc_nano.a(lib_a-fstatr.o)
 .data          0x00000000200001fc        0x0 /home/user/Devel/stm32/gcc-arm-none-eabi-8-2018-q4-major/bin/../lib/gcc/arm-none-eabi/8.2.1/../../../../arm-none-eabi/lib/thumb/v7e-m+fp/hard/libc_nano.a(lib_a-isattyr.o)
 .data          0x00000000200001fc        0x0 /home/user/Devel/stm32/gcc-arm-none-eabi-8-2018-q4-major/bin/../lib/gcc/arm-none-eabi/8.2.1/../../../../arm-none-eabi/lib/thumb/v7e-m+fp/hard/libc_nano.a(lib_a-lseekr.o)
 .data          0x00000000200001fc        0x0 /home/user/Devel/stm32/gcc-arm-none-eabi-8-2018-q4-major/bin/../lib/gcc/arm-none-eabi/8.2.1/../../../../arm-none-eabi/lib/thumb/v7e-m+fp/hard/libc_nano.a(lib_a-mlock.o)
 .data          0x00000000200001fc        0x0 /home/user/Devel/stm32/gcc-arm-none-eabi-8-2018-q4-major/bin/../lib/gcc/arm-none-eabi/8.2.1/../../../../arm-none-eabi/lib/thumb/v7e-m+fp/hard/libc_nano.a(lib_a-nano-msizer.o)
 .data          0x00000000200001fc        0x0 /home/user/Devel/stm32/gcc-arm-none-eabi-8-2018-q4-major/bin/../lib/gcc/arm-none-eabi/8.2.1/../../../../arm-none-eabi/lib/thumb/v7e-m+fp/hard/libc_nano.a(lib_a-readr.o)
 .data          0x00000000200001fc        0x0 /home/user/Devel/stm32/gcc-arm-none-eabi-8-2018-q4-major/bin/../lib/gcc/arm-none-eabi/8.2.1/../../../../arm-none-eabi/lib/thumb/v7e-m+fp/hard/libc_nano.a(lib_a-reent.o)
 .data          0x00000000200001fc        0x0 /home/user/Devel/stm32/gcc-arm-none-eabi-8-2018-q4-major/bin/../lib/gcc/arm-none-eabi/8.2.1/thumb/v7e-m+fp/hard/libgcc.a(_arm_addsubdf3.o)
 .data          0x00000000200001fc        0x0 /home/user/Devel/stm32/gcc-arm-none-eabi-8-2018-q4-major/bin/../lib/gcc/arm-none-eabi/8.2.1/thumb/v7e-m+fp/hard/libgcc.a(_arm_muldivdf3.o)
 .data          0x00000000200001fc        0x0 /home/user/Devel/stm32/gcc-arm-none-eabi-8-2018-q4-major/bin/../lib/gcc/arm-none-eabi/8.2.1/thumb/v7e-m+fp/hard/libgcc.a(_arm_cmpdf2.o)
 .data          0x00000000200001fc        0x0 /home/user/Devel/stm32/gcc-arm-none-eabi-8-2018-q4-major/bin/../lib/gcc/arm-none-eabi/8.2.1/thumb/v7e-m+fp/hard/libgcc.a(_arm_fixdfsi.o)
 .data          0x00000000200001fc        0x0 /home/user/Devel/stm32/gcc-arm-none-eabi-8-2018-q4-major/bin/../lib/gcc/arm-none-eabi/8.2.1/thumb/v7e-m+fp/hard/libgcc.a(_arm_fixunsdfsi.o)
 .data          0x00000000200001fc        0x0 /home/user/Devel/stm32/gcc-arm-none-eabi-8-2018-q4-major/bin/../lib/gcc/arm-none-eabi/8.2.1/thumb/v7e-m+fp/hard/libgcc.a(_aeabi_uldivmod.o)
 .data          0x00000000200001fc        0x0 /home/user/Devel/stm32/gcc-arm-none-eabi-8-2018-q4-major/bin/../lib/gcc/arm-none-eabi/8.2.1/thumb/v7e-m+fp/hard/libgcc.a(_udivmoddi4.o)
 .data          0x00000000200001fc        0x0 /home/user/Devel/stm32/gcc-arm-none-eabi-8-2018-q4-major/bin/../lib/gcc/arm-none-eabi/8.2.1/thumb/v7e-m+fp/hard/libgcc.a(_dvmd_tls.o)
 .data          0x00000000200001fc        0x0 /home/user/Devel/stm32/gcc-arm-none-eabi-8-2018-q4-major/bin/../lib/gcc/arm-none-eabi/8.2.1/../../../../arm-none-eabi/lib/thumb/v7e-m+fp/hard/libnosys.a(close.o)
 .data          0x00000000200001fc        0x0 /home/user/Devel/stm32/gcc-arm-none-eabi-8-2018-q4-major/bin/../lib/gcc/arm-none-eabi/8.2.1/../../../../arm-none-eabi/lib/thumb/v7e-m+fp/hard/libnosys.a(fstat.o)
 .data          0x00000000200001fc        0x0 /home/user/Devel/stm32/gcc-arm-none-eabi-8-2018-q4-major/bin/../lib/gcc/arm-none-eabi/8.2.1/../../../../arm-none-eabi/lib/thumb/v7e-m+fp/hard/libnosys.a(getpid.o)
 .data          0x00000000200001fc        0x0 /home/user/Devel/stm32/gcc-arm-none-eabi-8-2018-q4-major/bin/../lib/gcc/arm-none-eabi/8.2.1/../../../../arm-none-eabi/lib/thumb/v7e-m+fp/hard/libnosys.a(isatty.o)
 .data          0x00000000200001fc        0x0 /home/user/Devel/stm32/gcc-arm-none-eabi-8-2018-q4-major/bin/../lib/gcc/arm-none-eabi/8.2.1/../../../../arm-none-eabi/lib/thumb/v7e-m+fp/hard/libnosys.a(kill.o)
 .data          0x00000000200001fc        0x0 /home/user/Devel/stm32/gcc-arm-none-eabi-8-2018-q4-major/bin/../lib/gcc/arm-none-eabi/8.2.1/../../../../arm-none-eabi/lib/thumb/v7e-m+fp/hard/libnosys.a(lseek.o)
 .data          0x00000000200001fc        0x0 /home/user/Devel/stm32/gcc-arm-none-eabi-8-2018-q4-major/bin/../lib/gcc/arm-none-eabi/8.2.1/../../../../arm-none-eabi/lib/thumb/v7e-m+fp/hard/libnosys.a(read.o)
 .data          0x00000000200001fc        0x0 /home/user/Devel/stm32/gcc-arm-none-eabi-8-2018-q4-major/bin/../lib/gcc/arm-none-eabi/8.2.1/../../../../arm-none-eabi/lib/thumb/v7e-m+fp/hard/libnosys.a(sbrk.o)
 .data          0x00000000200001fc        0x0 /home/user/Devel/stm32/gcc-arm-none-eabi-8-2018-q4-major/bin/../lib/gcc/arm-none-eabi/8.2.1/../../../../arm-none-eabi/lib/thumb/v7e-m+fp/hard/libnosys.a(write.o)
 .data          0x00000000200001fc        0x0 /home/user/Devel/stm32/gcc-arm-none-eabi-8-2018-q4-major/bin/../lib/gcc/arm-none-eabi/8.2.1/../../../../arm-none-eabi/lib/thumb/v7e-m+fp/hard/libnosys.a(_exit.o)
                0x00000000200001fc                . = ALIGN (0x4)
                0x00000000200001fc                _edata = .
                0x000000000806cfec                _data_loadaddr = LOADADDR (.data)

.igot.plt       0x00000000200001fc        0x0 load address 0x000000000806d1e8
 .igot.plt      0x00000000200001fc        0x0 ././drivers/bluetooth/bt_usart.o

.bss            0x0000000020000200    0x10c48 load address 0x000000000806d1e8
 *(.bss*)
 .bss           0x0000000020000200        0x0 ././drivers/bluetooth/bt_usart.o
 .bss._mew_adapter_mac
                0x0000000020000200        0x6 ././drivers/bluetooth/bt_usart.o
                0x0000000020000200                _mew_adapter_mac
 *fill*         0x0000000020000206        0x2 
 .bss._mew_bt_at_buffer
                0x0000000020000208       0x40 ././drivers/bluetooth/bt_usart.o
                0x0000000020000208                _mew_bt_at_buffer
 .bss._mew_bt_at_buffer_counter
                0x0000000020000248        0x4 ././drivers/bluetooth/bt_usart.o
 .bss._mew_bt_cmd_channel_state
                0x000000002000024c        0x4 ././drivers/bluetooth/bt_usart.o
 .bss._mew_bt_cmd_current_cmd
                0x0000000020000250        0x4 ././drivers/bluetooth/bt_usart.o
 .bss._mew_bt_cmd_timer
                0x0000000020000254        0x4 ././drivers/bluetooth/bt_usart.o
 .bss._mew_dma_tx_state
                0x0000000020000258        0x1 ././drivers/bluetooth/bt_usart.o
 .bss           0x0000000020000259        0x0 ././drivers/usb/mew_usb_hid.o
 *fill*         0x0000000020000259        0x3 
 .bss.mew_hid_usbd_dev
                0x000000002000025c        0x4 ././drivers/usb/mew_usb_hid.o
                0x000000002000025c                mew_hid_usbd_dev
 .bss.usbd_control_buffer
                0x0000000020000260       0x80 ././drivers/usb/mew_usb_hid.o
                0x0000000020000260                usbd_control_buffer
 .bss           0x00000000200002e0        0x0 ././drivers/display/display.o
 .bss._mew_current_disp
                0x00000000200002e0        0x4 ././drivers/display/display.o
 .bss._mew_disp_buf
                0x00000000200002e4       0x1c ././drivers/display/display.o
 .bss._mew_dma_rx_state
                0x0000000020000300        0x1 ././drivers/display/display.o
 *fill*         0x0000000020000301        0x3 
 .bss._mew_gd_buf
                0x0000000020000304     0xc800 ././drivers/display/display.o
 .bss           0x000000002000cb04        0x0 ././drivers/display/ts_tsc2007.o
 .bss._mew_ts_isr
                0x000000002000cb04        0x1 ././drivers/display/ts_tsc2007.o
 .bss           0x000000002000cb05        0x0 ././drivers/flash/otp_storage.o
 *fill*         0x000000002000cb05        0x3 
 .bss._mew_ss_temp
                0x000000002000cb08      0x240 ././drivers/flash/otp_storage.o
 .bss           0x000000002000cd48        0x0 ././drivers/i2c/i2c.o
 .bss           0x000000002000cd48        0x0 ././drivers/spi_flash/w25n01gvzeig.o
 .bss._mew_flash_read_buffer
                0x000000002000cd48      0x800 ././drivers/spi_flash/w25n01gvzeig.o
 .bss           0x000000002000d548        0x0 ././drivers/spi_flash/flash.o
 .bss.mew_flash_mem_addr_receiving
                0x000000002000d548        0x4 ././drivers/spi_flash/flash.o
 .bss.mew_flash_mem_addr_sending
                0x000000002000d54c        0x4 ././drivers/spi_flash/flash.o
 .bss.mew_flash_mem_size_receiving
                0x000000002000d550        0x2 ././drivers/spi_flash/flash.o
 .bss.mew_flash_mem_size_sending
                0x000000002000d552        0x2 ././drivers/spi_flash/flash.o
 .bss.mew_flash_rx_handler
                0x000000002000d554        0x4 ././drivers/spi_flash/flash.o
                0x000000002000d554                mew_flash_rx_handler
 .bss.mew_flash_xfer_state
                0x000000002000d558        0x4 ././drivers/spi_flash/flash.o
 .bss           0x000000002000d55c        0x0 ././drivers/system/clock.o
 .bss           0x000000002000d55c        0x0 ././drivers/system/systick.o
 .bss.systick_millis
                0x000000002000d55c        0x4 ././drivers/system/systick.o
 .bss           0x000000002000d560        0x0 ././drivers/system/system.o
 .bss           0x000000002000d560        0x0 ././drivers/system/random.o
 .bss._mew_last_random_value
                0x000000002000d560        0x4 ././drivers/system/random.o
 .bss           0x000000002000d564        0x0 ././drivers/duart/duart.o
 .bss._mew_duart_state
                0x000000002000d564        0x4 ././drivers/duart/duart.o
 .bss           0x000000002000d568        0x0 ././drivers/hw_crypt/aes256.o
 .bss           0x000000002000d568        0x0 ././drivers/hw_crypt/secure_eeprom.o
 .bss.data_decrypted_32
                0x000000002000d568       0xf0 ././drivers/hw_crypt/secure_eeprom.o
 .bss.data_key_sign
                0x000000002000d658        0x8 ././drivers/hw_crypt/secure_eeprom.o
 .bss.data_out_32
                0x000000002000d660      0x100 ././drivers/hw_crypt/secure_eeprom.o
 .bss.data_sign
                0x000000002000d760        0x8 ././drivers/hw_crypt/secure_eeprom.o
 .bss.data_temp_01
                0x000000002000d768       0x28 ././drivers/hw_crypt/secure_eeprom.o
 .bss.mew_ss    0x000000002000d790        0x9 ././drivers/hw_crypt/secure_eeprom.o
                0x000000002000d790                mew_ss
 .bss           0x000000002000d799        0x0 ././drivers/hw_crypt/P256-cortex-ecdh.o
 *fill*         0x000000002000d799        0x3 
 .bss.private_key
                0x000000002000d79c       0x20 ././drivers/hw_crypt/P256-cortex-ecdh.o
 .bss.public_key
                0x000000002000d7bc       0x40 ././drivers/hw_crypt/P256-cortex-ecdh.o
 .bss.shared_key
                0x000000002000d7fc       0x20 ././drivers/hw_crypt/P256-cortex-ecdh.o
 .bss           0x000000002000d81c        0x0 ././drivers/hw_crypt/sha2_256.o
 .bss           0x000000002000d81c        0x0 ././app/pwd_generator/mew_xor_algo.o
 .bss           0x000000002000d81c        0x0 ././app/pwd_generator/mew_passgen.o
 .bss           0x000000002000d81c        0x0 ././app/packet_parser/parser.o
 .bss._mew_comm_buffer
                0x000000002000d81c      0x80a ././app/packet_parser/parser.o
 *fill*         0x000000002000e026        0x2 
 .bss._mew_comm_buffer_counter
                0x000000002000e028        0x4 ././app/packet_parser/parser.o
 .bss._mew_comm_command
                0x000000002000e02c        0x4 ././app/packet_parser/parser.o
 .bss._mew_comm_driver_id
                0x000000002000e030        0x4 ././app/packet_parser/parser.o
 .bss._mew_comm_last_error
                0x000000002000e034        0x4 ././app/packet_parser/parser.o
 .bss._mew_comm_last_time
                0x000000002000e038        0x4 ././app/packet_parser/parser.o
 .bss._mew_comm_payload
                0x000000002000e03c      0x800 ././app/packet_parser/parser.o
 .bss._mew_comm_payload_crc32
                0x000000002000e83c        0x4 ././app/packet_parser/parser.o
 .bss._mew_comm_payload_length
                0x000000002000e840        0x4 ././app/packet_parser/parser.o
 .bss._mew_comm_payload_present
                0x000000002000e844        0x4 ././app/packet_parser/parser.o
 .bss._mew_pubkey_buf
                0x000000002000e848       0x40 ././app/packet_parser/parser.o
 .bss.current_checksum
                0x000000002000e888        0x4 ././app/packet_parser/parser.o
 .bss           0x000000002000e88c        0x0 ././app/qr_code/qrcodegen.o
 .bss           0x000000002000e88c        0x0 ././debug.o
 .bss           0x000000002000e88c        0x0 ././mew.o
 .bss._mew_loop_counter
                0x000000002000e88c        0x4 ././mew.o
 .bss           0x000000002000e890        0x0 ././lvgl/src/lv_hal/lv_hal_disp.o
 .bss.disp_def  0x000000002000e890        0x4 ././lvgl/src/lv_hal/lv_hal_disp.o
 .bss           0x000000002000e894        0x0 ././lvgl/src/lv_hal/lv_hal_tick.o
 .bss.sys_time  0x000000002000e894        0x4 ././lvgl/src/lv_hal/lv_hal_tick.o
 .bss.tick_irq_flag
                0x000000002000e898        0x1 ././lvgl/src/lv_hal/lv_hal_tick.o
 .bss           0x000000002000e899        0x0 ././lvgl/src/lv_hal/lv_hal_indev.o
 .bss           0x000000002000e899        0x0 ././lvgl/src/lv_font/lv_font_roboto_12.o
 .bss           0x000000002000e899        0x0 ././lvgl/src/lv_font/lv_font_fmt_txt.o
 *fill*         0x000000002000e899        0x3 
 .bss.buf.7504  0x000000002000e89c        0x4 ././lvgl/src/lv_font/lv_font_fmt_txt.o
 .bss.rle_bpp   0x000000002000e8a0        0x1 ././lvgl/src/lv_font/lv_font_fmt_txt.o
 .bss.rle_cnt   0x000000002000e8a1        0x1 ././lvgl/src/lv_font/lv_font_fmt_txt.o
 *fill*         0x000000002000e8a2        0x2 
 .bss.rle_in    0x000000002000e8a4        0x4 ././lvgl/src/lv_font/lv_font_fmt_txt.o
 .bss.rle_prev_v
                0x000000002000e8a8        0x1 ././lvgl/src/lv_font/lv_font_fmt_txt.o
 *fill*         0x000000002000e8a9        0x3 
 .bss.rle_rdp   0x000000002000e8ac        0x4 ././lvgl/src/lv_font/lv_font_fmt_txt.o
 .bss.rle_state
                0x000000002000e8b0        0x1 ././lvgl/src/lv_font/lv_font_fmt_txt.o
 .bss           0x000000002000e8b1        0x0 ././lvgl/src/lv_font/lv_font.o
 .bss           0x000000002000e8b1        0x0 ././lvgl/src/lv_font/lv_font_roboto_28_compressed.o
 .bss           0x000000002000e8b1        0x0 ././lvgl/src/lv_font/lv_font_roboto_12_subpx.o
 .bss           0x000000002000e8b1        0x0 ././lvgl/src/lv_font/lv_font_roboto_22.o
 .bss           0x000000002000e8b1        0x0 ././lvgl/src/lv_font/lv_font_roboto_16.o
 .bss           0x000000002000e8b1        0x0 ././lvgl/src/lv_font/lv_font_roboto_28.o
 .bss           0x000000002000e8b1        0x0 ././lvgl/src/lv_font/lv_font_unscii_8.o
 .bss           0x000000002000e8b1        0x0 ././lvgl/src/lv_misc/lv_gc.o
 *fill*         0x000000002000e8b1        0x3 
 .bss._lv_anim_ll
                0x000000002000e8b4        0xc ././lvgl/src/lv_misc/lv_gc.o
                0x000000002000e8b4                _lv_anim_ll
 .bss._lv_disp_ll
                0x000000002000e8c0        0xc ././lvgl/src/lv_misc/lv_gc.o
                0x000000002000e8c0                _lv_disp_ll
 .bss._lv_draw_buf
                0x000000002000e8cc        0x4 ././lvgl/src/lv_misc/lv_gc.o
                0x000000002000e8cc                _lv_draw_buf
 .bss._lv_drv_ll
                0x000000002000e8d0        0xc ././lvgl/src/lv_misc/lv_gc.o
                0x000000002000e8d0                _lv_drv_ll
 .bss._lv_file_ll
                0x000000002000e8dc        0xc ././lvgl/src/lv_misc/lv_gc.o
                0x000000002000e8dc                _lv_file_ll
 .bss._lv_group_ll
                0x000000002000e8e8        0xc ././lvgl/src/lv_misc/lv_gc.o
                0x000000002000e8e8                _lv_group_ll
 .bss._lv_img_cache_array
                0x000000002000e8f4        0x4 ././lvgl/src/lv_misc/lv_gc.o
                0x000000002000e8f4                _lv_img_cache_array
 .bss._lv_img_defoder_ll
                0x000000002000e8f8        0xc ././lvgl/src/lv_misc/lv_gc.o
                0x000000002000e8f8                _lv_img_defoder_ll
 .bss._lv_indev_ll
                0x000000002000e904        0xc ././lvgl/src/lv_misc/lv_gc.o
                0x000000002000e904                _lv_indev_ll
 .bss._lv_task_act
                0x000000002000e910        0x4 ././lvgl/src/lv_misc/lv_gc.o
                0x000000002000e910                _lv_task_act
 .bss._lv_task_ll
                0x000000002000e914        0xc ././lvgl/src/lv_misc/lv_gc.o
                0x000000002000e914                _lv_task_ll
 .bss           0x000000002000e920        0x0 ././lvgl/src/lv_misc/lv_printf.o
 .bss           0x000000002000e920        0x0 ././lvgl/src/lv_misc/lv_mem.o
 .bss.work_mem  0x000000002000e920        0x4 ././lvgl/src/lv_misc/lv_mem.o
 .bss.zero_mem  0x000000002000e924        0x4 ././lvgl/src/lv_misc/lv_mem.o
 .bss           0x000000002000e928        0x0 ././lvgl/src/lv_misc/lv_txt.o
 .bss           0x000000002000e928        0x0 ././lvgl/src/lv_misc/lv_area.o
 .bss           0x000000002000e928        0x0 ././lvgl/src/lv_misc/lv_templ.o
 .bss           0x000000002000e928        0x0 ././lvgl/src/lv_misc/lv_anim.o
 .bss           0x000000002000e928        0x0 ././lvgl/src/lv_misc/lv_utils.o
 .bss           0x000000002000e928        0x0 ././lvgl/src/lv_misc/lv_bidi.o
 .bss           0x000000002000e928        0x0 ././lvgl/src/lv_misc/lv_ll.o
 .bss           0x000000002000e928        0x0 ././lvgl/src/lv_misc/lv_color.o
 .bss           0x000000002000e928        0x0 ././lvgl/src/lv_misc/lv_circ.o
 .bss           0x000000002000e928        0x0 ././lvgl/src/lv_misc/lv_task.o
 .bss.already_running.7198
                0x000000002000e928        0x1 ././lvgl/src/lv_misc/lv_task.o
 *fill*         0x000000002000e929        0x3 
 .bss.busy_time.7201
                0x000000002000e92c        0x4 ././lvgl/src/lv_misc/lv_task.o
 .bss.handler_start.7200
                0x000000002000e930        0x4 ././lvgl/src/lv_misc/lv_task.o
 .bss.idle_last
                0x000000002000e934        0x1 ././lvgl/src/lv_misc/lv_task.o
 *fill*         0x000000002000e935        0x3 
 .bss.idle_period_start.7199
                0x000000002000e938        0x4 ././lvgl/src/lv_misc/lv_task.o
 .bss.lv_task_run
                0x000000002000e93c        0x1 ././lvgl/src/lv_misc/lv_task.o
 .bss.task_created
                0x000000002000e93d        0x1 ././lvgl/src/lv_misc/lv_task.o
 .bss.task_deleted
                0x000000002000e93e        0x1 ././lvgl/src/lv_misc/lv_task.o
 .bss           0x000000002000e93f        0x0 ././lvgl/src/lv_misc/lv_log.o
 .bss           0x000000002000e93f        0x0 ././lvgl/src/lv_misc/lv_async.o
 .bss           0x000000002000e93f        0x0 ././lvgl/src/lv_misc/lv_fs.o
 .bss           0x000000002000e93f        0x0 ././lvgl/src/lv_misc/lv_math.o
 .bss           0x000000002000e93f        0x0 ././lvgl/src/lv_themes/lv_theme.o
 *fill*         0x000000002000e93f        0x1 
 .bss.current_theme
                0x000000002000e940        0x4 ././lvgl/src/lv_themes/lv_theme.o
 .bss           0x000000002000e944        0x0 ././lvgl/src/lv_themes/lv_theme_mono.o
 .bss           0x000000002000e944        0x0 ././lvgl/src/lv_themes/lv_theme_material.o
 .bss._font     0x000000002000e944        0x4 ././lvgl/src/lv_themes/lv_theme_material.o
 .bss._hue      0x000000002000e948        0x2 ././lvgl/src/lv_themes/lv_theme_material.o
 *fill*         0x000000002000e94a        0x2 
 .bss.arc.7344  0x000000002000e94c       0x40 ././lvgl/src/lv_themes/lv_theme_material.o
 .bss.bar_bg.7320
                0x000000002000e98c       0x40 ././lvgl/src/lv_themes/lv_theme_material.o
 .bss.bar_indic.7321
                0x000000002000e9cc       0x40 ././lvgl/src/lv_themes/lv_theme_material.o
 .bss.bg.7281   0x000000002000ea0c       0x40 ././lvgl/src/lv_themes/lv_theme_material.o
 .bss.bg.7365   0x000000002000ea4c       0x40 ././lvgl/src/lv_themes/lv_theme_material.o
 .bss.bg.7401   0x000000002000ea8c       0x40 ././lvgl/src/lv_themes/lv_theme_material.o
 .bss.btn_bg.7412
                0x000000002000eacc       0x40 ././lvgl/src/lv_themes/lv_theme_material.o
 .bss.cell.7423
                0x000000002000eb0c       0x40 ././lvgl/src/lv_themes/lv_theme_material.o
 .bss.def       0x000000002000eb4c       0x40 ././lvgl/src/lv_themes/lv_theme_material.o
 .bss.gauge.7340
                0x000000002000eb8c       0x40 ././lvgl/src/lv_themes/lv_theme_material.o
 .bss.header.7427
                0x000000002000ebcc       0x40 ././lvgl/src/lv_themes/lv_theme_material.o
 .bss.hint.7304
                0x000000002000ec0c       0x40 ././lvgl/src/lv_themes/lv_theme_material.o
 .bss.img_dark.7309
                0x000000002000ec4c       0x40 ././lvgl/src/lv_themes/lv_theme_material.o
 .bss.img_light.7308
                0x000000002000ec8c       0x40 ././lvgl/src/lv_themes/lv_theme_material.o
 .bss.ina.7298  0x000000002000eccc       0x40 ././lvgl/src/lv_themes/lv_theme_material.o
 .bss.ina.7361  0x000000002000ed0c       0x40 ././lvgl/src/lv_themes/lv_theme_material.o
 .bss.ina.7370  0x000000002000ed4c       0x40 ././lvgl/src/lv_themes/lv_theme_material.o
 .bss.ina.7397  0x000000002000ed8c       0x40 ././lvgl/src/lv_themes/lv_theme_material.o
 .bss.indic.7411
                0x000000002000edcc       0x40 ././lvgl/src/lv_themes/lv_theme_material.o
 .bss.knob.7325
                0x000000002000ee0c       0x40 ././lvgl/src/lv_themes/lv_theme_material.o
 .bss.led.7316  0x000000002000ee4c       0x40 ././lvgl/src/lv_themes/lv_theme_material.o
 .bss.list_bg.7392
                0x000000002000ee8c       0x40 ././lvgl/src/lv_themes/lv_theme_material.o
 .bss.lmeter.7336
                0x000000002000eecc       0x40 ././lvgl/src/lv_themes/lv_theme_material.o
 .bss.oneline.7385
                0x000000002000ef0c       0x40 ././lvgl/src/lv_themes/lv_theme_material.o
 .bss.panel.7282
                0x000000002000ef4c       0x40 ././lvgl/src/lv_themes/lv_theme_material.o
 .bss.pr.7295   0x000000002000ef8c       0x40 ././lvgl/src/lv_themes/lv_theme_material.o
 .bss.pr.7358   0x000000002000efcc       0x40 ././lvgl/src/lv_themes/lv_theme_material.o
 .bss.pr.7367   0x000000002000f00c       0x40 ././lvgl/src/lv_themes/lv_theme_material.o
 .bss.pr.7377   0x000000002000f04c       0x40 ././lvgl/src/lv_themes/lv_theme_material.o
 .bss.pr.7394   0x000000002000f08c       0x40 ././lvgl/src/lv_themes/lv_theme_material.o
 .bss.pr.7414   0x000000002000f0cc       0x40 ././lvgl/src/lv_themes/lv_theme_material.o
 .bss.pr.7428   0x000000002000f10c       0x40 ././lvgl/src/lv_themes/lv_theme_material.o
 .bss.prim.7302
                0x000000002000f14c       0x40 ././lvgl/src/lv_themes/lv_theme_material.o
 .bss.rel.7294  0x000000002000f18c       0x40 ././lvgl/src/lv_themes/lv_theme_material.o
 .bss.rel.7357  0x000000002000f1cc       0x40 ././lvgl/src/lv_themes/lv_theme_material.o
 .bss.rel.7366  0x000000002000f20c       0x40 ././lvgl/src/lv_themes/lv_theme_material.o
 .bss.rel.7378  0x000000002000f24c       0x40 ././lvgl/src/lv_themes/lv_theme_material.o
 .bss.rel.7393  0x000000002000f28c       0x40 ././lvgl/src/lv_themes/lv_theme_material.o
 .bss.rel.7413  0x000000002000f2cc       0x40 ././lvgl/src/lv_themes/lv_theme_material.o
 .bss.roller_bg.7406
                0x000000002000f30c       0x40 ././lvgl/src/lv_themes/lv_theme_material.o
 .bss.roller_sel.7407
                0x000000002000f34c       0x40 ././lvgl/src/lv_themes/lv_theme_material.o
 .bss.sb        0x000000002000f38c       0x40 ././lvgl/src/lv_themes/lv_theme_material.o
 .bss.scr.7283  0x000000002000f3cc       0x40 ././lvgl/src/lv_themes/lv_theme_material.o
 .bss.sec.7303  0x000000002000f40c       0x40 ././lvgl/src/lv_themes/lv_theme_material.o
 .bss.sel.7402  0x000000002000f44c       0x40 ././lvgl/src/lv_themes/lv_theme_material.o
 .bss.sw_bg.7329
                0x000000002000f48c       0x40 ././lvgl/src/lv_themes/lv_theme_material.o
 .bss.sw_indic.7330
                0x000000002000f4cc       0x40 ././lvgl/src/lv_themes/lv_theme_material.o
 .bss.sw_knob_off.7331
                0x000000002000f50c       0x40 ././lvgl/src/lv_themes/lv_theme_material.o
 .bss.sw_knob_on.7332
                0x000000002000f54c       0x40 ././lvgl/src/lv_themes/lv_theme_material.o
 .bss.tgl_pr.7297
                0x000000002000f58c       0x40 ././lvgl/src/lv_themes/lv_theme_material.o
 .bss.tgl_pr.7360
                0x000000002000f5cc       0x40 ././lvgl/src/lv_themes/lv_theme_material.o
 .bss.tgl_pr.7369
                0x000000002000f60c       0x40 ././lvgl/src/lv_themes/lv_theme_material.o
 .bss.tgl_pr.7396
                0x000000002000f64c       0x40 ././lvgl/src/lv_themes/lv_theme_material.o
 .bss.tgl_pr.7416
                0x000000002000f68c       0x40 ././lvgl/src/lv_themes/lv_theme_material.o
 .bss.tgl_rel.7296
                0x000000002000f6cc       0x40 ././lvgl/src/lv_themes/lv_theme_material.o
 .bss.tgl_rel.7359
                0x000000002000f70c       0x40 ././lvgl/src/lv_themes/lv_theme_material.o
 .bss.tgl_rel.7368
                0x000000002000f74c       0x40 ././lvgl/src/lv_themes/lv_theme_material.o
 .bss.tgl_rel.7395
                0x000000002000f78c       0x40 ././lvgl/src/lv_themes/lv_theme_material.o
 .bss.tgl_rel.7415
                0x000000002000f7cc       0x40 ././lvgl/src/lv_themes/lv_theme_material.o
 .bss.theme     0x000000002000f80c      0x170 ././lvgl/src/lv_themes/lv_theme_material.o
 .bss           0x000000002000f97c        0x0 ././lvgl/src/lv_themes/lv_theme_default.o
 .bss           0x000000002000f97c        0x0 ././lvgl/src/lv_themes/lv_theme_alien.o
 .bss           0x000000002000f97c        0x0 ././lvgl/src/lv_themes/lv_theme_night.o
 .bss           0x000000002000f97c        0x0 ././lvgl/src/lv_themes/lv_theme_zen.o
 .bss           0x000000002000f97c        0x0 ././lvgl/src/lv_themes/lv_theme_templ.o
 .bss           0x000000002000f97c        0x0 ././lvgl/src/lv_themes/lv_theme_nemo.o
 .bss           0x000000002000f97c        0x0 ././lvgl/src/lv_core/lv_disp.o
 .bss           0x000000002000f97c        0x0 ././lvgl/src/lv_core/lv_debug.o
 .bss           0x000000002000f97c        0x0 ././lvgl/src/lv_core/lv_indev.o
 .bss.indev_act
                0x000000002000f97c        0x4 ././lvgl/src/lv_core/lv_indev.o
 .bss.indev_obj_act
                0x000000002000f980        0x4 ././lvgl/src/lv_core/lv_indev.o
 .bss           0x000000002000f984        0x0 ././lvgl/src/lv_core/lv_refr.o
 .bss.disp_refr
                0x000000002000f984        0x4 ././lvgl/src/lv_core/lv_refr.o
 .bss.px_num    0x000000002000f988        0x4 ././lvgl/src/lv_core/lv_refr.o
 .bss           0x000000002000f98c        0x0 ././lvgl/src/lv_core/lv_obj.o
 .bss.event_act_data
                0x000000002000f98c        0x4 ././lvgl/src/lv_core/lv_obj.o
 .bss.event_temp_data_head
                0x000000002000f990        0x4 ././lvgl/src/lv_core/lv_obj.o
 .bss.lv_initialized
                0x000000002000f994        0x1 ././lvgl/src/lv_core/lv_obj.o
 .bss           0x000000002000f995        0x0 ././lvgl/src/lv_core/lv_style.o
 *fill*         0x000000002000f995        0x3 
 .bss.lv_style_btn_ina
                0x000000002000f998       0x40 ././lvgl/src/lv_core/lv_style.o
                0x000000002000f998                lv_style_btn_ina
 .bss.lv_style_btn_pr
                0x000000002000f9d8       0x40 ././lvgl/src/lv_core/lv_style.o
                0x000000002000f9d8                lv_style_btn_pr
 .bss.lv_style_btn_rel
                0x000000002000fa18       0x40 ././lvgl/src/lv_core/lv_style.o
                0x000000002000fa18                lv_style_btn_rel
 .bss.lv_style_btn_tgl_pr
                0x000000002000fa58       0x40 ././lvgl/src/lv_core/lv_style.o
                0x000000002000fa58                lv_style_btn_tgl_pr
 .bss.lv_style_btn_tgl_rel
                0x000000002000fa98       0x40 ././lvgl/src/lv_core/lv_style.o
                0x000000002000fa98                lv_style_btn_tgl_rel
 .bss.lv_style_plain
                0x000000002000fad8       0x40 ././lvgl/src/lv_core/lv_style.o
                0x000000002000fad8                lv_style_plain
 .bss.lv_style_plain_color
                0x000000002000fb18       0x40 ././lvgl/src/lv_core/lv_style.o
                0x000000002000fb18                lv_style_plain_color
 .bss.lv_style_pretty
                0x000000002000fb58       0x40 ././lvgl/src/lv_core/lv_style.o
                0x000000002000fb58                lv_style_pretty
 .bss.lv_style_pretty_color
                0x000000002000fb98       0x40 ././lvgl/src/lv_core/lv_style.o
                0x000000002000fb98                lv_style_pretty_color
 .bss.lv_style_scr
                0x000000002000fbd8       0x40 ././lvgl/src/lv_core/lv_style.o
                0x000000002000fbd8                lv_style_scr
 .bss.lv_style_transp
                0x000000002000fc18       0x40 ././lvgl/src/lv_core/lv_style.o
                0x000000002000fc18                lv_style_transp
 .bss.lv_style_transp_fit
                0x000000002000fc58       0x40 ././lvgl/src/lv_core/lv_style.o
                0x000000002000fc58                lv_style_transp_fit
 .bss.lv_style_transp_tight
                0x000000002000fc98       0x40 ././lvgl/src/lv_core/lv_style.o
                0x000000002000fc98                lv_style_transp_tight
 .bss           0x000000002000fcd8        0x0 ././lvgl/src/lv_core/lv_group.o
 .bss           0x000000002000fcd8        0x0 ././lvgl/src/lv_objx/lv_spinbox.o
 .bss.ancestor_design
                0x000000002000fcd8        0x4 ././lvgl/src/lv_objx/lv_spinbox.o
 .bss.ancestor_signal
                0x000000002000fcdc        0x4 ././lvgl/src/lv_objx/lv_spinbox.o
 .bss           0x000000002000fce0        0x0 ././lvgl/src/lv_objx/lv_roller.o
 .bss.ancestor_scrl_signal
                0x000000002000fce0        0x4 ././lvgl/src/lv_objx/lv_roller.o
 .bss.ancestor_signal
                0x000000002000fce4        0x4 ././lvgl/src/lv_objx/lv_roller.o
 .bss           0x000000002000fce8        0x0 ././lvgl/src/lv_objx/lv_led.o
 .bss.ancestor_design_f
                0x000000002000fce8        0x4 ././lvgl/src/lv_objx/lv_led.o
 .bss.ancestor_signal
                0x000000002000fcec        0x4 ././lvgl/src/lv_objx/lv_led.o
 .bss           0x000000002000fcf0        0x0 ././lvgl/src/lv_objx/lv_img.o
 .bss.ancestor_signal
                0x000000002000fcf0        0x4 ././lvgl/src/lv_objx/lv_img.o
 .bss           0x000000002000fcf4        0x0 ././lvgl/src/lv_objx/lv_imgbtn.o
 .bss.ancestor_design
                0x000000002000fcf4        0x4 ././lvgl/src/lv_objx/lv_imgbtn.o
 .bss.ancestor_signal
                0x000000002000fcf8        0x4 ././lvgl/src/lv_objx/lv_imgbtn.o
 .bss           0x000000002000fcfc        0x0 ././lvgl/src/lv_objx/lv_lmeter.o
 .bss.ancestor_signal
                0x000000002000fcfc        0x4 ././lvgl/src/lv_objx/lv_lmeter.o
 .bss           0x000000002000fd00        0x0 ././lvgl/src/lv_objx/lv_kb.o
 .bss           0x000000002000fd00        0x0 ././lvgl/src/lv_objx/lv_arc.o
 .bss.ancestor_design
                0x000000002000fd00        0x4 ././lvgl/src/lv_objx/lv_arc.o
 .bss.ancestor_signal
                0x000000002000fd04        0x4 ././lvgl/src/lv_objx/lv_arc.o
 .bss           0x000000002000fd08        0x0 ././lvgl/src/lv_objx/lv_bar.o
 .bss.ancestor_design_f
                0x000000002000fd08        0x4 ././lvgl/src/lv_objx/lv_bar.o
 .bss.ancestor_signal
                0x000000002000fd0c        0x4 ././lvgl/src/lv_objx/lv_bar.o
 .bss           0x000000002000fd10        0x0 ././lvgl/src/lv_objx/lv_tabview.o
 .bss.ancestor_signal
                0x000000002000fd10        0x4 ././lvgl/src/lv_objx/lv_tabview.o
 .bss.page_scrl_signal
                0x000000002000fd14        0x4 ././lvgl/src/lv_objx/lv_tabview.o
 .bss.page_signal
                0x000000002000fd18        0x4 ././lvgl/src/lv_objx/lv_tabview.o
 .bss           0x000000002000fd1c        0x0 ././lvgl/src/lv_objx/lv_chart.o
 .bss           0x000000002000fd1c        0x0 ././lvgl/src/lv_objx/lv_mbox.o
 .bss.ancestor_signal
                0x000000002000fd1c        0x4 ././lvgl/src/lv_objx/lv_mbox.o
 .bss           0x000000002000fd20        0x0 ././lvgl/src/lv_objx/lv_calendar.o
 .bss           0x000000002000fd20        0x0 ././lvgl/src/lv_objx/lv_slider.o
 .bss.ancestor_design_f
                0x000000002000fd20        0x4 ././lvgl/src/lv_objx/lv_slider.o
 .bss.ancestor_signal
                0x000000002000fd24        0x4 ././lvgl/src/lv_objx/lv_slider.o
 .bss           0x000000002000fd28        0x0 ././lvgl/src/lv_objx/lv_gauge.o
 .bss.ancestor_design
                0x000000002000fd28        0x4 ././lvgl/src/lv_objx/lv_gauge.o
 .bss.ancestor_signal
                0x000000002000fd2c        0x4 ././lvgl/src/lv_objx/lv_gauge.o
 .bss           0x000000002000fd30        0x0 ././lvgl/src/lv_objx/lv_win.o
 .bss.ancestor_signal
                0x000000002000fd30        0x4 ././lvgl/src/lv_objx/lv_win.o
 .bss           0x000000002000fd34        0x0 ././lvgl/src/lv_objx/lv_cpicker.o
 .bss.ancestor_design
                0x000000002000fd34        0x4 ././lvgl/src/lv_objx/lv_cpicker.o
 .bss.ancestor_signal
                0x000000002000fd38        0x4 ././lvgl/src/lv_objx/lv_cpicker.o
 .bss           0x000000002000fd3c        0x0 ././lvgl/src/lv_objx/lv_line.o
 .bss.ancestor_signal
                0x000000002000fd3c        0x4 ././lvgl/src/lv_objx/lv_line.o
 .bss           0x000000002000fd40        0x0 ././lvgl/src/lv_objx/lv_cont.o
 .bss.ancestor_signal
                0x000000002000fd40        0x4 ././lvgl/src/lv_objx/lv_cont.o
 .bss           0x000000002000fd44        0x0 ././lvgl/src/lv_objx/lv_tileview.o
 .bss.ancestor_design
                0x000000002000fd44        0x4 ././lvgl/src/lv_objx/lv_tileview.o
 .bss.ancestor_scrl_signal
                0x000000002000fd48        0x4 ././lvgl/src/lv_objx/lv_tileview.o
 .bss.ancestor_signal
                0x000000002000fd4c        0x4 ././lvgl/src/lv_objx/lv_tileview.o
 .bss           0x000000002000fd50        0x0 ././lvgl/src/lv_objx/lv_canvas.o
 .bss.ancestor_design
                0x000000002000fd50        0x4 ././lvgl/src/lv_objx/lv_canvas.o
 .bss.ancestor_signal
                0x000000002000fd54        0x4 ././lvgl/src/lv_objx/lv_canvas.o
 .bss           0x000000002000fd58        0x0 ././lvgl/src/lv_objx/lv_objx_templ.o
 .bss           0x000000002000fd58        0x0 ././lvgl/src/lv_objx/lv_label.o
 .bss.ancestor_signal
                0x000000002000fd58        0x4 ././lvgl/src/lv_objx/lv_label.o
 .bss           0x000000002000fd5c        0x0 ././lvgl/src/lv_objx/lv_ddlist.o
 .bss.ancestor_design
                0x000000002000fd5c        0x4 ././lvgl/src/lv_objx/lv_ddlist.o
 .bss.ancestor_scrl_signal
                0x000000002000fd60        0x4 ././lvgl/src/lv_objx/lv_ddlist.o
 .bss.ancestor_signal
                0x000000002000fd64        0x4 ././lvgl/src/lv_objx/lv_ddlist.o
 .bss           0x000000002000fd68        0x0 ././lvgl/src/lv_objx/lv_list.o
 .bss.ancestor_btn_signal
                0x000000002000fd68        0x4 ././lvgl/src/lv_objx/lv_list.o
 .bss.ancestor_page_signal
                0x000000002000fd6c        0x4 ././lvgl/src/lv_objx/lv_list.o
 .bss.img_signal
                0x000000002000fd70        0x4 ././lvgl/src/lv_objx/lv_list.o
 .bss.label_signal
                0x000000002000fd74        0x4 ././lvgl/src/lv_objx/lv_list.o
 .bss           0x000000002000fd78        0x0 ././lvgl/src/lv_objx/lv_preload.o
 .bss           0x000000002000fd78        0x0 ././lvgl/src/lv_objx/lv_btn.o
 .bss.ancestor_design
                0x000000002000fd78        0x4 ././lvgl/src/lv_objx/lv_btn.o
 .bss.ancestor_signal
                0x000000002000fd7c        0x4 ././lvgl/src/lv_objx/lv_btn.o
 .bss           0x000000002000fd80        0x0 ././lvgl/src/lv_objx/lv_btnm.o
 .bss.ancestor_design_f
                0x000000002000fd80        0x4 ././lvgl/src/lv_objx/lv_btnm.o
 .bss.ancestor_signal
                0x000000002000fd84        0x4 ././lvgl/src/lv_objx/lv_btnm.o
 .bss           0x000000002000fd88        0x0 ././lvgl/src/lv_objx/lv_ta.o
 .bss.ancestor_design
                0x000000002000fd88        0x4 ././lvgl/src/lv_objx/lv_ta.o
 .bss.ancestor_signal
                0x000000002000fd8c        0x4 ././lvgl/src/lv_objx/lv_ta.o
 .bss.scrl_design
                0x000000002000fd90        0x4 ././lvgl/src/lv_objx/lv_ta.o
 .bss.scrl_signal
                0x000000002000fd94        0x4 ././lvgl/src/lv_objx/lv_ta.o
 .bss.ta_insert_replace
                0x000000002000fd98        0x4 ././lvgl/src/lv_objx/lv_ta.o
 .bss           0x000000002000fd9c        0x0 ././lvgl/src/lv_objx/lv_page.o
 .bss.ancestor_design
                0x000000002000fd9c        0x4 ././lvgl/src/lv_objx/lv_page.o
 .bss.ancestor_signal
                0x000000002000fda0        0x4 ././lvgl/src/lv_objx/lv_page.o
 .bss           0x000000002000fda4        0x0 ././lvgl/src/lv_objx/lv_table.o
 .bss.ancestor_scrl_design
                0x000000002000fda4        0x4 ././lvgl/src/lv_objx/lv_table.o
 .bss.ancestor_signal
                0x000000002000fda8        0x4 ././lvgl/src/lv_objx/lv_table.o
 .bss           0x000000002000fdac        0x0 ././lvgl/src/lv_objx/lv_cb.o
 .bss.ancestor_bg_design
                0x000000002000fdac        0x4 ././lvgl/src/lv_objx/lv_cb.o
 .bss.ancestor_bullet_design
                0x000000002000fdb0        0x4 ././lvgl/src/lv_objx/lv_cb.o
 .bss.ancestor_signal
                0x000000002000fdb4        0x4 ././lvgl/src/lv_objx/lv_cb.o
 .bss           0x000000002000fdb8        0x0 ././lvgl/src/lv_objx/lv_sw.o
 .bss.ancestor_signal
                0x000000002000fdb8        0x4 ././lvgl/src/lv_objx/lv_sw.o
 .bss           0x000000002000fdbc        0x0 ././lvgl/src/lv_draw/lv_draw_img.o
 .bss           0x000000002000fdbc        0x0 ././lvgl/src/lv_draw/lv_draw_arc.o
 .bss           0x000000002000fdbc        0x0 ././lvgl/src/lv_draw/lv_draw.o
 .bss.draw_buf_size
                0x000000002000fdbc        0x4 ././lvgl/src/lv_draw/lv_draw.o
 .bss           0x000000002000fdc0        0x0 ././lvgl/src/lv_draw/lv_draw_triangle.o
 .bss           0x000000002000fdc0        0x0 ././lvgl/src/lv_draw/lv_img_cache.o
 .bss.entry_cnt
                0x000000002000fdc0        0x2 ././lvgl/src/lv_draw/lv_img_cache.o
 .bss           0x000000002000fdc2        0x0 ././lvgl/src/lv_draw/lv_img_decoder.o
 .bss           0x000000002000fdc2        0x0 ././lvgl/src/lv_draw/lv_draw_basic.o
 .bss           0x000000002000fdc2        0x0 ././lvgl/src/lv_draw/lv_draw_line.o
 .bss           0x000000002000fdc2        0x0 ././lvgl/src/lv_draw/lv_draw_label.o
 .bss           0x000000002000fdc2        0x0 ././lvgl/src/lv_draw/lv_draw_rect.o
 .bss           0x000000002000fdc2        0x0 ././lvgl/porting/lv_port_disp_template.o
 .bss           0x000000002000fdc2        0x0 ././lvgl/porting/lv_port_indev_template.o
 .bss           0x000000002000fdc2        0x0 ././lvgl/porting/lv_port_fs_template.o
 .bss           0x000000002000fdc2        0x0 ././ui/ui_msgbox.o
 *fill*         0x000000002000fdc2        0x2 
 .bss._mew_cont3
                0x000000002000fdc4        0x4 ././ui/ui_msgbox.o
 .bss._mew_mbox1
                0x000000002000fdc8        0x4 ././ui/ui_msgbox.o
 .bss._mew_msgbox_shadow_style_1
                0x000000002000fdcc       0x40 ././ui/ui_msgbox.o
 .bss._mew_style_txt
                0x000000002000fe0c       0x40 ././ui/ui_msgbox.o
 .bss.mew_event_cb_t
                0x000000002000fe4c        0x4 ././ui/ui_msgbox.o
 .bss           0x000000002000fe50        0x0 ././ui/ui_lhandlers.o
 .bss._mew_lvgl_lhandler_time
                0x000000002000fe50        0x4 ././ui/ui_lhandlers.o
 .bss           0x000000002000fe54        0x0 ././ui/qrcode_ui.o
 .bss._mew_gd   0x000000002000fe54      0xb40 ././ui/qrcode_ui.o
 .bss._mew_qr_buffer
                0x0000000020010994       0x8a ././ui/qrcode_ui.o
 *fill*         0x0000000020010a1e        0x2 
 .bss._mew_qr_data
                0x0000000020010a20       0x8a ././ui/qrcode_ui.o
 .bss           0x0000000020010aaa        0x0 ././ui/ui_header.o
 *fill*         0x0000000020010aaa        0x2 
 .bss._mew_cont
                0x0000000020010aac        0x4 ././ui/ui_header.o
 .bss._mew_cont_style
                0x0000000020010ab0       0x40 ././ui/ui_header.o
 .bss._mew_img1
                0x0000000020010af0        0x4 ././ui/ui_header.o
 .bss._mew_label1
                0x0000000020010af4        0x4 ././ui/ui_header.o
 .bss._mew_label2
                0x0000000020010af8        0x4 ././ui/ui_header.o
 .bss._mew_label_pincode
                0x0000000020010afc        0x4 ././ui/ui_header.o
 .bss._mew_style_txt
                0x0000000020010b00       0x40 ././ui/ui_header.o
 .bss._mew_style_txt2
                0x0000000020010b40       0x40 ././ui/ui_header.o
 .bss           0x0000000020010b80        0x0 ././ui/ui_win_startup_1.o
 .bss._mew_btn1
                0x0000000020010b80        0x4 ././ui/ui_win_startup_1.o
 .bss._mew_btn1_label
                0x0000000020010b84        0x4 ././ui/ui_win_startup_1.o
 .bss._mew_btn2
                0x0000000020010b88        0x4 ././ui/ui_win_startup_1.o
 .bss._mew_btn2_label
                0x0000000020010b8c        0x4 ././ui/ui_win_startup_1.o
 .bss._mew_btn_style_1
                0x0000000020010b90       0x40 ././ui/ui_win_startup_1.o
 .bss._mew_btn_style_2
                0x0000000020010bd0       0x40 ././ui/ui_win_startup_1.o
 .bss._mew_btnm1
                0x0000000020010c10        0x4 ././ui/ui_win_startup_1.o
 .bss._mew_cont2
                0x0000000020010c14        0x4 ././ui/ui_win_startup_1.o
 .bss._mew_cont_style
                0x0000000020010c18       0x40 ././ui/ui_win_startup_1.o
 .bss._mew_label1
                0x0000000020010c58        0x4 ././ui/ui_win_startup_1.o
 .bss._mew_pinIndex
                0x0000000020010c5c        0x1 ././ui/ui_win_startup_1.o
 .bss._mew_pinLength
                0x0000000020010c5d        0x1 ././ui/ui_win_startup_1.o
 *fill*         0x0000000020010c5e        0x2 
 .bss._mew_pincode
                0x0000000020010c60       0x80 ././ui/ui_win_startup_1.o
 .bss._mew_pincode_box
                0x0000000020010ce0        0x8 ././ui/ui_win_startup_1.o
 .bss._mew_pincode_sha
                0x0000000020010ce8        0x8 ././ui/ui_win_startup_1.o
 .bss._mew_style_txt
                0x0000000020010cf0       0x40 ././ui/ui_win_startup_1.o
 .bss           0x0000000020010d30        0x0 ././ui/mew_font_ru_bold.o
 .bss           0x0000000020010d30        0x0 ././ui/ui_main_win.o
 .bss           0x0000000020010d30        0x0 ././ui/mew_font_ru_bold_title.o
 .bss           0x0000000020010d30        0x0 ././ui/mew_logo.o
 .bss           0x0000000020010d30        0x0 ././drivers/system/byteorder.o
 .bss           0x0000000020010d30        0x0 ././drivers/hw_crypt/P256-cortex-m4-ecdh-speedopt-gcc.o
 .bss           0x0000000020010d30        0x0 /home/user/Devel/stm32/libopencm3/lib/libopencm3_stm32f4.a(rcc.o)
 .bss           0x0000000020010d30        0x0 /home/user/Devel/stm32/libopencm3/lib/libopencm3_stm32f4.a(crc_common_all.o)
 .bss           0x0000000020010d30        0x0 /home/user/Devel/stm32/libopencm3/lib/libopencm3_stm32f4.a(dma_common_f24.o)
 .bss           0x0000000020010d30        0x0 /home/user/Devel/stm32/libopencm3/lib/libopencm3_stm32f4.a(gpio_common_all.o)
 .bss           0x0000000020010d30        0x0 /home/user/Devel/stm32/libopencm3/lib/libopencm3_stm32f4.a(gpio_common_f0234.o)
 .bss           0x0000000020010d30        0x0 /home/user/Devel/stm32/libopencm3/lib/libopencm3_stm32f4.a(i2c_common_v1.o)
 .bss           0x0000000020010d30        0x0 /home/user/Devel/stm32/libopencm3/lib/libopencm3_stm32f4.a(spi_common_all.o)
 .bss           0x0000000020010d30        0x0 /home/user/Devel/stm32/libopencm3/lib/libopencm3_stm32f4.a(spi_common_l1f124.o)
 .bss           0x0000000020010d30        0x0 /home/user/Devel/stm32/libopencm3/lib/libopencm3_stm32f4.a(usart_common_all.o)
 .bss           0x0000000020010d30        0x0 /home/user/Devel/stm32/libopencm3/lib/libopencm3_stm32f4.a(usart_common_f124.o)
 .bss           0x0000000020010d30        0x0 /home/user/Devel/stm32/libopencm3/lib/libopencm3_stm32f4.a(flash_common_f234.o)
 .bss           0x0000000020010d30        0x0 /home/user/Devel/stm32/libopencm3/lib/libopencm3_stm32f4.a(flash_common_f24.o)
 .bss           0x0000000020010d30        0x0 /home/user/Devel/stm32/libopencm3/lib/libopencm3_stm32f4.a(exti_common_all.o)
 .bss           0x0000000020010d30        0x0 /home/user/Devel/stm32/libopencm3/lib/libopencm3_stm32f4.a(rcc_common_all.o)
 .bss           0x0000000020010d30        0x0 /home/user/Devel/stm32/libopencm3/lib/libopencm3_stm32f4.a(usb.o)
 .bss           0x0000000020010d30        0x0 /home/user/Devel/stm32/libopencm3/lib/libopencm3_stm32f4.a(usb_standard.o)
 .bss           0x0000000020010d30        0x0 /home/user/Devel/stm32/libopencm3/lib/libopencm3_stm32f4.a(usb_control.o)
 .bss           0x0000000020010d30        0x0 /home/user/Devel/stm32/libopencm3/lib/libopencm3_stm32f4.a(usb_f107.o)
 .bss.usbd_dev  0x0000000020010d30       0xfc /home/user/Devel/stm32/libopencm3/lib/libopencm3_stm32f4.a(usb_f107.o)
 .bss           0x0000000020010e2c        0x0 /home/user/Devel/stm32/libopencm3/lib/libopencm3_stm32f4.a(vector.o)
 .bss           0x0000000020010e2c        0x0 /home/user/Devel/stm32/libopencm3/lib/libopencm3_stm32f4.a(systick.o)
 .bss           0x0000000020010e2c        0x0 /home/user/Devel/stm32/libopencm3/lib/libopencm3_stm32f4.a(nvic.o)
 .bss           0x0000000020010e2c        0x0 /home/user/Devel/stm32/libopencm3/lib/libopencm3_stm32f4.a(pwr.o)
 .bss           0x0000000020010e2c        0x0 /home/user/Devel/stm32/libopencm3/lib/libopencm3_stm32f4.a(usb_fx07_common.o)
 .bss           0x0000000020010e2c        0x0 /home/user/Devel/stm32/gcc-arm-none-eabi-8-2018-q4-major/bin/../lib/gcc/arm-none-eabi/8.2.1/../../../../arm-none-eabi/lib/thumb/v7e-m+fp/hard/libc_nano.a(lib_a-assert.o)
 .bss           0x0000000020010e2c        0x0 /home/user/Devel/stm32/gcc-arm-none-eabi-8-2018-q4-major/bin/../lib/gcc/arm-none-eabi/8.2.1/../../../../arm-none-eabi/lib/thumb/v7e-m+fp/hard/libc_nano.a(lib_a-fprintf.o)
 .bss           0x0000000020010e2c        0x0 /home/user/Devel/stm32/gcc-arm-none-eabi-8-2018-q4-major/bin/../lib/gcc/arm-none-eabi/8.2.1/../../../../arm-none-eabi/lib/thumb/v7e-m+fp/hard/libc_nano.a(lib_a-impure.o)
 .bss           0x0000000020010e2c        0x0 /home/user/Devel/stm32/gcc-arm-none-eabi-8-2018-q4-major/bin/../lib/gcc/arm-none-eabi/8.2.1/../../../../arm-none-eabi/lib/thumb/v7e-m+fp/hard/libc_nano.a(lib_a-memcmp.o)
 .bss           0x0000000020010e2c        0x0 /home/user/Devel/stm32/gcc-arm-none-eabi-8-2018-q4-major/bin/../lib/gcc/arm-none-eabi/8.2.1/../../../../arm-none-eabi/lib/thumb/v7e-m+fp/hard/libc_nano.a(lib_a-memcpy-stub.o)
 .bss           0x0000000020010e2c        0x0 /home/user/Devel/stm32/gcc-arm-none-eabi-8-2018-q4-major/bin/../lib/gcc/arm-none-eabi/8.2.1/../../../../arm-none-eabi/lib/thumb/v7e-m+fp/hard/libc_nano.a(lib_a-memmove.o)
 .bss           0x0000000020010e2c        0x0 /home/user/Devel/stm32/gcc-arm-none-eabi-8-2018-q4-major/bin/../lib/gcc/arm-none-eabi/8.2.1/../../../../arm-none-eabi/lib/thumb/v7e-m+fp/hard/libc_nano.a(lib_a-memset.o)
 .bss           0x0000000020010e2c        0x0 /home/user/Devel/stm32/gcc-arm-none-eabi-8-2018-q4-major/bin/../lib/gcc/arm-none-eabi/8.2.1/../../../../arm-none-eabi/lib/thumb/v7e-m+fp/hard/libc_nano.a(lib_a-nano-vfprintf.o)
 .bss           0x0000000020010e2c        0x0 /home/user/Devel/stm32/gcc-arm-none-eabi-8-2018-q4-major/bin/../lib/gcc/arm-none-eabi/8.2.1/../../../../arm-none-eabi/lib/thumb/v7e-m+fp/hard/libc_nano.a(lib_a-nano-vfprintf_i.o)
 .bss           0x0000000020010e2c        0x0 /home/user/Devel/stm32/gcc-arm-none-eabi-8-2018-q4-major/bin/../lib/gcc/arm-none-eabi/8.2.1/../../../../arm-none-eabi/lib/thumb/v7e-m+fp/hard/libc_nano.a(lib_a-strchr.o)
 .bss           0x0000000020010e2c        0x0 /home/user/Devel/stm32/gcc-arm-none-eabi-8-2018-q4-major/bin/../lib/gcc/arm-none-eabi/8.2.1/../../../../arm-none-eabi/lib/thumb/v7e-m+fp/hard/libc_nano.a(lib_a-strcmp.o)
 .bss           0x0000000020010e2c        0x0 /home/user/Devel/stm32/gcc-arm-none-eabi-8-2018-q4-major/bin/../lib/gcc/arm-none-eabi/8.2.1/../../../../arm-none-eabi/lib/thumb/v7e-m+fp/hard/libc_nano.a(lib_a-strcpy.o)
 .bss           0x0000000020010e2c        0x0 /home/user/Devel/stm32/gcc-arm-none-eabi-8-2018-q4-major/bin/../lib/gcc/arm-none-eabi/8.2.1/../../../../arm-none-eabi/lib/thumb/v7e-m+fp/hard/libc_nano.a(lib_a-strlen.o)
 .bss           0x0000000020010e2c        0x0 /home/user/Devel/stm32/gcc-arm-none-eabi-8-2018-q4-major/bin/../lib/gcc/arm-none-eabi/8.2.1/../../../../arm-none-eabi/lib/thumb/v7e-m+fp/hard/libc_nano.a(lib_a-strstr.o)
 .bss           0x0000000020010e2c        0x0 /home/user/Devel/stm32/gcc-arm-none-eabi-8-2018-q4-major/bin/../lib/gcc/arm-none-eabi/8.2.1/../../../../arm-none-eabi/lib/thumb/v7e-m+fp/hard/libc_nano.a(lib_a-wbuf.o)
 .bss           0x0000000020010e2c        0x0 /home/user/Devel/stm32/gcc-arm-none-eabi-8-2018-q4-major/bin/../lib/gcc/arm-none-eabi/8.2.1/../../../../arm-none-eabi/lib/thumb/v7e-m+fp/hard/libc_nano.a(lib_a-wsetup.o)
 .bss           0x0000000020010e2c        0x0 /home/user/Devel/stm32/gcc-arm-none-eabi-8-2018-q4-major/bin/../lib/gcc/arm-none-eabi/8.2.1/../../../../arm-none-eabi/lib/thumb/v7e-m+fp/hard/libc_nano.a(lib_a-abort.o)
 .bss           0x0000000020010e2c        0x0 /home/user/Devel/stm32/gcc-arm-none-eabi-8-2018-q4-major/bin/../lib/gcc/arm-none-eabi/8.2.1/../../../../arm-none-eabi/lib/thumb/v7e-m+fp/hard/libc_nano.a(lib_a-fflush.o)
 .bss           0x0000000020010e2c        0x0 /home/user/Devel/stm32/gcc-arm-none-eabi-8-2018-q4-major/bin/../lib/gcc/arm-none-eabi/8.2.1/../../../../arm-none-eabi/lib/thumb/v7e-m+fp/hard/libc_nano.a(lib_a-findfp.o)
 .bss           0x0000000020010e2c        0x0 /home/user/Devel/stm32/gcc-arm-none-eabi-8-2018-q4-major/bin/../lib/gcc/arm-none-eabi/8.2.1/../../../../arm-none-eabi/lib/thumb/v7e-m+fp/hard/libc_nano.a(lib_a-fvwrite.o)
 .bss           0x0000000020010e2c        0x0 /home/user/Devel/stm32/gcc-arm-none-eabi-8-2018-q4-major/bin/../lib/gcc/arm-none-eabi/8.2.1/../../../../arm-none-eabi/lib/thumb/v7e-m+fp/hard/libc_nano.a(lib_a-fwalk.o)
 .bss           0x0000000020010e2c        0x0 /home/user/Devel/stm32/gcc-arm-none-eabi-8-2018-q4-major/bin/../lib/gcc/arm-none-eabi/8.2.1/../../../../arm-none-eabi/lib/thumb/v7e-m+fp/hard/libc_nano.a(lib_a-lock.o)
 .bss           0x0000000020010e2c        0x0 /home/user/Devel/stm32/gcc-arm-none-eabi-8-2018-q4-major/bin/../lib/gcc/arm-none-eabi/8.2.1/../../../../arm-none-eabi/lib/thumb/v7e-m+fp/hard/libc_nano.a(lib_a-makebuf.o)
 .bss           0x0000000020010e2c        0x0 /home/user/Devel/stm32/gcc-arm-none-eabi-8-2018-q4-major/bin/../lib/gcc/arm-none-eabi/8.2.1/../../../../arm-none-eabi/lib/thumb/v7e-m+fp/hard/libc_nano.a(lib_a-memchr.o)
 .bss           0x0000000020010e2c        0x0 /home/user/Devel/stm32/gcc-arm-none-eabi-8-2018-q4-major/bin/../lib/gcc/arm-none-eabi/8.2.1/../../../../arm-none-eabi/lib/thumb/v7e-m+fp/hard/libc_nano.a(lib_a-nano-freer.o)
 .bss           0x0000000020010e2c        0x0 /home/user/Devel/stm32/gcc-arm-none-eabi-8-2018-q4-major/bin/../lib/gcc/arm-none-eabi/8.2.1/../../../../arm-none-eabi/lib/thumb/v7e-m+fp/hard/libc_nano.a(lib_a-nano-mallocr.o)
 .bss.__malloc_free_list
                0x0000000020010e2c        0x4 /home/user/Devel/stm32/gcc-arm-none-eabi-8-2018-q4-major/bin/../lib/gcc/arm-none-eabi/8.2.1/../../../../arm-none-eabi/lib/thumb/v7e-m+fp/hard/libc_nano.a(lib_a-nano-mallocr.o)
                0x0000000020010e2c                __malloc_free_list
 .bss.__malloc_sbrk_start
                0x0000000020010e30        0x4 /home/user/Devel/stm32/gcc-arm-none-eabi-8-2018-q4-major/bin/../lib/gcc/arm-none-eabi/8.2.1/../../../../arm-none-eabi/lib/thumb/v7e-m+fp/hard/libc_nano.a(lib_a-nano-mallocr.o)
                0x0000000020010e30                __malloc_sbrk_start
 .bss           0x0000000020010e34        0x0 /home/user/Devel/stm32/gcc-arm-none-eabi-8-2018-q4-major/bin/../lib/gcc/arm-none-eabi/8.2.1/../../../../arm-none-eabi/lib/thumb/v7e-m+fp/hard/libc_nano.a(lib_a-nano-reallocr.o)
 .bss           0x0000000020010e34        0x0 /home/user/Devel/stm32/gcc-arm-none-eabi-8-2018-q4-major/bin/../lib/gcc/arm-none-eabi/8.2.1/../../../../arm-none-eabi/lib/thumb/v7e-m+fp/hard/libc_nano.a(lib_a-sbrkr.o)
 .bss           0x0000000020010e34        0x0 /home/user/Devel/stm32/gcc-arm-none-eabi-8-2018-q4-major/bin/../lib/gcc/arm-none-eabi/8.2.1/../../../../arm-none-eabi/lib/thumb/v7e-m+fp/hard/libc_nano.a(lib_a-signal.o)
 .bss           0x0000000020010e34        0x0 /home/user/Devel/stm32/gcc-arm-none-eabi-8-2018-q4-major/bin/../lib/gcc/arm-none-eabi/8.2.1/../../../../arm-none-eabi/lib/thumb/v7e-m+fp/hard/libc_nano.a(lib_a-signalr.o)
 .bss           0x0000000020010e34        0x0 /home/user/Devel/stm32/gcc-arm-none-eabi-8-2018-q4-major/bin/../lib/gcc/arm-none-eabi/8.2.1/../../../../arm-none-eabi/lib/thumb/v7e-m+fp/hard/libc_nano.a(lib_a-stdio.o)
 .bss           0x0000000020010e34        0x0 /home/user/Devel/stm32/gcc-arm-none-eabi-8-2018-q4-major/bin/../lib/gcc/arm-none-eabi/8.2.1/../../../../arm-none-eabi/lib/thumb/v7e-m+fp/hard/libc_nano.a(lib_a-writer.o)
 .bss           0x0000000020010e34        0x0 /home/user/Devel/stm32/gcc-arm-none-eabi-8-2018-q4-major/bin/../lib/gcc/arm-none-eabi/8.2.1/../../../../arm-none-eabi/lib/thumb/v7e-m+fp/hard/libc_nano.a(lib_a-closer.o)
 .bss           0x0000000020010e34        0x0 /home/user/Devel/stm32/gcc-arm-none-eabi-8-2018-q4-major/bin/../lib/gcc/arm-none-eabi/8.2.1/../../../../arm-none-eabi/lib/thumb/v7e-m+fp/hard/libc_nano.a(lib_a-fstatr.o)
 .bss           0x0000000020010e34        0x0 /home/user/Devel/stm32/gcc-arm-none-eabi-8-2018-q4-major/bin/../lib/gcc/arm-none-eabi/8.2.1/../../../../arm-none-eabi/lib/thumb/v7e-m+fp/hard/libc_nano.a(lib_a-isattyr.o)
 .bss           0x0000000020010e34        0x0 /home/user/Devel/stm32/gcc-arm-none-eabi-8-2018-q4-major/bin/../lib/gcc/arm-none-eabi/8.2.1/../../../../arm-none-eabi/lib/thumb/v7e-m+fp/hard/libc_nano.a(lib_a-lseekr.o)
 .bss           0x0000000020010e34        0x0 /home/user/Devel/stm32/gcc-arm-none-eabi-8-2018-q4-major/bin/../lib/gcc/arm-none-eabi/8.2.1/../../../../arm-none-eabi/lib/thumb/v7e-m+fp/hard/libc_nano.a(lib_a-mlock.o)
 .bss           0x0000000020010e34        0x0 /home/user/Devel/stm32/gcc-arm-none-eabi-8-2018-q4-major/bin/../lib/gcc/arm-none-eabi/8.2.1/../../../../arm-none-eabi/lib/thumb/v7e-m+fp/hard/libc_nano.a(lib_a-nano-msizer.o)
 .bss           0x0000000020010e34        0x0 /home/user/Devel/stm32/gcc-arm-none-eabi-8-2018-q4-major/bin/../lib/gcc/arm-none-eabi/8.2.1/../../../../arm-none-eabi/lib/thumb/v7e-m+fp/hard/libc_nano.a(lib_a-readr.o)
 .bss           0x0000000020010e34        0x0 /home/user/Devel/stm32/gcc-arm-none-eabi-8-2018-q4-major/bin/../lib/gcc/arm-none-eabi/8.2.1/../../../../arm-none-eabi/lib/thumb/v7e-m+fp/hard/libc_nano.a(lib_a-reent.o)
 .bss           0x0000000020010e34        0x0 /home/user/Devel/stm32/gcc-arm-none-eabi-8-2018-q4-major/bin/../lib/gcc/arm-none-eabi/8.2.1/thumb/v7e-m+fp/hard/libgcc.a(_arm_addsubdf3.o)
 .bss           0x0000000020010e34        0x0 /home/user/Devel/stm32/gcc-arm-none-eabi-8-2018-q4-major/bin/../lib/gcc/arm-none-eabi/8.2.1/thumb/v7e-m+fp/hard/libgcc.a(_arm_muldivdf3.o)
 .bss           0x0000000020010e34        0x0 /home/user/Devel/stm32/gcc-arm-none-eabi-8-2018-q4-major/bin/../lib/gcc/arm-none-eabi/8.2.1/thumb/v7e-m+fp/hard/libgcc.a(_arm_cmpdf2.o)
 .bss           0x0000000020010e34        0x0 /home/user/Devel/stm32/gcc-arm-none-eabi-8-2018-q4-major/bin/../lib/gcc/arm-none-eabi/8.2.1/thumb/v7e-m+fp/hard/libgcc.a(_arm_fixdfsi.o)
 .bss           0x0000000020010e34        0x0 /home/user/Devel/stm32/gcc-arm-none-eabi-8-2018-q4-major/bin/../lib/gcc/arm-none-eabi/8.2.1/thumb/v7e-m+fp/hard/libgcc.a(_arm_fixunsdfsi.o)
 .bss           0x0000000020010e34        0x0 /home/user/Devel/stm32/gcc-arm-none-eabi-8-2018-q4-major/bin/../lib/gcc/arm-none-eabi/8.2.1/thumb/v7e-m+fp/hard/libgcc.a(_aeabi_uldivmod.o)
 .bss           0x0000000020010e34        0x0 /home/user/Devel/stm32/gcc-arm-none-eabi-8-2018-q4-major/bin/../lib/gcc/arm-none-eabi/8.2.1/thumb/v7e-m+fp/hard/libgcc.a(_udivmoddi4.o)
 .bss           0x0000000020010e34        0x0 /home/user/Devel/stm32/gcc-arm-none-eabi-8-2018-q4-major/bin/../lib/gcc/arm-none-eabi/8.2.1/thumb/v7e-m+fp/hard/libgcc.a(_dvmd_tls.o)
 .bss           0x0000000020010e34        0x0 /home/user/Devel/stm32/gcc-arm-none-eabi-8-2018-q4-major/bin/../lib/gcc/arm-none-eabi/8.2.1/../../../../arm-none-eabi/lib/thumb/v7e-m+fp/hard/libnosys.a(close.o)
 .bss           0x0000000020010e34        0x0 /home/user/Devel/stm32/gcc-arm-none-eabi-8-2018-q4-major/bin/../lib/gcc/arm-none-eabi/8.2.1/../../../../arm-none-eabi/lib/thumb/v7e-m+fp/hard/libnosys.a(fstat.o)
 .bss           0x0000000020010e34        0x0 /home/user/Devel/stm32/gcc-arm-none-eabi-8-2018-q4-major/bin/../lib/gcc/arm-none-eabi/8.2.1/../../../../arm-none-eabi/lib/thumb/v7e-m+fp/hard/libnosys.a(getpid.o)
 .bss           0x0000000020010e34        0x0 /home/user/Devel/stm32/gcc-arm-none-eabi-8-2018-q4-major/bin/../lib/gcc/arm-none-eabi/8.2.1/../../../../arm-none-eabi/lib/thumb/v7e-m+fp/hard/libnosys.a(isatty.o)
 .bss           0x0000000020010e34        0x0 /home/user/Devel/stm32/gcc-arm-none-eabi-8-2018-q4-major/bin/../lib/gcc/arm-none-eabi/8.2.1/../../../../arm-none-eabi/lib/thumb/v7e-m+fp/hard/libnosys.a(kill.o)
 .bss           0x0000000020010e34        0x0 /home/user/Devel/stm32/gcc-arm-none-eabi-8-2018-q4-major/bin/../lib/gcc/arm-none-eabi/8.2.1/../../../../arm-none-eabi/lib/thumb/v7e-m+fp/hard/libnosys.a(lseek.o)
 .bss           0x0000000020010e34        0x0 /home/user/Devel/stm32/gcc-arm-none-eabi-8-2018-q4-major/bin/../lib/gcc/arm-none-eabi/8.2.1/../../../../arm-none-eabi/lib/thumb/v7e-m+fp/hard/libnosys.a(read.o)
 .bss           0x0000000020010e34        0x0 /home/user/Devel/stm32/gcc-arm-none-eabi-8-2018-q4-major/bin/../lib/gcc/arm-none-eabi/8.2.1/../../../../arm-none-eabi/lib/thumb/v7e-m+fp/hard/libnosys.a(sbrk.o)
 .bss.heap_end.5501
                0x0000000020010e34        0x4 /home/user/Devel/stm32/gcc-arm-none-eabi-8-2018-q4-major/bin/../lib/gcc/arm-none-eabi/8.2.1/../../../../arm-none-eabi/lib/thumb/v7e-m+fp/hard/libnosys.a(sbrk.o)
 .bss           0x0000000020010e38        0x0 /home/user/Devel/stm32/gcc-arm-none-eabi-8-2018-q4-major/bin/../lib/gcc/arm-none-eabi/8.2.1/../../../../arm-none-eabi/lib/thumb/v7e-m+fp/hard/libnosys.a(write.o)
 .bss           0x0000000020010e38        0x0 /home/user/Devel/stm32/gcc-arm-none-eabi-8-2018-q4-major/bin/../lib/gcc/arm-none-eabi/8.2.1/../../../../arm-none-eabi/lib/thumb/v7e-m+fp/hard/libnosys.a(_exit.o)
 *(COMMON)
 COMMON         0x0000000020010e38        0x9 /home/user/Devel/stm32/gcc-arm-none-eabi-8-2018-q4-major/bin/../lib/gcc/arm-none-eabi/8.2.1/../../../../arm-none-eabi/lib/thumb/v7e-m+fp/hard/libc_nano.a(lib_a-lock.o)
                0x0000000020010e38                __lock___atexit_recursive_mutex
                0x0000000020010e39                __lock___arc4random_mutex
                0x0000000020010e3a                __lock___env_recursive_mutex
                0x0000000020010e3b                __lock___sinit_recursive_mutex
                0x0000000020010e3c                __lock___malloc_recursive_mutex
                0x0000000020010e3d                __lock___at_quick_exit_mutex
                0x0000000020010e3e                __lock___dd_hash_mutex
                0x0000000020010e3f                __lock___tz_mutex
                0x0000000020010e40                __lock___sfp_recursive_mutex
 *fill*         0x0000000020010e41        0x3 
 COMMON         0x0000000020010e44        0x4 /home/user/Devel/stm32/gcc-arm-none-eabi-8-2018-q4-major/bin/../lib/gcc/arm-none-eabi/8.2.1/../../../../arm-none-eabi/lib/thumb/v7e-m+fp/hard/libc_nano.a(lib_a-reent.o)
                0x0000000020010e44                errno
                0x0000000020010e48                . = ALIGN (0x4)
                0x0000000020010e48                _ebss = .

.ccm            0x0000000010000000        0x0
                0x0000000010000000                . = ALIGN (0x4)
                0x0000000010000000                _sccm = .
 *(.ccm)
                0x0000000010000000                . = ALIGN (0x4)
                0x0000000010000000                _eccm = .

/DISCARD/
 *(.eh_frame)
                0x0000000010000000                . = ALIGN (0x4)
                0x0000000010000000                end = .
                0x0000000020030000                PROVIDE (_stack = (ORIGIN (ram) + LENGTH (ram)))
OUTPUT(.//mew.elf elf32-littlearm)

.debug_info     0x0000000000000000    0xf38c8
 .debug_info    0x0000000000000000     0x182a ././drivers/bluetooth/bt_usart.o
 .debug_info    0x000000000000182a     0x14fc ././drivers/usb/mew_usb_hid.o
 .debug_info    0x0000000000002d26     0x32a2 ././drivers/display/display.o
 .debug_info    0x0000000000005fc8     0x1bc8 ././drivers/display/ts_tsc2007.o
 .debug_info    0x0000000000007b90     0x15ba ././drivers/flash/otp_storage.o
 .debug_info    0x000000000000914a     0x1326 ././drivers/i2c/i2c.o
 .debug_info    0x000000000000a470      0xacf ././drivers/spi_flash/w25n01gvzeig.o
 .debug_info    0x000000000000af3f     0x185e ././drivers/spi_flash/flash.o
 .debug_info    0x000000000000c79d     0x10d2 ././drivers/system/clock.o
 .debug_info    0x000000000000d86f     0x121a ././drivers/system/systick.o
 .debug_info    0x000000000000ea89      0xb7e ././drivers/system/system.o
 .debug_info    0x000000000000f607      0xbbe ././drivers/system/random.o
 .debug_info    0x00000000000101c5      0xecd ././drivers/duart/duart.o
 .debug_info    0x0000000000011092     0x12f6 ././drivers/hw_crypt/aes256.o
 .debug_info    0x0000000000012388      0xee2 ././drivers/hw_crypt/secure_eeprom.o
 .debug_info    0x000000000001326a      0xe1f ././drivers/hw_crypt/P256-cortex-ecdh.o
 .debug_info    0x0000000000014089      0xa87 ././drivers/hw_crypt/sha2_256.o
 .debug_info    0x0000000000014b10      0xd86 ././app/pwd_generator/mew_xor_algo.o
 .debug_info    0x0000000000015896      0xc07 ././app/pwd_generator/mew_passgen.o
 .debug_info    0x000000000001649d     0x128d ././app/packet_parser/parser.o
 .debug_info    0x000000000001772a     0x5065 ././app/qr_code/qrcodegen.o
 .debug_info    0x000000000001c78f      0xb80 ././debug.o
 .debug_info    0x000000000001d30f     0x12f9 ././mew.o
 .debug_info    0x000000000001e608     0x22f5 ././lvgl/src/lv_hal/lv_hal_disp.o
 .debug_info    0x00000000000208fd      0x19a ././lvgl/src/lv_hal/lv_hal_tick.o
 .debug_info    0x0000000000020a97     0x1e9e ././lvgl/src/lv_hal/lv_hal_indev.o
 .debug_info    0x0000000000022935     0x1324 ././lvgl/src/lv_font/lv_font_roboto_12.o
 .debug_info    0x0000000000023c59     0x2289 ././lvgl/src/lv_font/lv_font_fmt_txt.o
 .debug_info    0x0000000000025ee2      0x401 ././lvgl/src/lv_font/lv_font.o
 .debug_info    0x00000000000262e3     0x1328 ././lvgl/src/lv_font/lv_font_roboto_28_compressed.o
 .debug_info    0x000000000002760b     0x1328 ././lvgl/src/lv_font/lv_font_roboto_12_subpx.o
 .debug_info    0x0000000000028933      0xf43 ././lvgl/src/lv_font/lv_font_roboto_22.o
 .debug_info    0x0000000000029876      0xf43 ././lvgl/src/lv_font/lv_font_roboto_16.o
 .debug_info    0x000000000002a7b9      0xf43 ././lvgl/src/lv_font/lv_font_roboto_28.o
 .debug_info    0x000000000002b6fc      0xf43 ././lvgl/src/lv_font/lv_font_unscii_8.o
 .debug_info    0x000000000002c63f     0x1267 ././lvgl/src/lv_misc/lv_gc.o
 .debug_info    0x000000000002d8a6     0x16b6 ././lvgl/src/lv_misc/lv_printf.o
 .debug_info    0x000000000002ef5c     0x12dd ././lvgl/src/lv_misc/lv_mem.o
 .debug_info    0x0000000000030239     0x1ce9 ././lvgl/src/lv_misc/lv_txt.o
 .debug_info    0x0000000000031f22      0xe3c ././lvgl/src/lv_misc/lv_area.o
 .debug_info    0x0000000000032d5e       0x25 ././lvgl/src/lv_misc/lv_templ.o
 .debug_info    0x0000000000032d83      0x90d ././lvgl/src/lv_misc/lv_anim.o
 .debug_info    0x0000000000033690      0x24a ././lvgl/src/lv_misc/lv_utils.o
 .debug_info    0x00000000000338da      0xf43 ././lvgl/src/lv_misc/lv_bidi.o
 .debug_info    0x000000000003481d     0x1d65 ././lvgl/src/lv_misc/lv_ll.o
 .debug_info    0x0000000000036582      0x51d ././lvgl/src/lv_misc/lv_color.o
 .debug_info    0x0000000000036a9f      0xa11 ././lvgl/src/lv_misc/lv_circ.o
 .debug_info    0x00000000000374b0     0x1a8f ././lvgl/src/lv_misc/lv_task.o
 .debug_info    0x0000000000038f3f       0x64 ././lvgl/src/lv_misc/lv_log.o
 .debug_info    0x0000000000038fa3      0x333 ././lvgl/src/lv_misc/lv_async.o
 .debug_info    0x00000000000392d6       0x64 ././lvgl/src/lv_misc/lv_fs.o
 .debug_info    0x000000000003933a      0xc11 ././lvgl/src/lv_misc/lv_math.o
 .debug_info    0x0000000000039f4b     0x1ae4 ././lvgl/src/lv_themes/lv_theme.o
 .debug_info    0x000000000003ba2f      0xe6a ././lvgl/src/lv_themes/lv_theme_mono.o
 .debug_info    0x000000000003c899     0x331e ././lvgl/src/lv_themes/lv_theme_material.o
 .debug_info    0x000000000003fbb7      0xe6a ././lvgl/src/lv_themes/lv_theme_default.o
 .debug_info    0x0000000000040a21      0xe6a ././lvgl/src/lv_themes/lv_theme_alien.o
 .debug_info    0x000000000004188b      0xe6a ././lvgl/src/lv_themes/lv_theme_night.o
 .debug_info    0x00000000000426f5      0xe6a ././lvgl/src/lv_themes/lv_theme_zen.o
 .debug_info    0x000000000004355f      0xe6a ././lvgl/src/lv_themes/lv_theme_templ.o
 .debug_info    0x00000000000443c9      0xe6a ././lvgl/src/lv_themes/lv_theme_nemo.o
 .debug_info    0x0000000000045233     0x17b4 ././lvgl/src/lv_core/lv_disp.o
 .debug_info    0x00000000000469e7     0x1933 ././lvgl/src/lv_core/lv_debug.o
 .debug_info    0x000000000004831a     0x3f0f ././lvgl/src/lv_core/lv_indev.o
 .debug_info    0x000000000004c229     0x2a4a ././lvgl/src/lv_core/lv_refr.o
 .debug_info    0x000000000004ec73     0x7866 ././lvgl/src/lv_core/lv_obj.o
 .debug_info    0x00000000000564d9     0x154a ././lvgl/src/lv_core/lv_style.o
 .debug_info    0x0000000000057a23     0x3575 ././lvgl/src/lv_core/lv_group.o
 .debug_info    0x000000000005af98     0x382e ././lvgl/src/lv_objx/lv_spinbox.o
 .debug_info    0x000000000005e7c6     0x4a58 ././lvgl/src/lv_objx/lv_roller.o
 .debug_info    0x000000000006321e     0x2762 ././lvgl/src/lv_objx/lv_led.o
 .debug_info    0x0000000000065980     0x2562 ././lvgl/src/lv_objx/lv_img.o
 .debug_info    0x0000000000067ee2     0x21cc ././lvgl/src/lv_objx/lv_imgbtn.o
 .debug_info    0x000000000006a0ae     0x2e00 ././lvgl/src/lv_objx/lv_lmeter.o
 .debug_info    0x000000000006ceae       0x64 ././lvgl/src/lv_objx/lv_kb.o
 .debug_info    0x000000000006cf12     0x2761 ././lvgl/src/lv_objx/lv_arc.o
 .debug_info    0x000000000006f673     0x2e3d ././lvgl/src/lv_objx/lv_bar.o
 .debug_info    0x00000000000724b0     0x5a27 ././lvgl/src/lv_objx/lv_tabview.o
 .debug_info    0x0000000000077ed7       0x64 ././lvgl/src/lv_objx/lv_chart.o
 .debug_info    0x0000000000077f3b     0x3cdf ././lvgl/src/lv_objx/lv_mbox.o
 .debug_info    0x000000000007bc1a       0x64 ././lvgl/src/lv_objx/lv_calendar.o
 .debug_info    0x000000000007bc7e     0x380f ././lvgl/src/lv_objx/lv_slider.o
 .debug_info    0x000000000007f48d     0x3576 ././lvgl/src/lv_objx/lv_gauge.o
 .debug_info    0x0000000000082a03     0x3d60 ././lvgl/src/lv_objx/lv_win.o
 .debug_info    0x0000000000086763     0x4dd6 ././lvgl/src/lv_objx/lv_cpicker.o
 .debug_info    0x000000000008b539     0x2193 ././lvgl/src/lv_objx/lv_line.o
 .debug_info    0x000000000008d6cc     0x39d3 ././lvgl/src/lv_objx/lv_cont.o
 .debug_info    0x000000000009109f     0x389b ././lvgl/src/lv_objx/lv_tileview.o
 .debug_info    0x000000000009493a     0x3f64 ././lvgl/src/lv_objx/lv_canvas.o
 .debug_info    0x000000000009889e      0xe6a ././lvgl/src/lv_objx/lv_objx_templ.o
 .debug_info    0x0000000000099708     0x4a94 ././lvgl/src/lv_objx/lv_label.o
 .debug_info    0x000000000009e19c     0x54ea ././lvgl/src/lv_objx/lv_ddlist.o
 .debug_info    0x00000000000a3686     0x5d22 ././lvgl/src/lv_objx/lv_list.o
 .debug_info    0x00000000000a93a8       0x64 ././lvgl/src/lv_objx/lv_preload.o
 .debug_info    0x00000000000a940c     0x2de5 ././lvgl/src/lv_objx/lv_btn.o
 .debug_info    0x00000000000ac1f1     0x5578 ././lvgl/src/lv_objx/lv_btnm.o
 .debug_info    0x00000000000b1769     0x7a75 ././lvgl/src/lv_objx/lv_ta.o
 .debug_info    0x00000000000b91de     0x529d ././lvgl/src/lv_objx/lv_page.o
 .debug_info    0x00000000000be47b     0x3bf4 ././lvgl/src/lv_objx/lv_table.o
 .debug_info    0x00000000000c206f     0x30a6 ././lvgl/src/lv_objx/lv_cb.o
 .debug_info    0x00000000000c5115     0x36de ././lvgl/src/lv_objx/lv_sw.o
 .debug_info    0x00000000000c87f3     0x253b ././lvgl/src/lv_draw/lv_draw_img.o
 .debug_info    0x00000000000cad2e     0x1b7c ././lvgl/src/lv_draw/lv_draw_arc.o
 .debug_info    0x00000000000cc8aa     0x187c ././lvgl/src/lv_draw/lv_draw.o
 .debug_info    0x00000000000ce126     0x177e ././lvgl/src/lv_draw/lv_draw_triangle.o
 .debug_info    0x00000000000cf8a4     0x1660 ././lvgl/src/lv_draw/lv_img_cache.o
 .debug_info    0x00000000000d0f04     0x1e37 ././lvgl/src/lv_draw/lv_img_decoder.o
 .debug_info    0x00000000000d2d3b     0x2669 ././lvgl/src/lv_draw/lv_draw_basic.o
 .debug_info    0x00000000000d53a4     0x1e8a ././lvgl/src/lv_draw/lv_draw_line.o
 .debug_info    0x00000000000d722e     0x1a83 ././lvgl/src/lv_draw/lv_draw_label.o
 .debug_info    0x00000000000d8cb1     0x4adc ././lvgl/src/lv_draw/lv_draw_rect.o
 .debug_info    0x00000000000dd78d       0x25 ././lvgl/porting/lv_port_disp_template.o
 .debug_info    0x00000000000dd7b2       0x25 ././lvgl/porting/lv_port_indev_template.o
 .debug_info    0x00000000000dd7d7       0x25 ././lvgl/porting/lv_port_fs_template.o
 .debug_info    0x00000000000dd7fc     0x18f2 ././ui/ui_msgbox.o
 .debug_info    0x00000000000df0ee     0x11ec ././ui/ui_lhandlers.o
 .debug_info    0x00000000000e02da     0x1415 ././ui/qrcode_ui.o
 .debug_info    0x00000000000e16ef     0x1b6d ././ui/ui_header.o
 .debug_info    0x00000000000e325c     0x2531 ././ui/ui_win_startup_1.o
 .debug_info    0x00000000000e578d     0x1339 ././ui/mew_font_ru_bold.o
 .debug_info    0x00000000000e6ac6      0xf83 ././ui/ui_main_win.o
 .debug_info    0x00000000000e7a49     0x12e8 ././ui/mew_font_ru_bold_title.o
 .debug_info    0x00000000000e8d31     0x1122 ././ui/mew_logo.o
 .debug_info    0x00000000000e9e53      0x959 /home/user/Devel/stm32/libopencm3/lib/libopencm3_stm32f4.a(rcc.o)
 .debug_info    0x00000000000ea7ac      0x109 /home/user/Devel/stm32/libopencm3/lib/libopencm3_stm32f4.a(crc_common_all.o)
 .debug_info    0x00000000000ea8b5      0xbb3 /home/user/Devel/stm32/libopencm3/lib/libopencm3_stm32f4.a(dma_common_f24.o)
 .debug_info    0x00000000000eb468      0x22c /home/user/Devel/stm32/libopencm3/lib/libopencm3_stm32f4.a(gpio_common_all.o)
 .debug_info    0x00000000000eb694      0x1eb /home/user/Devel/stm32/libopencm3/lib/libopencm3_stm32f4.a(gpio_common_f0234.o)
 .debug_info    0x00000000000eb87f      0xab7 /home/user/Devel/stm32/libopencm3/lib/libopencm3_stm32f4.a(i2c_common_v1.o)
 .debug_info    0x00000000000ec336      0x9c1 /home/user/Devel/stm32/libopencm3/lib/libopencm3_stm32f4.a(spi_common_all.o)
 .debug_info    0x00000000000eccf7      0x148 /home/user/Devel/stm32/libopencm3/lib/libopencm3_stm32f4.a(spi_common_l1f124.o)
 .debug_info    0x00000000000ece3f      0x4b2 /home/user/Devel/stm32/libopencm3/lib/libopencm3_stm32f4.a(usart_common_all.o)
 .debug_info    0x00000000000ed2f1      0x17a /home/user/Devel/stm32/libopencm3/lib/libopencm3_stm32f4.a(usart_common_f124.o)
 .debug_info    0x00000000000ed46b      0x11f /home/user/Devel/stm32/libopencm3/lib/libopencm3_stm32f4.a(flash_common_f234.o)
 .debug_info    0x00000000000ed58a      0x50a /home/user/Devel/stm32/libopencm3/lib/libopencm3_stm32f4.a(flash_common_f24.o)
 .debug_info    0x00000000000eda94      0x204 /home/user/Devel/stm32/libopencm3/lib/libopencm3_stm32f4.a(exti_common_all.o)
 .debug_info    0x00000000000edc98      0x828 /home/user/Devel/stm32/libopencm3/lib/libopencm3_stm32f4.a(rcc_common_all.o)
 .debug_info    0x00000000000ee4c0      0xdb1 /home/user/Devel/stm32/libopencm3/lib/libopencm3_stm32f4.a(usb.o)
 .debug_info    0x00000000000ef271     0x1449 /home/user/Devel/stm32/libopencm3/lib/libopencm3_stm32f4.a(usb_standard.o)
 .debug_info    0x00000000000f06ba      0xed8 /home/user/Devel/stm32/libopencm3/lib/libopencm3_stm32f4.a(usb_control.o)
 .debug_info    0x00000000000f1592      0xdf7 /home/user/Devel/stm32/libopencm3/lib/libopencm3_stm32f4.a(usb_f107.o)
 .debug_info    0x00000000000f2389      0x2b7 /home/user/Devel/stm32/libopencm3/lib/libopencm3_stm32f4.a(vector.o)
 .debug_info    0x00000000000f2640      0x255 /home/user/Devel/stm32/libopencm3/lib/libopencm3_stm32f4.a(systick.o)
 .debug_info    0x00000000000f2895      0x214 /home/user/Devel/stm32/libopencm3/lib/libopencm3_stm32f4.a(nvic.o)
 .debug_info    0x00000000000f2aa9       0xc2 /home/user/Devel/stm32/libopencm3/lib/libopencm3_stm32f4.a(pwr.o)
 .debug_info    0x00000000000f2b6b      0xd5d /home/user/Devel/stm32/libopencm3/lib/libopencm3_stm32f4.a(usb_fx07_common.o)

.debug_abbrev   0x0000000000000000    0x1b4fe
 .debug_abbrev  0x0000000000000000      0x401 ././drivers/bluetooth/bt_usart.o
 .debug_abbrev  0x0000000000000401      0x309 ././drivers/usb/mew_usb_hid.o
 .debug_abbrev  0x000000000000070a      0x3f2 ././drivers/display/display.o
 .debug_abbrev  0x0000000000000afc      0x33f ././drivers/display/ts_tsc2007.o
 .debug_abbrev  0x0000000000000e3b      0x2e5 ././drivers/flash/otp_storage.o
 .debug_abbrev  0x0000000000001120      0x2c1 ././drivers/i2c/i2c.o
 .debug_abbrev  0x00000000000013e1      0x224 ././drivers/spi_flash/w25n01gvzeig.o
 .debug_abbrev  0x0000000000001605      0x333 ././drivers/spi_flash/flash.o
 .debug_abbrev  0x0000000000001938      0x211 ././drivers/system/clock.o
 .debug_abbrev  0x0000000000001b49      0x2c0 ././drivers/system/systick.o
 .debug_abbrev  0x0000000000001e09      0x235 ././drivers/system/system.o
 .debug_abbrev  0x000000000000203e      0x25a ././drivers/system/random.o
 .debug_abbrev  0x0000000000002298      0x300 ././drivers/duart/duart.o
 .debug_abbrev  0x0000000000002598      0x24f ././drivers/hw_crypt/aes256.o
 .debug_abbrev  0x00000000000027e7      0x276 ././drivers/hw_crypt/secure_eeprom.o
 .debug_abbrev  0x0000000000002a5d      0x27d ././drivers/hw_crypt/P256-cortex-ecdh.o
 .debug_abbrev  0x0000000000002cda      0x208 ././drivers/hw_crypt/sha2_256.o
 .debug_abbrev  0x0000000000002ee2      0x304 ././app/pwd_generator/mew_xor_algo.o
 .debug_abbrev  0x00000000000031e6      0x2a7 ././app/pwd_generator/mew_passgen.o
 .debug_abbrev  0x000000000000348d      0x398 ././app/packet_parser/parser.o
 .debug_abbrev  0x0000000000003825      0x5cb ././app/qr_code/qrcodegen.o
 .debug_abbrev  0x0000000000003df0      0x268 ././debug.o
 .debug_abbrev  0x0000000000004058      0x2a2 ././mew.o
 .debug_abbrev  0x00000000000042fa      0x4eb ././lvgl/src/lv_hal/lv_hal_disp.o
 .debug_abbrev  0x00000000000047e5      0x110 ././lvgl/src/lv_hal/lv_hal_tick.o
 .debug_abbrev  0x00000000000048f5      0x2e7 ././lvgl/src/lv_hal/lv_hal_indev.o
 .debug_abbrev  0x0000000000004bdc      0x20b ././lvgl/src/lv_font/lv_font_roboto_12.o
 .debug_abbrev  0x0000000000004de7      0x4fe ././lvgl/src/lv_font/lv_font_fmt_txt.o
 .debug_abbrev  0x00000000000052e5      0x1a1 ././lvgl/src/lv_font/lv_font.o
 .debug_abbrev  0x0000000000005486      0x20f ././lvgl/src/lv_font/lv_font_roboto_28_compressed.o
 .debug_abbrev  0x0000000000005695      0x20f ././lvgl/src/lv_font/lv_font_roboto_12_subpx.o
 .debug_abbrev  0x00000000000058a4      0x1b0 ././lvgl/src/lv_font/lv_font_roboto_22.o
 .debug_abbrev  0x0000000000005a54      0x1b0 ././lvgl/src/lv_font/lv_font_roboto_16.o
 .debug_abbrev  0x0000000000005c04      0x1b0 ././lvgl/src/lv_font/lv_font_roboto_28.o
 .debug_abbrev  0x0000000000005db4      0x1b0 ././lvgl/src/lv_font/lv_font_unscii_8.o
 .debug_abbrev  0x0000000000005f64      0x1e0 ././lvgl/src/lv_misc/lv_gc.o
 .debug_abbrev  0x0000000000006144      0x443 ././lvgl/src/lv_misc/lv_printf.o
 .debug_abbrev  0x0000000000006587      0x47d ././lvgl/src/lv_misc/lv_mem.o
 .debug_abbrev  0x0000000000006a04      0x4e2 ././lvgl/src/lv_misc/lv_txt.o
 .debug_abbrev  0x0000000000006ee6      0x2c0 ././lvgl/src/lv_misc/lv_area.o
 .debug_abbrev  0x00000000000071a6       0x1b ././lvgl/src/lv_misc/lv_templ.o
 .debug_abbrev  0x00000000000071c1      0x160 ././lvgl/src/lv_misc/lv_anim.o
 .debug_abbrev  0x0000000000007321      0x10d ././lvgl/src/lv_misc/lv_utils.o
 .debug_abbrev  0x000000000000742e      0x1b0 ././lvgl/src/lv_misc/lv_bidi.o
 .debug_abbrev  0x00000000000075de      0x42f ././lvgl/src/lv_misc/lv_ll.o
 .debug_abbrev  0x0000000000007a0d      0x21f ././lvgl/src/lv_misc/lv_color.o
 .debug_abbrev  0x0000000000007c2c      0x1ee ././lvgl/src/lv_misc/lv_circ.o
 .debug_abbrev  0x0000000000007e1a      0x411 ././lvgl/src/lv_misc/lv_task.o
 .debug_abbrev  0x000000000000822b       0x26 ././lvgl/src/lv_misc/lv_log.o
 .debug_abbrev  0x0000000000008251      0x164 ././lvgl/src/lv_misc/lv_async.o
 .debug_abbrev  0x00000000000083b5       0x26 ././lvgl/src/lv_misc/lv_fs.o
 .debug_abbrev  0x00000000000083db      0x232 ././lvgl/src/lv_misc/lv_math.o
 .debug_abbrev  0x000000000000860d      0x28b ././lvgl/src/lv_themes/lv_theme.o
 .debug_abbrev  0x0000000000008898      0x1b0 ././lvgl/src/lv_themes/lv_theme_mono.o
 .debug_abbrev  0x0000000000008a48      0x417 ././lvgl/src/lv_themes/lv_theme_material.o
 .debug_abbrev  0x0000000000008e5f      0x1b0 ././lvgl/src/lv_themes/lv_theme_default.o
 .debug_abbrev  0x000000000000900f      0x1b0 ././lvgl/src/lv_themes/lv_theme_alien.o
 .debug_abbrev  0x00000000000091bf      0x1b0 ././lvgl/src/lv_themes/lv_theme_night.o
 .debug_abbrev  0x000000000000936f      0x1b0 ././lvgl/src/lv_themes/lv_theme_zen.o
 .debug_abbrev  0x000000000000951f      0x1b0 ././lvgl/src/lv_themes/lv_theme_templ.o
 .debug_abbrev  0x00000000000096cf      0x1b0 ././lvgl/src/lv_themes/lv_theme_nemo.o
 .debug_abbrev  0x000000000000987f      0x2d1 ././lvgl/src/lv_core/lv_disp.o
 .debug_abbrev  0x0000000000009b50      0x357 ././lvgl/src/lv_core/lv_debug.o
 .debug_abbrev  0x0000000000009ea7      0x5e3 ././lvgl/src/lv_core/lv_indev.o
 .debug_abbrev  0x000000000000a48a      0x576 ././lvgl/src/lv_core/lv_refr.o
 .debug_abbrev  0x000000000000aa00      0x66f ././lvgl/src/lv_core/lv_obj.o
 .debug_abbrev  0x000000000000b06f      0x31f ././lvgl/src/lv_core/lv_style.o
 .debug_abbrev  0x000000000000b38e      0x573 ././lvgl/src/lv_core/lv_group.o
 .debug_abbrev  0x000000000000b901      0x521 ././lvgl/src/lv_objx/lv_spinbox.o
 .debug_abbrev  0x000000000000be22      0x5db ././lvgl/src/lv_objx/lv_roller.o
 .debug_abbrev  0x000000000000c3fd      0x4df ././lvgl/src/lv_objx/lv_led.o
 .debug_abbrev  0x000000000000c8dc      0x516 ././lvgl/src/lv_objx/lv_img.o
 .debug_abbrev  0x000000000000cdf2      0x479 ././lvgl/src/lv_objx/lv_imgbtn.o
 .debug_abbrev  0x000000000000d26b      0x533 ././lvgl/src/lv_objx/lv_lmeter.o
 .debug_abbrev  0x000000000000d79e       0x26 ././lvgl/src/lv_objx/lv_kb.o
 .debug_abbrev  0x000000000000d7c4      0x496 ././lvgl/src/lv_objx/lv_arc.o
 .debug_abbrev  0x000000000000dc5a      0x54c ././lvgl/src/lv_objx/lv_bar.o
 .debug_abbrev  0x000000000000e1a6      0x60f ././lvgl/src/lv_objx/lv_tabview.o
 .debug_abbrev  0x000000000000e7b5       0x26 ././lvgl/src/lv_objx/lv_chart.o
 .debug_abbrev  0x000000000000e7db      0x5ae ././lvgl/src/lv_objx/lv_mbox.o
 .debug_abbrev  0x000000000000ed89       0x26 ././lvgl/src/lv_objx/lv_calendar.o
 .debug_abbrev  0x000000000000edaf      0x4dc ././lvgl/src/lv_objx/lv_slider.o
 .debug_abbrev  0x000000000000f28b      0x4f3 ././lvgl/src/lv_objx/lv_gauge.o
 .debug_abbrev  0x000000000000f77e      0x551 ././lvgl/src/lv_objx/lv_win.o
 .debug_abbrev  0x000000000000fccf      0x5f7 ././lvgl/src/lv_objx/lv_cpicker.o
 .debug_abbrev  0x00000000000102c6      0x456 ././lvgl/src/lv_objx/lv_line.o
 .debug_abbrev  0x000000000001071c      0x53e ././lvgl/src/lv_objx/lv_cont.o
 .debug_abbrev  0x0000000000010c5a      0x56e ././lvgl/src/lv_objx/lv_tileview.o
 .debug_abbrev  0x00000000000111c8      0x523 ././lvgl/src/lv_objx/lv_canvas.o
 .debug_abbrev  0x00000000000116eb      0x1b0 ././lvgl/src/lv_objx/lv_objx_templ.o
 .debug_abbrev  0x000000000001189b      0x6a2 ././lvgl/src/lv_objx/lv_label.o
 .debug_abbrev  0x0000000000011f3d      0x640 ././lvgl/src/lv_objx/lv_ddlist.o
 .debug_abbrev  0x000000000001257d      0x640 ././lvgl/src/lv_objx/lv_list.o
 .debug_abbrev  0x0000000000012bbd       0x26 ././lvgl/src/lv_objx/lv_preload.o
 .debug_abbrev  0x0000000000012be3      0x581 ././lvgl/src/lv_objx/lv_btn.o
 .debug_abbrev  0x0000000000013164      0x65a ././lvgl/src/lv_objx/lv_btnm.o
 .debug_abbrev  0x00000000000137be      0x662 ././lvgl/src/lv_objx/lv_ta.o
 .debug_abbrev  0x0000000000013e20      0x5f7 ././lvgl/src/lv_objx/lv_page.o
 .debug_abbrev  0x0000000000014417      0x5a0 ././lvgl/src/lv_objx/lv_table.o
 .debug_abbrev  0x00000000000149b7      0x51b ././lvgl/src/lv_objx/lv_cb.o
 .debug_abbrev  0x0000000000014ed2      0x4ce ././lvgl/src/lv_objx/lv_sw.o
 .debug_abbrev  0x00000000000153a0      0x563 ././lvgl/src/lv_draw/lv_draw_img.o
 .debug_abbrev  0x0000000000015903      0x380 ././lvgl/src/lv_draw/lv_draw_arc.o
 .debug_abbrev  0x0000000000015c83      0x34f ././lvgl/src/lv_draw/lv_draw.o
 .debug_abbrev  0x0000000000015fd2      0x390 ././lvgl/src/lv_draw/lv_draw_triangle.o
 .debug_abbrev  0x0000000000016362      0x2e6 ././lvgl/src/lv_draw/lv_img_cache.o
 .debug_abbrev  0x0000000000016648      0x4e8 ././lvgl/src/lv_draw/lv_img_decoder.o
 .debug_abbrev  0x0000000000016b30      0x4c0 ././lvgl/src/lv_draw/lv_draw_basic.o
 .debug_abbrev  0x0000000000016ff0      0x431 ././lvgl/src/lv_draw/lv_draw_line.o
 .debug_abbrev  0x0000000000017421      0x3be ././lvgl/src/lv_draw/lv_draw_label.o
 .debug_abbrev  0x00000000000177df      0x467 ././lvgl/src/lv_draw/lv_draw_rect.o
 .debug_abbrev  0x0000000000017c46       0x1b ././lvgl/porting/lv_port_disp_template.o
 .debug_abbrev  0x0000000000017c61       0x1b ././lvgl/porting/lv_port_indev_template.o
 .debug_abbrev  0x0000000000017c7c       0x1b ././lvgl/porting/lv_port_fs_template.o
 .debug_abbrev  0x0000000000017c97      0x31b ././ui/ui_msgbox.o
 .debug_abbrev  0x0000000000017fb2      0x266 ././ui/ui_lhandlers.o
 .debug_abbrev  0x0000000000018218      0x321 ././ui/qrcode_ui.o
 .debug_abbrev  0x0000000000018539      0x2f3 ././ui/ui_header.o
 .debug_abbrev  0x000000000001882c      0x3d6 ././ui/ui_win_startup_1.o
 .debug_abbrev  0x0000000000018c02      0x20f ././ui/mew_font_ru_bold.o
 .debug_abbrev  0x0000000000018e11      0x1f1 ././ui/ui_main_win.o
 .debug_abbrev  0x0000000000019002      0x20f ././ui/mew_font_ru_bold_title.o
 .debug_abbrev  0x0000000000019211      0x1f9 ././ui/mew_logo.o
 .debug_abbrev  0x000000000001940a      0x217 /home/user/Devel/stm32/libopencm3/lib/libopencm3_stm32f4.a(rcc.o)
 .debug_abbrev  0x0000000000019621       0xa4 /home/user/Devel/stm32/libopencm3/lib/libopencm3_stm32f4.a(crc_common_all.o)
 .debug_abbrev  0x00000000000196c5      0x189 /home/user/Devel/stm32/libopencm3/lib/libopencm3_stm32f4.a(dma_common_f24.o)
 .debug_abbrev  0x000000000001984e      0x10e /home/user/Devel/stm32/libopencm3/lib/libopencm3_stm32f4.a(gpio_common_all.o)
 .debug_abbrev  0x000000000001995c       0xb7 /home/user/Devel/stm32/libopencm3/lib/libopencm3_stm32f4.a(gpio_common_f0234.o)
 .debug_abbrev  0x0000000000019a13      0x27a /home/user/Devel/stm32/libopencm3/lib/libopencm3_stm32f4.a(i2c_common_v1.o)
 .debug_abbrev  0x0000000000019c8d      0x1aa /home/user/Devel/stm32/libopencm3/lib/libopencm3_stm32f4.a(spi_common_all.o)
 .debug_abbrev  0x0000000000019e37       0xd3 /home/user/Devel/stm32/libopencm3/lib/libopencm3_stm32f4.a(spi_common_l1f124.o)
 .debug_abbrev  0x0000000000019f0a      0x10f /home/user/Devel/stm32/libopencm3/lib/libopencm3_stm32f4.a(usart_common_all.o)
 .debug_abbrev  0x000000000001a019       0x8e /home/user/Devel/stm32/libopencm3/lib/libopencm3_stm32f4.a(usart_common_f124.o)
 .debug_abbrev  0x000000000001a0a7       0x8a /home/user/Devel/stm32/libopencm3/lib/libopencm3_stm32f4.a(flash_common_f234.o)
 .debug_abbrev  0x000000000001a131      0x131 /home/user/Devel/stm32/libopencm3/lib/libopencm3_stm32f4.a(flash_common_f24.o)
 .debug_abbrev  0x000000000001a262       0xe5 /home/user/Devel/stm32/libopencm3/lib/libopencm3_stm32f4.a(exti_common_all.o)
 .debug_abbrev  0x000000000001a347      0x105 /home/user/Devel/stm32/libopencm3/lib/libopencm3_stm32f4.a(rcc_common_all.o)
 .debug_abbrev  0x000000000001a44c      0x1f2 /home/user/Devel/stm32/libopencm3/lib/libopencm3_stm32f4.a(usb.o)
 .debug_abbrev  0x000000000001a63e      0x3da /home/user/Devel/stm32/libopencm3/lib/libopencm3_stm32f4.a(usb_standard.o)
 .debug_abbrev  0x000000000001aa18      0x317 /home/user/Devel/stm32/libopencm3/lib/libopencm3_stm32f4.a(usb_control.o)
 .debug_abbrev  0x000000000001ad2f      0x163 /home/user/Devel/stm32/libopencm3/lib/libopencm3_stm32f4.a(usb_f107.o)
 .debug_abbrev  0x000000000001ae92      0x155 /home/user/Devel/stm32/libopencm3/lib/libopencm3_stm32f4.a(vector.o)
 .debug_abbrev  0x000000000001afe7      0x132 /home/user/Devel/stm32/libopencm3/lib/libopencm3_stm32f4.a(systick.o)
 .debug_abbrev  0x000000000001b119       0xa6 /home/user/Devel/stm32/libopencm3/lib/libopencm3_stm32f4.a(nvic.o)
 .debug_abbrev  0x000000000001b1bf       0x7b /home/user/Devel/stm32/libopencm3/lib/libopencm3_stm32f4.a(pwr.o)
 .debug_abbrev  0x000000000001b23a      0x2c4 /home/user/Devel/stm32/libopencm3/lib/libopencm3_stm32f4.a(usb_fx07_common.o)

.debug_loc      0x0000000000000000    0x5527b
 .debug_loc     0x0000000000000000      0x29f ././drivers/bluetooth/bt_usart.o
 .debug_loc     0x000000000000029f      0x1b8 ././drivers/usb/mew_usb_hid.o
 .debug_loc     0x0000000000000457      0x3f4 ././drivers/display/display.o
 .debug_loc     0x000000000000084b      0x250 ././drivers/display/ts_tsc2007.o
 .debug_loc     0x0000000000000a9b       0xfc ././drivers/flash/otp_storage.o
 .debug_loc     0x0000000000000b97      0x3a0 ././drivers/i2c/i2c.o
 .debug_loc     0x0000000000000f37       0x6f ././drivers/spi_flash/w25n01gvzeig.o
 .debug_loc     0x0000000000000fa6       0xd3 ././drivers/spi_flash/flash.o
 .debug_loc     0x0000000000001079       0x3a ././drivers/system/systick.o
 .debug_loc     0x00000000000010b3       0xc9 ././drivers/system/system.o
 .debug_loc     0x000000000000117c       0x59 ././drivers/system/random.o
 .debug_loc     0x00000000000011d5      0x49e ././drivers/duart/duart.o
 .debug_loc     0x0000000000001673      0x130 ././drivers/hw_crypt/aes256.o
 .debug_loc     0x00000000000017a3      0x1fe ././drivers/hw_crypt/P256-cortex-ecdh.o
 .debug_loc     0x00000000000019a1      0x1f3 ././drivers/hw_crypt/sha2_256.o
 .debug_loc     0x0000000000001b94      0x386 ././app/pwd_generator/mew_xor_algo.o
 .debug_loc     0x0000000000001f1a      0x197 ././app/pwd_generator/mew_passgen.o
 .debug_loc     0x00000000000020b1      0x3c0 ././app/packet_parser/parser.o
 .debug_loc     0x0000000000002471     0x491e ././app/qr_code/qrcodegen.o
 .debug_loc     0x0000000000006d8f      0x17d ././debug.o
 .debug_loc     0x0000000000006f0c       0x58 ././mew.o
 .debug_loc     0x0000000000006f64      0x41a ././lvgl/src/lv_hal/lv_hal_disp.o
 .debug_loc     0x000000000000737e       0xa4 ././lvgl/src/lv_hal/lv_hal_tick.o
 .debug_loc     0x0000000000007422      0x161 ././lvgl/src/lv_hal/lv_hal_indev.o
 .debug_loc     0x0000000000007583     0x1a84 ././lvgl/src/lv_font/lv_font_fmt_txt.o
 .debug_loc     0x0000000000009007      0x21a ././lvgl/src/lv_font/lv_font.o
 .debug_loc     0x0000000000009221     0x2b4b ././lvgl/src/lv_misc/lv_printf.o
 .debug_loc     0x000000000000bd6c      0xc6a ././lvgl/src/lv_misc/lv_mem.o
 .debug_loc     0x000000000000c9d6     0x1a50 ././lvgl/src/lv_misc/lv_txt.o
 .debug_loc     0x000000000000e426      0x403 ././lvgl/src/lv_misc/lv_area.o
 .debug_loc     0x000000000000e829      0x2ef ././lvgl/src/lv_misc/lv_utils.o
 .debug_loc     0x000000000000eb18     0x1ba5 ././lvgl/src/lv_misc/lv_ll.o
 .debug_loc     0x00000000000106bd      0x700 ././lvgl/src/lv_misc/lv_color.o
 .debug_loc     0x0000000000010dbd       0x25 ././lvgl/src/lv_misc/lv_circ.o
 .debug_loc     0x0000000000010de2      0x4d4 ././lvgl/src/lv_misc/lv_task.o
 .debug_loc     0x00000000000112b6      0x123 ././lvgl/src/lv_misc/lv_async.o
 .debug_loc     0x00000000000113d9      0x70f ././lvgl/src/lv_misc/lv_math.o
 .debug_loc     0x0000000000011ae8       0x36 ././lvgl/src/lv_themes/lv_theme.o
 .debug_loc     0x0000000000011b1e      0x626 ././lvgl/src/lv_themes/lv_theme_material.o
 .debug_loc     0x0000000000012144      0x2cc ././lvgl/src/lv_core/lv_disp.o
 .debug_loc     0x0000000000012410      0x41d ././lvgl/src/lv_core/lv_debug.o
 .debug_loc     0x000000000001282d     0x1266 ././lvgl/src/lv_core/lv_indev.o
 .debug_loc     0x0000000000013a93      0xc04 ././lvgl/src/lv_core/lv_refr.o
 .debug_loc     0x0000000000014697     0x383d ././lvgl/src/lv_core/lv_obj.o
 .debug_loc     0x0000000000017ed4      0x74f ././lvgl/src/lv_core/lv_style.o
 .debug_loc     0x0000000000018623     0x108e ././lvgl/src/lv_core/lv_group.o
 .debug_loc     0x00000000000196b1     0x1154 ././lvgl/src/lv_objx/lv_spinbox.o
 .debug_loc     0x000000000001a805     0x1b08 ././lvgl/src/lv_objx/lv_roller.o
 .debug_loc     0x000000000001c30d      0x733 ././lvgl/src/lv_objx/lv_led.o
 .debug_loc     0x000000000001ca40      0x82b ././lvgl/src/lv_objx/lv_img.o
 .debug_loc     0x000000000001d26b      0x7b2 ././lvgl/src/lv_objx/lv_imgbtn.o
 .debug_loc     0x000000000001da1d      0xe5a ././lvgl/src/lv_objx/lv_lmeter.o
 .debug_loc     0x000000000001e877      0x867 ././lvgl/src/lv_objx/lv_arc.o
 .debug_loc     0x000000000001f0de      0xd73 ././lvgl/src/lv_objx/lv_bar.o
 .debug_loc     0x000000000001fe51     0x26d7 ././lvgl/src/lv_objx/lv_tabview.o
 .debug_loc     0x0000000000022528      0xfe5 ././lvgl/src/lv_objx/lv_mbox.o
 .debug_loc     0x000000000002350d     0x197f ././lvgl/src/lv_objx/lv_slider.o
 .debug_loc     0x0000000000024e8c     0x1171 ././lvgl/src/lv_objx/lv_gauge.o
 .debug_loc     0x0000000000025ffd     0x15df ././lvgl/src/lv_objx/lv_win.o
 .debug_loc     0x00000000000275dc     0x2264 ././lvgl/src/lv_objx/lv_cpicker.o
 .debug_loc     0x0000000000029840      0x96c ././lvgl/src/lv_objx/lv_line.o
 .debug_loc     0x000000000002a1ac     0x14f6 ././lvgl/src/lv_objx/lv_cont.o
 .debug_loc     0x000000000002b6a2      0xe45 ././lvgl/src/lv_objx/lv_tileview.o
 .debug_loc     0x000000000002c4e7     0x2130 ././lvgl/src/lv_objx/lv_canvas.o
 .debug_loc     0x000000000002e617     0x2919 ././lvgl/src/lv_objx/lv_label.o
 .debug_loc     0x0000000000030f30     0x1fe7 ././lvgl/src/lv_objx/lv_ddlist.o
 .debug_loc     0x0000000000032f17     0x2c44 ././lvgl/src/lv_objx/lv_list.o
 .debug_loc     0x0000000000035b5b      0xa92 ././lvgl/src/lv_objx/lv_btn.o
 .debug_loc     0x00000000000365ed     0x2c90 ././lvgl/src/lv_objx/lv_btnm.o
 .debug_loc     0x000000000003927d     0x39cd ././lvgl/src/lv_objx/lv_ta.o
 .debug_loc     0x000000000003cc4a     0x27a3 ././lvgl/src/lv_objx/lv_page.o
 .debug_loc     0x000000000003f3ed     0x1f78 ././lvgl/src/lv_objx/lv_table.o
 .debug_loc     0x0000000000041365     0x104b ././lvgl/src/lv_objx/lv_cb.o
 .debug_loc     0x00000000000423b0      0xea1 ././lvgl/src/lv_objx/lv_sw.o
 .debug_loc     0x0000000000043251     0x1d6d ././lvgl/src/lv_draw/lv_draw_img.o
 .debug_loc     0x0000000000044fbe      0xb2e ././lvgl/src/lv_draw/lv_draw_arc.o
 .debug_loc     0x0000000000045aec      0x37f ././lvgl/src/lv_draw/lv_draw.o
 .debug_loc     0x0000000000045e6b     0x10de ././lvgl/src/lv_draw/lv_draw_triangle.o
 .debug_loc     0x0000000000046f49      0x26e ././lvgl/src/lv_draw/lv_img_cache.o
 .debug_loc     0x00000000000471b7      0x756 ././lvgl/src/lv_draw/lv_img_decoder.o
 .debug_loc     0x000000000004790d     0x1e1c ././lvgl/src/lv_draw/lv_draw_basic.o
 .debug_loc     0x0000000000049729     0x183d ././lvgl/src/lv_draw/lv_draw_line.o
 .debug_loc     0x000000000004af66      0xd43 ././lvgl/src/lv_draw/lv_draw_label.o
 .debug_loc     0x000000000004bca9     0x4719 ././lvgl/src/lv_draw/lv_draw_rect.o
 .debug_loc     0x00000000000503c2      0x12a ././ui/ui_msgbox.o
 .debug_loc     0x00000000000504ec      0x16b ././ui/qrcode_ui.o
 .debug_loc     0x0000000000050657       0xb9 ././ui/ui_header.o
 .debug_loc     0x0000000000050710      0x327 ././ui/ui_win_startup_1.o
 .debug_loc     0x0000000000050a37      0x5e8 /home/user/Devel/stm32/libopencm3/lib/libopencm3_stm32f4.a(rcc.o)
 .debug_loc     0x000000000005101f       0x5f /home/user/Devel/stm32/libopencm3/lib/libopencm3_stm32f4.a(crc_common_all.o)
 .debug_loc     0x000000000005107e      0xc60 /home/user/Devel/stm32/libopencm3/lib/libopencm3_stm32f4.a(dma_common_f24.o)
 .debug_loc     0x0000000000051cde       0x97 /home/user/Devel/stm32/libopencm3/lib/libopencm3_stm32f4.a(gpio_common_all.o)
 .debug_loc     0x0000000000051d75       0xdd /home/user/Devel/stm32/libopencm3/lib/libopencm3_stm32f4.a(gpio_common_f0234.o)
 .debug_loc     0x0000000000051e52      0x4ad /home/user/Devel/stm32/libopencm3/lib/libopencm3_stm32f4.a(i2c_common_v1.o)
 .debug_loc     0x00000000000522ff      0x176 /home/user/Devel/stm32/libopencm3/lib/libopencm3_stm32f4.a(spi_common_all.o)
 .debug_loc     0x0000000000052475       0xa2 /home/user/Devel/stm32/libopencm3/lib/libopencm3_stm32f4.a(spi_common_l1f124.o)
 .debug_loc     0x0000000000052517      0x1ca /home/user/Devel/stm32/libopencm3/lib/libopencm3_stm32f4.a(usart_common_all.o)
 .debug_loc     0x00000000000526e1       0x63 /home/user/Devel/stm32/libopencm3/lib/libopencm3_stm32f4.a(usart_common_f124.o)
 .debug_loc     0x0000000000052744       0x3f /home/user/Devel/stm32/libopencm3/lib/libopencm3_stm32f4.a(flash_common_f234.o)
 .debug_loc     0x0000000000052783      0x2cd /home/user/Devel/stm32/libopencm3/lib/libopencm3_stm32f4.a(flash_common_f24.o)
 .debug_loc     0x0000000000052a50      0x1f2 /home/user/Devel/stm32/libopencm3/lib/libopencm3_stm32f4.a(exti_common_all.o)
 .debug_loc     0x0000000000052c42      0x108 /home/user/Devel/stm32/libopencm3/lib/libopencm3_stm32f4.a(rcc_common_all.o)
 .debug_loc     0x0000000000052d4a      0x4b1 /home/user/Devel/stm32/libopencm3/lib/libopencm3_stm32f4.a(usb.o)
 .debug_loc     0x00000000000531fb     0x116c /home/user/Devel/stm32/libopencm3/lib/libopencm3_stm32f4.a(usb_standard.o)
 .debug_loc     0x0000000000054367      0x58d /home/user/Devel/stm32/libopencm3/lib/libopencm3_stm32f4.a(usb_control.o)
 .debug_loc     0x00000000000548f4       0xdf /home/user/Devel/stm32/libopencm3/lib/libopencm3_stm32f4.a(vector.o)
 .debug_loc     0x00000000000549d3      0x136 /home/user/Devel/stm32/libopencm3/lib/libopencm3_stm32f4.a(systick.o)
 .debug_loc     0x0000000000054b09      0x129 /home/user/Devel/stm32/libopencm3/lib/libopencm3_stm32f4.a(nvic.o)
 .debug_loc     0x0000000000054c32      0x649 /home/user/Devel/stm32/libopencm3/lib/libopencm3_stm32f4.a(usb_fx07_common.o)

.debug_aranges  0x0000000000000000     0x3670
 .debug_aranges
                0x0000000000000000       0x48 ././drivers/bluetooth/bt_usart.o
 .debug_aranges
                0x0000000000000048       0x50 ././drivers/usb/mew_usb_hid.o
 .debug_aranges
                0x0000000000000098       0x68 ././drivers/display/display.o
 .debug_aranges
                0x0000000000000100       0x30 ././drivers/display/ts_tsc2007.o
 .debug_aranges
                0x0000000000000130       0x30 ././drivers/flash/otp_storage.o
 .debug_aranges
                0x0000000000000160       0x50 ././drivers/i2c/i2c.o
 .debug_aranges
                0x00000000000001b0       0x30 ././drivers/spi_flash/w25n01gvzeig.o
 .debug_aranges
                0x00000000000001e0       0x50 ././drivers/spi_flash/flash.o
 .debug_aranges
                0x0000000000000230       0x20 ././drivers/system/clock.o
 .debug_aranges
                0x0000000000000250       0x38 ././drivers/system/systick.o
 .debug_aranges
                0x0000000000000288       0x28 ././drivers/system/system.o
 .debug_aranges
                0x00000000000002b0       0x30 ././drivers/system/random.o
 .debug_aranges
                0x00000000000002e0       0x50 ././drivers/duart/duart.o
 .debug_aranges
                0x0000000000000330       0x30 ././drivers/hw_crypt/aes256.o
 .debug_aranges
                0x0000000000000360       0x28 ././drivers/hw_crypt/secure_eeprom.o
 .debug_aranges
                0x0000000000000388       0x48 ././drivers/hw_crypt/P256-cortex-ecdh.o
 .debug_aranges
                0x00000000000003d0       0x28 ././drivers/hw_crypt/sha2_256.o
 .debug_aranges
                0x00000000000003f8       0x30 ././app/pwd_generator/mew_xor_algo.o
 .debug_aranges
                0x0000000000000428       0x20 ././app/pwd_generator/mew_passgen.o
 .debug_aranges
                0x0000000000000448       0x48 ././app/packet_parser/parser.o
 .debug_aranges
                0x0000000000000490       0xe8 ././app/qr_code/qrcodegen.o
 .debug_aranges
                0x0000000000000578       0x58 ././debug.o
 .debug_aranges
                0x00000000000005d0       0x20 ././mew.o
 .debug_aranges
                0x00000000000005f0       0xa0 ././lvgl/src/lv_hal/lv_hal_disp.o
 .debug_aranges
                0x0000000000000690       0x30 ././lvgl/src/lv_hal/lv_hal_tick.o
 .debug_aranges
                0x00000000000006c0       0x40 ././lvgl/src/lv_hal/lv_hal_indev.o
 .debug_aranges
                0x0000000000000700       0x18 ././lvgl/src/lv_font/lv_font_roboto_12.o
 .debug_aranges
                0x0000000000000718       0x58 ././lvgl/src/lv_font/lv_font_fmt_txt.o
 .debug_aranges
                0x0000000000000770       0x30 ././lvgl/src/lv_font/lv_font.o
 .debug_aranges
                0x00000000000007a0       0x18 ././lvgl/src/lv_font/lv_font_roboto_28_compressed.o
 .debug_aranges
                0x00000000000007b8       0x18 ././lvgl/src/lv_font/lv_font_roboto_12_subpx.o
 .debug_aranges
                0x00000000000007d0       0x18 ././lvgl/src/lv_font/lv_font_roboto_22.o
 .debug_aranges
                0x00000000000007e8       0x18 ././lvgl/src/lv_font/lv_font_roboto_16.o
 .debug_aranges
                0x0000000000000800       0x18 ././lvgl/src/lv_font/lv_font_roboto_28.o
 .debug_aranges
                0x0000000000000818       0x18 ././lvgl/src/lv_font/lv_font_unscii_8.o
 .debug_aranges
                0x0000000000000830       0x20 ././lvgl/src/lv_misc/lv_gc.o
 .debug_aranges
                0x0000000000000850       0x70 ././lvgl/src/lv_misc/lv_printf.o
 .debug_aranges
                0x00000000000008c0       0x68 ././lvgl/src/lv_misc/lv_mem.o
 .debug_aranges
                0x0000000000000928       0x98 ././lvgl/src/lv_misc/lv_txt.o
 .debug_aranges
                0x00000000000009c0       0x70 ././lvgl/src/lv_misc/lv_area.o
 .debug_aranges
                0x0000000000000a30       0x18 ././lvgl/src/lv_misc/lv_templ.o
 .debug_aranges
                0x0000000000000a48       0x18 ././lvgl/src/lv_misc/lv_anim.o
 .debug_aranges
                0x0000000000000a60       0x28 ././lvgl/src/lv_misc/lv_utils.o
 .debug_aranges
                0x0000000000000a88       0x18 ././lvgl/src/lv_misc/lv_bidi.o
 .debug_aranges
                0x0000000000000aa0       0x98 ././lvgl/src/lv_misc/lv_ll.o
 .debug_aranges
                0x0000000000000b38       0x30 ././lvgl/src/lv_misc/lv_color.o
 .debug_aranges
                0x0000000000000b68       0x30 ././lvgl/src/lv_misc/lv_circ.o
 .debug_aranges
                0x0000000000000b98       0x88 ././lvgl/src/lv_misc/lv_task.o
 .debug_aranges
                0x0000000000000c20       0x18 ././lvgl/src/lv_misc/lv_log.o
 .debug_aranges
                0x0000000000000c38       0x28 ././lvgl/src/lv_misc/lv_async.o
 .debug_aranges
                0x0000000000000c60       0x18 ././lvgl/src/lv_misc/lv_fs.o
 .debug_aranges
                0x0000000000000c78       0x38 ././lvgl/src/lv_misc/lv_math.o
 .debug_aranges
                0x0000000000000cb0       0x28 ././lvgl/src/lv_themes/lv_theme.o
 .debug_aranges
                0x0000000000000cd8       0x18 ././lvgl/src/lv_themes/lv_theme_mono.o
 .debug_aranges
                0x0000000000000cf0       0x38 ././lvgl/src/lv_themes/lv_theme_material.o
 .debug_aranges
                0x0000000000000d28       0x18 ././lvgl/src/lv_themes/lv_theme_default.o
 .debug_aranges
                0x0000000000000d40       0x18 ././lvgl/src/lv_themes/lv_theme_alien.o
 .debug_aranges
                0x0000000000000d58       0x18 ././lvgl/src/lv_themes/lv_theme_night.o
 .debug_aranges
                0x0000000000000d70       0x18 ././lvgl/src/lv_themes/lv_theme_zen.o
 .debug_aranges
                0x0000000000000d88       0x18 ././lvgl/src/lv_themes/lv_theme_templ.o
 .debug_aranges
                0x0000000000000da0       0x18 ././lvgl/src/lv_themes/lv_theme_nemo.o
 .debug_aranges
                0x0000000000000db8       0x58 ././lvgl/src/lv_core/lv_disp.o
 .debug_aranges
                0x0000000000000e10       0x50 ././lvgl/src/lv_core/lv_debug.o
 .debug_aranges
                0x0000000000000e60       0xd0 ././lvgl/src/lv_core/lv_indev.o
 .debug_aranges
                0x0000000000000f30       0x70 ././lvgl/src/lv_core/lv_refr.o
 .debug_aranges
                0x0000000000000fa0      0x318 ././lvgl/src/lv_core/lv_obj.o
 .debug_aranges
                0x00000000000012b8       0x30 ././lvgl/src/lv_core/lv_style.o
 .debug_aranges
                0x00000000000012e8      0x118 ././lvgl/src/lv_core/lv_group.o
 .debug_aranges
                0x0000000000001400       0x80 ././lvgl/src/lv_objx/lv_spinbox.o
 .debug_aranges
                0x0000000000001480       0x90 ././lvgl/src/lv_objx/lv_roller.o
 .debug_aranges
                0x0000000000001510       0x58 ././lvgl/src/lv_objx/lv_led.o
 .debug_aranges
                0x0000000000001568       0x78 ././lvgl/src/lv_objx/lv_img.o
 .debug_aranges
                0x00000000000015e0       0x58 ././lvgl/src/lv_objx/lv_imgbtn.o
 .debug_aranges
                0x0000000000001638       0x80 ././lvgl/src/lv_objx/lv_lmeter.o
 .debug_aranges
                0x00000000000016b8       0x18 ././lvgl/src/lv_objx/lv_kb.o
 .debug_aranges
                0x00000000000016d0       0x58 ././lvgl/src/lv_objx/lv_arc.o
 .debug_aranges
                0x0000000000001728       0x88 ././lvgl/src/lv_objx/lv_bar.o
 .debug_aranges
                0x00000000000017b0       0xe0 ././lvgl/src/lv_objx/lv_tabview.o
 .debug_aranges
                0x0000000000001890       0x18 ././lvgl/src/lv_objx/lv_chart.o
 .debug_aranges
                0x00000000000018a8       0xb0 ././lvgl/src/lv_objx/lv_mbox.o
 .debug_aranges
                0x0000000000001958       0x18 ././lvgl/src/lv_objx/lv_calendar.o
 .debug_aranges
                0x0000000000001970       0x60 ././lvgl/src/lv_objx/lv_slider.o
 .debug_aranges
                0x00000000000019d0       0x60 ././lvgl/src/lv_objx/lv_gauge.o
 .debug_aranges
                0x0000000000001a30       0xd8 ././lvgl/src/lv_objx/lv_win.o
 .debug_aranges
                0x0000000000001b08      0x100 ././lvgl/src/lv_objx/lv_cpicker.o
 .debug_aranges
                0x0000000000001c08       0x58 ././lvgl/src/lv_objx/lv_line.o
 .debug_aranges
                0x0000000000001c60       0x70 ././lvgl/src/lv_objx/lv_cont.o
 .debug_aranges
                0x0000000000001cd0       0x60 ././lvgl/src/lv_objx/lv_tileview.o
 .debug_aranges
                0x0000000000001d30       0xa8 ././lvgl/src/lv_objx/lv_canvas.o
 .debug_aranges
                0x0000000000001dd8       0x18 ././lvgl/src/lv_objx/lv_objx_templ.o
 .debug_aranges
                0x0000000000001df0      0x108 ././lvgl/src/lv_objx/lv_label.o
 .debug_aranges
                0x0000000000001ef8       0xe8 ././lvgl/src/lv_objx/lv_ddlist.o
 .debug_aranges
                0x0000000000001fe0       0xe0 ././lvgl/src/lv_objx/lv_list.o
 .debug_aranges
                0x00000000000020c0       0x18 ././lvgl/src/lv_objx/lv_preload.o
 .debug_aranges
                0x00000000000020d8       0x78 ././lvgl/src/lv_objx/lv_btn.o
 .debug_aranges
                0x0000000000002150       0xe8 ././lvgl/src/lv_objx/lv_btnm.o
 .debug_aranges
                0x0000000000002238      0x198 ././lvgl/src/lv_objx/lv_ta.o
 .debug_aranges
                0x00000000000023d0       0xf0 ././lvgl/src/lv_objx/lv_page.o
 .debug_aranges
                0x00000000000024c0       0xd0 ././lvgl/src/lv_objx/lv_table.o
 .debug_aranges
                0x0000000000002590       0x60 ././lvgl/src/lv_objx/lv_cb.o
 .debug_aranges
                0x00000000000025f0       0x60 ././lvgl/src/lv_objx/lv_sw.o
 .debug_aranges
                0x0000000000002650       0x80 ././lvgl/src/lv_draw/lv_draw_img.o
 .debug_aranges
                0x00000000000026d0       0x38 ././lvgl/src/lv_draw/lv_draw_arc.o
 .debug_aranges
                0x0000000000002708       0x40 ././lvgl/src/lv_draw/lv_draw.o
 .debug_aranges
                0x0000000000002748       0x38 ././lvgl/src/lv_draw/lv_draw_triangle.o
 .debug_aranges
                0x0000000000002780       0x30 ././lvgl/src/lv_draw/lv_img_cache.o
 .debug_aranges
                0x00000000000027b0       0x90 ././lvgl/src/lv_draw/lv_img_decoder.o
 .debug_aranges
                0x0000000000002840       0x38 ././lvgl/src/lv_draw/lv_draw_basic.o
 .debug_aranges
                0x0000000000002878       0x30 ././lvgl/src/lv_draw/lv_draw_line.o
 .debug_aranges
                0x00000000000028a8       0x28 ././lvgl/src/lv_draw/lv_draw_label.o
 .debug_aranges
                0x00000000000028d0       0x30 ././lvgl/src/lv_draw/lv_draw_rect.o
 .debug_aranges
                0x0000000000002900       0x18 ././lvgl/porting/lv_port_disp_template.o
 .debug_aranges
                0x0000000000002918       0x18 ././lvgl/porting/lv_port_indev_template.o
 .debug_aranges
                0x0000000000002930       0x18 ././lvgl/porting/lv_port_fs_template.o
 .debug_aranges
                0x0000000000002948       0x28 ././ui/ui_msgbox.o
 .debug_aranges
                0x0000000000002970       0x30 ././ui/ui_lhandlers.o
 .debug_aranges
                0x00000000000029a0       0x30 ././ui/qrcode_ui.o
 .debug_aranges
                0x00000000000029d0       0x38 ././ui/ui_header.o
 .debug_aranges
                0x0000000000002a08       0x58 ././ui/ui_win_startup_1.o
 .debug_aranges
                0x0000000000002a60       0x18 ././ui/mew_font_ru_bold.o
 .debug_aranges
                0x0000000000002a78       0x20 ././ui/ui_main_win.o
 .debug_aranges
                0x0000000000002a98       0x18 ././ui/mew_font_ru_bold_title.o
 .debug_aranges
                0x0000000000002ab0       0x18 ././ui/mew_logo.o
 .debug_aranges
                0x0000000000002ac8       0xf0 /home/user/Devel/stm32/libopencm3/lib/libopencm3_stm32f4.a(rcc.o)
 .debug_aranges
                0x0000000000002bb8       0x30 /home/user/Devel/stm32/libopencm3/lib/libopencm3_stm32f4.a(crc_common_all.o)
 .debug_aranges
                0x0000000000002be8      0x168 /home/user/Devel/stm32/libopencm3/lib/libopencm3_stm32f4.a(dma_common_f24.o)
 .debug_aranges
                0x0000000000002d50       0x50 /home/user/Devel/stm32/libopencm3/lib/libopencm3_stm32f4.a(gpio_common_all.o)
 .debug_aranges
                0x0000000000002da0       0x30 /home/user/Devel/stm32/libopencm3/lib/libopencm3_stm32f4.a(gpio_common_f0234.o)
 .debug_aranges
                0x0000000000002dd0      0x110 /home/user/Devel/stm32/libopencm3/lib/libopencm3_stm32f4.a(i2c_common_v1.o)
 .debug_aranges
                0x0000000000002ee0      0x178 /home/user/Devel/stm32/libopencm3/lib/libopencm3_stm32f4.a(spi_common_all.o)
 .debug_aranges
                0x0000000000003058       0x30 /home/user/Devel/stm32/libopencm3/lib/libopencm3_stm32f4.a(spi_common_l1f124.o)
 .debug_aranges
                0x0000000000003088       0xb8 /home/user/Devel/stm32/libopencm3/lib/libopencm3_stm32f4.a(usart_common_all.o)
 .debug_aranges
                0x0000000000003140       0x40 /home/user/Devel/stm32/libopencm3/lib/libopencm3_stm32f4.a(usart_common_f124.o)
 .debug_aranges
                0x0000000000003180       0x50 /home/user/Devel/stm32/libopencm3/lib/libopencm3_stm32f4.a(flash_common_f234.o)
 .debug_aranges
                0x00000000000031d0       0xd0 /home/user/Devel/stm32/libopencm3/lib/libopencm3_stm32f4.a(flash_common_f24.o)
 .debug_aranges
                0x00000000000032a0       0x48 /home/user/Devel/stm32/libopencm3/lib/libopencm3_stm32f4.a(exti_common_all.o)
 .debug_aranges
                0x00000000000032e8       0x58 /home/user/Devel/stm32/libopencm3/lib/libopencm3_stm32f4.a(rcc_common_all.o)
 .debug_aranges
                0x0000000000003340       0x88 /home/user/Devel/stm32/libopencm3/lib/libopencm3_stm32f4.a(usb.o)
 .debug_aranges
                0x00000000000033c8       0x98 /home/user/Devel/stm32/libopencm3/lib/libopencm3_stm32f4.a(usb_standard.o)
 .debug_aranges
                0x0000000000003460       0x60 /home/user/Devel/stm32/libopencm3/lib/libopencm3_stm32f4.a(usb_control.o)
 .debug_aranges
                0x00000000000034c0       0x20 /home/user/Devel/stm32/libopencm3/lib/libopencm3_stm32f4.a(usb_f107.o)
 .debug_aranges
                0x00000000000034e0       0x30 /home/user/Devel/stm32/libopencm3/lib/libopencm3_stm32f4.a(vector.o)
 .debug_aranges
                0x0000000000003510       0x78 /home/user/Devel/stm32/libopencm3/lib/libopencm3_stm32f4.a(systick.o)
 .debug_aranges
                0x0000000000003588       0x60 /home/user/Devel/stm32/libopencm3/lib/libopencm3_stm32f4.a(nvic.o)
 .debug_aranges
                0x00000000000035e8       0x20 /home/user/Devel/stm32/libopencm3/lib/libopencm3_stm32f4.a(pwr.o)
 .debug_aranges
                0x0000000000003608       0x68 /home/user/Devel/stm32/libopencm3/lib/libopencm3_stm32f4.a(usb_fx07_common.o)

.debug_ranges   0x0000000000000000     0xa598
 .debug_ranges  0x0000000000000000       0x98 ././drivers/bluetooth/bt_usart.o
 .debug_ranges  0x0000000000000098       0x40 ././drivers/usb/mew_usb_hid.o
 .debug_ranges  0x00000000000000d8      0x170 ././drivers/display/display.o
 .debug_ranges  0x0000000000000248       0x40 ././drivers/display/ts_tsc2007.o
 .debug_ranges  0x0000000000000288       0x20 ././drivers/flash/otp_storage.o
 .debug_ranges  0x00000000000002a8       0x58 ././drivers/i2c/i2c.o
 .debug_ranges  0x0000000000000300       0x20 ././drivers/spi_flash/w25n01gvzeig.o
 .debug_ranges  0x0000000000000320       0x78 ././drivers/spi_flash/flash.o
 .debug_ranges  0x0000000000000398       0x10 ././drivers/system/clock.o
 .debug_ranges  0x00000000000003a8       0x28 ././drivers/system/systick.o
 .debug_ranges  0x00000000000003d0       0x18 ././drivers/system/system.o
 .debug_ranges  0x00000000000003e8       0x58 ././drivers/system/random.o
 .debug_ranges  0x0000000000000440       0x78 ././drivers/duart/duart.o
 .debug_ranges  0x00000000000004b8       0x20 ././drivers/hw_crypt/aes256.o
 .debug_ranges  0x00000000000004d8       0x18 ././drivers/hw_crypt/secure_eeprom.o
 .debug_ranges  0x00000000000004f0       0x38 ././drivers/hw_crypt/P256-cortex-ecdh.o
 .debug_ranges  0x0000000000000528       0x18 ././drivers/hw_crypt/sha2_256.o
 .debug_ranges  0x0000000000000540       0x38 ././app/pwd_generator/mew_xor_algo.o
 .debug_ranges  0x0000000000000578       0x38 ././app/pwd_generator/mew_passgen.o
 .debug_ranges  0x00000000000005b0       0xa0 ././app/packet_parser/parser.o
 .debug_ranges  0x0000000000000650      0x878 ././app/qr_code/qrcodegen.o
 .debug_ranges  0x0000000000000ec8       0x60 ././debug.o
 .debug_ranges  0x0000000000000f28       0x10 ././mew.o
 .debug_ranges  0x0000000000000f38      0x108 ././lvgl/src/lv_hal/lv_hal_disp.o
 .debug_ranges  0x0000000000001040       0x38 ././lvgl/src/lv_hal/lv_hal_tick.o
 .debug_ranges  0x0000000000001078       0x30 ././lvgl/src/lv_hal/lv_hal_indev.o
 .debug_ranges  0x00000000000010a8      0x2f0 ././lvgl/src/lv_font/lv_font_fmt_txt.o
 .debug_ranges  0x0000000000001398       0x20 ././lvgl/src/lv_font/lv_font.o
 .debug_ranges  0x00000000000013b8       0x10 ././lvgl/src/lv_misc/lv_gc.o
 .debug_ranges  0x00000000000013c8      0x1f8 ././lvgl/src/lv_misc/lv_printf.o
 .debug_ranges  0x00000000000015c0      0x200 ././lvgl/src/lv_misc/lv_mem.o
 .debug_ranges  0x00000000000017c0      0x218 ././lvgl/src/lv_misc/lv_txt.o
 .debug_ranges  0x00000000000019d8       0xd8 ././lvgl/src/lv_misc/lv_area.o
 .debug_ranges  0x0000000000001ab0       0x30 ././lvgl/src/lv_misc/lv_utils.o
 .debug_ranges  0x0000000000001ae0      0x338 ././lvgl/src/lv_misc/lv_ll.o
 .debug_ranges  0x0000000000001e18       0x80 ././lvgl/src/lv_misc/lv_color.o
 .debug_ranges  0x0000000000001e98       0x20 ././lvgl/src/lv_misc/lv_circ.o
 .debug_ranges  0x0000000000001eb8       0x90 ././lvgl/src/lv_misc/lv_task.o
 .debug_ranges  0x0000000000001f48       0x18 ././lvgl/src/lv_misc/lv_async.o
 .debug_ranges  0x0000000000001f60       0x28 ././lvgl/src/lv_misc/lv_math.o
 .debug_ranges  0x0000000000001f88       0x18 ././lvgl/src/lv_themes/lv_theme.o
 .debug_ranges  0x0000000000001fa0      0x8e8 ././lvgl/src/lv_themes/lv_theme_material.o
 .debug_ranges  0x0000000000002888       0x48 ././lvgl/src/lv_core/lv_disp.o
 .debug_ranges  0x00000000000028d0       0xa8 ././lvgl/src/lv_core/lv_debug.o
 .debug_ranges  0x0000000000002978      0x568 ././lvgl/src/lv_core/lv_indev.o
 .debug_ranges  0x0000000000002ee0      0x200 ././lvgl/src/lv_core/lv_refr.o
 .debug_ranges  0x00000000000030e0      0x4f8 ././lvgl/src/lv_core/lv_obj.o
 .debug_ranges  0x00000000000035d8      0x338 ././lvgl/src/lv_core/lv_style.o
 .debug_ranges  0x0000000000003910      0x608 ././lvgl/src/lv_core/lv_group.o
 .debug_ranges  0x0000000000003f18      0x1b0 ././lvgl/src/lv_objx/lv_spinbox.o
 .debug_ranges  0x00000000000040c8      0x290 ././lvgl/src/lv_objx/lv_roller.o
 .debug_ranges  0x0000000000004358      0x188 ././lvgl/src/lv_objx/lv_led.o
 .debug_ranges  0x00000000000044e0       0xf0 ././lvgl/src/lv_objx/lv_img.o
 .debug_ranges  0x00000000000045d0       0xd8 ././lvgl/src/lv_objx/lv_imgbtn.o
 .debug_ranges  0x00000000000046a8      0x188 ././lvgl/src/lv_objx/lv_lmeter.o
 .debug_ranges  0x0000000000004830       0xa8 ././lvgl/src/lv_objx/lv_arc.o
 .debug_ranges  0x00000000000048d8      0x188 ././lvgl/src/lv_objx/lv_bar.o
 .debug_ranges  0x0000000000004a60      0x298 ././lvgl/src/lv_objx/lv_tabview.o
 .debug_ranges  0x0000000000004cf8      0x168 ././lvgl/src/lv_objx/lv_mbox.o
 .debug_ranges  0x0000000000004e60      0x350 ././lvgl/src/lv_objx/lv_slider.o
 .debug_ranges  0x00000000000051b0      0x188 ././lvgl/src/lv_objx/lv_gauge.o
 .debug_ranges  0x0000000000005338      0x230 ././lvgl/src/lv_objx/lv_win.o
 .debug_ranges  0x0000000000005568      0x430 ././lvgl/src/lv_objx/lv_cpicker.o
 .debug_ranges  0x0000000000005998      0x100 ././lvgl/src/lv_objx/lv_line.o
 .debug_ranges  0x0000000000005a98      0x1b8 ././lvgl/src/lv_objx/lv_cont.o
 .debug_ranges  0x0000000000005c50       0xf8 ././lvgl/src/lv_objx/lv_tileview.o
 .debug_ranges  0x0000000000005d48      0x1f8 ././lvgl/src/lv_objx/lv_canvas.o
 .debug_ranges  0x0000000000005f40      0x338 ././lvgl/src/lv_objx/lv_label.o
 .debug_ranges  0x0000000000006278      0x338 ././lvgl/src/lv_objx/lv_ddlist.o
 .debug_ranges  0x00000000000065b0      0x5d8 ././lvgl/src/lv_objx/lv_list.o
 .debug_ranges  0x0000000000006b88      0x110 ././lvgl/src/lv_objx/lv_btn.o
 .debug_ranges  0x0000000000006c98      0x638 ././lvgl/src/lv_objx/lv_btnm.o
 .debug_ranges  0x00000000000072d0      0x640 ././lvgl/src/lv_objx/lv_ta.o
 .debug_ranges  0x0000000000007910      0x3f8 ././lvgl/src/lv_objx/lv_page.o
 .debug_ranges  0x0000000000007d08      0x270 ././lvgl/src/lv_objx/lv_table.o
 .debug_ranges  0x0000000000007f78      0x1b0 ././lvgl/src/lv_objx/lv_cb.o
 .debug_ranges  0x0000000000008128      0x170 ././lvgl/src/lv_objx/lv_sw.o
 .debug_ranges  0x0000000000008298      0x258 ././lvgl/src/lv_draw/lv_draw_img.o
 .debug_ranges  0x00000000000084f0       0xb8 ././lvgl/src/lv_draw/lv_draw_arc.o
 .debug_ranges  0x00000000000085a8       0x30 ././lvgl/src/lv_draw/lv_draw.o
 .debug_ranges  0x00000000000085d8       0x80 ././lvgl/src/lv_draw/lv_draw_triangle.o
 .debug_ranges  0x0000000000008658       0x58 ././lvgl/src/lv_draw/lv_img_cache.o
 .debug_ranges  0x00000000000086b0       0xf8 ././lvgl/src/lv_draw/lv_img_decoder.o
 .debug_ranges  0x00000000000087a8      0x358 ././lvgl/src/lv_draw/lv_draw_basic.o
 .debug_ranges  0x0000000000008b00      0x180 ././lvgl/src/lv_draw/lv_draw_line.o
 .debug_ranges  0x0000000000008c80      0x180 ././lvgl/src/lv_draw/lv_draw_label.o
 .debug_ranges  0x0000000000008e00      0xa80 ././lvgl/src/lv_draw/lv_draw_rect.o
 .debug_ranges  0x0000000000009880       0x68 ././ui/ui_msgbox.o
 .debug_ranges  0x00000000000098e8       0x20 ././ui/ui_lhandlers.o
 .debug_ranges  0x0000000000009908       0x20 ././ui/qrcode_ui.o
 .debug_ranges  0x0000000000009928       0x48 ././ui/ui_header.o
 .debug_ranges  0x0000000000009970      0x138 ././ui/ui_win_startup_1.o
 .debug_ranges  0x0000000000009aa8       0x10 ././ui/ui_main_win.o
 .debug_ranges  0x0000000000009ab8       0xe0 /home/user/Devel/stm32/libopencm3/lib/libopencm3_stm32f4.a(rcc.o)
 .debug_ranges  0x0000000000009b98       0x20 /home/user/Devel/stm32/libopencm3/lib/libopencm3_stm32f4.a(crc_common_all.o)
 .debug_ranges  0x0000000000009bb8      0x158 /home/user/Devel/stm32/libopencm3/lib/libopencm3_stm32f4.a(dma_common_f24.o)
 .debug_ranges  0x0000000000009d10       0x40 /home/user/Devel/stm32/libopencm3/lib/libopencm3_stm32f4.a(gpio_common_all.o)
 .debug_ranges  0x0000000000009d50       0x20 /home/user/Devel/stm32/libopencm3/lib/libopencm3_stm32f4.a(gpio_common_f0234.o)
 .debug_ranges  0x0000000000009d70      0x120 /home/user/Devel/stm32/libopencm3/lib/libopencm3_stm32f4.a(i2c_common_v1.o)
 .debug_ranges  0x0000000000009e90      0x168 /home/user/Devel/stm32/libopencm3/lib/libopencm3_stm32f4.a(spi_common_all.o)
 .debug_ranges  0x0000000000009ff8       0x20 /home/user/Devel/stm32/libopencm3/lib/libopencm3_stm32f4.a(spi_common_l1f124.o)
 .debug_ranges  0x000000000000a018       0xa8 /home/user/Devel/stm32/libopencm3/lib/libopencm3_stm32f4.a(usart_common_all.o)
 .debug_ranges  0x000000000000a0c0       0x30 /home/user/Devel/stm32/libopencm3/lib/libopencm3_stm32f4.a(usart_common_f124.o)
 .debug_ranges  0x000000000000a0f0       0x40 /home/user/Devel/stm32/libopencm3/lib/libopencm3_stm32f4.a(flash_common_f234.o)
 .debug_ranges  0x000000000000a130       0xc0 /home/user/Devel/stm32/libopencm3/lib/libopencm3_stm32f4.a(flash_common_f24.o)
 .debug_ranges  0x000000000000a1f0       0x50 /home/user/Devel/stm32/libopencm3/lib/libopencm3_stm32f4.a(exti_common_all.o)
 .debug_ranges  0x000000000000a240       0x48 /home/user/Devel/stm32/libopencm3/lib/libopencm3_stm32f4.a(rcc_common_all.o)
 .debug_ranges  0x000000000000a288       0x78 /home/user/Devel/stm32/libopencm3/lib/libopencm3_stm32f4.a(usb.o)
 .debug_ranges  0x000000000000a300       0xe0 /home/user/Devel/stm32/libopencm3/lib/libopencm3_stm32f4.a(usb_standard.o)
 .debug_ranges  0x000000000000a3e0       0x68 /home/user/Devel/stm32/libopencm3/lib/libopencm3_stm32f4.a(usb_control.o)
 .debug_ranges  0x000000000000a448       0x10 /home/user/Devel/stm32/libopencm3/lib/libopencm3_stm32f4.a(usb_f107.o)
 .debug_ranges  0x000000000000a458       0x20 /home/user/Devel/stm32/libopencm3/lib/libopencm3_stm32f4.a(vector.o)
 .debug_ranges  0x000000000000a478       0x68 /home/user/Devel/stm32/libopencm3/lib/libopencm3_stm32f4.a(systick.o)
 .debug_ranges  0x000000000000a4e0       0x50 /home/user/Devel/stm32/libopencm3/lib/libopencm3_stm32f4.a(nvic.o)
 .debug_ranges  0x000000000000a530       0x10 /home/user/Devel/stm32/libopencm3/lib/libopencm3_stm32f4.a(pwr.o)
 .debug_ranges  0x000000000000a540       0x58 /home/user/Devel/stm32/libopencm3/lib/libopencm3_stm32f4.a(usb_fx07_common.o)

.debug_line     0x0000000000000000    0x5276d
 .debug_line    0x0000000000000000      0x6e1 ././drivers/bluetooth/bt_usart.o
 .debug_line    0x00000000000006e1      0x4fc ././drivers/usb/mew_usb_hid.o
 .debug_line    0x0000000000000bdd      0xa3d ././drivers/display/display.o
 .debug_line    0x000000000000161a      0x5f3 ././drivers/display/ts_tsc2007.o
 .debug_line    0x0000000000001c0d      0x590 ././drivers/flash/otp_storage.o
 .debug_line    0x000000000000219d      0x869 ././drivers/i2c/i2c.o
 .debug_line    0x0000000000002a06      0x26d ././drivers/spi_flash/w25n01gvzeig.o
 .debug_line    0x0000000000002c73      0x6b9 ././drivers/spi_flash/flash.o
 .debug_line    0x000000000000332c      0x2b5 ././drivers/system/clock.o
 .debug_line    0x00000000000035e1      0x412 ././drivers/system/systick.o
 .debug_line    0x00000000000039f3      0x296 ././drivers/system/system.o
 .debug_line    0x0000000000003c89      0x37f ././drivers/system/random.o
 .debug_line    0x0000000000004008      0x323 ././drivers/duart/duart.o
 .debug_line    0x000000000000432b      0x55d ././drivers/hw_crypt/aes256.o
 .debug_line    0x0000000000004888      0x381 ././drivers/hw_crypt/secure_eeprom.o
 .debug_line    0x0000000000004c09      0x45b ././drivers/hw_crypt/P256-cortex-ecdh.o
 .debug_line    0x0000000000005064      0x3ca ././drivers/hw_crypt/sha2_256.o
 .debug_line    0x000000000000542e      0x457 ././app/pwd_generator/mew_xor_algo.o
 .debug_line    0x0000000000005885      0x353 ././app/pwd_generator/mew_passgen.o
 .debug_line    0x0000000000005bd8      0x6d5 ././app/packet_parser/parser.o
 .debug_line    0x00000000000062ad     0x1de4 ././app/qr_code/qrcodegen.o
 .debug_line    0x0000000000008091      0x27f ././debug.o
 .debug_line    0x0000000000008310      0x438 ././mew.o
 .debug_line    0x0000000000008748      0x84a ././lvgl/src/lv_hal/lv_hal_disp.o
 .debug_line    0x0000000000008f92      0x1d8 ././lvgl/src/lv_hal/lv_hal_tick.o
 .debug_line    0x000000000000916a      0x594 ././lvgl/src/lv_hal/lv_hal_indev.o
 .debug_line    0x00000000000096fe      0x326 ././lvgl/src/lv_font/lv_font_roboto_12.o
 .debug_line    0x0000000000009a24      0xcf1 ././lvgl/src/lv_font/lv_font_fmt_txt.o
 .debug_line    0x000000000000a715      0x196 ././lvgl/src/lv_font/lv_font.o
 .debug_line    0x000000000000a8ab      0x331 ././lvgl/src/lv_font/lv_font_roboto_28_compressed.o
 .debug_line    0x000000000000abdc      0x32c ././lvgl/src/lv_font/lv_font_roboto_12_subpx.o
 .debug_line    0x000000000000af08      0x297 ././lvgl/src/lv_font/lv_font_roboto_22.o
 .debug_line    0x000000000000b19f      0x297 ././lvgl/src/lv_font/lv_font_roboto_16.o
 .debug_line    0x000000000000b436      0x297 ././lvgl/src/lv_font/lv_font_roboto_28.o
 .debug_line    0x000000000000b6cd      0x297 ././lvgl/src/lv_font/lv_font_unscii_8.o
 .debug_line    0x000000000000b964      0x2fa ././lvgl/src/lv_misc/lv_gc.o
 .debug_line    0x000000000000bc5e     0x113a ././lvgl/src/lv_misc/lv_printf.o
 .debug_line    0x000000000000cd98      0x7ff ././lvgl/src/lv_misc/lv_mem.o
 .debug_line    0x000000000000d597      0xdd0 ././lvgl/src/lv_misc/lv_txt.o
 .debug_line    0x000000000000e367      0x4c1 ././lvgl/src/lv_misc/lv_area.o
 .debug_line    0x000000000000e828       0x1d ././lvgl/src/lv_misc/lv_templ.o
 .debug_line    0x000000000000e845       0xfa ././lvgl/src/lv_misc/lv_anim.o
 .debug_line    0x000000000000e93f      0x221 ././lvgl/src/lv_misc/lv_utils.o
 .debug_line    0x000000000000eb60      0x254 ././lvgl/src/lv_misc/lv_bidi.o
 .debug_line    0x000000000000edb4      0xb09 ././lvgl/src/lv_misc/lv_ll.o
 .debug_line    0x000000000000f8bd      0x3ed ././lvgl/src/lv_misc/lv_color.o
 .debug_line    0x000000000000fcaa      0x25b ././lvgl/src/lv_misc/lv_circ.o
 .debug_line    0x000000000000ff05      0x924 ././lvgl/src/lv_misc/lv_task.o
 .debug_line    0x0000000000010829       0x1d ././lvgl/src/lv_misc/lv_log.o
 .debug_line    0x0000000000010846      0x1d3 ././lvgl/src/lv_misc/lv_async.o
 .debug_line    0x0000000000010a19       0x1d ././lvgl/src/lv_misc/lv_fs.o
 .debug_line    0x0000000000010a36      0x4cb ././lvgl/src/lv_misc/lv_math.o
 .debug_line    0x0000000000010f01      0x2f9 ././lvgl/src/lv_themes/lv_theme.o
 .debug_line    0x00000000000111fa      0x234 ././lvgl/src/lv_themes/lv_theme_mono.o
 .debug_line    0x000000000001142e     0x19cd ././lvgl/src/lv_themes/lv_theme_material.o
 .debug_line    0x0000000000012dfb      0x234 ././lvgl/src/lv_themes/lv_theme_default.o
 .debug_line    0x000000000001302f      0x234 ././lvgl/src/lv_themes/lv_theme_alien.o
 .debug_line    0x0000000000013263      0x234 ././lvgl/src/lv_themes/lv_theme_night.o
 .debug_line    0x0000000000013497      0x234 ././lvgl/src/lv_themes/lv_theme_zen.o
 .debug_line    0x00000000000136cb      0x234 ././lvgl/src/lv_themes/lv_theme_templ.o
 .debug_line    0x00000000000138ff      0x234 ././lvgl/src/lv_themes/lv_theme_nemo.o
 .debug_line    0x0000000000013b33      0x56e ././lvgl/src/lv_core/lv_disp.o
 .debug_line    0x00000000000140a1      0x556 ././lvgl/src/lv_core/lv_debug.o
 .debug_line    0x00000000000145f7     0x1caa ././lvgl/src/lv_core/lv_indev.o
 .debug_line    0x00000000000162a1      0xda5 ././lvgl/src/lv_core/lv_refr.o
 .debug_line    0x0000000000017046     0x3bd8 ././lvgl/src/lv_core/lv_obj.o
 .debug_line    0x000000000001ac1e     0x1111 ././lvgl/src/lv_core/lv_style.o
 .debug_line    0x000000000001bd2f     0x1346 ././lvgl/src/lv_core/lv_group.o
 .debug_line    0x000000000001d075      0xfc3 ././lvgl/src/lv_objx/lv_spinbox.o
 .debug_line    0x000000000001e038     0x1570 ././lvgl/src/lv_objx/lv_roller.o
 .debug_line    0x000000000001f5a8      0x92e ././lvgl/src/lv_objx/lv_led.o
 .debug_line    0x000000000001fed6      0xd93 ././lvgl/src/lv_objx/lv_img.o
 .debug_line    0x0000000000020c69      0x8ef ././lvgl/src/lv_objx/lv_imgbtn.o
 .debug_line    0x0000000000021558      0xe67 ././lvgl/src/lv_objx/lv_lmeter.o
 .debug_line    0x00000000000223bf       0x1d ././lvgl/src/lv_objx/lv_kb.o
 .debug_line    0x00000000000223dc      0x911 ././lvgl/src/lv_objx/lv_arc.o
 .debug_line    0x0000000000022ced      0xdd1 ././lvgl/src/lv_objx/lv_bar.o
 .debug_line    0x0000000000023abe     0x1d2f ././lvgl/src/lv_objx/lv_tabview.o
 .debug_line    0x00000000000257ed       0x1d ././lvgl/src/lv_objx/lv_chart.o
 .debug_line    0x000000000002580a      0xff0 ././lvgl/src/lv_objx/lv_mbox.o
 .debug_line    0x00000000000267fa       0x1d ././lvgl/src/lv_objx/lv_calendar.o
 .debug_line    0x0000000000026817     0x12c0 ././lvgl/src/lv_objx/lv_slider.o
 .debug_line    0x0000000000027ad7      0xea5 ././lvgl/src/lv_objx/lv_gauge.o
 .debug_line    0x000000000002897c     0x144c ././lvgl/src/lv_objx/lv_win.o
 .debug_line    0x0000000000029dc8     0x1d05 ././lvgl/src/lv_objx/lv_cpicker.o
 .debug_line    0x000000000002bacd      0x949 ././lvgl/src/lv_objx/lv_line.o
 .debug_line    0x000000000002c416     0x135e ././lvgl/src/lv_objx/lv_cont.o
 .debug_line    0x000000000002d774      0xe95 ././lvgl/src/lv_objx/lv_tileview.o
 .debug_line    0x000000000002e609     0x20f9 ././lvgl/src/lv_objx/lv_canvas.o
 .debug_line    0x0000000000030702      0x237 ././lvgl/src/lv_objx/lv_objx_templ.o
 .debug_line    0x0000000000030939     0x21f5 ././lvgl/src/lv_objx/lv_label.o
 .debug_line    0x0000000000032b2e     0x1ca5 ././lvgl/src/lv_objx/lv_ddlist.o
 .debug_line    0x00000000000347d3     0x1c9a ././lvgl/src/lv_objx/lv_list.o
 .debug_line    0x000000000003646d       0x1d ././lvgl/src/lv_objx/lv_preload.o
 .debug_line    0x000000000003648a      0xc62 ././lvgl/src/lv_objx/lv_btn.o
 .debug_line    0x00000000000370ec     0x1f70 ././lvgl/src/lv_objx/lv_btnm.o
 .debug_line    0x000000000003905c     0x2f21 ././lvgl/src/lv_objx/lv_ta.o
 .debug_line    0x000000000003bf7d     0x1f3d ././lvgl/src/lv_objx/lv_page.o
 .debug_line    0x000000000003deba     0x19a5 ././lvgl/src/lv_objx/lv_table.o
 .debug_line    0x000000000003f85f      0xa68 ././lvgl/src/lv_objx/lv_cb.o
 .debug_line    0x00000000000402c7      0xcf2 ././lvgl/src/lv_objx/lv_sw.o
 .debug_line    0x0000000000040fb9      0xe17 ././lvgl/src/lv_draw/lv_draw_img.o
 .debug_line    0x0000000000041dd0      0x7e2 ././lvgl/src/lv_draw/lv_draw_arc.o
 .debug_line    0x00000000000425b2      0x559 ././lvgl/src/lv_draw/lv_draw.o
 .debug_line    0x0000000000042b0b      0xb71 ././lvgl/src/lv_draw/lv_draw_triangle.o
 .debug_line    0x000000000004367c      0x647 ././lvgl/src/lv_draw/lv_img_cache.o
 .debug_line    0x0000000000043cc3      0x920 ././lvgl/src/lv_draw/lv_img_decoder.o
 .debug_line    0x00000000000445e3     0x1457 ././lvgl/src/lv_draw/lv_draw_basic.o
 .debug_line    0x0000000000045a3a     0x107b ././lvgl/src/lv_draw/lv_draw_line.o
 .debug_line    0x0000000000046ab5      0x9b5 ././lvgl/src/lv_draw/lv_draw_label.o
 .debug_line    0x000000000004746a     0x295a ././lvgl/src/lv_draw/lv_draw_rect.o
 .debug_line    0x0000000000049dc4       0x1d ././lvgl/porting/lv_port_disp_template.o
 .debug_line    0x0000000000049de1       0x1d ././lvgl/porting/lv_port_indev_template.o
 .debug_line    0x0000000000049dfe       0x1d ././lvgl/porting/lv_port_fs_template.o
 .debug_line    0x0000000000049e1b      0x4b8 ././ui/ui_msgbox.o
 .debug_line    0x000000000004a2d3      0x415 ././ui/ui_lhandlers.o
 .debug_line    0x000000000004a6e8      0x469 ././ui/qrcode_ui.o
 .debug_line    0x000000000004ab51      0x605 ././ui/ui_header.o
 .debug_line    0x000000000004b156      0x9d4 ././ui/ui_win_startup_1.o
 .debug_line    0x000000000004bb2a      0x2a7 ././ui/mew_font_ru_bold.o
 .debug_line    0x000000000004bdd1      0x2b6 ././ui/ui_main_win.o
 .debug_line    0x000000000004c087      0x2ad ././ui/mew_font_ru_bold_title.o
 .debug_line    0x000000000004c334      0x293 ././ui/mew_logo.o
 .debug_line    0x000000000004c5c7      0x5ab /home/user/Devel/stm32/libopencm3/lib/libopencm3_stm32f4.a(rcc.o)
 .debug_line    0x000000000004cb72      0x32c /home/user/Devel/stm32/libopencm3/lib/libopencm3_stm32f4.a(crc_common_all.o)
 .debug_line    0x000000000004ce9e      0x601 /home/user/Devel/stm32/libopencm3/lib/libopencm3_stm32f4.a(dma_common_f24.o)
 .debug_line    0x000000000004d49f      0x395 /home/user/Devel/stm32/libopencm3/lib/libopencm3_stm32f4.a(gpio_common_all.o)
 .debug_line    0x000000000004d834      0x387 /home/user/Devel/stm32/libopencm3/lib/libopencm3_stm32f4.a(gpio_common_f0234.o)
 .debug_line    0x000000000004dbbb      0x573 /home/user/Devel/stm32/libopencm3/lib/libopencm3_stm32f4.a(i2c_common_v1.o)
 .debug_line    0x000000000004e12e      0x661 /home/user/Devel/stm32/libopencm3/lib/libopencm3_stm32f4.a(spi_common_all.o)
 .debug_line    0x000000000004e78f      0x37d /home/user/Devel/stm32/libopencm3/lib/libopencm3_stm32f4.a(spi_common_l1f124.o)
 .debug_line    0x000000000004eb0c      0x4af /home/user/Devel/stm32/libopencm3/lib/libopencm3_stm32f4.a(usart_common_all.o)
 .debug_line    0x000000000004efbb      0x3a1 /home/user/Devel/stm32/libopencm3/lib/libopencm3_stm32f4.a(usart_common_f124.o)
 .debug_line    0x000000000004f35c      0x388 /home/user/Devel/stm32/libopencm3/lib/libopencm3_stm32f4.a(flash_common_f234.o)
 .debug_line    0x000000000004f6e4      0x4d9 /home/user/Devel/stm32/libopencm3/lib/libopencm3_stm32f4.a(flash_common_f24.o)
 .debug_line    0x000000000004fbbd      0x41a /home/user/Devel/stm32/libopencm3/lib/libopencm3_stm32f4.a(exti_common_all.o)
 .debug_line    0x000000000004ffd7      0x36f /home/user/Devel/stm32/libopencm3/lib/libopencm3_stm32f4.a(rcc_common_all.o)
 .debug_line    0x0000000000050346      0x409 /home/user/Devel/stm32/libopencm3/lib/libopencm3_stm32f4.a(usb.o)
 .debug_line    0x000000000005074f      0x57d /home/user/Devel/stm32/libopencm3/lib/libopencm3_stm32f4.a(usb_standard.o)
 .debug_line    0x0000000000050ccc      0x43d /home/user/Devel/stm32/libopencm3/lib/libopencm3_stm32f4.a(usb_control.o)
 .debug_line    0x0000000000051109      0x42f /home/user/Devel/stm32/libopencm3/lib/libopencm3_stm32f4.a(usb_f107.o)
 .debug_line    0x0000000000051538      0x399 /home/user/Devel/stm32/libopencm3/lib/libopencm3_stm32f4.a(vector.o)
 .debug_line    0x00000000000518d1      0x319 /home/user/Devel/stm32/libopencm3/lib/libopencm3_stm32f4.a(systick.o)
 .debug_line    0x0000000000051bea      0x33a /home/user/Devel/stm32/libopencm3/lib/libopencm3_stm32f4.a(nvic.o)
 .debug_line    0x0000000000051f24      0x2e3 /home/user/Devel/stm32/libopencm3/lib/libopencm3_stm32f4.a(pwr.o)
 .debug_line    0x0000000000052207      0x566 /home/user/Devel/stm32/libopencm3/lib/libopencm3_stm32f4.a(usb_fx07_common.o)

.debug_str      0x0000000000000000    0x28ffe
 .debug_str     0x0000000000000000      0xa8e ././drivers/bluetooth/bt_usart.o
                                        0xc61 (size before relaxing)
 .debug_str     0x0000000000000a8e      0x55f ././drivers/usb/mew_usb_hid.o
                                        0xd72 (size before relaxing)
 .debug_str     0x0000000000000fed      0x9a3 ././drivers/display/display.o
                                       0x15d7 (size before relaxing)
 .debug_str     0x0000000000001990      0x327 ././drivers/display/ts_tsc2007.o
                                       0x1009 (size before relaxing)
 .debug_str     0x0000000000001cb7      0x1bb ././drivers/flash/otp_storage.o
                                        0xd59 (size before relaxing)
 .debug_str     0x0000000000001e72      0x19c ././drivers/i2c/i2c.o
                                        0x815 (size before relaxing)
 .debug_str     0x000000000000200e       0xe7 ././drivers/spi_flash/w25n01gvzeig.o
                                        0x6c2 (size before relaxing)
 .debug_str     0x00000000000020f5      0x268 ././drivers/spi_flash/flash.o
                                        0xce6 (size before relaxing)
 .debug_str     0x000000000000235d      0x644 ././drivers/system/clock.o
                                        0xd88 (size before relaxing)
 .debug_str     0x00000000000029a1       0xbf ././drivers/system/systick.o
                                        0xc21 (size before relaxing)
 .debug_str     0x0000000000002a60       0x43 ././drivers/system/system.o
                                        0x755 (size before relaxing)
 .debug_str     0x0000000000002aa3       0x50 ././drivers/system/random.o
                                        0x7b5 (size before relaxing)
 .debug_str     0x0000000000002af3       0x9b ././drivers/duart/duart.o
                                        0x6e1 (size before relaxing)
 .debug_str     0x0000000000002b8e       0xe8 ././drivers/hw_crypt/aes256.o
                                        0xa01 (size before relaxing)
 .debug_str     0x0000000000002c76       0xe0 ././drivers/hw_crypt/secure_eeprom.o
                                        0x922 (size before relaxing)
 .debug_str     0x0000000000002d56      0x17c ././drivers/hw_crypt/P256-cortex-ecdh.o
                                        0x8dd (size before relaxing)
 .debug_str     0x0000000000002ed2       0x4e ././drivers/hw_crypt/sha2_256.o
                                        0x636 (size before relaxing)
 .debug_str     0x0000000000002f20       0x64 ././app/pwd_generator/mew_xor_algo.o
                                        0x7ac (size before relaxing)
 .debug_str     0x0000000000002f84       0xa4 ././app/pwd_generator/mew_passgen.o
                                        0x6ea (size before relaxing)
 .debug_str     0x0000000000003028      0x1f1 ././app/packet_parser/parser.o
                                        0xa80 (size before relaxing)
 .debug_str     0x0000000000003219      0x741 ././app/qr_code/qrcodegen.o
                                        0xdda (size before relaxing)
 .debug_str     0x000000000000395a       0x45 ././debug.o
                                        0x6ab (size before relaxing)
 .debug_str     0x000000000000399f       0x57 ././mew.o
                                        0xc70 (size before relaxing)
 .debug_str     0x00000000000039f6      0x59a ././lvgl/src/lv_hal/lv_hal_disp.o
                                       0x1381 (size before relaxing)
 .debug_str     0x0000000000003f90       0x6e ././lvgl/src/lv_hal/lv_hal_tick.o
                                        0x21a (size before relaxing)
 .debug_str     0x0000000000003ffe       0x41 ././lvgl/src/lv_hal/lv_hal_indev.o
                                       0x12d1 (size before relaxing)
 .debug_str     0x000000000000403f      0x2ca ././lvgl/src/lv_font/lv_font_roboto_12.o
                                        0xcd5 (size before relaxing)
 .debug_str     0x0000000000004309      0x328 ././lvgl/src/lv_font/lv_font_fmt_txt.o
                                        0xf5d (size before relaxing)
 .debug_str     0x0000000000004631       0x69 ././lvgl/src/lv_font/lv_font.o
                                        0x2e5 (size before relaxing)
 .debug_str     0x000000000000469a       0x4d ././lvgl/src/lv_font/lv_font_roboto_28_compressed.o
                                        0xcfd (size before relaxing)
 .debug_str     0x00000000000046e7       0x43 ././lvgl/src/lv_font/lv_font_roboto_12_subpx.o
                                        0xcf3 (size before relaxing)
 .debug_str     0x000000000000472a       0x25 ././lvgl/src/lv_font/lv_font_roboto_22.o
                                        0x985 (size before relaxing)
 .debug_str     0x000000000000474f       0x25 ././lvgl/src/lv_font/lv_font_roboto_16.o
                                        0x985 (size before relaxing)
 .debug_str     0x0000000000004774       0x25 ././lvgl/src/lv_font/lv_font_roboto_28.o
                                        0x985 (size before relaxing)
 .debug_str     0x0000000000004799       0x24 ././lvgl/src/lv_font/lv_font_unscii_8.o
                                        0x984 (size before relaxing)
 .debug_str     0x00000000000047bd       0x2b ././lvgl/src/lv_misc/lv_gc.o
                                        0xb17 (size before relaxing)
 .debug_str     0x00000000000047e8      0x134 ././lvgl/src/lv_misc/lv_printf.o
                                        0x341 (size before relaxing)
 .debug_str     0x000000000000491c      0x154 ././lvgl/src/lv_misc/lv_mem.o
                                        0x7a9 (size before relaxing)
 .debug_str     0x0000000000004a70      0x32b ././lvgl/src/lv_misc/lv_txt.o
                                        0xb62 (size before relaxing)
 .debug_str     0x0000000000004d9b      0x12c ././lvgl/src/lv_misc/lv_area.o
                                        0x720 (size before relaxing)
 .debug_str     0x0000000000004ec7       0x1c ././lvgl/src/lv_misc/lv_templ.o
                                         0xff (size before relaxing)
 .debug_str     0x0000000000004ee3       0x1b ././lvgl/src/lv_misc/lv_anim.o
                                        0x5ac (size before relaxing)
 .debug_str     0x0000000000004efe       0x42 ././lvgl/src/lv_misc/lv_utils.o
                                        0x216 (size before relaxing)
 .debug_str     0x0000000000004f40       0x1b ././lvgl/src/lv_misc/lv_bidi.o
                                        0x97b (size before relaxing)
 .debug_str     0x0000000000004f5b      0x119 ././lvgl/src/lv_misc/lv_ll.o
                                        0x776 (size before relaxing)
 .debug_str     0x0000000000005074       0xb9 ././lvgl/src/lv_misc/lv_color.o
                                        0x2a7 (size before relaxing)
 .debug_str     0x000000000000512d       0x42 ././lvgl/src/lv_misc/lv_circ.o
                                        0x608 (size before relaxing)
 .debug_str     0x000000000000516f      0x186 ././lvgl/src/lv_misc/lv_task.o
                                        0xe4b (size before relaxing)
 .debug_str     0x00000000000052f5       0x1a ././lvgl/src/lv_misc/lv_log.o
                                        0x181 (size before relaxing)
 .debug_str     0x000000000000530f       0x79 ././lvgl/src/lv_misc/lv_async.o
                                        0x338 (size before relaxing)
 .debug_str     0x0000000000005388       0x19 ././lvgl/src/lv_misc/lv_fs.o
                                        0x180 (size before relaxing)
 .debug_str     0x00000000000053a1       0x7e ././lvgl/src/lv_misc/lv_math.o
                                        0x67d (size before relaxing)
 .debug_str     0x000000000000541f       0x73 ././lvgl/src/lv_themes/lv_theme.o
                                        0xcba (size before relaxing)
 .debug_str     0x0000000000005492       0x23 ././lvgl/src/lv_themes/lv_theme_mono.o
                                        0x8c6 (size before relaxing)
 .debug_str     0x00000000000054b5      0x33e ././lvgl/src/lv_themes/lv_theme_material.o
                                        0xfda (size before relaxing)
 .debug_str     0x00000000000057f3       0x26 ././lvgl/src/lv_themes/lv_theme_default.o
                                        0x8c9 (size before relaxing)
 .debug_str     0x0000000000005819       0x24 ././lvgl/src/lv_themes/lv_theme_alien.o
                                        0x8c7 (size before relaxing)
 .debug_str     0x000000000000583d       0x24 ././lvgl/src/lv_themes/lv_theme_night.o
                                        0x8c7 (size before relaxing)
 .debug_str     0x0000000000005861       0x22 ././lvgl/src/lv_themes/lv_theme_zen.o
                                        0x8c5 (size before relaxing)
 .debug_str     0x0000000000005883       0x24 ././lvgl/src/lv_themes/lv_theme_templ.o
                                        0x8c7 (size before relaxing)
 .debug_str     0x00000000000058a7       0x23 ././lvgl/src/lv_themes/lv_theme_nemo.o
                                        0x8c6 (size before relaxing)
 .debug_str     0x00000000000058ca       0xf3 ././lvgl/src/lv_core/lv_disp.o
                                        0xd31 (size before relaxing)
 .debug_str     0x00000000000059bd       0xee ././lvgl/src/lv_core/lv_debug.o
                                        0xd76 (size before relaxing)
 .debug_str     0x0000000000005aab      0x998 ././lvgl/src/lv_core/lv_indev.o
                                       0x1a0c (size before relaxing)
 .debug_str     0x0000000000006443      0x276 ././lvgl/src/lv_core/lv_refr.o
                                       0x13cf (size before relaxing)
 .debug_str     0x00000000000066b9      0x9ec ././lvgl/src/lv_core/lv_obj.o
                                       0x26f5 (size before relaxing)
 .debug_str     0x00000000000070a5       0x2f ././lvgl/src/lv_core/lv_style.o
                                        0xa2c (size before relaxing)
 .debug_str     0x00000000000070d4      0x255 ././lvgl/src/lv_core/lv_group.o
                                       0x16e4 (size before relaxing)
 .debug_str     0x0000000000007329      0x435 ././lvgl/src/lv_objx/lv_spinbox.o
                                       0x198a (size before relaxing)
 .debug_str     0x000000000000775e      0x63d ././lvgl/src/lv_objx/lv_roller.o
                                       0x21a5 (size before relaxing)
 .debug_str     0x0000000000007d9b      0x104 ././lvgl/src/lv_objx/lv_led.o
                                       0x1182 (size before relaxing)
 .debug_str     0x0000000000007e9f      0x4c0 ././lvgl/src/lv_objx/lv_img.o
                                       0x14e5 (size before relaxing)
 .debug_str     0x000000000000835f      0x16e ././lvgl/src/lv_objx/lv_imgbtn.o
                                       0x151a (size before relaxing)
 .debug_str     0x00000000000084cd      0x218 ././lvgl/src/lv_objx/lv_lmeter.o
                                       0x137e (size before relaxing)
 .debug_str     0x00000000000086e5       0x19 ././lvgl/src/lv_objx/lv_kb.o
                                        0x180 (size before relaxing)
 .debug_str     0x00000000000086fe      0x110 ././lvgl/src/lv_objx/lv_arc.o
                                       0x1206 (size before relaxing)
 .debug_str     0x000000000000880e      0x17a ././lvgl/src/lv_objx/lv_bar.o
                                       0x141d (size before relaxing)
 .debug_str     0x0000000000008988      0x94f ././lvgl/src/lv_objx/lv_tabview.o
                                       0x2545 (size before relaxing)
 .debug_str     0x00000000000092d7       0x1c ././lvgl/src/lv_objx/lv_chart.o
                                        0x183 (size before relaxing)
 .debug_str     0x00000000000092f3      0x398 ././lvgl/src/lv_objx/lv_mbox.o
                                       0x20a5 (size before relaxing)
 .debug_str     0x000000000000968b       0x1f ././lvgl/src/lv_objx/lv_calendar.o
                                        0x186 (size before relaxing)
 .debug_str     0x00000000000096aa      0x263 ././lvgl/src/lv_objx/lv_slider.o
                                       0x1957 (size before relaxing)
 .debug_str     0x000000000000990d      0x28e ././lvgl/src/lv_objx/lv_gauge.o
                                       0x1580 (size before relaxing)
 .debug_str     0x0000000000009b9b      0x377 ././lvgl/src/lv_objx/lv_win.o
                                       0x1b6f (size before relaxing)
 .debug_str     0x0000000000009f12      0x4c2 ././lvgl/src/lv_objx/lv_cpicker.o
                                       0x1e45 (size before relaxing)
 .debug_str     0x000000000000a3d4      0x148 ././lvgl/src/lv_objx/lv_line.o
                                       0x1074 (size before relaxing)
 .debug_str     0x000000000000a51c      0x1c4 ././lvgl/src/lv_objx/lv_cont.o
                                       0x181a (size before relaxing)
 .debug_str     0x000000000000a6e0      0x209 ././lvgl/src/lv_objx/lv_tileview.o
                                       0x1997 (size before relaxing)
 .debug_str     0x000000000000a8e9      0x3e5 ././lvgl/src/lv_objx/lv_canvas.o
                                       0x1a4d (size before relaxing)
 .debug_str     0x000000000000acce       0x21 ././lvgl/src/lv_objx/lv_objx_templ.o
                                        0x8c4 (size before relaxing)
 .debug_str     0x000000000000acef      0x3c6 ././lvgl/src/lv_objx/lv_label.o
                                       0x184f (size before relaxing)
 .debug_str     0x000000000000b0b5      0x248 ././lvgl/src/lv_objx/lv_ddlist.o
                                       0x2271 (size before relaxing)
 .debug_str     0x000000000000b2fd      0x47f ././lvgl/src/lv_objx/lv_list.o
                                       0x22fd (size before relaxing)
 .debug_str     0x000000000000b77c       0x1e ././lvgl/src/lv_objx/lv_preload.o
                                        0x185 (size before relaxing)
 .debug_str     0x000000000000b79a      0x100 ././lvgl/src/lv_objx/lv_btn.o
                                       0x162b (size before relaxing)
 .debug_str     0x000000000000b89a      0x2d6 ././lvgl/src/lv_objx/lv_btnm.o
                                       0x2013 (size before relaxing)
 .debug_str     0x000000000000bb70      0x595 ././lvgl/src/lv_objx/lv_ta.o
                                       0x25c4 (size before relaxing)
 .debug_str     0x000000000000c105      0x2cf ././lvgl/src/lv_objx/lv_page.o
                                       0x205f (size before relaxing)
 .debug_str     0x000000000000c3d4      0x380 ././lvgl/src/lv_objx/lv_table.o
                                       0x162a (size before relaxing)
 .debug_str     0x000000000000c754      0x193 ././lvgl/src/lv_objx/lv_cb.o
                                       0x17af (size before relaxing)
 .debug_str     0x000000000000c8e7      0x166 ././lvgl/src/lv_objx/lv_sw.o
                                       0x190a (size before relaxing)
 .debug_str     0x000000000000ca4d       0xff ././lvgl/src/lv_draw/lv_draw_img.o
                                       0x12e1 (size before relaxing)
 .debug_str     0x000000000000cb4c       0xe8 ././lvgl/src/lv_draw/lv_draw_arc.o
                                        0xb45 (size before relaxing)
 .debug_str     0x000000000000cc34       0xa8 ././lvgl/src/lv_draw/lv_draw.o
                                        0xda1 (size before relaxing)
 .debug_str     0x000000000000ccdc       0xba ././lvgl/src/lv_draw/lv_draw_triangle.o
                                        0xb0c (size before relaxing)
 .debug_str     0x000000000000cd96       0x7e ././lvgl/src/lv_draw/lv_img_cache.o
                                        0xd8b (size before relaxing)
 .debug_str     0x000000000000ce14      0x1cf ././lvgl/src/lv_draw/lv_img_decoder.o
                                       0x1240 (size before relaxing)
 .debug_str     0x000000000000cfe3      0x206 ././lvgl/src/lv_draw/lv_draw_basic.o
                                       0x10c6 (size before relaxing)
 .debug_str     0x000000000000d1e9      0x158 ././lvgl/src/lv_draw/lv_draw_line.o
                                        0xc25 (size before relaxing)
 .debug_str     0x000000000000d341       0x84 ././lvgl/src/lv_draw/lv_draw_label.o
                                        0xce8 (size before relaxing)
 .debug_str     0x000000000000d3c5      0x3fc ././lvgl/src/lv_draw/lv_draw_rect.o
                                       0x1028 (size before relaxing)
 .debug_str     0x000000000000d7c1       0x25 ././lvgl/porting/lv_port_disp_template.o
                                        0x108 (size before relaxing)
 .debug_str     0x000000000000d7e6       0x26 ././lvgl/porting/lv_port_indev_template.o
                                        0x109 (size before relaxing)
 .debug_str     0x000000000000d80c       0x23 ././lvgl/porting/lv_port_fs_template.o
                                        0x106 (size before relaxing)
 .debug_str     0x000000000000d82f       0xb3 ././ui/ui_msgbox.o
                                       0x1259 (size before relaxing)
 .debug_str     0x000000000000d8e2       0xb5 ././ui/ui_lhandlers.o
                                        0xc1a (size before relaxing)
 .debug_str     0x000000000000d997       0x47 ././ui/qrcode_ui.o
                                        0xd46 (size before relaxing)
 .debug_str     0x000000000000d9de       0xe9 ././ui/ui_header.o
                                       0x1094 (size before relaxing)
 .debug_str     0x000000000000dac7      0x170 ././ui/ui_win_startup_1.o
                                       0x1533 (size before relaxing)
 .debug_str     0x000000000000dc37       0x74 ././ui/mew_font_ru_bold.o
                                        0xc67 (size before relaxing)
 .debug_str     0x000000000000dcab       0x11 ././ui/ui_main_win.o
                                        0x9a9 (size before relaxing)
 .debug_str     0x000000000000dcbc       0x1c ././ui/mew_font_ru_bold_title.o
                                        0xc54 (size before relaxing)
 .debug_str     0x000000000000dcd8       0x21 ././ui/mew_logo.o
                                        0xd1e (size before relaxing)
 .debug_str     0x000000000000dcf9     0x85b8 /home/user/Devel/stm32/libopencm3/lib/libopencm3_stm32f4.a(rcc.o)
                                       0x88fe (size before relaxing)
 .debug_str     0x00000000000162b1       0xd2 /home/user/Devel/stm32/libopencm3/lib/libopencm3_stm32f4.a(crc_common_all.o)
                                       0x49bc (size before relaxing)
 .debug_str     0x0000000000016383     0x251d /home/user/Devel/stm32/libopencm3/lib/libopencm3_stm32f4.a(dma_common_f24.o)
                                       0x709d (size before relaxing)
 .debug_str     0x00000000000188a0     0x140b /home/user/Devel/stm32/libopencm3/lib/libopencm3_stm32f4.a(gpio_common_all.o)
                                       0x5d05 (size before relaxing)
 .debug_str     0x0000000000019cab       0x5b /home/user/Devel/stm32/libopencm3/lib/libopencm3_stm32f4.a(gpio_common_f0234.o)
                                       0x5d27 (size before relaxing)
 .debug_str     0x0000000000019d06     0x12fe /home/user/Devel/stm32/libopencm3/lib/libopencm3_stm32f4.a(i2c_common_v1.o)
                                       0x8e40 (size before relaxing)
 .debug_str     0x000000000001b004     0x107f /home/user/Devel/stm32/libopencm3/lib/libopencm3_stm32f4.a(spi_common_all.o)
                                       0x8efa (size before relaxing)
 .debug_str     0x000000000001c083       0x41 /home/user/Devel/stm32/libopencm3/lib/libopencm3_stm32f4.a(spi_common_l1f124.o)
                                       0x8862 (size before relaxing)
 .debug_str     0x000000000001c0c4     0x12b8 /home/user/Devel/stm32/libopencm3/lib/libopencm3_stm32f4.a(usart_common_all.o)
                                       0x8d98 (size before relaxing)
 .debug_str     0x000000000001d37c       0x2d /home/user/Devel/stm32/libopencm3/lib/libopencm3_stm32f4.a(usart_common_f124.o)
                                       0x8bac (size before relaxing)
 .debug_str     0x000000000001d3a9       0x7e /home/user/Devel/stm32/libopencm3/lib/libopencm3_stm32f4.a(flash_common_f234.o)
                                       0x5060 (size before relaxing)
 .debug_str     0x000000000001d427      0x210 /home/user/Devel/stm32/libopencm3/lib/libopencm3_stm32f4.a(flash_common_f24.o)
                                       0x5290 (size before relaxing)
 .debug_str     0x000000000001d637      0x525 /home/user/Devel/stm32/libopencm3/lib/libopencm3_stm32f4.a(exti_common_all.o)
                                       0x6244 (size before relaxing)
 .debug_str     0x000000000001db5c      0x102 /home/user/Devel/stm32/libopencm3/lib/libopencm3_stm32f4.a(rcc_common_all.o)
                                       0x8361 (size before relaxing)
 .debug_str     0x000000000001dc5e     0x321c /home/user/Devel/stm32/libopencm3/lib/libopencm3_stm32f4.a(usb.o)
                                       0x716a (size before relaxing)
 .debug_str     0x0000000000020e7a      0x2e1 /home/user/Devel/stm32/libopencm3/lib/libopencm3_stm32f4.a(usb_standard.o)
                                       0x7301 (size before relaxing)
 .debug_str     0x000000000002115b      0x1d0 /home/user/Devel/stm32/libopencm3/lib/libopencm3_stm32f4.a(usb_control.o)
                                       0x722a (size before relaxing)
 .debug_str     0x000000000002132b     0x3381 /home/user/Devel/stm32/libopencm3/lib/libopencm3_stm32f4.a(usb_f107.o)
                                       0xebd7 (size before relaxing)
 .debug_str     0x00000000000246ac     0x2a40 /home/user/Devel/stm32/libopencm3/lib/libopencm3_stm32f4.a(vector.o)
                                       0x6371 (size before relaxing)
 .debug_str     0x00000000000270ec      0x2e5 /home/user/Devel/stm32/libopencm3/lib/libopencm3_stm32f4.a(systick.o)
                                       0x3c87 (size before relaxing)
 .debug_str     0x00000000000273d1      0x9cf /home/user/Devel/stm32/libopencm3/lib/libopencm3_stm32f4.a(nvic.o)
                                       0x4d1a (size before relaxing)
 .debug_str     0x0000000000027da0        0x6 /home/user/Devel/stm32/libopencm3/lib/libopencm3_stm32f4.a(pwr.o)
                                       0x4c36 (size before relaxing)
 .debug_str     0x0000000000027da6     0x1258 /home/user/Devel/stm32/libopencm3/lib/libopencm3_stm32f4.a(usb_fx07_common.o)
                                       0xc71a (size before relaxing)

.comment        0x0000000000000000       0xe3
 .comment       0x0000000000000000       0x75 ././drivers/bluetooth/bt_usart.o
                                         0x76 (size before relaxing)
 .comment       0x0000000000000075       0x76 ././drivers/usb/mew_usb_hid.o
 .comment       0x0000000000000075       0x76 ././drivers/display/display.o
 .comment       0x0000000000000075       0x76 ././drivers/display/ts_tsc2007.o
 .comment       0x0000000000000075       0x76 ././drivers/flash/otp_storage.o
 .comment       0x0000000000000075       0x76 ././drivers/i2c/i2c.o
 .comment       0x0000000000000075       0x76 ././drivers/spi_flash/w25n01gvzeig.o
 .comment       0x0000000000000075       0x76 ././drivers/spi_flash/flash.o
 .comment       0x0000000000000075       0x76 ././drivers/system/clock.o
 .comment       0x0000000000000075       0x76 ././drivers/system/systick.o
 .comment       0x0000000000000075       0x76 ././drivers/system/system.o
 .comment       0x0000000000000075       0x76 ././drivers/system/random.o
 .comment       0x0000000000000075       0x76 ././drivers/duart/duart.o
 .comment       0x0000000000000075       0x76 ././drivers/hw_crypt/aes256.o
 .comment       0x0000000000000075       0x76 ././drivers/hw_crypt/secure_eeprom.o
 .comment       0x0000000000000075       0x76 ././drivers/hw_crypt/P256-cortex-ecdh.o
 .comment       0x0000000000000075       0x76 ././drivers/hw_crypt/sha2_256.o
 .comment       0x0000000000000075       0x76 ././app/pwd_generator/mew_xor_algo.o
 .comment       0x0000000000000075       0x76 ././app/pwd_generator/mew_passgen.o
 .comment       0x0000000000000075       0x76 ././app/packet_parser/parser.o
 .comment       0x0000000000000075       0x76 ././app/qr_code/qrcodegen.o
 .comment       0x0000000000000075       0x76 ././debug.o
 .comment       0x0000000000000075       0x76 ././mew.o
 .comment       0x0000000000000075       0x76 ././lvgl/src/lv_hal/lv_hal_disp.o
 .comment       0x0000000000000075       0x76 ././lvgl/src/lv_hal/lv_hal_tick.o
 .comment       0x0000000000000075       0x76 ././lvgl/src/lv_hal/lv_hal_indev.o
 .comment       0x0000000000000075       0x76 ././lvgl/src/lv_font/lv_font_roboto_12.o
 .comment       0x0000000000000075       0x76 ././lvgl/src/lv_font/lv_font_fmt_txt.o
 .comment       0x0000000000000075       0x76 ././lvgl/src/lv_font/lv_font.o
 .comment       0x0000000000000075       0x76 ././lvgl/src/lv_font/lv_font_roboto_28_compressed.o
 .comment       0x0000000000000075       0x76 ././lvgl/src/lv_font/lv_font_roboto_12_subpx.o
 .comment       0x0000000000000075       0x76 ././lvgl/src/lv_font/lv_font_roboto_22.o
 .comment       0x0000000000000075       0x76 ././lvgl/src/lv_font/lv_font_roboto_16.o
 .comment       0x0000000000000075       0x76 ././lvgl/src/lv_font/lv_font_roboto_28.o
 .comment       0x0000000000000075       0x76 ././lvgl/src/lv_font/lv_font_unscii_8.o
 .comment       0x0000000000000075       0x76 ././lvgl/src/lv_misc/lv_gc.o
 .comment       0x0000000000000075       0x76 ././lvgl/src/lv_misc/lv_printf.o
 .comment       0x0000000000000075       0x76 ././lvgl/src/lv_misc/lv_mem.o
 .comment       0x0000000000000075       0x76 ././lvgl/src/lv_misc/lv_txt.o
 .comment       0x0000000000000075       0x76 ././lvgl/src/lv_misc/lv_area.o
 .comment       0x0000000000000075       0x76 ././lvgl/src/lv_misc/lv_templ.o
 .comment       0x0000000000000075       0x76 ././lvgl/src/lv_misc/lv_anim.o
 .comment       0x0000000000000075       0x76 ././lvgl/src/lv_misc/lv_utils.o
 .comment       0x0000000000000075       0x76 ././lvgl/src/lv_misc/lv_bidi.o
 .comment       0x0000000000000075       0x76 ././lvgl/src/lv_misc/lv_ll.o
 .comment       0x0000000000000075       0x76 ././lvgl/src/lv_misc/lv_color.o
 .comment       0x0000000000000075       0x76 ././lvgl/src/lv_misc/lv_circ.o
 .comment       0x0000000000000075       0x76 ././lvgl/src/lv_misc/lv_task.o
 .comment       0x0000000000000075       0x76 ././lvgl/src/lv_misc/lv_log.o
 .comment       0x0000000000000075       0x76 ././lvgl/src/lv_misc/lv_async.o
 .comment       0x0000000000000075       0x76 ././lvgl/src/lv_misc/lv_fs.o
 .comment       0x0000000000000075       0x76 ././lvgl/src/lv_misc/lv_math.o
 .comment       0x0000000000000075       0x76 ././lvgl/src/lv_themes/lv_theme.o
 .comment       0x0000000000000075       0x76 ././lvgl/src/lv_themes/lv_theme_mono.o
 .comment       0x0000000000000075       0x76 ././lvgl/src/lv_themes/lv_theme_material.o
 .comment       0x0000000000000075       0x76 ././lvgl/src/lv_themes/lv_theme_default.o
 .comment       0x0000000000000075       0x76 ././lvgl/src/lv_themes/lv_theme_alien.o
 .comment       0x0000000000000075       0x76 ././lvgl/src/lv_themes/lv_theme_night.o
 .comment       0x0000000000000075       0x76 ././lvgl/src/lv_themes/lv_theme_zen.o
 .comment       0x0000000000000075       0x76 ././lvgl/src/lv_themes/lv_theme_templ.o
 .comment       0x0000000000000075       0x76 ././lvgl/src/lv_themes/lv_theme_nemo.o
 .comment       0x0000000000000075       0x76 ././lvgl/src/lv_core/lv_disp.o
 .comment       0x0000000000000075       0x76 ././lvgl/src/lv_core/lv_debug.o
 .comment       0x0000000000000075       0x76 ././lvgl/src/lv_core/lv_indev.o
 .comment       0x0000000000000075       0x76 ././lvgl/src/lv_core/lv_refr.o
 .comment       0x0000000000000075       0x76 ././lvgl/src/lv_core/lv_obj.o
 .comment       0x0000000000000075       0x76 ././lvgl/src/lv_core/lv_style.o
 .comment       0x0000000000000075       0x76 ././lvgl/src/lv_core/lv_group.o
 .comment       0x0000000000000075       0x76 ././lvgl/src/lv_objx/lv_spinbox.o
 .comment       0x0000000000000075       0x76 ././lvgl/src/lv_objx/lv_roller.o
 .comment       0x0000000000000075       0x76 ././lvgl/src/lv_objx/lv_led.o
 .comment       0x0000000000000075       0x76 ././lvgl/src/lv_objx/lv_img.o
 .comment       0x0000000000000075       0x76 ././lvgl/src/lv_objx/lv_imgbtn.o
 .comment       0x0000000000000075       0x76 ././lvgl/src/lv_objx/lv_lmeter.o
 .comment       0x0000000000000075       0x76 ././lvgl/src/lv_objx/lv_kb.o
 .comment       0x0000000000000075       0x76 ././lvgl/src/lv_objx/lv_arc.o
 .comment       0x0000000000000075       0x76 ././lvgl/src/lv_objx/lv_bar.o
 .comment       0x0000000000000075       0x76 ././lvgl/src/lv_objx/lv_tabview.o
 .comment       0x0000000000000075       0x76 ././lvgl/src/lv_objx/lv_chart.o
 .comment       0x0000000000000075       0x76 ././lvgl/src/lv_objx/lv_mbox.o
 .comment       0x0000000000000075       0x76 ././lvgl/src/lv_objx/lv_calendar.o
 .comment       0x0000000000000075       0x76 ././lvgl/src/lv_objx/lv_slider.o
 .comment       0x0000000000000075       0x76 ././lvgl/src/lv_objx/lv_gauge.o
 .comment       0x0000000000000075       0x76 ././lvgl/src/lv_objx/lv_win.o
 .comment       0x0000000000000075       0x76 ././lvgl/src/lv_objx/lv_cpicker.o
 .comment       0x0000000000000075       0x76 ././lvgl/src/lv_objx/lv_line.o
 .comment       0x0000000000000075       0x76 ././lvgl/src/lv_objx/lv_cont.o
 .comment       0x0000000000000075       0x76 ././lvgl/src/lv_objx/lv_tileview.o
 .comment       0x0000000000000075       0x76 ././lvgl/src/lv_objx/lv_canvas.o
 .comment       0x0000000000000075       0x76 ././lvgl/src/lv_objx/lv_objx_templ.o
 .comment       0x0000000000000075       0x76 ././lvgl/src/lv_objx/lv_label.o
 .comment       0x0000000000000075       0x76 ././lvgl/src/lv_objx/lv_ddlist.o
 .comment       0x0000000000000075       0x76 ././lvgl/src/lv_objx/lv_list.o
 .comment       0x0000000000000075       0x76 ././lvgl/src/lv_objx/lv_preload.o
 .comment       0x0000000000000075       0x76 ././lvgl/src/lv_objx/lv_btn.o
 .comment       0x0000000000000075       0x76 ././lvgl/src/lv_objx/lv_btnm.o
 .comment       0x0000000000000075       0x76 ././lvgl/src/lv_objx/lv_ta.o
 .comment       0x0000000000000075       0x76 ././lvgl/src/lv_objx/lv_page.o
 .comment       0x0000000000000075       0x76 ././lvgl/src/lv_objx/lv_table.o
 .comment       0x0000000000000075       0x76 ././lvgl/src/lv_objx/lv_cb.o
 .comment       0x0000000000000075       0x76 ././lvgl/src/lv_objx/lv_sw.o
 .comment       0x0000000000000075       0x76 ././lvgl/src/lv_draw/lv_draw_img.o
 .comment       0x0000000000000075       0x76 ././lvgl/src/lv_draw/lv_draw_arc.o
 .comment       0x0000000000000075       0x76 ././lvgl/src/lv_draw/lv_draw.o
 .comment       0x0000000000000075       0x76 ././lvgl/src/lv_draw/lv_draw_triangle.o
 .comment       0x0000000000000075       0x76 ././lvgl/src/lv_draw/lv_img_cache.o
 .comment       0x0000000000000075       0x76 ././lvgl/src/lv_draw/lv_img_decoder.o
 .comment       0x0000000000000075       0x76 ././lvgl/src/lv_draw/lv_draw_basic.o
 .comment       0x0000000000000075       0x76 ././lvgl/src/lv_draw/lv_draw_line.o
 .comment       0x0000000000000075       0x76 ././lvgl/src/lv_draw/lv_draw_label.o
 .comment       0x0000000000000075       0x76 ././lvgl/src/lv_draw/lv_draw_rect.o
 .comment       0x0000000000000075       0x76 ././lvgl/porting/lv_port_disp_template.o
 .comment       0x0000000000000075       0x76 ././lvgl/porting/lv_port_indev_template.o
 .comment       0x0000000000000075       0x76 ././lvgl/porting/lv_port_fs_template.o
 .comment       0x0000000000000075       0x76 ././ui/ui_msgbox.o
 .comment       0x0000000000000075       0x76 ././ui/ui_lhandlers.o
 .comment       0x0000000000000075       0x76 ././ui/qrcode_ui.o
 .comment       0x0000000000000075       0x76 ././ui/ui_header.o
 .comment       0x0000000000000075       0x76 ././ui/ui_win_startup_1.o
 .comment       0x0000000000000075       0x76 ././ui/mew_font_ru_bold.o
 .comment       0x0000000000000075       0x76 ././ui/ui_main_win.o
 .comment       0x0000000000000075       0x76 ././ui/mew_font_ru_bold_title.o
 .comment       0x0000000000000075       0x76 ././ui/mew_logo.o
 .comment       0x0000000000000075       0x6e /home/user/Devel/stm32/libopencm3/lib/libopencm3_stm32f4.a(rcc.o)
                                         0x6f (size before relaxing)
 .comment       0x00000000000000e3       0x6f /home/user/Devel/stm32/libopencm3/lib/libopencm3_stm32f4.a(crc_common_all.o)
 .comment       0x00000000000000e3       0x6f /home/user/Devel/stm32/libopencm3/lib/libopencm3_stm32f4.a(dma_common_f24.o)
 .comment       0x00000000000000e3       0x6f /home/user/Devel/stm32/libopencm3/lib/libopencm3_stm32f4.a(gpio_common_all.o)
 .comment       0x00000000000000e3       0x6f /home/user/Devel/stm32/libopencm3/lib/libopencm3_stm32f4.a(gpio_common_f0234.o)
 .comment       0x00000000000000e3       0x6f /home/user/Devel/stm32/libopencm3/lib/libopencm3_stm32f4.a(i2c_common_v1.o)
 .comment       0x00000000000000e3       0x6f /home/user/Devel/stm32/libopencm3/lib/libopencm3_stm32f4.a(spi_common_all.o)
 .comment       0x00000000000000e3       0x6f /home/user/Devel/stm32/libopencm3/lib/libopencm3_stm32f4.a(spi_common_l1f124.o)
 .comment       0x00000000000000e3       0x6f /home/user/Devel/stm32/libopencm3/lib/libopencm3_stm32f4.a(usart_common_all.o)
 .comment       0x00000000000000e3       0x6f /home/user/Devel/stm32/libopencm3/lib/libopencm3_stm32f4.a(usart_common_f124.o)
 .comment       0x00000000000000e3       0x6f /home/user/Devel/stm32/libopencm3/lib/libopencm3_stm32f4.a(flash_common_f234.o)
 .comment       0x00000000000000e3       0x6f /home/user/Devel/stm32/libopencm3/lib/libopencm3_stm32f4.a(flash_common_f24.o)
 .comment       0x00000000000000e3       0x6f /home/user/Devel/stm32/libopencm3/lib/libopencm3_stm32f4.a(exti_common_all.o)
 .comment       0x00000000000000e3       0x6f /home/user/Devel/stm32/libopencm3/lib/libopencm3_stm32f4.a(rcc_common_all.o)
 .comment       0x00000000000000e3       0x6f /home/user/Devel/stm32/libopencm3/lib/libopencm3_stm32f4.a(usb.o)
 .comment       0x00000000000000e3       0x6f /home/user/Devel/stm32/libopencm3/lib/libopencm3_stm32f4.a(usb_standard.o)
 .comment       0x00000000000000e3       0x6f /home/user/Devel/stm32/libopencm3/lib/libopencm3_stm32f4.a(usb_control.o)
 .comment       0x00000000000000e3       0x6f /home/user/Devel/stm32/libopencm3/lib/libopencm3_stm32f4.a(usb_f107.o)
 .comment       0x00000000000000e3       0x6f /home/user/Devel/stm32/libopencm3/lib/libopencm3_stm32f4.a(vector.o)
 .comment       0x00000000000000e3       0x6f /home/user/Devel/stm32/libopencm3/lib/libopencm3_stm32f4.a(systick.o)
 .comment       0x00000000000000e3       0x6f /home/user/Devel/stm32/libopencm3/lib/libopencm3_stm32f4.a(nvic.o)
 .comment       0x00000000000000e3       0x6f /home/user/Devel/stm32/libopencm3/lib/libopencm3_stm32f4.a(pwr.o)
 .comment       0x00000000000000e3       0x6f /home/user/Devel/stm32/libopencm3/lib/libopencm3_stm32f4.a(usb_fx07_common.o)

.ARM.attributes
                0x0000000000000000       0x32
 .ARM.attributes
                0x0000000000000000       0x34 ././drivers/bluetooth/bt_usart.o
 .ARM.attributes
                0x0000000000000034       0x34 ././drivers/usb/mew_usb_hid.o
 .ARM.attributes
                0x0000000000000068       0x34 ././drivers/display/display.o
 .ARM.attributes
                0x000000000000009c       0x34 ././drivers/display/ts_tsc2007.o
 .ARM.attributes
                0x00000000000000d0       0x34 ././drivers/flash/otp_storage.o
 .ARM.attributes
                0x0000000000000104       0x34 ././drivers/i2c/i2c.o
 .ARM.attributes
                0x0000000000000138       0x34 ././drivers/spi_flash/w25n01gvzeig.o
 .ARM.attributes
                0x000000000000016c       0x34 ././drivers/spi_flash/flash.o
 .ARM.attributes
                0x00000000000001a0       0x34 ././drivers/system/clock.o
 .ARM.attributes
                0x00000000000001d4       0x34 ././drivers/system/systick.o
 .ARM.attributes
                0x0000000000000208       0x34 ././drivers/system/system.o
 .ARM.attributes
                0x000000000000023c       0x34 ././drivers/system/random.o
 .ARM.attributes
                0x0000000000000270       0x34 ././drivers/duart/duart.o
 .ARM.attributes
                0x00000000000002a4       0x34 ././drivers/hw_crypt/aes256.o
 .ARM.attributes
                0x00000000000002d8       0x34 ././drivers/hw_crypt/secure_eeprom.o
 .ARM.attributes
                0x000000000000030c       0x34 ././drivers/hw_crypt/P256-cortex-ecdh.o
 .ARM.attributes
                0x0000000000000340       0x34 ././drivers/hw_crypt/sha2_256.o
 .ARM.attributes
                0x0000000000000374       0x34 ././app/pwd_generator/mew_xor_algo.o
 .ARM.attributes
                0x00000000000003a8       0x34 ././app/pwd_generator/mew_passgen.o
 .ARM.attributes
                0x00000000000003dc       0x34 ././app/packet_parser/parser.o
 .ARM.attributes
                0x0000000000000410       0x34 ././app/qr_code/qrcodegen.o
 .ARM.attributes
                0x0000000000000444       0x34 ././debug.o
 .ARM.attributes
                0x0000000000000478       0x34 ././mew.o
 .ARM.attributes
                0x00000000000004ac       0x34 ././lvgl/src/lv_hal/lv_hal_disp.o
 .ARM.attributes
                0x00000000000004e0       0x34 ././lvgl/src/lv_hal/lv_hal_tick.o
 .ARM.attributes
                0x0000000000000514       0x34 ././lvgl/src/lv_hal/lv_hal_indev.o
 .ARM.attributes
                0x0000000000000548       0x39 ././lvgl/src/lv_font/lv_font_roboto_12.o
 .ARM.attributes
                0x0000000000000581       0x34 ././lvgl/src/lv_font/lv_font_fmt_txt.o
 .ARM.attributes
                0x00000000000005b5       0x34 ././lvgl/src/lv_font/lv_font.o
 .ARM.attributes
                0x00000000000005e9       0x39 ././lvgl/src/lv_font/lv_font_roboto_28_compressed.o
 .ARM.attributes
                0x0000000000000622       0x39 ././lvgl/src/lv_font/lv_font_roboto_12_subpx.o
 .ARM.attributes
                0x000000000000065b       0x39 ././lvgl/src/lv_font/lv_font_roboto_22.o
 .ARM.attributes
                0x0000000000000694       0x39 ././lvgl/src/lv_font/lv_font_roboto_16.o
 .ARM.attributes
                0x00000000000006cd       0x39 ././lvgl/src/lv_font/lv_font_roboto_28.o
 .ARM.attributes
                0x0000000000000706       0x39 ././lvgl/src/lv_font/lv_font_unscii_8.o
 .ARM.attributes
                0x000000000000073f       0x34 ././lvgl/src/lv_misc/lv_gc.o
 .ARM.attributes
                0x0000000000000773       0x34 ././lvgl/src/lv_misc/lv_printf.o
 .ARM.attributes
                0x00000000000007a7       0x34 ././lvgl/src/lv_misc/lv_mem.o
 .ARM.attributes
                0x00000000000007db       0x34 ././lvgl/src/lv_misc/lv_txt.o
 .ARM.attributes
                0x000000000000080f       0x34 ././lvgl/src/lv_misc/lv_area.o
 .ARM.attributes
                0x0000000000000843       0x39 ././lvgl/src/lv_misc/lv_templ.o
 .ARM.attributes
                0x000000000000087c       0x39 ././lvgl/src/lv_misc/lv_anim.o
 .ARM.attributes
                0x00000000000008b5       0x34 ././lvgl/src/lv_misc/lv_utils.o
 .ARM.attributes
                0x00000000000008e9       0x39 ././lvgl/src/lv_misc/lv_bidi.o
 .ARM.attributes
                0x0000000000000922       0x34 ././lvgl/src/lv_misc/lv_ll.o
 .ARM.attributes
                0x0000000000000956       0x34 ././lvgl/src/lv_misc/lv_color.o
 .ARM.attributes
                0x000000000000098a       0x34 ././lvgl/src/lv_misc/lv_circ.o
 .ARM.attributes
                0x00000000000009be       0x34 ././lvgl/src/lv_misc/lv_task.o
 .ARM.attributes
                0x00000000000009f2       0x39 ././lvgl/src/lv_misc/lv_log.o
 .ARM.attributes
                0x0000000000000a2b       0x34 ././lvgl/src/lv_misc/lv_async.o
 .ARM.attributes
                0x0000000000000a5f       0x39 ././lvgl/src/lv_misc/lv_fs.o
 .ARM.attributes
                0x0000000000000a98       0x34 ././lvgl/src/lv_misc/lv_math.o
 .ARM.attributes
                0x0000000000000acc       0x34 ././lvgl/src/lv_themes/lv_theme.o
 .ARM.attributes
                0x0000000000000b00       0x39 ././lvgl/src/lv_themes/lv_theme_mono.o
 .ARM.attributes
                0x0000000000000b39       0x34 ././lvgl/src/lv_themes/lv_theme_material.o
 .ARM.attributes
                0x0000000000000b6d       0x39 ././lvgl/src/lv_themes/lv_theme_default.o
 .ARM.attributes
                0x0000000000000ba6       0x39 ././lvgl/src/lv_themes/lv_theme_alien.o
 .ARM.attributes
                0x0000000000000bdf       0x39 ././lvgl/src/lv_themes/lv_theme_night.o
 .ARM.attributes
                0x0000000000000c18       0x39 ././lvgl/src/lv_themes/lv_theme_zen.o
 .ARM.attributes
                0x0000000000000c51       0x39 ././lvgl/src/lv_themes/lv_theme_templ.o
 .ARM.attributes
                0x0000000000000c8a       0x39 ././lvgl/src/lv_themes/lv_theme_nemo.o
 .ARM.attributes
                0x0000000000000cc3       0x34 ././lvgl/src/lv_core/lv_disp.o
 .ARM.attributes
                0x0000000000000cf7       0x34 ././lvgl/src/lv_core/lv_debug.o
 .ARM.attributes
                0x0000000000000d2b       0x34 ././lvgl/src/lv_core/lv_indev.o
 .ARM.attributes
                0x0000000000000d5f       0x34 ././lvgl/src/lv_core/lv_refr.o
 .ARM.attributes
                0x0000000000000d93       0x34 ././lvgl/src/lv_core/lv_obj.o
 .ARM.attributes
                0x0000000000000dc7       0x34 ././lvgl/src/lv_core/lv_style.o
 .ARM.attributes
                0x0000000000000dfb       0x34 ././lvgl/src/lv_core/lv_group.o
 .ARM.attributes
                0x0000000000000e2f       0x34 ././lvgl/src/lv_objx/lv_spinbox.o
 .ARM.attributes
                0x0000000000000e63       0x34 ././lvgl/src/lv_objx/lv_roller.o
 .ARM.attributes
                0x0000000000000e97       0x34 ././lvgl/src/lv_objx/lv_led.o
 .ARM.attributes
                0x0000000000000ecb       0x34 ././lvgl/src/lv_objx/lv_img.o
 .ARM.attributes
                0x0000000000000eff       0x34 ././lvgl/src/lv_objx/lv_imgbtn.o
 .ARM.attributes
                0x0000000000000f33       0x34 ././lvgl/src/lv_objx/lv_lmeter.o
 .ARM.attributes
                0x0000000000000f67       0x39 ././lvgl/src/lv_objx/lv_kb.o
 .ARM.attributes
                0x0000000000000fa0       0x34 ././lvgl/src/lv_objx/lv_arc.o
 .ARM.attributes
                0x0000000000000fd4       0x34 ././lvgl/src/lv_objx/lv_bar.o
 .ARM.attributes
                0x0000000000001008       0x34 ././lvgl/src/lv_objx/lv_tabview.o
 .ARM.attributes
                0x000000000000103c       0x39 ././lvgl/src/lv_objx/lv_chart.o
 .ARM.attributes
                0x0000000000001075       0x34 ././lvgl/src/lv_objx/lv_mbox.o
 .ARM.attributes
                0x00000000000010a9       0x39 ././lvgl/src/lv_objx/lv_calendar.o
 .ARM.attributes
                0x00000000000010e2       0x34 ././lvgl/src/lv_objx/lv_slider.o
 .ARM.attributes
                0x0000000000001116       0x34 ././lvgl/src/lv_objx/lv_gauge.o
 .ARM.attributes
                0x000000000000114a       0x34 ././lvgl/src/lv_objx/lv_win.o
 .ARM.attributes
                0x000000000000117e       0x34 ././lvgl/src/lv_objx/lv_cpicker.o
 .ARM.attributes
                0x00000000000011b2       0x34 ././lvgl/src/lv_objx/lv_line.o
 .ARM.attributes
                0x00000000000011e6       0x34 ././lvgl/src/lv_objx/lv_cont.o
 .ARM.attributes
                0x000000000000121a       0x34 ././lvgl/src/lv_objx/lv_tileview.o
 .ARM.attributes
                0x000000000000124e       0x34 ././lvgl/src/lv_objx/lv_canvas.o
 .ARM.attributes
                0x0000000000001282       0x39 ././lvgl/src/lv_objx/lv_objx_templ.o
 .ARM.attributes
                0x00000000000012bb       0x34 ././lvgl/src/lv_objx/lv_label.o
 .ARM.attributes
                0x00000000000012ef       0x34 ././lvgl/src/lv_objx/lv_ddlist.o
 .ARM.attributes
                0x0000000000001323       0x34 ././lvgl/src/lv_objx/lv_list.o
 .ARM.attributes
                0x0000000000001357       0x39 ././lvgl/src/lv_objx/lv_preload.o
 .ARM.attributes
                0x0000000000001390       0x34 ././lvgl/src/lv_objx/lv_btn.o
 .ARM.attributes
                0x00000000000013c4       0x34 ././lvgl/src/lv_objx/lv_btnm.o
 .ARM.attributes
                0x00000000000013f8       0x34 ././lvgl/src/lv_objx/lv_ta.o
 .ARM.attributes
                0x000000000000142c       0x34 ././lvgl/src/lv_objx/lv_page.o
 .ARM.attributes
                0x0000000000001460       0x34 ././lvgl/src/lv_objx/lv_table.o
 .ARM.attributes
                0x0000000000001494       0x34 ././lvgl/src/lv_objx/lv_cb.o
 .ARM.attributes
                0x00000000000014c8       0x34 ././lvgl/src/lv_objx/lv_sw.o
 .ARM.attributes
                0x00000000000014fc       0x34 ././lvgl/src/lv_draw/lv_draw_img.o
 .ARM.attributes
                0x0000000000001530       0x34 ././lvgl/src/lv_draw/lv_draw_arc.o
 .ARM.attributes
                0x0000000000001564       0x34 ././lvgl/src/lv_draw/lv_draw.o
 .ARM.attributes
                0x0000000000001598       0x34 ././lvgl/src/lv_draw/lv_draw_triangle.o
 .ARM.attributes
                0x00000000000015cc       0x34 ././lvgl/src/lv_draw/lv_img_cache.o
 .ARM.attributes
                0x0000000000001600       0x34 ././lvgl/src/lv_draw/lv_img_decoder.o
 .ARM.attributes
                0x0000000000001634       0x34 ././lvgl/src/lv_draw/lv_draw_basic.o
 .ARM.attributes
                0x0000000000001668       0x34 ././lvgl/src/lv_draw/lv_draw_line.o
 .ARM.attributes
                0x000000000000169c       0x34 ././lvgl/src/lv_draw/lv_draw_label.o
 .ARM.attributes
                0x00000000000016d0       0x34 ././lvgl/src/lv_draw/lv_draw_rect.o
 .ARM.attributes
                0x0000000000001704       0x39 ././lvgl/porting/lv_port_disp_template.o
 .ARM.attributes
                0x000000000000173d       0x39 ././lvgl/porting/lv_port_indev_template.o
 .ARM.attributes
                0x0000000000001776       0x39 ././lvgl/porting/lv_port_fs_template.o
 .ARM.attributes
                0x00000000000017af       0x34 ././ui/ui_msgbox.o
 .ARM.attributes
                0x00000000000017e3       0x34 ././ui/ui_lhandlers.o
 .ARM.attributes
                0x0000000000001817       0x34 ././ui/qrcode_ui.o
 .ARM.attributes
                0x000000000000184b       0x34 ././ui/ui_header.o
 .ARM.attributes
                0x000000000000187f       0x34 ././ui/ui_win_startup_1.o
 .ARM.attributes
                0x00000000000018b3       0x39 ././ui/mew_font_ru_bold.o
 .ARM.attributes
                0x00000000000018ec       0x34 ././ui/ui_main_win.o
 .ARM.attributes
                0x0000000000001920       0x39 ././ui/mew_font_ru_bold_title.o
 .ARM.attributes
                0x0000000000001959       0x39 ././ui/mew_logo.o
 .ARM.attributes
                0x0000000000001992       0x25 ././drivers/system/byteorder.o
 .ARM.attributes
                0x00000000000019b7       0x25 ././drivers/hw_crypt/P256-cortex-m4-ecdh-speedopt-gcc.o
 .ARM.attributes
                0x00000000000019dc       0x39 /home/user/Devel/stm32/libopencm3/lib/libopencm3_stm32f4.a(rcc.o)
 .ARM.attributes
                0x0000000000001a15       0x39 /home/user/Devel/stm32/libopencm3/lib/libopencm3_stm32f4.a(crc_common_all.o)
 .ARM.attributes
                0x0000000000001a4e       0x39 /home/user/Devel/stm32/libopencm3/lib/libopencm3_stm32f4.a(dma_common_f24.o)
 .ARM.attributes
                0x0000000000001a87       0x39 /home/user/Devel/stm32/libopencm3/lib/libopencm3_stm32f4.a(gpio_common_all.o)
 .ARM.attributes
                0x0000000000001ac0       0x39 /home/user/Devel/stm32/libopencm3/lib/libopencm3_stm32f4.a(gpio_common_f0234.o)
 .ARM.attributes
                0x0000000000001af9       0x39 /home/user/Devel/stm32/libopencm3/lib/libopencm3_stm32f4.a(i2c_common_v1.o)
 .ARM.attributes
                0x0000000000001b32       0x39 /home/user/Devel/stm32/libopencm3/lib/libopencm3_stm32f4.a(spi_common_all.o)
 .ARM.attributes
                0x0000000000001b6b       0x39 /home/user/Devel/stm32/libopencm3/lib/libopencm3_stm32f4.a(spi_common_l1f124.o)
 .ARM.attributes
                0x0000000000001ba4       0x39 /home/user/Devel/stm32/libopencm3/lib/libopencm3_stm32f4.a(usart_common_all.o)
 .ARM.attributes
                0x0000000000001bdd       0x39 /home/user/Devel/stm32/libopencm3/lib/libopencm3_stm32f4.a(usart_common_f124.o)
 .ARM.attributes
                0x0000000000001c16       0x39 /home/user/Devel/stm32/libopencm3/lib/libopencm3_stm32f4.a(flash_common_f234.o)
 .ARM.attributes
                0x0000000000001c4f       0x39 /home/user/Devel/stm32/libopencm3/lib/libopencm3_stm32f4.a(flash_common_f24.o)
 .ARM.attributes
                0x0000000000001c88       0x39 /home/user/Devel/stm32/libopencm3/lib/libopencm3_stm32f4.a(exti_common_all.o)
 .ARM.attributes
                0x0000000000001cc1       0x39 /home/user/Devel/stm32/libopencm3/lib/libopencm3_stm32f4.a(rcc_common_all.o)
 .ARM.attributes
                0x0000000000001cfa       0x39 /home/user/Devel/stm32/libopencm3/lib/libopencm3_stm32f4.a(usb.o)
 .ARM.attributes
                0x0000000000001d33       0x39 /home/user/Devel/stm32/libopencm3/lib/libopencm3_stm32f4.a(usb_standard.o)
 .ARM.attributes
                0x0000000000001d6c       0x39 /home/user/Devel/stm32/libopencm3/lib/libopencm3_stm32f4.a(usb_control.o)
 .ARM.attributes
                0x0000000000001da5       0x39 /home/user/Devel/stm32/libopencm3/lib/libopencm3_stm32f4.a(usb_f107.o)
 .ARM.attributes
                0x0000000000001dde       0x39 /home/user/Devel/stm32/libopencm3/lib/libopencm3_stm32f4.a(vector.o)
 .ARM.attributes
                0x0000000000001e17       0x39 /home/user/Devel/stm32/libopencm3/lib/libopencm3_stm32f4.a(systick.o)
 .ARM.attributes
                0x0000000000001e50       0x39 /home/user/Devel/stm32/libopencm3/lib/libopencm3_stm32f4.a(nvic.o)
 .ARM.attributes
                0x0000000000001e89       0x39 /home/user/Devel/stm32/libopencm3/lib/libopencm3_stm32f4.a(pwr.o)
 .ARM.attributes
                0x0000000000001ec2       0x39 /home/user/Devel/stm32/libopencm3/lib/libopencm3_stm32f4.a(usb_fx07_common.o)
 .ARM.attributes
                0x0000000000001efb       0x34 /home/user/Devel/stm32/gcc-arm-none-eabi-8-2018-q4-major/bin/../lib/gcc/arm-none-eabi/8.2.1/../../../../arm-none-eabi/lib/thumb/v7e-m+fp/hard/libc_nano.a(lib_a-assert.o)
 .ARM.attributes
                0x0000000000001f2f       0x34 /home/user/Devel/stm32/gcc-arm-none-eabi-8-2018-q4-major/bin/../lib/gcc/arm-none-eabi/8.2.1/../../../../arm-none-eabi/lib/thumb/v7e-m+fp/hard/libc_nano.a(lib_a-fprintf.o)
 .ARM.attributes
                0x0000000000001f63       0x32 /home/user/Devel/stm32/gcc-arm-none-eabi-8-2018-q4-major/bin/../lib/gcc/arm-none-eabi/8.2.1/../../../../arm-none-eabi/lib/thumb/v7e-m+fp/hard/libc_nano.a(lib_a-impure.o)
 .ARM.attributes
                0x0000000000001f95       0x34 /home/user/Devel/stm32/gcc-arm-none-eabi-8-2018-q4-major/bin/../lib/gcc/arm-none-eabi/8.2.1/../../../../arm-none-eabi/lib/thumb/v7e-m+fp/hard/libc_nano.a(lib_a-memcmp.o)
 .ARM.attributes
                0x0000000000001fc9       0x34 /home/user/Devel/stm32/gcc-arm-none-eabi-8-2018-q4-major/bin/../lib/gcc/arm-none-eabi/8.2.1/../../../../arm-none-eabi/lib/thumb/v7e-m+fp/hard/libc_nano.a(lib_a-memcpy-stub.o)
 .ARM.attributes
                0x0000000000001ffd       0x34 /home/user/Devel/stm32/gcc-arm-none-eabi-8-2018-q4-major/bin/../lib/gcc/arm-none-eabi/8.2.1/../../../../arm-none-eabi/lib/thumb/v7e-m+fp/hard/libc_nano.a(lib_a-memmove.o)
 .ARM.attributes
                0x0000000000002031       0x34 /home/user/Devel/stm32/gcc-arm-none-eabi-8-2018-q4-major/bin/../lib/gcc/arm-none-eabi/8.2.1/../../../../arm-none-eabi/lib/thumb/v7e-m+fp/hard/libc_nano.a(lib_a-memset.o)
 .ARM.attributes
                0x0000000000002065       0x34 /home/user/Devel/stm32/gcc-arm-none-eabi-8-2018-q4-major/bin/../lib/gcc/arm-none-eabi/8.2.1/../../../../arm-none-eabi/lib/thumb/v7e-m+fp/hard/libc_nano.a(lib_a-nano-vfprintf.o)
 .ARM.attributes
                0x0000000000002099       0x34 /home/user/Devel/stm32/gcc-arm-none-eabi-8-2018-q4-major/bin/../lib/gcc/arm-none-eabi/8.2.1/../../../../arm-none-eabi/lib/thumb/v7e-m+fp/hard/libc_nano.a(lib_a-nano-vfprintf_i.o)
 .ARM.attributes
                0x00000000000020cd       0x34 /home/user/Devel/stm32/gcc-arm-none-eabi-8-2018-q4-major/bin/../lib/gcc/arm-none-eabi/8.2.1/../../../../arm-none-eabi/lib/thumb/v7e-m+fp/hard/libc_nano.a(lib_a-strchr.o)
 .ARM.attributes
                0x0000000000002101       0x1c /home/user/Devel/stm32/gcc-arm-none-eabi-8-2018-q4-major/bin/../lib/gcc/arm-none-eabi/8.2.1/../../../../arm-none-eabi/lib/thumb/v7e-m+fp/hard/libc_nano.a(lib_a-strcmp.o)
 .ARM.attributes
                0x000000000000211d       0x34 /home/user/Devel/stm32/gcc-arm-none-eabi-8-2018-q4-major/bin/../lib/gcc/arm-none-eabi/8.2.1/../../../../arm-none-eabi/lib/thumb/v7e-m+fp/hard/libc_nano.a(lib_a-strcpy.o)
 .ARM.attributes
                0x0000000000002151       0x17 /home/user/Devel/stm32/gcc-arm-none-eabi-8-2018-q4-major/bin/../lib/gcc/arm-none-eabi/8.2.1/../../../../arm-none-eabi/lib/thumb/v7e-m+fp/hard/libc_nano.a(lib_a-strlen.o)
 .ARM.attributes
                0x0000000000002168       0x34 /home/user/Devel/stm32/gcc-arm-none-eabi-8-2018-q4-major/bin/../lib/gcc/arm-none-eabi/8.2.1/../../../../arm-none-eabi/lib/thumb/v7e-m+fp/hard/libc_nano.a(lib_a-strstr.o)
 .ARM.attributes
                0x000000000000219c       0x34 /home/user/Devel/stm32/gcc-arm-none-eabi-8-2018-q4-major/bin/../lib/gcc/arm-none-eabi/8.2.1/../../../../arm-none-eabi/lib/thumb/v7e-m+fp/hard/libc_nano.a(lib_a-wbuf.o)
 .ARM.attributes
                0x00000000000021d0       0x34 /home/user/Devel/stm32/gcc-arm-none-eabi-8-2018-q4-major/bin/../lib/gcc/arm-none-eabi/8.2.1/../../../../arm-none-eabi/lib/thumb/v7e-m+fp/hard/libc_nano.a(lib_a-wsetup.o)
 .ARM.attributes
                0x0000000000002204       0x34 /home/user/Devel/stm32/gcc-arm-none-eabi-8-2018-q4-major/bin/../lib/gcc/arm-none-eabi/8.2.1/../../../../arm-none-eabi/lib/thumb/v7e-m+fp/hard/libc_nano.a(lib_a-abort.o)
 .ARM.attributes
                0x0000000000002238       0x34 /home/user/Devel/stm32/gcc-arm-none-eabi-8-2018-q4-major/bin/../lib/gcc/arm-none-eabi/8.2.1/../../../../arm-none-eabi/lib/thumb/v7e-m+fp/hard/libc_nano.a(lib_a-fflush.o)
 .ARM.attributes
                0x000000000000226c       0x34 /home/user/Devel/stm32/gcc-arm-none-eabi-8-2018-q4-major/bin/../lib/gcc/arm-none-eabi/8.2.1/../../../../arm-none-eabi/lib/thumb/v7e-m+fp/hard/libc_nano.a(lib_a-findfp.o)
 .ARM.attributes
                0x00000000000022a0       0x34 /home/user/Devel/stm32/gcc-arm-none-eabi-8-2018-q4-major/bin/../lib/gcc/arm-none-eabi/8.2.1/../../../../arm-none-eabi/lib/thumb/v7e-m+fp/hard/libc_nano.a(lib_a-fvwrite.o)
 .ARM.attributes
                0x00000000000022d4       0x34 /home/user/Devel/stm32/gcc-arm-none-eabi-8-2018-q4-major/bin/../lib/gcc/arm-none-eabi/8.2.1/../../../../arm-none-eabi/lib/thumb/v7e-m+fp/hard/libc_nano.a(lib_a-fwalk.o)
 .ARM.attributes
                0x0000000000002308       0x34 /home/user/Devel/stm32/gcc-arm-none-eabi-8-2018-q4-major/bin/../lib/gcc/arm-none-eabi/8.2.1/../../../../arm-none-eabi/lib/thumb/v7e-m+fp/hard/libc_nano.a(lib_a-lock.o)
 .ARM.attributes
                0x000000000000233c       0x34 /home/user/Devel/stm32/gcc-arm-none-eabi-8-2018-q4-major/bin/../lib/gcc/arm-none-eabi/8.2.1/../../../../arm-none-eabi/lib/thumb/v7e-m+fp/hard/libc_nano.a(lib_a-makebuf.o)
 .ARM.attributes
                0x0000000000002370       0x1c /home/user/Devel/stm32/gcc-arm-none-eabi-8-2018-q4-major/bin/../lib/gcc/arm-none-eabi/8.2.1/../../../../arm-none-eabi/lib/thumb/v7e-m+fp/hard/libc_nano.a(lib_a-memchr.o)
 .ARM.attributes
                0x000000000000238c       0x34 /home/user/Devel/stm32/gcc-arm-none-eabi-8-2018-q4-major/bin/../lib/gcc/arm-none-eabi/8.2.1/../../../../arm-none-eabi/lib/thumb/v7e-m+fp/hard/libc_nano.a(lib_a-nano-freer.o)
 .ARM.attributes
                0x00000000000023c0       0x34 /home/user/Devel/stm32/gcc-arm-none-eabi-8-2018-q4-major/bin/../lib/gcc/arm-none-eabi/8.2.1/../../../../arm-none-eabi/lib/thumb/v7e-m+fp/hard/libc_nano.a(lib_a-nano-mallocr.o)
 .ARM.attributes
                0x00000000000023f4       0x34 /home/user/Devel/stm32/gcc-arm-none-eabi-8-2018-q4-major/bin/../lib/gcc/arm-none-eabi/8.2.1/../../../../arm-none-eabi/lib/thumb/v7e-m+fp/hard/libc_nano.a(lib_a-nano-reallocr.o)
 .ARM.attributes
                0x0000000000002428       0x34 /home/user/Devel/stm32/gcc-arm-none-eabi-8-2018-q4-major/bin/../lib/gcc/arm-none-eabi/8.2.1/../../../../arm-none-eabi/lib/thumb/v7e-m+fp/hard/libc_nano.a(lib_a-sbrkr.o)
 .ARM.attributes
                0x000000000000245c       0x34 /home/user/Devel/stm32/gcc-arm-none-eabi-8-2018-q4-major/bin/../lib/gcc/arm-none-eabi/8.2.1/../../../../arm-none-eabi/lib/thumb/v7e-m+fp/hard/libc_nano.a(lib_a-signal.o)
 .ARM.attributes
                0x0000000000002490       0x34 /home/user/Devel/stm32/gcc-arm-none-eabi-8-2018-q4-major/bin/../lib/gcc/arm-none-eabi/8.2.1/../../../../arm-none-eabi/lib/thumb/v7e-m+fp/hard/libc_nano.a(lib_a-signalr.o)
 .ARM.attributes
                0x00000000000024c4       0x34 /home/user/Devel/stm32/gcc-arm-none-eabi-8-2018-q4-major/bin/../lib/gcc/arm-none-eabi/8.2.1/../../../../arm-none-eabi/lib/thumb/v7e-m+fp/hard/libc_nano.a(lib_a-stdio.o)
 .ARM.attributes
                0x00000000000024f8       0x34 /home/user/Devel/stm32/gcc-arm-none-eabi-8-2018-q4-major/bin/../lib/gcc/arm-none-eabi/8.2.1/../../../../arm-none-eabi/lib/thumb/v7e-m+fp/hard/libc_nano.a(lib_a-writer.o)
 .ARM.attributes
                0x000000000000252c       0x34 /home/user/Devel/stm32/gcc-arm-none-eabi-8-2018-q4-major/bin/../lib/gcc/arm-none-eabi/8.2.1/../../../../arm-none-eabi/lib/thumb/v7e-m+fp/hard/libc_nano.a(lib_a-closer.o)
 .ARM.attributes
                0x0000000000002560       0x34 /home/user/Devel/stm32/gcc-arm-none-eabi-8-2018-q4-major/bin/../lib/gcc/arm-none-eabi/8.2.1/../../../../arm-none-eabi/lib/thumb/v7e-m+fp/hard/libc_nano.a(lib_a-fstatr.o)
 .ARM.attributes
                0x0000000000002594       0x34 /home/user/Devel/stm32/gcc-arm-none-eabi-8-2018-q4-major/bin/../lib/gcc/arm-none-eabi/8.2.1/../../../../arm-none-eabi/lib/thumb/v7e-m+fp/hard/libc_nano.a(lib_a-isattyr.o)
 .ARM.attributes
                0x00000000000025c8       0x34 /home/user/Devel/stm32/gcc-arm-none-eabi-8-2018-q4-major/bin/../lib/gcc/arm-none-eabi/8.2.1/../../../../arm-none-eabi/lib/thumb/v7e-m+fp/hard/libc_nano.a(lib_a-lseekr.o)
 .ARM.attributes
                0x00000000000025fc       0x34 /home/user/Devel/stm32/gcc-arm-none-eabi-8-2018-q4-major/bin/../lib/gcc/arm-none-eabi/8.2.1/../../../../arm-none-eabi/lib/thumb/v7e-m+fp/hard/libc_nano.a(lib_a-mlock.o)
 .ARM.attributes
                0x0000000000002630       0x34 /home/user/Devel/stm32/gcc-arm-none-eabi-8-2018-q4-major/bin/../lib/gcc/arm-none-eabi/8.2.1/../../../../arm-none-eabi/lib/thumb/v7e-m+fp/hard/libc_nano.a(lib_a-nano-msizer.o)
 .ARM.attributes
                0x0000000000002664       0x34 /home/user/Devel/stm32/gcc-arm-none-eabi-8-2018-q4-major/bin/../lib/gcc/arm-none-eabi/8.2.1/../../../../arm-none-eabi/lib/thumb/v7e-m+fp/hard/libc_nano.a(lib_a-readr.o)
 .ARM.attributes
                0x0000000000002698       0x34 /home/user/Devel/stm32/gcc-arm-none-eabi-8-2018-q4-major/bin/../lib/gcc/arm-none-eabi/8.2.1/../../../../arm-none-eabi/lib/thumb/v7e-m+fp/hard/libc_nano.a(lib_a-reent.o)
 .ARM.attributes
                0x00000000000026cc       0x1e /home/user/Devel/stm32/gcc-arm-none-eabi-8-2018-q4-major/bin/../lib/gcc/arm-none-eabi/8.2.1/thumb/v7e-m+fp/hard/libgcc.a(_arm_addsubdf3.o)
 .ARM.attributes
                0x00000000000026ea       0x1e /home/user/Devel/stm32/gcc-arm-none-eabi-8-2018-q4-major/bin/../lib/gcc/arm-none-eabi/8.2.1/thumb/v7e-m+fp/hard/libgcc.a(_arm_muldivdf3.o)
 .ARM.attributes
                0x0000000000002708       0x1e /home/user/Devel/stm32/gcc-arm-none-eabi-8-2018-q4-major/bin/../lib/gcc/arm-none-eabi/8.2.1/thumb/v7e-m+fp/hard/libgcc.a(_arm_cmpdf2.o)
 .ARM.attributes
                0x0000000000002726       0x1e /home/user/Devel/stm32/gcc-arm-none-eabi-8-2018-q4-major/bin/../lib/gcc/arm-none-eabi/8.2.1/thumb/v7e-m+fp/hard/libgcc.a(_arm_fixdfsi.o)
 .ARM.attributes
                0x0000000000002744       0x1e /home/user/Devel/stm32/gcc-arm-none-eabi-8-2018-q4-major/bin/../lib/gcc/arm-none-eabi/8.2.1/thumb/v7e-m+fp/hard/libgcc.a(_arm_fixunsdfsi.o)
 .ARM.attributes
                0x0000000000002762       0x1e /home/user/Devel/stm32/gcc-arm-none-eabi-8-2018-q4-major/bin/../lib/gcc/arm-none-eabi/8.2.1/thumb/v7e-m+fp/hard/libgcc.a(_aeabi_uldivmod.o)
 .ARM.attributes
                0x0000000000002780       0x34 /home/user/Devel/stm32/gcc-arm-none-eabi-8-2018-q4-major/bin/../lib/gcc/arm-none-eabi/8.2.1/thumb/v7e-m+fp/hard/libgcc.a(_udivmoddi4.o)
 .ARM.attributes
                0x00000000000027b4       0x1e /home/user/Devel/stm32/gcc-arm-none-eabi-8-2018-q4-major/bin/../lib/gcc/arm-none-eabi/8.2.1/thumb/v7e-m+fp/hard/libgcc.a(_dvmd_tls.o)
 .ARM.attributes
                0x00000000000027d2       0x34 /home/user/Devel/stm32/gcc-arm-none-eabi-8-2018-q4-major/bin/../lib/gcc/arm-none-eabi/8.2.1/../../../../arm-none-eabi/lib/thumb/v7e-m+fp/hard/libnosys.a(close.o)
 .ARM.attributes
                0x0000000000002806       0x34 /home/user/Devel/stm32/gcc-arm-none-eabi-8-2018-q4-major/bin/../lib/gcc/arm-none-eabi/8.2.1/../../../../arm-none-eabi/lib/thumb/v7e-m+fp/hard/libnosys.a(fstat.o)
 .ARM.attributes
                0x000000000000283a       0x34 /home/user/Devel/stm32/gcc-arm-none-eabi-8-2018-q4-major/bin/../lib/gcc/arm-none-eabi/8.2.1/../../../../arm-none-eabi/lib/thumb/v7e-m+fp/hard/libnosys.a(getpid.o)
 .ARM.attributes
                0x000000000000286e       0x34 /home/user/Devel/stm32/gcc-arm-none-eabi-8-2018-q4-major/bin/../lib/gcc/arm-none-eabi/8.2.1/../../../../arm-none-eabi/lib/thumb/v7e-m+fp/hard/libnosys.a(isatty.o)
 .ARM.attributes
                0x00000000000028a2       0x34 /home/user/Devel/stm32/gcc-arm-none-eabi-8-2018-q4-major/bin/../lib/gcc/arm-none-eabi/8.2.1/../../../../arm-none-eabi/lib/thumb/v7e-m+fp/hard/libnosys.a(kill.o)
 .ARM.attributes
                0x00000000000028d6       0x34 /home/user/Devel/stm32/gcc-arm-none-eabi-8-2018-q4-major/bin/../lib/gcc/arm-none-eabi/8.2.1/../../../../arm-none-eabi/lib/thumb/v7e-m+fp/hard/libnosys.a(lseek.o)
 .ARM.attributes
                0x000000000000290a       0x34 /home/user/Devel/stm32/gcc-arm-none-eabi-8-2018-q4-major/bin/../lib/gcc/arm-none-eabi/8.2.1/../../../../arm-none-eabi/lib/thumb/v7e-m+fp/hard/libnosys.a(read.o)
 .ARM.attributes
                0x000000000000293e       0x34 /home/user/Devel/stm32/gcc-arm-none-eabi-8-2018-q4-major/bin/../lib/gcc/arm-none-eabi/8.2.1/../../../../arm-none-eabi/lib/thumb/v7e-m+fp/hard/libnosys.a(sbrk.o)
 .ARM.attributes
                0x0000000000002972       0x34 /home/user/Devel/stm32/gcc-arm-none-eabi-8-2018-q4-major/bin/../lib/gcc/arm-none-eabi/8.2.1/../../../../arm-none-eabi/lib/thumb/v7e-m+fp/hard/libnosys.a(write.o)
 .ARM.attributes
                0x00000000000029a6       0x34 /home/user/Devel/stm32/gcc-arm-none-eabi-8-2018-q4-major/bin/../lib/gcc/arm-none-eabi/8.2.1/../../../../arm-none-eabi/lib/thumb/v7e-m+fp/hard/libnosys.a(_exit.o)

.debug_frame    0x0000000000000000     0xb3dc
 .debug_frame   0x0000000000000000       0xe4 ././drivers/bluetooth/bt_usart.o
 .debug_frame   0x00000000000000e4       0xd8 ././drivers/usb/mew_usb_hid.o
 .debug_frame   0x00000000000001bc      0x138 ././drivers/display/display.o
 .debug_frame   0x00000000000002f4       0x74 ././drivers/display/ts_tsc2007.o
 .debug_frame   0x0000000000000368       0x58 ././drivers/flash/otp_storage.o
 .debug_frame   0x00000000000003c0       0xf4 ././drivers/i2c/i2c.o
 .debug_frame   0x00000000000004b4       0x5c ././drivers/spi_flash/w25n01gvzeig.o
 .debug_frame   0x0000000000000510       0xe0 ././drivers/spi_flash/flash.o
 .debug_frame   0x00000000000005f0       0x28 ././drivers/system/clock.o
 .debug_frame   0x0000000000000618       0x58 ././drivers/system/systick.o
 .debug_frame   0x0000000000000670       0x3c ././drivers/system/system.o
 .debug_frame   0x00000000000006ac       0x5c ././drivers/system/random.o
 .debug_frame   0x0000000000000708       0xd4 ././drivers/duart/duart.o
 .debug_frame   0x00000000000007dc       0x68 ././drivers/hw_crypt/aes256.o
 .debug_frame   0x0000000000000844       0x74 ././drivers/hw_crypt/secure_eeprom.o
 .debug_frame   0x00000000000008b8       0xdc ././drivers/hw_crypt/P256-cortex-ecdh.o
 .debug_frame   0x0000000000000994       0x54 ././drivers/hw_crypt/sha2_256.o
 .debug_frame   0x00000000000009e8       0x88 ././app/pwd_generator/mew_xor_algo.o
 .debug_frame   0x0000000000000a70       0x38 ././app/pwd_generator/mew_passgen.o
 .debug_frame   0x0000000000000aa8       0xd0 ././app/packet_parser/parser.o
 .debug_frame   0x0000000000000b78      0x3a4 ././app/qr_code/qrcodegen.o
 .debug_frame   0x0000000000000f1c       0xb0 ././debug.o
 .debug_frame   0x0000000000000fcc       0x30 ././mew.o
 .debug_frame   0x0000000000000ffc      0x168 ././lvgl/src/lv_hal/lv_hal_disp.o
 .debug_frame   0x0000000000001164       0x58 ././lvgl/src/lv_hal/lv_hal_tick.o
 .debug_frame   0x00000000000011bc       0x78 ././lvgl/src/lv_hal/lv_hal_indev.o
 .debug_frame   0x0000000000001234      0x158 ././lvgl/src/lv_font/lv_font_fmt_txt.o
 .debug_frame   0x000000000000138c       0x5c ././lvgl/src/lv_font/lv_font.o
 .debug_frame   0x00000000000013e8       0x34 ././lvgl/src/lv_misc/lv_gc.o
 .debug_frame   0x000000000000141c      0x1f8 ././lvgl/src/lv_misc/lv_printf.o
 .debug_frame   0x0000000000001614      0x128 ././lvgl/src/lv_misc/lv_mem.o
 .debug_frame   0x000000000000173c      0x26c ././lvgl/src/lv_misc/lv_txt.o
 .debug_frame   0x00000000000019a8      0x118 ././lvgl/src/lv_misc/lv_area.o
 .debug_frame   0x0000000000001ac0       0x5c ././lvgl/src/lv_misc/lv_utils.o
 .debug_frame   0x0000000000001b1c      0x1b8 ././lvgl/src/lv_misc/lv_ll.o
 .debug_frame   0x0000000000001cd4       0x80 ././lvgl/src/lv_misc/lv_color.o
 .debug_frame   0x0000000000001d54       0x5c ././lvgl/src/lv_misc/lv_circ.o
 .debug_frame   0x0000000000001db0      0x170 ././lvgl/src/lv_misc/lv_task.o
 .debug_frame   0x0000000000001f20       0x4c ././lvgl/src/lv_misc/lv_async.o
 .debug_frame   0x0000000000001f6c       0x80 ././lvgl/src/lv_misc/lv_math.o
 .debug_frame   0x0000000000001fec       0x3c ././lvgl/src/lv_themes/lv_theme.o
 .debug_frame   0x0000000000002028       0x88 ././lvgl/src/lv_themes/lv_theme_material.o
 .debug_frame   0x00000000000020b0       0xe8 ././lvgl/src/lv_core/lv_disp.o
 .debug_frame   0x0000000000002198       0xc4 ././lvgl/src/lv_core/lv_debug.o
 .debug_frame   0x000000000000225c      0x230 ././lvgl/src/lv_core/lv_indev.o
 .debug_frame   0x000000000000248c      0x174 ././lvgl/src/lv_core/lv_refr.o
 .debug_frame   0x0000000000002600      0xba0 ././lvgl/src/lv_core/lv_obj.o
 .debug_frame   0x00000000000031a0       0x78 ././lvgl/src/lv_core/lv_style.o
 .debug_frame   0x0000000000003218      0x348 ././lvgl/src/lv_core/lv_group.o
 .debug_frame   0x0000000000003560      0x1fc ././lvgl/src/lv_objx/lv_spinbox.o
 .debug_frame   0x000000000000375c      0x2c8 ././lvgl/src/lv_objx/lv_roller.o
 .debug_frame   0x0000000000003a24      0x11c ././lvgl/src/lv_objx/lv_led.o
 .debug_frame   0x0000000000003b40      0x198 ././lvgl/src/lv_objx/lv_img.o
 .debug_frame   0x0000000000003cd8      0x150 ././lvgl/src/lv_objx/lv_imgbtn.o
 .debug_frame   0x0000000000003e28      0x1ec ././lvgl/src/lv_objx/lv_lmeter.o
 .debug_frame   0x0000000000004014      0x148 ././lvgl/src/lv_objx/lv_arc.o
 .debug_frame   0x000000000000415c      0x1e4 ././lvgl/src/lv_objx/lv_bar.o
 .debug_frame   0x0000000000004340      0x40c ././lvgl/src/lv_objx/lv_tabview.o
 .debug_frame   0x000000000000474c      0x2e0 ././lvgl/src/lv_objx/lv_mbox.o
 .debug_frame   0x0000000000004a2c      0x18c ././lvgl/src/lv_objx/lv_slider.o
 .debug_frame   0x0000000000004bb8      0x180 ././lvgl/src/lv_objx/lv_gauge.o
 .debug_frame   0x0000000000004d38      0x378 ././lvgl/src/lv_objx/lv_win.o
 .debug_frame   0x00000000000050b0      0x43c ././lvgl/src/lv_objx/lv_cpicker.o
 .debug_frame   0x00000000000054ec      0x14c ././lvgl/src/lv_objx/lv_line.o
 .debug_frame   0x0000000000005638      0x19c ././lvgl/src/lv_objx/lv_cont.o
 .debug_frame   0x00000000000057d4      0x1a0 ././lvgl/src/lv_objx/lv_tileview.o
 .debug_frame   0x0000000000005974      0x2f8 ././lvgl/src/lv_objx/lv_canvas.o
 .debug_frame   0x0000000000005c6c      0x494 ././lvgl/src/lv_objx/lv_label.o
 .debug_frame   0x0000000000006100      0x42c ././lvgl/src/lv_objx/lv_ddlist.o
 .debug_frame   0x000000000000652c      0x41c ././lvgl/src/lv_objx/lv_list.o
 .debug_frame   0x0000000000006948      0x1e0 ././lvgl/src/lv_objx/lv_btn.o
 .debug_frame   0x0000000000006b28      0x3f8 ././lvgl/src/lv_objx/lv_btnm.o
 .debug_frame   0x0000000000006f20      0x72c ././lvgl/src/lv_objx/lv_ta.o
 .debug_frame   0x000000000000764c      0x404 ././lvgl/src/lv_objx/lv_page.o
 .debug_frame   0x0000000000007a50      0x3a4 ././lvgl/src/lv_objx/lv_table.o
 .debug_frame   0x0000000000007df4      0x1e4 ././lvgl/src/lv_objx/lv_cb.o
 .debug_frame   0x0000000000007fd8      0x164 ././lvgl/src/lv_objx/lv_sw.o
 .debug_frame   0x000000000000813c      0x1e8 ././lvgl/src/lv_draw/lv_draw_img.o
 .debug_frame   0x0000000000008324       0x88 ././lvgl/src/lv_draw/lv_draw_arc.o
 .debug_frame   0x00000000000083ac       0xac ././lvgl/src/lv_draw/lv_draw.o
 .debug_frame   0x0000000000008458       0xec ././lvgl/src/lv_draw/lv_draw_triangle.o
 .debug_frame   0x0000000000008544       0x70 ././lvgl/src/lv_draw/lv_img_cache.o
 .debug_frame   0x00000000000085b4      0x194 ././lvgl/src/lv_draw/lv_img_decoder.o
 .debug_frame   0x0000000000008748       0xf4 ././lvgl/src/lv_draw/lv_draw_basic.o
 .debug_frame   0x000000000000883c       0x88 ././lvgl/src/lv_draw/lv_draw_line.o
 .debug_frame   0x00000000000088c4       0x54 ././lvgl/src/lv_draw/lv_draw_label.o
 .debug_frame   0x0000000000008918       0x84 ././lvgl/src/lv_draw/lv_draw_rect.o
 .debug_frame   0x000000000000899c       0x60 ././ui/ui_msgbox.o
 .debug_frame   0x00000000000089fc       0x50 ././ui/ui_lhandlers.o
 .debug_frame   0x0000000000008a4c       0x58 ././ui/qrcode_ui.o
 .debug_frame   0x0000000000008aa4       0x9c ././ui/ui_header.o
 .debug_frame   0x0000000000008b40      0x188 ././ui/ui_win_startup_1.o
 .debug_frame   0x0000000000008cc8       0x20 ././ui/ui_main_win.o
 .debug_frame   0x0000000000008ce8      0x1fc /home/user/Devel/stm32/libopencm3/lib/libopencm3_stm32f4.a(rcc.o)
 .debug_frame   0x0000000000008ee4       0x48 /home/user/Devel/stm32/libopencm3/lib/libopencm3_stm32f4.a(crc_common_all.o)
 .debug_frame   0x0000000000008f2c      0x314 /home/user/Devel/stm32/libopencm3/lib/libopencm3_stm32f4.a(dma_common_f24.o)
 .debug_frame   0x0000000000009240       0x80 /home/user/Devel/stm32/libopencm3/lib/libopencm3_stm32f4.a(gpio_common_all.o)
 .debug_frame   0x00000000000092c0       0x70 /home/user/Devel/stm32/libopencm3/lib/libopencm3_stm32f4.a(gpio_common_f0234.o)
 .debug_frame   0x0000000000009330      0x21c /home/user/Devel/stm32/libopencm3/lib/libopencm3_stm32f4.a(i2c_common_v1.o)
 .debug_frame   0x000000000000954c      0x2d0 /home/user/Devel/stm32/libopencm3/lib/libopencm3_stm32f4.a(spi_common_all.o)
 .debug_frame   0x000000000000981c       0x4c /home/user/Devel/stm32/libopencm3/lib/libopencm3_stm32f4.a(spi_common_l1f124.o)
 .debug_frame   0x0000000000009868      0x178 /home/user/Devel/stm32/libopencm3/lib/libopencm3_stm32f4.a(usart_common_all.o)
 .debug_frame   0x00000000000099e0       0x60 /home/user/Devel/stm32/libopencm3/lib/libopencm3_stm32f4.a(usart_common_f124.o)
 .debug_frame   0x0000000000009a40       0x80 /home/user/Devel/stm32/libopencm3/lib/libopencm3_stm32f4.a(flash_common_f234.o)
 .debug_frame   0x0000000000009ac0      0x1ec /home/user/Devel/stm32/libopencm3/lib/libopencm3_stm32f4.a(flash_common_f24.o)
 .debug_frame   0x0000000000009cac       0x88 /home/user/Devel/stm32/libopencm3/lib/libopencm3_stm32f4.a(exti_common_all.o)
 .debug_frame   0x0000000000009d34       0xb0 /home/user/Devel/stm32/libopencm3/lib/libopencm3_stm32f4.a(rcc_common_all.o)
 .debug_frame   0x0000000000009de4      0x13c /home/user/Devel/stm32/libopencm3/lib/libopencm3_stm32f4.a(usb.o)
 .debug_frame   0x0000000000009f20      0x1ec /home/user/Devel/stm32/libopencm3/lib/libopencm3_stm32f4.a(usb_standard.o)
 .debug_frame   0x000000000000a10c      0x154 /home/user/Devel/stm32/libopencm3/lib/libopencm3_stm32f4.a(usb_control.o)
 .debug_frame   0x000000000000a260       0x28 /home/user/Devel/stm32/libopencm3/lib/libopencm3_stm32f4.a(usb_f107.o)
 .debug_frame   0x000000000000a288       0x40 /home/user/Devel/stm32/libopencm3/lib/libopencm3_stm32f4.a(vector.o)
 .debug_frame   0x000000000000a2c8       0xd8 /home/user/Devel/stm32/libopencm3/lib/libopencm3_stm32f4.a(systick.o)
 .debug_frame   0x000000000000a3a0       0xa0 /home/user/Devel/stm32/libopencm3/lib/libopencm3_stm32f4.a(nvic.o)
 .debug_frame   0x000000000000a440       0x20 /home/user/Devel/stm32/libopencm3/lib/libopencm3_stm32f4.a(pwr.o)
 .debug_frame   0x000000000000a460      0x110 /home/user/Devel/stm32/libopencm3/lib/libopencm3_stm32f4.a(usb_fx07_common.o)
 .debug_frame   0x000000000000a570       0x40 /home/user/Devel/stm32/gcc-arm-none-eabi-8-2018-q4-major/bin/../lib/gcc/arm-none-eabi/8.2.1/../../../../arm-none-eabi/lib/thumb/v7e-m+fp/hard/libc_nano.a(lib_a-assert.o)
 .debug_frame   0x000000000000a5b0       0x64 /home/user/Devel/stm32/gcc-arm-none-eabi-8-2018-q4-major/bin/../lib/gcc/arm-none-eabi/8.2.1/../../../../arm-none-eabi/lib/thumb/v7e-m+fp/hard/libc_nano.a(lib_a-fprintf.o)
 .debug_frame   0x000000000000a614       0x2c /home/user/Devel/stm32/gcc-arm-none-eabi-8-2018-q4-major/bin/../lib/gcc/arm-none-eabi/8.2.1/../../../../arm-none-eabi/lib/thumb/v7e-m+fp/hard/libc_nano.a(lib_a-memcmp.o)
 .debug_frame   0x000000000000a640       0x28 /home/user/Devel/stm32/gcc-arm-none-eabi-8-2018-q4-major/bin/../lib/gcc/arm-none-eabi/8.2.1/../../../../arm-none-eabi/lib/thumb/v7e-m+fp/hard/libc_nano.a(lib_a-memcpy-stub.o)
 .debug_frame   0x000000000000a668       0x28 /home/user/Devel/stm32/gcc-arm-none-eabi-8-2018-q4-major/bin/../lib/gcc/arm-none-eabi/8.2.1/../../../../arm-none-eabi/lib/thumb/v7e-m+fp/hard/libc_nano.a(lib_a-memmove.o)
 .debug_frame   0x000000000000a690       0x20 /home/user/Devel/stm32/gcc-arm-none-eabi-8-2018-q4-major/bin/../lib/gcc/arm-none-eabi/8.2.1/../../../../arm-none-eabi/lib/thumb/v7e-m+fp/hard/libc_nano.a(lib_a-memset.o)
 .debug_frame   0x000000000000a6b0       0xac /home/user/Devel/stm32/gcc-arm-none-eabi-8-2018-q4-major/bin/../lib/gcc/arm-none-eabi/8.2.1/../../../../arm-none-eabi/lib/thumb/v7e-m+fp/hard/libc_nano.a(lib_a-nano-vfprintf.o)
 .debug_frame   0x000000000000a75c       0x60 /home/user/Devel/stm32/gcc-arm-none-eabi-8-2018-q4-major/bin/../lib/gcc/arm-none-eabi/8.2.1/../../../../arm-none-eabi/lib/thumb/v7e-m+fp/hard/libc_nano.a(lib_a-nano-vfprintf_i.o)
 .debug_frame   0x000000000000a7bc       0x20 /home/user/Devel/stm32/gcc-arm-none-eabi-8-2018-q4-major/bin/../lib/gcc/arm-none-eabi/8.2.1/../../../../arm-none-eabi/lib/thumb/v7e-m+fp/hard/libc_nano.a(lib_a-strchr.o)
 .debug_frame   0x000000000000a7dc       0x20 /home/user/Devel/stm32/gcc-arm-none-eabi-8-2018-q4-major/bin/../lib/gcc/arm-none-eabi/8.2.1/../../../../arm-none-eabi/lib/thumb/v7e-m+fp/hard/libc_nano.a(lib_a-strcmp.o)
 .debug_frame   0x000000000000a7fc       0x20 /home/user/Devel/stm32/gcc-arm-none-eabi-8-2018-q4-major/bin/../lib/gcc/arm-none-eabi/8.2.1/../../../../arm-none-eabi/lib/thumb/v7e-m+fp/hard/libc_nano.a(lib_a-strcpy.o)
 .debug_frame   0x000000000000a81c       0x30 /home/user/Devel/stm32/gcc-arm-none-eabi-8-2018-q4-major/bin/../lib/gcc/arm-none-eabi/8.2.1/../../../../arm-none-eabi/lib/thumb/v7e-m+fp/hard/libc_nano.a(lib_a-strstr.o)
 .debug_frame   0x000000000000a84c       0x40 /home/user/Devel/stm32/gcc-arm-none-eabi-8-2018-q4-major/bin/../lib/gcc/arm-none-eabi/8.2.1/../../../../arm-none-eabi/lib/thumb/v7e-m+fp/hard/libc_nano.a(lib_a-wbuf.o)
 .debug_frame   0x000000000000a88c       0x2c /home/user/Devel/stm32/gcc-arm-none-eabi-8-2018-q4-major/bin/../lib/gcc/arm-none-eabi/8.2.1/../../../../arm-none-eabi/lib/thumb/v7e-m+fp/hard/libc_nano.a(lib_a-wsetup.o)
 .debug_frame   0x000000000000a8b8       0x28 /home/user/Devel/stm32/gcc-arm-none-eabi-8-2018-q4-major/bin/../lib/gcc/arm-none-eabi/8.2.1/../../../../arm-none-eabi/lib/thumb/v7e-m+fp/hard/libc_nano.a(lib_a-abort.o)
 .debug_frame   0x000000000000a8e0       0x5c /home/user/Devel/stm32/gcc-arm-none-eabi-8-2018-q4-major/bin/../lib/gcc/arm-none-eabi/8.2.1/../../../../arm-none-eabi/lib/thumb/v7e-m+fp/hard/libc_nano.a(lib_a-fflush.o)
 .debug_frame   0x000000000000a93c      0x14c /home/user/Devel/stm32/gcc-arm-none-eabi-8-2018-q4-major/bin/../lib/gcc/arm-none-eabi/8.2.1/../../../../arm-none-eabi/lib/thumb/v7e-m+fp/hard/libc_nano.a(lib_a-findfp.o)
 .debug_frame   0x000000000000aa88       0x3c /home/user/Devel/stm32/gcc-arm-none-eabi-8-2018-q4-major/bin/../lib/gcc/arm-none-eabi/8.2.1/../../../../arm-none-eabi/lib/thumb/v7e-m+fp/hard/libc_nano.a(lib_a-fvwrite.o)
 .debug_frame   0x000000000000aac4       0x54 /home/user/Devel/stm32/gcc-arm-none-eabi-8-2018-q4-major/bin/../lib/gcc/arm-none-eabi/8.2.1/../../../../arm-none-eabi/lib/thumb/v7e-m+fp/hard/libc_nano.a(lib_a-fwalk.o)
 .debug_frame   0x000000000000ab18       0xb0 /home/user/Devel/stm32/gcc-arm-none-eabi-8-2018-q4-major/bin/../lib/gcc/arm-none-eabi/8.2.1/../../../../arm-none-eabi/lib/thumb/v7e-m+fp/hard/libc_nano.a(lib_a-lock.o)
 .debug_frame   0x000000000000abc8       0x58 /home/user/Devel/stm32/gcc-arm-none-eabi-8-2018-q4-major/bin/../lib/gcc/arm-none-eabi/8.2.1/../../../../arm-none-eabi/lib/thumb/v7e-m+fp/hard/libc_nano.a(lib_a-makebuf.o)
 .debug_frame   0x000000000000ac20       0x38 /home/user/Devel/stm32/gcc-arm-none-eabi-8-2018-q4-major/bin/../lib/gcc/arm-none-eabi/8.2.1/../../../../arm-none-eabi/lib/thumb/v7e-m+fp/hard/libc_nano.a(lib_a-nano-freer.o)
 .debug_frame   0x000000000000ac58       0x30 /home/user/Devel/stm32/gcc-arm-none-eabi-8-2018-q4-major/bin/../lib/gcc/arm-none-eabi/8.2.1/../../../../arm-none-eabi/lib/thumb/v7e-m+fp/hard/libc_nano.a(lib_a-nano-mallocr.o)
 .debug_frame   0x000000000000ac88       0x3c /home/user/Devel/stm32/gcc-arm-none-eabi-8-2018-q4-major/bin/../lib/gcc/arm-none-eabi/8.2.1/../../../../arm-none-eabi/lib/thumb/v7e-m+fp/hard/libc_nano.a(lib_a-nano-reallocr.o)
 .debug_frame   0x000000000000acc4       0x2c /home/user/Devel/stm32/gcc-arm-none-eabi-8-2018-q4-major/bin/../lib/gcc/arm-none-eabi/8.2.1/../../../../arm-none-eabi/lib/thumb/v7e-m+fp/hard/libc_nano.a(lib_a-sbrkr.o)
 .debug_frame   0x000000000000acf0       0xcc /home/user/Devel/stm32/gcc-arm-none-eabi-8-2018-q4-major/bin/../lib/gcc/arm-none-eabi/8.2.1/../../../../arm-none-eabi/lib/thumb/v7e-m+fp/hard/libc_nano.a(lib_a-signal.o)
 .debug_frame   0x000000000000adbc       0x3c /home/user/Devel/stm32/gcc-arm-none-eabi-8-2018-q4-major/bin/../lib/gcc/arm-none-eabi/8.2.1/../../../../arm-none-eabi/lib/thumb/v7e-m+fp/hard/libc_nano.a(lib_a-signalr.o)
 .debug_frame   0x000000000000adf8       0x88 /home/user/Devel/stm32/gcc-arm-none-eabi-8-2018-q4-major/bin/../lib/gcc/arm-none-eabi/8.2.1/../../../../arm-none-eabi/lib/thumb/v7e-m+fp/hard/libc_nano.a(lib_a-stdio.o)
 .debug_frame   0x000000000000ae80       0x2c /home/user/Devel/stm32/gcc-arm-none-eabi-8-2018-q4-major/bin/../lib/gcc/arm-none-eabi/8.2.1/../../../../arm-none-eabi/lib/thumb/v7e-m+fp/hard/libc_nano.a(lib_a-writer.o)
 .debug_frame   0x000000000000aeac       0x2c /home/user/Devel/stm32/gcc-arm-none-eabi-8-2018-q4-major/bin/../lib/gcc/arm-none-eabi/8.2.1/../../../../arm-none-eabi/lib/thumb/v7e-m+fp/hard/libc_nano.a(lib_a-closer.o)
 .debug_frame   0x000000000000aed8       0x2c /home/user/Devel/stm32/gcc-arm-none-eabi-8-2018-q4-major/bin/../lib/gcc/arm-none-eabi/8.2.1/../../../../arm-none-eabi/lib/thumb/v7e-m+fp/hard/libc_nano.a(lib_a-fstatr.o)
 .debug_frame   0x000000000000af04       0x2c /home/user/Devel/stm32/gcc-arm-none-eabi-8-2018-q4-major/bin/../lib/gcc/arm-none-eabi/8.2.1/../../../../arm-none-eabi/lib/thumb/v7e-m+fp/hard/libc_nano.a(lib_a-isattyr.o)
 .debug_frame   0x000000000000af30       0x2c /home/user/Devel/stm32/gcc-arm-none-eabi-8-2018-q4-major/bin/../lib/gcc/arm-none-eabi/8.2.1/../../../../arm-none-eabi/lib/thumb/v7e-m+fp/hard/libc_nano.a(lib_a-lseekr.o)
 .debug_frame   0x000000000000af5c       0x30 /home/user/Devel/stm32/gcc-arm-none-eabi-8-2018-q4-major/bin/../lib/gcc/arm-none-eabi/8.2.1/../../../../arm-none-eabi/lib/thumb/v7e-m+fp/hard/libc_nano.a(lib_a-mlock.o)
 .debug_frame   0x000000000000af8c       0x20 /home/user/Devel/stm32/gcc-arm-none-eabi-8-2018-q4-major/bin/../lib/gcc/arm-none-eabi/8.2.1/../../../../arm-none-eabi/lib/thumb/v7e-m+fp/hard/libc_nano.a(lib_a-nano-msizer.o)
 .debug_frame   0x000000000000afac       0x2c /home/user/Devel/stm32/gcc-arm-none-eabi-8-2018-q4-major/bin/../lib/gcc/arm-none-eabi/8.2.1/../../../../arm-none-eabi/lib/thumb/v7e-m+fp/hard/libc_nano.a(lib_a-readr.o)
 .debug_frame   0x000000000000afd8       0x5c /home/user/Devel/stm32/gcc-arm-none-eabi-8-2018-q4-major/bin/../lib/gcc/arm-none-eabi/8.2.1/../../../../arm-none-eabi/lib/thumb/v7e-m+fp/hard/libc_nano.a(lib_a-reent.o)
 .debug_frame   0x000000000000b034       0xac /home/user/Devel/stm32/gcc-arm-none-eabi-8-2018-q4-major/bin/../lib/gcc/arm-none-eabi/8.2.1/thumb/v7e-m+fp/hard/libgcc.a(_arm_addsubdf3.o)
 .debug_frame   0x000000000000b0e0       0x50 /home/user/Devel/stm32/gcc-arm-none-eabi-8-2018-q4-major/bin/../lib/gcc/arm-none-eabi/8.2.1/thumb/v7e-m+fp/hard/libgcc.a(_arm_muldivdf3.o)
 .debug_frame   0x000000000000b130       0xc4 /home/user/Devel/stm32/gcc-arm-none-eabi-8-2018-q4-major/bin/../lib/gcc/arm-none-eabi/8.2.1/thumb/v7e-m+fp/hard/libgcc.a(_arm_cmpdf2.o)
 .debug_frame   0x000000000000b1f4       0x24 /home/user/Devel/stm32/gcc-arm-none-eabi-8-2018-q4-major/bin/../lib/gcc/arm-none-eabi/8.2.1/thumb/v7e-m+fp/hard/libgcc.a(_arm_fixdfsi.o)
 .debug_frame   0x000000000000b218       0x24 /home/user/Devel/stm32/gcc-arm-none-eabi-8-2018-q4-major/bin/../lib/gcc/arm-none-eabi/8.2.1/thumb/v7e-m+fp/hard/libgcc.a(_arm_fixunsdfsi.o)
 .debug_frame   0x000000000000b23c       0x2c /home/user/Devel/stm32/gcc-arm-none-eabi-8-2018-q4-major/bin/../lib/gcc/arm-none-eabi/8.2.1/thumb/v7e-m+fp/hard/libgcc.a(_aeabi_uldivmod.o)
 .debug_frame   0x000000000000b268       0x34 /home/user/Devel/stm32/gcc-arm-none-eabi-8-2018-q4-major/bin/../lib/gcc/arm-none-eabi/8.2.1/thumb/v7e-m+fp/hard/libgcc.a(_udivmoddi4.o)
 .debug_frame   0x000000000000b29c       0x20 /home/user/Devel/stm32/gcc-arm-none-eabi-8-2018-q4-major/bin/../lib/gcc/arm-none-eabi/8.2.1/../../../../arm-none-eabi/lib/thumb/v7e-m+fp/hard/libnosys.a(close.o)
 .debug_frame   0x000000000000b2bc       0x20 /home/user/Devel/stm32/gcc-arm-none-eabi-8-2018-q4-major/bin/../lib/gcc/arm-none-eabi/8.2.1/../../../../arm-none-eabi/lib/thumb/v7e-m+fp/hard/libnosys.a(fstat.o)
 .debug_frame   0x000000000000b2dc       0x20 /home/user/Devel/stm32/gcc-arm-none-eabi-8-2018-q4-major/bin/../lib/gcc/arm-none-eabi/8.2.1/../../../../arm-none-eabi/lib/thumb/v7e-m+fp/hard/libnosys.a(getpid.o)
 .debug_frame   0x000000000000b2fc       0x20 /home/user/Devel/stm32/gcc-arm-none-eabi-8-2018-q4-major/bin/../lib/gcc/arm-none-eabi/8.2.1/../../../../arm-none-eabi/lib/thumb/v7e-m+fp/hard/libnosys.a(isatty.o)
 .debug_frame   0x000000000000b31c       0x20 /home/user/Devel/stm32/gcc-arm-none-eabi-8-2018-q4-major/bin/../lib/gcc/arm-none-eabi/8.2.1/../../../../arm-none-eabi/lib/thumb/v7e-m+fp/hard/libnosys.a(kill.o)
 .debug_frame   0x000000000000b33c       0x20 /home/user/Devel/stm32/gcc-arm-none-eabi-8-2018-q4-major/bin/../lib/gcc/arm-none-eabi/8.2.1/../../../../arm-none-eabi/lib/thumb/v7e-m+fp/hard/libnosys.a(lseek.o)
 .debug_frame   0x000000000000b35c       0x20 /home/user/Devel/stm32/gcc-arm-none-eabi-8-2018-q4-major/bin/../lib/gcc/arm-none-eabi/8.2.1/../../../../arm-none-eabi/lib/thumb/v7e-m+fp/hard/libnosys.a(read.o)
 .debug_frame   0x000000000000b37c       0x20 /home/user/Devel/stm32/gcc-arm-none-eabi-8-2018-q4-major/bin/../lib/gcc/arm-none-eabi/8.2.1/../../../../arm-none-eabi/lib/thumb/v7e-m+fp/hard/libnosys.a(sbrk.o)
 .debug_frame   0x000000000000b39c       0x20 /home/user/Devel/stm32/gcc-arm-none-eabi-8-2018-q4-major/bin/../lib/gcc/arm-none-eabi/8.2.1/../../../../arm-none-eabi/lib/thumb/v7e-m+fp/hard/libnosys.a(write.o)
 .debug_frame   0x000000000000b3bc       0x20 /home/user/Devel/stm32/gcc-arm-none-eabi-8-2018-q4-major/bin/../lib/gcc/arm-none-eabi/8.2.1/../../../../arm-none-eabi/lib/thumb/v7e-m+fp/hard/libnosys.a(_exit.o)

.debug_macro    0x0000000000000000     0x7039
 .debug_macro   0x0000000000000000      0x106 /home/user/Devel/stm32/libopencm3/lib/libopencm3_stm32f4.a(rcc.o)
 .debug_macro   0x0000000000000106      0x88c /home/user/Devel/stm32/libopencm3/lib/libopencm3_stm32f4.a(rcc.o)
 .debug_macro   0x0000000000000992       0x22 /home/user/Devel/stm32/libopencm3/lib/libopencm3_stm32f4.a(rcc.o)
 .debug_macro   0x00000000000009b4       0x87 /home/user/Devel/stm32/libopencm3/lib/libopencm3_stm32f4.a(rcc.o)
 .debug_macro   0x0000000000000a3b       0x44 /home/user/Devel/stm32/libopencm3/lib/libopencm3_stm32f4.a(rcc.o)
 .debug_macro   0x0000000000000a7f       0xfd /home/user/Devel/stm32/libopencm3/lib/libopencm3_stm32f4.a(rcc.o)
 .debug_macro   0x0000000000000b7c       0x5e /home/user/Devel/stm32/libopencm3/lib/libopencm3_stm32f4.a(rcc.o)
 .debug_macro   0x0000000000000bda      0x1df /home/user/Devel/stm32/libopencm3/lib/libopencm3_stm32f4.a(rcc.o)
 .debug_macro   0x0000000000000db9       0x22 /home/user/Devel/stm32/libopencm3/lib/libopencm3_stm32f4.a(rcc.o)
 .debug_macro   0x0000000000000ddb       0xfa /home/user/Devel/stm32/libopencm3/lib/libopencm3_stm32f4.a(rcc.o)
 .debug_macro   0x0000000000000ed5       0x16 /home/user/Devel/stm32/libopencm3/lib/libopencm3_stm32f4.a(rcc.o)
 .debug_macro   0x0000000000000eeb       0x58 /home/user/Devel/stm32/libopencm3/lib/libopencm3_stm32f4.a(rcc.o)
 .debug_macro   0x0000000000000f43      0x26d /home/user/Devel/stm32/libopencm3/lib/libopencm3_stm32f4.a(rcc.o)
 .debug_macro   0x00000000000011b0      0xb3f /home/user/Devel/stm32/libopencm3/lib/libopencm3_stm32f4.a(rcc.o)
 .debug_macro   0x0000000000001cef       0x8e /home/user/Devel/stm32/libopencm3/lib/libopencm3_stm32f4.a(rcc.o)
 .debug_macro   0x0000000000001d7d       0x22 /home/user/Devel/stm32/libopencm3/lib/libopencm3_stm32f4.a(rcc.o)
 .debug_macro   0x0000000000001d9f       0x6a /home/user/Devel/stm32/libopencm3/lib/libopencm3_stm32f4.a(rcc.o)
 .debug_macro   0x0000000000001e09       0xf4 /home/user/Devel/stm32/libopencm3/lib/libopencm3_stm32f4.a(rcc.o)
 .debug_macro   0x0000000000001efd       0xb4 /home/user/Devel/stm32/libopencm3/lib/libopencm3_stm32f4.a(crc_common_all.o)
 .debug_macro   0x0000000000001fb1       0x22 /home/user/Devel/stm32/libopencm3/lib/libopencm3_stm32f4.a(crc_common_all.o)
 .debug_macro   0x0000000000001fd3       0xb4 /home/user/Devel/stm32/libopencm3/lib/libopencm3_stm32f4.a(dma_common_f24.o)
 .debug_macro   0x0000000000002087      0x86d /home/user/Devel/stm32/libopencm3/lib/libopencm3_stm32f4.a(dma_common_f24.o)
 .debug_macro   0x00000000000028f4       0xd2 /home/user/Devel/stm32/libopencm3/lib/libopencm3_stm32f4.a(gpio_common_all.o)
 .debug_macro   0x00000000000029c6       0x76 /home/user/Devel/stm32/libopencm3/lib/libopencm3_stm32f4.a(gpio_common_all.o)
 .debug_macro   0x0000000000002a3c      0x2e6 /home/user/Devel/stm32/libopencm3/lib/libopencm3_stm32f4.a(gpio_common_all.o)
 .debug_macro   0x0000000000002d22      0x14e /home/user/Devel/stm32/libopencm3/lib/libopencm3_stm32f4.a(gpio_common_all.o)
 .debug_macro   0x0000000000002e70       0xd2 /home/user/Devel/stm32/libopencm3/lib/libopencm3_stm32f4.a(gpio_common_f0234.o)
 .debug_macro   0x0000000000002f42       0xe1 /home/user/Devel/stm32/libopencm3/lib/libopencm3_stm32f4.a(i2c_common_v1.o)
 .debug_macro   0x0000000000003023      0x174 /home/user/Devel/stm32/libopencm3/lib/libopencm3_stm32f4.a(i2c_common_v1.o)
 .debug_macro   0x0000000000003197      0x327 /home/user/Devel/stm32/libopencm3/lib/libopencm3_stm32f4.a(i2c_common_v1.o)
 .debug_macro   0x00000000000034be       0xea /home/user/Devel/stm32/libopencm3/lib/libopencm3_stm32f4.a(spi_common_all.o)
 .debug_macro   0x00000000000035a8      0x2eb /home/user/Devel/stm32/libopencm3/lib/libopencm3_stm32f4.a(spi_common_all.o)
 .debug_macro   0x0000000000003893       0x16 /home/user/Devel/stm32/libopencm3/lib/libopencm3_stm32f4.a(spi_common_all.o)
 .debug_macro   0x00000000000038a9       0x1c /home/user/Devel/stm32/libopencm3/lib/libopencm3_stm32f4.a(spi_common_all.o)
 .debug_macro   0x00000000000038c5       0xea /home/user/Devel/stm32/libopencm3/lib/libopencm3_stm32f4.a(spi_common_l1f124.o)
 .debug_macro   0x00000000000039af       0xea /home/user/Devel/stm32/libopencm3/lib/libopencm3_stm32f4.a(usart_common_all.o)
 .debug_macro   0x0000000000003a99       0x8e /home/user/Devel/stm32/libopencm3/lib/libopencm3_stm32f4.a(usart_common_all.o)
 .debug_macro   0x0000000000003b27      0x273 /home/user/Devel/stm32/libopencm3/lib/libopencm3_stm32f4.a(usart_common_all.o)
 .debug_macro   0x0000000000003d9a       0xa0 /home/user/Devel/stm32/libopencm3/lib/libopencm3_stm32f4.a(usart_common_all.o)
 .debug_macro   0x0000000000003e3a       0xea /home/user/Devel/stm32/libopencm3/lib/libopencm3_stm32f4.a(usart_common_f124.o)
 .debug_macro   0x0000000000003f24       0xc3 /home/user/Devel/stm32/libopencm3/lib/libopencm3_stm32f4.a(flash_common_f234.o)
 .debug_macro   0x0000000000003fe7       0xc3 /home/user/Devel/stm32/libopencm3/lib/libopencm3_stm32f4.a(flash_common_f24.o)
 .debug_macro   0x00000000000040aa      0x100 /home/user/Devel/stm32/libopencm3/lib/libopencm3_stm32f4.a(exti_common_all.o)
 .debug_macro   0x00000000000041aa      0x112 /home/user/Devel/stm32/libopencm3/lib/libopencm3_stm32f4.a(exti_common_all.o)
 .debug_macro   0x00000000000042bc       0x3a /home/user/Devel/stm32/libopencm3/lib/libopencm3_stm32f4.a(exti_common_all.o)
 .debug_macro   0x00000000000042f6       0xcf /home/user/Devel/stm32/libopencm3/lib/libopencm3_stm32f4.a(rcc_common_all.o)
 .debug_macro   0x00000000000043c5      0x154 /home/user/Devel/stm32/libopencm3/lib/libopencm3_stm32f4.a(usb.o)
 .debug_macro   0x0000000000004519       0x4c /home/user/Devel/stm32/libopencm3/lib/libopencm3_stm32f4.a(usb.o)
 .debug_macro   0x0000000000004565       0x8d /home/user/Devel/stm32/libopencm3/lib/libopencm3_stm32f4.a(usb.o)
 .debug_macro   0x00000000000045f2       0x35 /home/user/Devel/stm32/libopencm3/lib/libopencm3_stm32f4.a(usb.o)
 .debug_macro   0x0000000000004627       0x9c /home/user/Devel/stm32/libopencm3/lib/libopencm3_stm32f4.a(usb.o)
 .debug_macro   0x00000000000046c3       0x4a /home/user/Devel/stm32/libopencm3/lib/libopencm3_stm32f4.a(usb.o)
 .debug_macro   0x000000000000470d       0x52 /home/user/Devel/stm32/libopencm3/lib/libopencm3_stm32f4.a(usb.o)
 .debug_macro   0x000000000000475f       0x1f /home/user/Devel/stm32/libopencm3/lib/libopencm3_stm32f4.a(usb.o)
 .debug_macro   0x000000000000477e       0x43 /home/user/Devel/stm32/libopencm3/lib/libopencm3_stm32f4.a(usb.o)
 .debug_macro   0x00000000000047c1       0x20 /home/user/Devel/stm32/libopencm3/lib/libopencm3_stm32f4.a(usb.o)
 .debug_macro   0x00000000000047e1      0x187 /home/user/Devel/stm32/libopencm3/lib/libopencm3_stm32f4.a(usb.o)
 .debug_macro   0x0000000000004968      0x30d /home/user/Devel/stm32/libopencm3/lib/libopencm3_stm32f4.a(usb.o)
 .debug_macro   0x0000000000004c75       0x10 /home/user/Devel/stm32/libopencm3/lib/libopencm3_stm32f4.a(usb.o)
 .debug_macro   0x0000000000004c85       0x35 /home/user/Devel/stm32/libopencm3/lib/libopencm3_stm32f4.a(usb.o)
 .debug_macro   0x0000000000004cba      0x196 /home/user/Devel/stm32/libopencm3/lib/libopencm3_stm32f4.a(usb.o)
 .debug_macro   0x0000000000004e50       0x10 /home/user/Devel/stm32/libopencm3/lib/libopencm3_stm32f4.a(usb.o)
 .debug_macro   0x0000000000004e60       0x1c /home/user/Devel/stm32/libopencm3/lib/libopencm3_stm32f4.a(usb.o)
 .debug_macro   0x0000000000004e7c      0x154 /home/user/Devel/stm32/libopencm3/lib/libopencm3_stm32f4.a(usb_standard.o)
 .debug_macro   0x0000000000004fd0      0x161 /home/user/Devel/stm32/libopencm3/lib/libopencm3_stm32f4.a(usb_control.o)
 .debug_macro   0x0000000000005131       0x16 /home/user/Devel/stm32/libopencm3/lib/libopencm3_stm32f4.a(usb_control.o)
 .debug_macro   0x0000000000005147      0x10e /home/user/Devel/stm32/libopencm3/lib/libopencm3_stm32f4.a(usb_control.o)
 .debug_macro   0x0000000000005255       0x8d /home/user/Devel/stm32/libopencm3/lib/libopencm3_stm32f4.a(usb_control.o)
 .debug_macro   0x00000000000052e2       0x16 /home/user/Devel/stm32/libopencm3/lib/libopencm3_stm32f4.a(usb_control.o)
 .debug_macro   0x00000000000052f8       0x29 /home/user/Devel/stm32/libopencm3/lib/libopencm3_stm32f4.a(usb_control.o)
 .debug_macro   0x0000000000005321      0x1b9 /home/user/Devel/stm32/libopencm3/lib/libopencm3_stm32f4.a(usb_f107.o)
 .debug_macro   0x00000000000054da       0x3a /home/user/Devel/stm32/libopencm3/lib/libopencm3_stm32f4.a(usb_f107.o)
 .debug_macro   0x0000000000005514      0x8d7 /home/user/Devel/stm32/libopencm3/lib/libopencm3_stm32f4.a(usb_f107.o)
 .debug_macro   0x0000000000005deb      0x130 /home/user/Devel/stm32/libopencm3/lib/libopencm3_stm32f4.a(usb_f107.o)
 .debug_macro   0x0000000000005f1b      0x19c /home/user/Devel/stm32/libopencm3/lib/libopencm3_stm32f4.a(usb_f107.o)
 .debug_macro   0x00000000000060b7       0xd4 /home/user/Devel/stm32/libopencm3/lib/libopencm3_stm32f4.a(vector.o)
 .debug_macro   0x000000000000618b      0x3a1 /home/user/Devel/stm32/libopencm3/lib/libopencm3_stm32f4.a(vector.o)
 .debug_macro   0x000000000000652c       0x6a /home/user/Devel/stm32/libopencm3/lib/libopencm3_stm32f4.a(vector.o)
 .debug_macro   0x0000000000006596      0x22c /home/user/Devel/stm32/libopencm3/lib/libopencm3_stm32f4.a(vector.o)
 .debug_macro   0x00000000000067c2       0x93 /home/user/Devel/stm32/libopencm3/lib/libopencm3_stm32f4.a(systick.o)
 .debug_macro   0x0000000000006855       0x64 /home/user/Devel/stm32/libopencm3/lib/libopencm3_stm32f4.a(systick.o)
 .debug_macro   0x00000000000068b9       0xb4 /home/user/Devel/stm32/libopencm3/lib/libopencm3_stm32f4.a(nvic.o)
 .debug_macro   0x000000000000696d       0x64 /home/user/Devel/stm32/libopencm3/lib/libopencm3_stm32f4.a(nvic.o)
 .debug_macro   0x00000000000069d1      0x1b0 /home/user/Devel/stm32/libopencm3/lib/libopencm3_stm32f4.a(nvic.o)
 .debug_macro   0x0000000000006b81       0xb9 /home/user/Devel/stm32/libopencm3/lib/libopencm3_stm32f4.a(pwr.o)
 .debug_macro   0x0000000000006c3a      0x1b0 /home/user/Devel/stm32/libopencm3/lib/libopencm3_stm32f4.a(usb_fx07_common.o)
 .debug_macro   0x0000000000006dea      0x24f /home/user/Devel/stm32/libopencm3/lib/libopencm3_stm32f4.a(usb_fx07_common.o)

.stab           0x0000000000000000       0xcc
 .stab          0x0000000000000000       0x24 /home/user/Devel/stm32/gcc-arm-none-eabi-8-2018-q4-major/bin/../lib/gcc/arm-none-eabi/8.2.1/../../../../arm-none-eabi/lib/thumb/v7e-m+fp/hard/libnosys.a(close.o)
 .stab          0x0000000000000024       0x18 /home/user/Devel/stm32/gcc-arm-none-eabi-8-2018-q4-major/bin/../lib/gcc/arm-none-eabi/8.2.1/../../../../arm-none-eabi/lib/thumb/v7e-m+fp/hard/libnosys.a(fstat.o)
                                         0x24 (size before relaxing)
 .stab          0x000000000000003c       0x18 /home/user/Devel/stm32/gcc-arm-none-eabi-8-2018-q4-major/bin/../lib/gcc/arm-none-eabi/8.2.1/../../../../arm-none-eabi/lib/thumb/v7e-m+fp/hard/libnosys.a(getpid.o)
                                         0x24 (size before relaxing)
 .stab          0x0000000000000054       0x18 /home/user/Devel/stm32/gcc-arm-none-eabi-8-2018-q4-major/bin/../lib/gcc/arm-none-eabi/8.2.1/../../../../arm-none-eabi/lib/thumb/v7e-m+fp/hard/libnosys.a(isatty.o)
                                         0x24 (size before relaxing)
 .stab          0x000000000000006c       0x18 /home/user/Devel/stm32/gcc-arm-none-eabi-8-2018-q4-major/bin/../lib/gcc/arm-none-eabi/8.2.1/../../../../arm-none-eabi/lib/thumb/v7e-m+fp/hard/libnosys.a(kill.o)
                                         0x24 (size before relaxing)
 .stab          0x0000000000000084       0x18 /home/user/Devel/stm32/gcc-arm-none-eabi-8-2018-q4-major/bin/../lib/gcc/arm-none-eabi/8.2.1/../../../../arm-none-eabi/lib/thumb/v7e-m+fp/hard/libnosys.a(lseek.o)
                                         0x24 (size before relaxing)
 .stab          0x000000000000009c       0x18 /home/user/Devel/stm32/gcc-arm-none-eabi-8-2018-q4-major/bin/../lib/gcc/arm-none-eabi/8.2.1/../../../../arm-none-eabi/lib/thumb/v7e-m+fp/hard/libnosys.a(read.o)
                                         0x24 (size before relaxing)
 .stab          0x00000000000000b4       0x18 /home/user/Devel/stm32/gcc-arm-none-eabi-8-2018-q4-major/bin/../lib/gcc/arm-none-eabi/8.2.1/../../../../arm-none-eabi/lib/thumb/v7e-m+fp/hard/libnosys.a(write.o)
                                         0x24 (size before relaxing)

.stabstr        0x0000000000000000      0x1b9
 .stabstr       0x0000000000000000      0x1b9 /home/user/Devel/stm32/gcc-arm-none-eabi-8-2018-q4-major/bin/../lib/gcc/arm-none-eabi/8.2.1/../../../../arm-none-eabi/lib/thumb/v7e-m+fp/hard/libnosys.a(close.o)
